
/cygdrive/c/Airoha/AiroBlueSDK/AB1600_1_0_5_0/projects/Remote/output/remote.out:     file format elf32-nds32


Disassembly of section .text:

00090030 <spi_blocking_cb>:
   90030:	44 00 00 00 	movi $r0,#0
   90034:	3e 07 cc 0d 	sbi.gp $r0,[+#-13299]
   90038:	dd 9e       	ret5 $lp
   9003a:	92 00       	nop16

0009003c <mtd_set_power>:
   9003c:	96 00       	zeb33 $r0,$r0
   9003e:	e6 1e       	slti45 $r0,#30
   90040:	e8 03       	beqzs8 90046 <mtd_set_power+0xa>
   90042:	3e 07 c8 fc 	sbi.gp $r0,[+#-14084]
   90046:	dd 9e       	ret5 $lp

00090048 <mtd_RegRead>:
   90048:	3b ff fc bc 	smw.adm $sp,[$sp],$sp,#0x2    ! {$lp}
   9004c:	ef f4       	addi10.sp #-12
   9004e:	97 08       	zeb33 $r4,$r1
   90050:	44 1f ff 80 	movi $r1,#-128
   90054:	40 50 04 04 	or $r5,$r0,$r1
   90058:	80 62       	mov55 $r3,$r2
   9005a:	10 5f 80 07 	sbi $r5,[$sp+#0x7]
   9005e:	84 00       	movi55 $r0,#0
   90060:	84 a1       	movi55 $r5,#1
   90062:	50 1f 80 07 	addi $r1,$sp,#7
   90066:	84 41       	movi55 $r2,#1
   90068:	3e 57 cc 0d 	sbi.gp $r5,[+#-13299]
   9006c:	49 00 55 5f 	jal 9ab2a <DRV_SPI_WriteRead>
   90070:	2e 07 cc 0d 	lbi.gp $r0,[+#-13299]
   90074:	c8 fe       	bnez38 $r0,90070 <mtd_RegRead+0x28>
   90076:	ec 0c       	addi10.sp #12
   90078:	3b ff fc 84 	lmw.bim $sp,[$sp],$sp,#0x2    ! {$lp}
   9007c:	dd 9e       	ret5 $lp
   9007e:	92 00       	nop16

00090080 <mtd_RegWrite>:
   90080:	3b ff fc bc 	smw.adm $sp,[$sp],$sp,#0x2    ! {$lp}
   90084:	ef f4       	addi10.sp #-12
   90086:	b0 81       	addri36.sp $r2,#0x4
   90088:	ae 10       	sbi333 $r0,[$r2+#0x0]
   9008a:	ae 51       	sbi333 $r1,[$r2+#0x1]
   9008c:	84 00       	movi55 $r0,#0
   9008e:	80 22       	mov55 $r1,$r2
   90090:	84 a1       	movi55 $r5,#1
   90092:	84 42       	movi55 $r2,#2
   90094:	80 60       	mov55 $r3,$r0
   90096:	80 80       	mov55 $r4,$r0
   90098:	3e 57 cc 0d 	sbi.gp $r5,[+#-13299]
   9009c:	49 00 55 47 	jal 9ab2a <DRV_SPI_WriteRead>
   900a0:	2e 07 cc 0d 	lbi.gp $r0,[+#-13299]
   900a4:	c8 fe       	bnez38 $r0,900a0 <mtd_RegWrite+0x20>
   900a6:	ec 0c       	addi10.sp #12
   900a8:	3b ff fc 84 	lmw.bim $sp,[$sp],$sp,#0x2    ! {$lp}
   900ac:	dd 9e       	ret5 $lp
   900ae:	92 00       	nop16

000900b0 <mtd_SensorOff>:
   900b0:	3b ff fc bc 	smw.adm $sp,[$sp],$sp,#0x2    ! {$lp}
   900b4:	51 ff ff fc 	addi $sp,$sp,#-4
   900b8:	2e 07 c8 fc 	lbi.gp $r0,[+#-14084]
   900bc:	84 21       	movi55 $r1,#1
   900be:	40 00 80 0c 	sll $r0,$r1,$r0
   900c2:	84 20       	movi55 $r1,#0
   900c4:	49 00 4f 21 	jal 99f06 <DRV_Gpio_ValSet>
   900c8:	46 03 c0 00 	sethi $r0,#0x3c000
   900cc:	84 20       	movi55 $r1,#0
   900ce:	ec 04       	addi10.sp #4
   900d0:	3b ff fc 84 	lmw.bim $sp,[$sp],$sp,#0x2    ! {$lp}
   900d4:	48 00 53 9e 	j 9a810 <DRV_PinMux_SigSet>

000900d8 <mtd_IOinit>:
   900d8:	3a 6f 98 bc 	smw.adm $r6,[$sp],$r6,#0x2    ! {$r6, $lp}
   900dc:	51 ff ff f0 	addi $sp,$sp,#-16
   900e0:	2e 07 c8 fc 	lbi.gp $r0,[+#-14084]
   900e4:	84 c1       	movi55 $r6,#1
   900e6:	40 03 00 0c 	sll $r0,$r6,$r0
   900ea:	84 20       	movi55 $r1,#0
   900ec:	49 00 4f 0d 	jal 99f06 <DRV_Gpio_ValSet>
   900f0:	2e 07 c8 fc 	lbi.gp $r0,[+#-14084]
   900f4:	50 13 00 00 	addi $r1,$r6,#0
   900f8:	40 03 00 0c 	sll $r0,$r6,$r0
   900fc:	49 00 4e f4 	jal 99ee4 <DRV_Gpio_DirSet>
   90100:	46 03 c0 00 	sethi $r0,#0x3c000
   90104:	44 10 00 02 	movi $r1,#2
   90108:	49 00 4f 2f 	jal 99f66 <DRV_Gpio_PullSet>
   9010c:	46 30 07 a1 	sethi $r3,#0x7a1
   90110:	b0 81       	addri36.sp $r2,#0x4
   90112:	58 31 82 00 	ori $r3,$r3,#0x200
   90116:	f3 82       	swi37.sp $r3,[+#0x8]
   90118:	46 30 00 90 	sethi $r3,#0x90
   9011c:	58 31 80 30 	ori $r3,$r3,#0x30
   90120:	f3 83       	swi37.sp $r3,[+#0xc]
   90122:	fa 6c       	movpi45 $r3,#0x1c
   90124:	ae d0       	sbi333 $r3,[$r2+#0x0]
   90126:	80 22       	mov55 $r1,$r2
   90128:	84 00       	movi55 $r0,#0
   9012a:	49 00 55 9c 	jal 9ac62 <DRV_SPI_Init>
   9012e:	ec 10       	addi10.sp #16
   90130:	3a 6f 98 84 	lmw.bim $r6,[$sp],$r6,#0x2    ! {$r6, $lp}
   90134:	dd 9e       	ret5 $lp
   90136:	92 00       	nop16

00090138 <mtd_is_interrupt_issued>:
   90138:	3b ff fc bc 	smw.adm $sp,[$sp],$sp,#0x2    ! {$lp}
   9013c:	51 ff ff f4 	addi $sp,$sp,#-12
   90140:	44 5f ff ba 	movi $r5,#-70
   90144:	84 41       	movi55 $r2,#1
   90146:	10 5f 80 06 	sbi $r5,[$sp+#0x6]
   9014a:	84 00       	movi55 $r0,#0
   9014c:	84 a1       	movi55 $r5,#1
   9014e:	50 1f 80 06 	addi $r1,$sp,#6
   90152:	50 3f 80 07 	addi $r3,$sp,#7
   90156:	80 82       	mov55 $r4,$r2
   90158:	3e 57 cc 0d 	sbi.gp $r5,[+#-13299]
   9015c:	49 00 54 e7 	jal 9ab2a <DRV_SPI_WriteRead>
   90160:	2e 07 cc 0d 	lbi.gp $r0,[+#-13299]
   90164:	96 00       	zeb33 $r0,$r0
   90166:	c8 fd       	bnez38 $r0,90160 <mtd_is_interrupt_issued+0x28>
   90168:	00 1f 80 07 	lbi $r1,[$sp+#0x7]
   9016c:	54 10 80 e0 	andi $r1,$r1,#0xe0
   90170:	40 00 04 06 	slt $r0,$r0,$r1
   90174:	ec 0c       	addi10.sp #12
   90176:	3b ff fc 84 	lmw.bim $sp,[$sp],$sp,#0x2    ! {$lp}
   9017a:	dd 9e       	ret5 $lp

0009017c <mtd_exit_WOM_mode>:
   9017c:	3a 6f 9c bc 	smw.adm $r6,[$sp],$r7,#0x2    ! {$r6~$r7, $lp}
   90180:	51 ff ff f4 	addi $sp,$sp,#-12
   90184:	46 03 c0 00 	sethi $r0,#0x3c000
   90188:	84 21       	movi55 $r1,#1
   9018a:	49 00 52 a9 	jal 9a6dc <DRV_PinMux_GrpSet>
   9018e:	84 a1       	movi55 $r5,#1
   90190:	b1 81       	addri36.sp $r6,#0x4
   90192:	84 00       	movi55 $r0,#0
   90194:	3e 57 cc 0d 	sbi.gp $r5,[+#-13299]
   90198:	44 50 00 6b 	movi $r5,#107
   9019c:	af 70       	sbi333 $r5,[$r6+#0x0]
   9019e:	80 26       	mov55 $r1,$r6
   901a0:	84 a8       	movi55 $r5,#8
   901a2:	84 42       	movi55 $r2,#2
   901a4:	80 60       	mov55 $r3,$r0
   901a6:	80 80       	mov55 $r4,$r0
   901a8:	10 53 00 01 	sbi $r5,[$r6+#0x1]
   901ac:	49 00 54 bf 	jal 9ab2a <DRV_SPI_WriteRead>
   901b0:	2e 57 cc 0d 	lbi.gp $r5,[+#-13299]
   901b4:	97 68       	zeb33 $r5,$r5
   901b6:	cd fd       	bnez38 $r5,901b0 <mtd_exit_WOM_mode+0x34>
   901b8:	84 e1       	movi55 $r7,#1
   901ba:	3e 77 cc 0d 	sbi.gp $r7,[+#-13299]
   901be:	80 05       	mov55 $r0,$r5
   901c0:	44 70 00 6c 	movi $r7,#108
   901c4:	80 26       	mov55 $r1,$r6
   901c6:	84 42       	movi55 $r2,#2
   901c8:	80 65       	mov55 $r3,$r5
   901ca:	80 85       	mov55 $r4,$r5
   901cc:	af f0       	sbi333 $r7,[$r6+#0x0]
   901ce:	af 71       	sbi333 $r5,[$r6+#0x1]
   901d0:	49 00 54 ad 	jal 9ab2a <DRV_SPI_WriteRead>
   901d4:	2e 57 cc 0d 	lbi.gp $r5,[+#-13299]
   901d8:	97 68       	zeb33 $r5,$r5
   901da:	cd fd       	bnez38 $r5,901d4 <mtd_exit_WOM_mode+0x58>
   901dc:	84 e1       	movi55 $r7,#1
   901de:	3e 77 cc 0d 	sbi.gp $r7,[+#-13299]
   901e2:	80 05       	mov55 $r0,$r5
   901e4:	fa ed       	movpi45 $r7,#0x1d
   901e6:	80 26       	mov55 $r1,$r6
   901e8:	84 42       	movi55 $r2,#2
   901ea:	80 65       	mov55 $r3,$r5
   901ec:	80 85       	mov55 $r4,$r5
   901ee:	af f0       	sbi333 $r7,[$r6+#0x0]
   901f0:	10 53 00 01 	sbi $r5,[$r6+#0x1]
   901f4:	49 00 54 9b 	jal 9ab2a <DRV_SPI_WriteRead>
   901f8:	2e 57 cc 0d 	lbi.gp $r5,[+#-13299]
   901fc:	97 68       	zeb33 $r5,$r5
   901fe:	cd fd       	bnez38 $r5,901f8 <mtd_exit_WOM_mode+0x7c>
   90200:	84 e1       	movi55 $r7,#1
   90202:	3e 77 cc 0d 	sbi.gp $r7,[+#-13299]
   90206:	80 05       	mov55 $r0,$r5
   90208:	44 70 00 38 	movi $r7,#56
   9020c:	80 26       	mov55 $r1,$r6
   9020e:	84 42       	movi55 $r2,#2
   90210:	80 65       	mov55 $r3,$r5
   90212:	80 85       	mov55 $r4,$r5
   90214:	af f0       	sbi333 $r7,[$r6+#0x0]
   90216:	af 71       	sbi333 $r5,[$r6+#0x1]
   90218:	49 00 54 89 	jal 9ab2a <DRV_SPI_WriteRead>
   9021c:	2e 57 cc 0d 	lbi.gp $r5,[+#-13299]
   90220:	97 68       	zeb33 $r5,$r5
   90222:	cd fd       	bnez38 $r5,9021c <mtd_exit_WOM_mode+0xa0>
   90224:	84 e1       	movi55 $r7,#1
   90226:	3e 77 cc 0d 	sbi.gp $r7,[+#-13299]
   9022a:	80 05       	mov55 $r0,$r5
   9022c:	fa ef       	movpi45 $r7,#0x1f
   9022e:	80 26       	mov55 $r1,$r6
   90230:	84 42       	movi55 $r2,#2
   90232:	80 65       	mov55 $r3,$r5
   90234:	80 85       	mov55 $r4,$r5
   90236:	af f0       	sbi333 $r7,[$r6+#0x0]
   90238:	10 53 00 01 	sbi $r5,[$r6+#0x1]
   9023c:	49 00 54 77 	jal 9ab2a <DRV_SPI_WriteRead>
   90240:	2e 57 cc 0d 	lbi.gp $r5,[+#-13299]
   90244:	97 68       	zeb33 $r5,$r5
   90246:	cd fd       	bnez38 $r5,90240 <mtd_exit_WOM_mode+0xc4>
   90248:	84 e1       	movi55 $r7,#1
   9024a:	3e 77 cc 0d 	sbi.gp $r7,[+#-13299]
   9024e:	80 05       	mov55 $r0,$r5
   90250:	44 70 00 69 	movi $r7,#105
   90254:	80 26       	mov55 $r1,$r6
   90256:	84 42       	movi55 $r2,#2
   90258:	80 65       	mov55 $r3,$r5
   9025a:	80 85       	mov55 $r4,$r5
   9025c:	af f0       	sbi333 $r7,[$r6+#0x0]
   9025e:	af 71       	sbi333 $r5,[$r6+#0x1]
   90260:	49 00 54 65 	jal 9ab2a <DRV_SPI_WriteRead>
   90264:	2e 57 cc 0d 	lbi.gp $r5,[+#-13299]
   90268:	97 68       	zeb33 $r5,$r5
   9026a:	cd fd       	bnez38 $r5,90264 <mtd_exit_WOM_mode+0xe8>
   9026c:	84 e1       	movi55 $r7,#1
   9026e:	3e 77 cc 0d 	sbi.gp $r7,[+#-13299]
   90272:	80 05       	mov55 $r0,$r5
   90274:	fa ee       	movpi45 $r7,#0x1e
   90276:	80 26       	mov55 $r1,$r6
   90278:	84 42       	movi55 $r2,#2
   9027a:	80 65       	mov55 $r3,$r5
   9027c:	80 85       	mov55 $r4,$r5
   9027e:	af f0       	sbi333 $r7,[$r6+#0x0]
   90280:	10 53 00 01 	sbi $r5,[$r6+#0x1]
   90284:	49 00 54 53 	jal 9ab2a <DRV_SPI_WriteRead>
   90288:	2e 07 cc 0d 	lbi.gp $r0,[+#-13299]
   9028c:	c8 fe       	bnez38 $r0,90288 <mtd_exit_WOM_mode+0x10c>
   9028e:	ec 0c       	addi10.sp #12
   90290:	3a 6f 9c 84 	lmw.bim $r6,[$sp],$r7,#0x2    ! {$r6~$r7, $lp}
   90294:	dd 9e       	ret5 $lp
   90296:	92 00       	nop16

00090298 <mtd_enter_WOM_mode>:
   90298:	3a 6f 9c bc 	smw.adm $r6,[$sp],$r7,#0x2    ! {$r6~$r7, $lp}
   9029c:	ef f4       	addi10.sp #-12
   9029e:	84 a1       	movi55 $r5,#1
   902a0:	b1 81       	addri36.sp $r6,#0x4
   902a2:	97 c0       	zeb33 $r7,$r0
   902a4:	3e 57 cc 0d 	sbi.gp $r5,[+#-13299]
   902a8:	84 00       	movi55 $r0,#0
   902aa:	44 50 00 6b 	movi $r5,#107
   902ae:	af 70       	sbi333 $r5,[$r6+#0x0]
   902b0:	80 26       	mov55 $r1,$r6
   902b2:	84 a8       	movi55 $r5,#8
   902b4:	84 42       	movi55 $r2,#2
   902b6:	80 60       	mov55 $r3,$r0
   902b8:	80 80       	mov55 $r4,$r0
   902ba:	af 71       	sbi333 $r5,[$r6+#0x1]
   902bc:	49 00 54 37 	jal 9ab2a <DRV_SPI_WriteRead>
   902c0:	2e 07 cc 0d 	lbi.gp $r0,[+#-13299]
   902c4:	96 00       	zeb33 $r0,$r0
   902c6:	c8 fd       	bnez38 $r0,902c0 <mtd_enter_WOM_mode+0x28>
   902c8:	84 a1       	movi55 $r5,#1
   902ca:	3e 57 cc 0d 	sbi.gp $r5,[+#-13299]
   902ce:	44 50 00 6c 	movi $r5,#108
   902d2:	af 70       	sbi333 $r5,[$r6+#0x0]
   902d4:	80 26       	mov55 $r1,$r6
   902d6:	84 a7       	movi55 $r5,#7
   902d8:	84 42       	movi55 $r2,#2
   902da:	80 60       	mov55 $r3,$r0
   902dc:	80 80       	mov55 $r4,$r0
   902de:	af 71       	sbi333 $r5,[$r6+#0x1]
   902e0:	49 00 54 25 	jal 9ab2a <DRV_SPI_WriteRead>
   902e4:	2e 07 cc 0d 	lbi.gp $r0,[+#-13299]
   902e8:	96 00       	zeb33 $r0,$r0
   902ea:	c8 fd       	bnez38 $r0,902e4 <mtd_enter_WOM_mode+0x4c>
   902ec:	84 a1       	movi55 $r5,#1
   902ee:	3e 57 cc 0d 	sbi.gp $r5,[+#-13299]
   902f2:	fa ad       	movpi45 $r5,#0x1d
   902f4:	af 70       	sbi333 $r5,[$r6+#0x0]
   902f6:	80 26       	mov55 $r1,$r6
   902f8:	84 a8       	movi55 $r5,#8
   902fa:	84 42       	movi55 $r2,#2
   902fc:	80 60       	mov55 $r3,$r0
   902fe:	80 80       	mov55 $r4,$r0
   90300:	10 53 00 01 	sbi $r5,[$r6+#0x1]
   90304:	49 00 54 13 	jal 9ab2a <DRV_SPI_WriteRead>
   90308:	2e 07 cc 0d 	lbi.gp $r0,[+#-13299]
   9030c:	96 00       	zeb33 $r0,$r0
   9030e:	c8 fd       	bnez38 $r0,90308 <mtd_enter_WOM_mode+0x70>
   90310:	84 a1       	movi55 $r5,#1
   90312:	3e 57 cc 0d 	sbi.gp $r5,[+#-13299]
   90316:	44 50 00 38 	movi $r5,#56
   9031a:	af 70       	sbi333 $r5,[$r6+#0x0]
   9031c:	80 26       	mov55 $r1,$r6
   9031e:	44 5f ff e0 	movi $r5,#-32
   90322:	84 42       	movi55 $r2,#2
   90324:	80 60       	mov55 $r3,$r0
   90326:	80 80       	mov55 $r4,$r0
   90328:	10 53 00 01 	sbi $r5,[$r6+#0x1]
   9032c:	49 00 53 ff 	jal 9ab2a <DRV_SPI_WriteRead>
   90330:	2e 07 cc 0d 	lbi.gp $r0,[+#-13299]
   90334:	96 00       	zeb33 $r0,$r0
   90336:	c8 fd       	bnez38 $r0,90330 <mtd_enter_WOM_mode+0x98>
   90338:	84 a1       	movi55 $r5,#1
   9033a:	3e 57 cc 0d 	sbi.gp $r5,[+#-13299]
   9033e:	80 26       	mov55 $r1,$r6
   90340:	fa af       	movpi45 $r5,#0x1f
   90342:	84 42       	movi55 $r2,#2
   90344:	80 60       	mov55 $r3,$r0
   90346:	80 80       	mov55 $r4,$r0
   90348:	af 70       	sbi333 $r5,[$r6+#0x0]
   9034a:	af f1       	sbi333 $r7,[$r6+#0x1]
   9034c:	49 00 53 ef 	jal 9ab2a <DRV_SPI_WriteRead>
   90350:	2e 07 cc 0d 	lbi.gp $r0,[+#-13299]
   90354:	96 00       	zeb33 $r0,$r0
   90356:	c8 fd       	bnez38 $r0,90350 <mtd_enter_WOM_mode+0xb8>
   90358:	84 a1       	movi55 $r5,#1
   9035a:	3e 57 cc 0d 	sbi.gp $r5,[+#-13299]
   9035e:	44 50 00 69 	movi $r5,#105
   90362:	af 70       	sbi333 $r5,[$r6+#0x0]
   90364:	80 26       	mov55 $r1,$r6
   90366:	44 5f ff c0 	movi $r5,#-64
   9036a:	84 42       	movi55 $r2,#2
   9036c:	80 60       	mov55 $r3,$r0
   9036e:	80 80       	mov55 $r4,$r0
   90370:	10 53 00 01 	sbi $r5,[$r6+#0x1]
   90374:	49 00 53 db 	jal 9ab2a <DRV_SPI_WriteRead>
   90378:	2e 07 cc 0d 	lbi.gp $r0,[+#-13299]
   9037c:	96 00       	zeb33 $r0,$r0
   9037e:	c8 fd       	bnez38 $r0,90378 <mtd_enter_WOM_mode+0xe0>
   90380:	84 a1       	movi55 $r5,#1
   90382:	3e 57 cc 0d 	sbi.gp $r5,[+#-13299]
   90386:	fa ae       	movpi45 $r5,#0x1e
   90388:	af 70       	sbi333 $r5,[$r6+#0x0]
   9038a:	80 26       	mov55 $r1,$r6
   9038c:	84 a4       	movi55 $r5,#4
   9038e:	84 42       	movi55 $r2,#2
   90390:	80 60       	mov55 $r3,$r0
   90392:	80 80       	mov55 $r4,$r0
   90394:	10 53 00 01 	sbi $r5,[$r6+#0x1]
   90398:	49 00 53 c9 	jal 9ab2a <DRV_SPI_WriteRead>
   9039c:	2e 07 cc 0d 	lbi.gp $r0,[+#-13299]
   903a0:	96 00       	zeb33 $r0,$r0
   903a2:	c8 fd       	bnez38 $r0,9039c <mtd_enter_WOM_mode+0x104>
   903a4:	84 a1       	movi55 $r5,#1
   903a6:	3e 57 cc 0d 	sbi.gp $r5,[+#-13299]
   903aa:	fa a9       	movpi45 $r5,#0x19
   903ac:	af 70       	sbi333 $r5,[$r6+#0x0]
   903ae:	80 26       	mov55 $r1,$r6
   903b0:	84 bf       	movi55 $r5,#-1
   903b2:	84 42       	movi55 $r2,#2
   903b4:	80 60       	mov55 $r3,$r0
   903b6:	80 80       	mov55 $r4,$r0
   903b8:	10 53 00 01 	sbi $r5,[$r6+#0x1]
   903bc:	49 00 53 b7 	jal 9ab2a <DRV_SPI_WriteRead>
   903c0:	2e 07 cc 0d 	lbi.gp $r0,[+#-13299]
   903c4:	96 00       	zeb33 $r0,$r0
   903c6:	c8 fd       	bnez38 $r0,903c0 <mtd_enter_WOM_mode+0x128>
   903c8:	84 a1       	movi55 $r5,#1
   903ca:	3e 57 cc 0d 	sbi.gp $r5,[+#-13299]
   903ce:	44 50 00 6b 	movi $r5,#107
   903d2:	af 70       	sbi333 $r5,[$r6+#0x0]
   903d4:	80 26       	mov55 $r1,$r6
   903d6:	fa b8       	movpi45 $r5,#0x28
   903d8:	84 42       	movi55 $r2,#2
   903da:	80 60       	mov55 $r3,$r0
   903dc:	80 80       	mov55 $r4,$r0
   903de:	af 71       	sbi333 $r5,[$r6+#0x1]
   903e0:	49 00 53 a5 	jal 9ab2a <DRV_SPI_WriteRead>
   903e4:	2e 17 cc 0d 	lbi.gp $r1,[+#-13299]
   903e8:	96 48       	zeb33 $r1,$r1
   903ea:	c9 fd       	bnez38 $r1,903e4 <mtd_enter_WOM_mode+0x14c>
   903ec:	46 03 c0 00 	sethi $r0,#0x3c000
   903f0:	49 00 52 10 	jal 9a810 <DRV_PinMux_SigSet>
   903f4:	ec 0c       	addi10.sp #12
   903f6:	3a 6f 9c 84 	lmw.bim $r6,[$sp],$r7,#0x2    ! {$r6~$r7, $lp}
   903fa:	dd 9e       	ret5 $lp

000903fc <mtd_SensorOn>:
   903fc:	3a 6f 9c bc 	smw.adm $r6,[$sp],$r7,#0x2    ! {$r6~$r7, $lp}
   90400:	51 ff ff f4 	addi $sp,$sp,#-12
   90404:	2e 07 c8 fc 	lbi.gp $r0,[+#-14084]
   90408:	84 e1       	movi55 $r7,#1
   9040a:	40 03 80 0c 	sll $r0,$r7,$r0
   9040e:	80 27       	mov55 $r1,$r7
   90410:	49 00 4d 7b 	jal 99f06 <DRV_Gpio_ValSet>
   90414:	46 03 c0 00 	sethi $r0,#0x3c000
   90418:	50 13 80 00 	addi $r1,$r7,#0
   9041c:	49 00 51 60 	jal 9a6dc <DRV_PinMux_GrpSet>
   90420:	44 00 00 32 	movi $r0,#50
   90424:	49 ff 82 43 	jal 808aa <OS_delay_ms>
   90428:	b1 81       	addri36.sp $r6,#0x4
   9042a:	84 00       	movi55 $r0,#0
   9042c:	44 50 00 6b 	movi $r5,#107
   90430:	af 70       	sbi333 $r5,[$r6+#0x0]
   90432:	80 26       	mov55 $r1,$r6
   90434:	84 a8       	movi55 $r5,#8
   90436:	84 42       	movi55 $r2,#2
   90438:	80 60       	mov55 $r3,$r0
   9043a:	80 80       	mov55 $r4,$r0
   9043c:	3e 77 cc 0d 	sbi.gp $r7,[+#-13299]
   90440:	10 53 00 01 	sbi $r5,[$r6+#0x1]
   90444:	49 00 53 73 	jal 9ab2a <DRV_SPI_WriteRead>
   90448:	2e 77 cc 0d 	lbi.gp $r7,[+#-13299]
   9044c:	97 f8       	zeb33 $r7,$r7
   9044e:	cf fd       	bnez38 $r7,90448 <mtd_SensorOn+0x4c>
   90450:	84 0f       	movi55 $r0,#15
   90452:	49 ff 82 2c 	jal 808aa <OS_delay_ms>
   90456:	84 a1       	movi55 $r5,#1
   90458:	3e 57 cc 0d 	sbi.gp $r5,[+#-13299]
   9045c:	fa ab       	movpi45 $r5,#0x1b
   9045e:	af 70       	sbi333 $r5,[$r6+#0x0]
   90460:	80 07       	mov55 $r0,$r7
   90462:	fa a8       	movpi45 $r5,#0x18
   90464:	80 26       	mov55 $r1,$r6
   90466:	84 42       	movi55 $r2,#2
   90468:	80 67       	mov55 $r3,$r7
   9046a:	80 87       	mov55 $r4,$r7
   9046c:	10 53 00 01 	sbi $r5,[$r6+#0x1]
   90470:	49 00 53 5d 	jal 9ab2a <DRV_SPI_WriteRead>
   90474:	2e 07 cc 0d 	lbi.gp $r0,[+#-13299]
   90478:	96 00       	zeb33 $r0,$r0
   9047a:	c8 fd       	bnez38 $r0,90474 <mtd_SensorOn+0x78>
   9047c:	84 a1       	movi55 $r5,#1
   9047e:	3e 57 cc 0d 	sbi.gp $r5,[+#-13299]
   90482:	fa ac       	movpi45 $r5,#0x1c
   90484:	af 70       	sbi333 $r5,[$r6+#0x0]
   90486:	80 26       	mov55 $r1,$r6
   90488:	fa a0       	movpi45 $r5,#0x10
   9048a:	84 42       	movi55 $r2,#2
   9048c:	80 60       	mov55 $r3,$r0
   9048e:	80 80       	mov55 $r4,$r0
   90490:	10 53 00 01 	sbi $r5,[$r6+#0x1]
   90494:	49 00 53 4b 	jal 9ab2a <DRV_SPI_WriteRead>
   90498:	2e 07 cc 0d 	lbi.gp $r0,[+#-13299]
   9049c:	c8 fe       	bnez38 $r0,90498 <mtd_SensorOn+0x9c>
   9049e:	ec 0c       	addi10.sp #12
   904a0:	3a 6f 9c 84 	lmw.bim $r6,[$sp],$r7,#0x2    ! {$r6~$r7, $lp}
   904a4:	dd 9e       	ret5 $lp
   904a6:	92 00       	nop16

000904a8 <adpcm_encode_init>:
   904a8:	3b ff fc bc 	smw.adm $sp,[$sp],$sp,#0x2    ! {$lp}
   904ac:	51 ff ff fc 	addi $sp,$sp,#-4
   904b0:	3e 0f cc 10 	addi.gp $r0,#-13296
   904b4:	49 00 01 8a 	jal 907c8 <g726_init_state>
   904b8:	3e 0f c9 44 	addi.gp $r0,#-14012
   904bc:	50 20 00 a0 	addi $r2,$r0,#160
   904c0:	84 20       	movi55 $r1,#0
   904c2:	aa 41       	swi333.bi $r1,[$r0],#0x4
   904c4:	4c 01 7f ff 	bne $r0,$r2,904c2 <adpcm_encode_init+0x1a>
   904c8:	fa 16       	movpi45 $r0,#0x26
   904ca:	3c 0b eb 4c 	shi.gp $r0,[+#-10600]
   904ce:	ec 04       	addi10.sp #4
   904d0:	3b ff fc 84 	lmw.bim $sp,[$sp],$sp,#0x2    ! {$lp}
   904d4:	dd 9e       	ret5 $lp
   904d6:	92 00       	nop16

000904d8 <g726_32_encoder>:
   904d8:	3a 6f aa bc 	smw.adm $r6,[$sp],$r10,#0xa    ! {$r6~$r10, $fp, $lp}
   904dc:	ef f4       	addi10.sp #-12
   904de:	83 80       	mov55 $fp,$r0
   904e0:	80 01       	mov55 $r0,$r1
   904e2:	80 e1       	mov55 $r7,$r1
   904e4:	80 c2       	mov55 $r6,$r2
   904e6:	49 00 06 ef 	jal 912c4 <predictor_zero>
   904ea:	81 40       	mov55 $r10,$r0
   904ec:	50 03 80 00 	addi $r0,$r7,#0
   904f0:	49 00 0a 96 	jal 91a1c <predictor_pole>
   904f4:	40 90 28 00 	add $r9,$r0,$r10
   904f8:	80 07       	mov55 $r0,$r7
   904fa:	49 00 01 97 	jal 90828 <step_size>
   904fe:	81 00       	mov55 $r8,$r0
   90500:	40 94 84 0a 	srai $r9,$r9,#1
   90504:	40 0e 18 0e 	sra $r0,$fp,$r6
   90508:	80 28       	mov55 $r1,$r8
   9050a:	3e 2f c2 34 	addi.gp $r2,#-15820
   9050e:	84 67       	movi55 $r3,#7
   90510:	8a 09       	sub45 $r0,$r9
   90512:	49 00 01 a5 	jal 9085c <quantize>
   90516:	80 c0       	mov55 $r6,$r0
   90518:	46 00 00 a7 	sethi $r0,#0xa7
   9051c:	58 00 02 5c 	ori $r0,$r0,#0x25c
   90520:	38 10 19 11 	lhs $r1,[$r0+($r6<<#0x1)]
   90524:	80 48       	mov55 $r2,$r8
   90526:	54 03 00 08 	andi $r0,$r6,#0x8
   9052a:	49 00 02 2d 	jal 90984 <reconstruct>
   9052e:	80 80       	mov55 $r4,$r0
   90530:	4e 04 00 08 	bgez $r0,90540 <g726_32_encoder+0x68>
   90534:	54 50 3f ff 	andi $r5,$r0,#0x3fff
   90538:	40 54 94 01 	sub $r5,$r9,$r5
   9053c:	48 00 00 04 	j 90544 <g726_32_encoder+0x6c>
   90540:	40 54 80 00 	add $r5,$r9,$r0
   90544:	46 00 00 a7 	sethi $r0,#0xa7
   90548:	58 00 02 7c 	ori $r0,$r0,#0x27c
   9054c:	38 20 19 11 	lhs $r2,[$r0+($r6<<#0x1)]
   90550:	40 a5 04 0a 	srai $r10,$r10,#1
   90554:	46 00 00 a7 	sethi $r0,#0xa7
   90558:	58 00 02 9c 	ori $r0,$r0,#0x29c
   9055c:	38 30 19 11 	lhs $r3,[$r0+($r6<<#0x1)]
   90560:	40 95 24 01 	sub $r9,$r10,$r9
   90564:	89 25       	add45 $r9,$r5
   90566:	80 28       	mov55 $r1,$r8
   90568:	94 95       	slli333 $r2,$r2,#5
   9056a:	84 04       	movi55 $r0,#4
   9056c:	b7 3f       	swi450 $r9,[$sp]
   9056e:	f7 81       	swi37.sp $r7,[+#0x4]
   90570:	49 00 02 28 	jal 909c0 <update>
   90574:	80 06       	mov55 $r0,$r6
   90576:	ec 0c       	addi10.sp #12
   90578:	3a 6f aa 84 	lmw.bim $r6,[$sp],$r10,#0xa    ! {$r6~$r10, $fp, $lp}
   9057c:	dd 9e       	ret5 $lp
   9057e:	92 00       	nop16

00090580 <T.34>:
   90580:	3a 6f a8 bc 	smw.adm $r6,[$sp],$r10,#0x2    ! {$r6~$r10, $lp}
   90584:	ef f8       	addi10.sp #-8
   90586:	81 40       	mov55 $r10,$r0
   90588:	3e 0f cc 10 	addi.gp $r0,#-13296
   9058c:	80 c1       	mov55 $r6,$r1
   9058e:	49 00 06 9b 	jal 912c4 <predictor_zero>
   90592:	81 20       	mov55 $r9,$r0
   90594:	3e 0f cc 10 	addi.gp $r0,#-13296
   90598:	49 00 0a 42 	jal 91a1c <predictor_pole>
   9059c:	40 80 24 00 	add $r8,$r0,$r9
   905a0:	3e 0f cc 10 	addi.gp $r0,#-13296
   905a4:	49 00 01 42 	jal 90828 <step_size>
   905a8:	80 e0       	mov55 $r7,$r0
   905aa:	91 01       	srai45 $r8,#1
   905ac:	40 05 18 0e 	sra $r0,$r10,$r6
   905b0:	80 27       	mov55 $r1,$r7
   905b2:	3e 2f c2 34 	addi.gp $r2,#-15820
   905b6:	84 67       	movi55 $r3,#7
   905b8:	8a 08       	sub45 $r0,$r8
   905ba:	49 00 01 51 	jal 9085c <quantize>
   905be:	80 c0       	mov55 $r6,$r0
   905c0:	46 00 00 a7 	sethi $r0,#0xa7
   905c4:	58 00 02 5c 	ori $r0,$r0,#0x25c
   905c8:	38 10 19 11 	lhs $r1,[$r0+($r6<<#0x1)]
   905cc:	80 47       	mov55 $r2,$r7
   905ce:	54 03 00 08 	andi $r0,$r6,#0x8
   905d2:	49 00 01 d9 	jal 90984 <reconstruct>
   905d6:	80 80       	mov55 $r4,$r0
   905d8:	4e 04 00 08 	bgez $r0,905e8 <T.34+0x68>
   905dc:	54 50 3f ff 	andi $r5,$r0,#0x3fff
   905e0:	40 54 14 01 	sub $r5,$r8,$r5
   905e4:	48 00 00 04 	j 905ec <T.34+0x6c>
   905e8:	40 54 00 00 	add $r5,$r8,$r0
   905ec:	46 00 00 a7 	sethi $r0,#0xa7
   905f0:	58 00 02 7c 	ori $r0,$r0,#0x27c
   905f4:	38 20 19 11 	lhs $r2,[$r0+($r6<<#0x1)]
   905f8:	40 94 84 0a 	srai $r9,$r9,#1
   905fc:	46 00 00 a7 	sethi $r0,#0xa7
   90600:	58 00 02 9c 	ori $r0,$r0,#0x29c
   90604:	38 30 19 11 	lhs $r3,[$r0+($r6<<#0x1)]
   90608:	40 84 a0 01 	sub $r8,$r9,$r8
   9060c:	89 05       	add45 $r8,$r5
   9060e:	80 27       	mov55 $r1,$r7
   90610:	94 95       	slli333 $r2,$r2,#5
   90612:	84 04       	movi55 $r0,#4
   90614:	3e 7f cc 10 	addi.gp $r7,#-13296
   90618:	b7 1f       	swi450 $r8,[$sp]
   9061a:	f7 81       	swi37.sp $r7,[+#0x4]
   9061c:	49 00 01 d2 	jal 909c0 <update>
   90620:	80 06       	mov55 $r0,$r6
   90622:	ec 08       	addi10.sp #8
   90624:	3a 6f a8 84 	lmw.bim $r6,[$sp],$r10,#0x2    ! {$r6~$r10, $lp}
   90628:	dd 9e       	ret5 $lp
   9062a:	92 00       	nop16

0009062c <adpcm_encode_proc>:
   9062c:	3a 6f aa bc 	smw.adm $r6,[$sp],$r10,#0xa    ! {$r6~$r10, $fp, $lp}
   90630:	ef fc       	addi10.sp #-4
   90632:	81 42       	mov55 $r10,$r2
   90634:	83 81       	mov55 $fp,$r1
   90636:	4e 26 00 04 	bgtz $r2,9063e <adpcm_encode_proc+0x12>
   9063a:	84 00       	movi55 $r0,#0
   9063c:	d5 1f       	j8 9067a <adpcm_encode_proc+0x4e>
   9063e:	80 e0       	mov55 $r7,$r0
   90640:	44 60 00 00 	movi $r6,#0
   90644:	22 93 80 01 	lhsi $r9,[$r7+#0x2]
   90648:	2a 03 80 02 	lhsi.bi $r0,[$r7],#0x4
   9064c:	44 10 00 02 	movi $r1,#2
   90650:	49 ff ff 98 	jal 90580 <T.34>
   90654:	54 80 00 ff 	andi $r8,$r0,#0xff
   90658:	84 22       	movi55 $r1,#2
   9065a:	80 09       	mov55 $r0,$r9
   9065c:	49 ff ff 92 	jal 90580 <T.34>
   90660:	94 04       	slli333 $r0,$r0,#4
   90662:	40 04 00 04 	or $r0,$r8,$r0
   90666:	38 0e 18 08 	sb $r0,[$fp+($r6<<#0x0)]
   9066a:	9d b1       	addi333 $r6,$r6,#1
   9066c:	98 36       	add333 $r0,$r6,$r6
   9066e:	e0 0a       	slts45 $r0,$r10
   90670:	e9 ea       	bnezs8 90644 <adpcm_encode_proc+0x18>
   90672:	50 05 7f ff 	addi $r0,$r10,#-1
   90676:	92 01       	srli45 $r0,#1
   90678:	9c 01       	addi333 $r0,$r0,#1
   9067a:	ec 04       	addi10.sp #4
   9067c:	3a 6f aa 84 	lmw.bim $r6,[$sp],$r10,#0xa    ! {$r6~$r10, $fp, $lp}
   90680:	dd 9e       	ret5 $lp
   90682:	92 00       	nop16

00090684 <adpcm_encode_proc_halfrate>:
   90684:	3a 6f aa bc 	smw.adm $r6,[$sp],$r10,#0xa    ! {$r6~$r10, $fp, $lp}
   90688:	ef ec       	addi10.sp #-20
   9068a:	f2 83       	swi37.sp $r2,[+#0xc]
   9068c:	4e 26 00 06 	bgtz $r2,90698 <adpcm_encode_proc_halfrate+0x14>
   90690:	44 00 00 00 	movi $r0,#0
   90694:	48 00 00 95 	j 907be <adpcm_encode_proc_halfrate+0x13a>
   90698:	81 20       	mov55 $r9,$r0
   9069a:	84 00       	movi55 $r0,#0
   9069c:	f1 81       	swi37.sp $r1,[+#0x4]
   9069e:	b6 1f       	swi450 $r0,[$sp]
   906a0:	3f cf c9 44 	addi.gp $fp,#-14012
   906a4:	46 a0 00 a7 	sethi $r10,#0xa7
   906a8:	58 a5 02 34 	ori $r10,$r10,#0x234
   906ac:	3c 77 eb 4c 	lhsi.gp $r7,[+#-10600]
   906b0:	22 14 80 01 	lhsi $r1,[$r9+#0x2]
   906b4:	22 24 80 00 	lhsi $r2,[$r9+#0x0]
   906b8:	90 22       	srai45 $r1,#2
   906ba:	50 43 80 28 	addi $r4,$r7,#40
   906be:	38 1e 11 09 	sh $r1,[$fp+($r4<<#0x1)]
   906c2:	90 42       	srai45 $r2,#2
   906c4:	38 1e 1d 09 	sh $r1,[$fp+($r7<<#0x1)]
   906c8:	50 33 80 29 	addi $r3,$r7,#41
   906cc:	9c 39       	addi333 $r0,$r7,#1
   906ce:	99 bf       	add333 $r6,$r7,$r7
   906d0:	3e 1f c9 44 	addi.gp $r1,#-14012
   906d4:	38 2e 0d 09 	sh $r2,[$fp+($r3<<#0x1)]
   906d8:	99 b1       	add333 $r6,$r6,$r1
   906da:	84 60       	movi55 $r3,#0
   906dc:	38 2e 01 09 	sh $r2,[$fp+($r0<<#0x1)]
   906e0:	50 53 00 4e 	addi $r5,$r6,#78
   906e4:	50 41 80 00 	addi $r4,$r3,#0
   906e8:	38 03 0c 11 	lhs $r0,[$r6+($r3<<#0x0)]
   906ec:	2a 12 ff ff 	lhsi.bi $r1,[$r5],#-0x2
   906f0:	38 25 0c 11 	lhs $r2,[$r10+($r3<<#0x0)]
   906f4:	98 08       	add333 $r0,$r1,$r0
   906f6:	9c da       	addi333 $r3,$r3,#2
   906f8:	42 40 08 73 	maddr32 $r4,$r0,$r2
   906fc:	5a 38 28 f6 	bnec $r3,#40,906e8 <adpcm_encode_proc_halfrate+0x64>
   90700:	9e 3a       	subi333 $r0,$r7,#2
   90702:	96 03       	seh33 $r0,$r0
   90704:	3c 0b eb 4c 	shi.gp $r0,[+#-10600]
   90708:	4e 04 00 06 	bgez $r0,90714 <adpcm_encode_proc_halfrate+0x90>
   9070c:	44 20 00 26 	movi $r2,#38
   90710:	3c 2b eb 4c 	shi.gp $r2,[+#-10600]
   90714:	40 02 3c 0a 	srai $r0,$r4,#15
   90718:	96 03       	seh33 $r0,$r0
   9071a:	84 20       	movi55 $r1,#0
   9071c:	49 ff ff 32 	jal 90580 <T.34>
   90720:	22 44 80 02 	lhsi $r4,[$r9+#0x4]
   90724:	3c 87 eb 4c 	lhsi.gp $r8,[+#-10600]
   90728:	22 34 80 03 	lhsi $r3,[$r9+#0x6]
   9072c:	90 82       	srai45 $r4,#2
   9072e:	90 62       	srai45 $r3,#2
   90730:	50 64 00 29 	addi $r6,$r8,#41
   90734:	50 54 00 01 	addi $r5,$r8,#1
   90738:	14 0f 80 02 	swi $r0,[$sp+#0x8]
   9073c:	50 24 00 28 	addi $r2,$r8,#40
   90740:	40 74 20 00 	add $r7,$r8,$r8
   90744:	3e 0f c9 44 	addi.gp $r0,#-14012
   90748:	38 3e 09 09 	sh $r3,[$fp+($r2<<#0x1)]
   9074c:	40 73 80 00 	add $r7,$r7,$r0
   90750:	38 3e 21 09 	sh $r3,[$fp+($r8<<#0x1)]
   90754:	38 4e 19 09 	sh $r4,[$fp+($r6<<#0x1)]
   90758:	38 4e 15 09 	sh $r4,[$fp+($r5<<#0x1)]
   9075c:	84 80       	movi55 $r4,#0
   9075e:	50 63 80 4e 	addi $r6,$r7,#78
   90762:	80 a4       	mov55 $r5,$r4
   90764:	38 23 90 11 	lhs $r2,[$r7+($r4<<#0x0)]
   90768:	2a 03 7f ff 	lhsi.bi $r0,[$r6],#-0x2
   9076c:	38 15 10 11 	lhs $r1,[$r10+($r4<<#0x0)]
   90770:	98 02       	add333 $r0,$r0,$r2
   90772:	9d 22       	addi333 $r4,$r4,#2
   90774:	42 50 04 73 	maddr32 $r5,$r0,$r1
   90778:	5a 48 28 f6 	bnec $r4,#40,90764 <adpcm_encode_proc_halfrate+0xe0>
   9077c:	50 24 7f fe 	addi $r2,$r8,#-2
   90780:	96 53       	seh33 $r1,$r2
   90782:	3c 1b eb 4c 	shi.gp $r1,[+#-10600]
   90786:	4e 14 00 05 	bgez $r1,90790 <adpcm_encode_proc_halfrate+0x10c>
   9078a:	fa 36       	movpi45 $r1,#0x26
   9078c:	3c 1b eb 4c 	shi.gp $r1,[+#-10600]
   90790:	90 af       	srai45 $r5,#15
   90792:	84 20       	movi55 $r1,#0
   90794:	96 2b       	seh33 $r0,$r5
   90796:	49 ff fe f5 	jal 90580 <T.34>
   9079a:	f2 02       	lwi37.sp $r2,[+#0x8]
   9079c:	94 44       	slli333 $r1,$r0,#4
   9079e:	b4 1f       	lwi450 $r0,[$sp]
   907a0:	fe 57       	or33 $r1,$r2
   907a2:	f2 01       	lwi37.sp $r2,[+#0x4]
   907a4:	9c 04       	addi333 $r0,$r0,#4
   907a6:	b6 1f       	swi450 $r0,[$sp]
   907a8:	18 11 00 01 	sbi.bi $r1,[$r2],#0x1
   907ac:	8d 28       	addi45 $r9,#8
   907ae:	f1 03       	lwi37.sp $r1,[+#0xc]
   907b0:	f2 81       	swi37.sp $r2,[+#0x4]
   907b2:	e0 01       	slts45 $r0,$r1
   907b4:	4e f3 ff 7c 	bnez $r15,906ac <adpcm_encode_proc_halfrate+0x28>
   907b8:	9e 09       	subi333 $r0,$r1,#1
   907ba:	92 02       	srli45 $r0,#2
   907bc:	9c 01       	addi333 $r0,$r0,#1
   907be:	ec 14       	addi10.sp #20
   907c0:	3a 6f aa 84 	lmw.bim $r6,[$sp],$r10,#0xa    ! {$r6~$r10, $fp, $lp}
   907c4:	dd 9e       	ret5 $lp
   907c6:	92 00       	nop16

000907c8 <g726_init_state>:
   907c8:	44 30 88 00 	movi $r3,#34816
   907cc:	84 20       	movi55 $r1,#0
   907ce:	fa 50       	movpi45 $r2,#0x20
   907d0:	b6 60       	swi450 $r3,[$r0]
   907d2:	44 30 02 20 	movi $r3,#544
   907d6:	14 10 00 14 	swi $r1,[$r0+#0x50]
   907da:	a8 c1       	swi333 $r3,[$r0+#0x4]
   907dc:	12 20 00 23 	shi $r2,[$r0+#0x46]
   907e0:	a8 42       	swi333 $r1,[$r0+#0x8]
   907e2:	a8 43       	swi333 $r1,[$r0+#0xc]
   907e4:	a8 44       	swi333 $r1,[$r0+#0x10]
   907e6:	a8 45       	swi333 $r1,[$r0+#0x14]
   907e8:	14 10 00 0d 	swi $r1,[$r0+#0x34]
   907ec:	14 20 00 12 	swi $r2,[$r0+#0x48]
   907f0:	a8 46       	swi333 $r1,[$r0+#0x18]
   907f2:	14 10 00 0e 	swi $r1,[$r0+#0x38]
   907f6:	14 20 00 13 	swi $r2,[$r0+#0x4c]
   907fa:	a8 47       	swi333 $r1,[$r0+#0x1c]
   907fc:	12 20 00 1e 	shi $r2,[$r0+#0x3c]
   90800:	14 10 00 08 	swi $r1,[$r0+#0x20]
   90804:	12 20 00 1f 	shi $r2,[$r0+#0x3e]
   90808:	14 10 00 09 	swi $r1,[$r0+#0x24]
   9080c:	12 20 00 20 	shi $r2,[$r0+#0x40]
   90810:	14 10 00 0a 	swi $r1,[$r0+#0x28]
   90814:	12 20 00 21 	shi $r2,[$r0+#0x42]
   90818:	14 10 00 0b 	swi $r1,[$r0+#0x2c]
   9081c:	12 20 00 22 	shi $r2,[$r0+#0x44]
   90820:	14 10 00 0c 	swi $r1,[$r0+#0x30]
   90824:	dd 9e       	ret5 $lp
   90826:	92 00       	nop16

00090828 <step_size>:
   90828:	a0 84       	lwi333 $r2,[$r0+#0x10]
   9082a:	5e f1 01 00 	sltsi $r15,$r2,#256
   9082e:	e9 03       	bnezs8 90834 <step_size+0xc>
   90830:	a0 01       	lwi333 $r0,[$r0+#0x4]
   90832:	d5 13       	j8 90858 <step_size+0x30>
   90834:	b4 60       	lwi450 $r3,[$r0]
   90836:	a0 41       	lwi333 $r1,[$r0+#0x4]
   90838:	40 01 98 0a 	srai $r0,$r3,#6
   9083c:	9a 48       	sub333 $r1,$r1,$r0
   9083e:	90 42       	srai45 $r2,#2
   90840:	4e 17 00 06 	blez $r1,9084c <step_size+0x24>
   90844:	fe 8c       	mul33 $r2,$r1
   90846:	90 46       	srai45 $r2,#6
   90848:	98 02       	add333 $r0,$r0,$r2
   9084a:	d5 07       	j8 90858 <step_size+0x30>
   9084c:	c1 06       	beqz38 $r1,90858 <step_size+0x30>
   9084e:	fe 54       	mul33 $r1,$r2
   90850:	50 10 80 3f 	addi $r1,$r1,#63
   90854:	90 26       	srai45 $r1,#6
   90856:	98 01       	add333 $r0,$r0,$r1
   90858:	dd 9e       	ret5 $lp
   9085a:	92 00       	nop16

0009085c <quantize>:
   9085c:	3a 6f 9c 3c 	smw.adm $r6,[$sp],$r7,#0x0    ! {$r6~$r7}
   90860:	80 c0       	mov55 $r6,$r0
   90862:	4e 04 00 03 	bgez $r0,90868 <quantize+0xc>
   90866:	fe 02       	neg33 $r0,$r0
   90868:	3c 57 e1 22 	lhsi.gp $r5,[+#-15804]
   9086c:	40 40 04 0a 	srai $r4,$r0,#1
   90870:	e0 85       	slts45 $r4,$r5
   90872:	e8 05       	beqzs8 9087c <quantize+0x20>
   90874:	44 50 00 00 	movi $r5,#0
   90878:	48 00 00 5c 	j 90930 <quantize+0xd4>
   9087c:	3c 57 e1 23 	lhsi.gp $r5,[+#-15802]
   90880:	e0 85       	slts45 $r4,$r5
   90882:	e8 05       	beqzs8 9088c <quantize+0x30>
   90884:	44 50 00 01 	movi $r5,#1
   90888:	48 00 00 54 	j 90930 <quantize+0xd4>
   9088c:	3c 57 e1 24 	lhsi.gp $r5,[+#-15800]
   90890:	e0 85       	slts45 $r4,$r5
   90892:	e8 03       	beqzs8 90898 <quantize+0x3c>
   90894:	84 a2       	movi55 $r5,#2
   90896:	d5 4d       	j8 90930 <quantize+0xd4>
   90898:	3c 57 e1 25 	lhsi.gp $r5,[+#-15798]
   9089c:	e0 85       	slts45 $r4,$r5
   9089e:	e8 03       	beqzs8 908a4 <quantize+0x48>
   908a0:	84 a3       	movi55 $r5,#3
   908a2:	d5 47       	j8 90930 <quantize+0xd4>
   908a4:	3c 57 e1 26 	lhsi.gp $r5,[+#-15796]
   908a8:	e0 85       	slts45 $r4,$r5
   908aa:	e8 03       	beqzs8 908b0 <quantize+0x54>
   908ac:	84 a4       	movi55 $r5,#4
   908ae:	d5 41       	j8 90930 <quantize+0xd4>
   908b0:	3c 57 e1 27 	lhsi.gp $r5,[+#-15794]
   908b4:	e0 85       	slts45 $r4,$r5
   908b6:	e8 03       	beqzs8 908bc <quantize+0x60>
   908b8:	84 a5       	movi55 $r5,#5
   908ba:	d5 3b       	j8 90930 <quantize+0xd4>
   908bc:	3c 57 e1 28 	lhsi.gp $r5,[+#-15792]
   908c0:	e0 85       	slts45 $r4,$r5
   908c2:	e8 03       	beqzs8 908c8 <quantize+0x6c>
   908c4:	84 a6       	movi55 $r5,#6
   908c6:	d5 35       	j8 90930 <quantize+0xd4>
   908c8:	3c 57 e1 29 	lhsi.gp $r5,[+#-15790]
   908cc:	e0 85       	slts45 $r4,$r5
   908ce:	e8 03       	beqzs8 908d4 <quantize+0x78>
   908d0:	84 a7       	movi55 $r5,#7
   908d2:	d5 2f       	j8 90930 <quantize+0xd4>
   908d4:	3c 57 e1 2a 	lhsi.gp $r5,[+#-15788]
   908d8:	e0 85       	slts45 $r4,$r5
   908da:	e8 03       	beqzs8 908e0 <quantize+0x84>
   908dc:	84 a8       	movi55 $r5,#8
   908de:	d5 29       	j8 90930 <quantize+0xd4>
   908e0:	3c 57 e1 2b 	lhsi.gp $r5,[+#-15786]
   908e4:	e0 85       	slts45 $r4,$r5
   908e6:	e8 03       	beqzs8 908ec <quantize+0x90>
   908e8:	84 a9       	movi55 $r5,#9
   908ea:	d5 23       	j8 90930 <quantize+0xd4>
   908ec:	3c 57 e1 2c 	lhsi.gp $r5,[+#-15784]
   908f0:	e0 85       	slts45 $r4,$r5
   908f2:	e8 03       	beqzs8 908f8 <quantize+0x9c>
   908f4:	84 aa       	movi55 $r5,#10
   908f6:	d5 1d       	j8 90930 <quantize+0xd4>
   908f8:	3c 57 e1 2d 	lhsi.gp $r5,[+#-15782]
   908fc:	e0 85       	slts45 $r4,$r5
   908fe:	e8 03       	beqzs8 90904 <quantize+0xa8>
   90900:	84 ab       	movi55 $r5,#11
   90902:	d5 17       	j8 90930 <quantize+0xd4>
   90904:	3c 57 e1 2e 	lhsi.gp $r5,[+#-15780]
   90908:	e0 85       	slts45 $r4,$r5
   9090a:	e8 03       	beqzs8 90910 <quantize+0xb4>
   9090c:	84 ac       	movi55 $r5,#12
   9090e:	d5 11       	j8 90930 <quantize+0xd4>
   90910:	3c 57 e1 2f 	lhsi.gp $r5,[+#-15778]
   90914:	e0 85       	slts45 $r4,$r5
   90916:	e8 03       	beqzs8 9091c <quantize+0xc0>
   90918:	84 ad       	movi55 $r5,#13
   9091a:	d5 0b       	j8 90930 <quantize+0xd4>
   9091c:	3c 77 e1 30 	lhsi.gp $r7,[+#-15776]
   90920:	44 50 00 0e 	movi $r5,#14
   90924:	40 72 1c 07 	slts $r7,$r4,$r7
   90928:	44 40 00 0f 	movi $r4,#15
   9092c:	40 52 1c 1a 	cmovz $r5,$r4,$r7
   90930:	4e 37 00 1b 	blez $r3,90966 <quantize+0x10a>
   90934:	95 07       	slli333 $r4,$r0,#7
   90936:	40 42 14 0e 	sra $r4,$r4,$r5
   9093a:	90 22       	srai45 $r1,#2
   9093c:	95 6f       	slli333 $r5,$r5,#7
   9093e:	9a 69       	sub333 $r1,$r5,$r1
   90940:	54 42 00 7f 	andi $r4,$r4,#0x7f
   90944:	22 01 00 00 	lhsi $r0,[$r2+#0x0]
   90948:	99 0c       	add333 $r4,$r1,$r4
   9094a:	e0 80       	slts45 $r4,$r0
   9094c:	e9 0d       	bnezs8 90966 <quantize+0x10a>
   9094e:	9c 92       	addi333 $r2,$r2,#2
   90950:	84 00       	movi55 $r0,#0
   90952:	d5 06       	j8 9095e <quantize+0x102>
   90954:	22 11 00 00 	lhsi $r1,[$r2+#0x0]
   90958:	9c 92       	addi333 $r2,$r2,#2
   9095a:	e0 81       	slts45 $r4,$r1
   9095c:	e9 06       	bnezs8 90968 <quantize+0x10c>
   9095e:	9c 01       	addi333 $r0,$r0,#1
   90960:	e0 03       	slts45 $r0,$r3
   90962:	e9 f9       	bnezs8 90954 <quantize+0xf8>
   90964:	d5 02       	j8 90968 <quantize+0x10c>
   90966:	84 00       	movi55 $r0,#0
   90968:	4e 64 00 06 	bgez $r6,90974 <quantize+0x118>
   9096c:	98 db       	add333 $r3,$r3,$r3
   9096e:	9c 59       	addi333 $r1,$r3,#1
   90970:	9a 08       	sub333 $r0,$r1,$r0
   90972:	d5 05       	j8 9097c <quantize+0x120>
   90974:	c8 04       	bnez38 $r0,9097c <quantize+0x120>
   90976:	98 db       	add333 $r3,$r3,$r3
   90978:	50 01 80 01 	addi $r0,$r3,#1
   9097c:	3a 6f 9c 04 	lmw.bim $r6,[$sp],$r7,#0x0    ! {$r6~$r7}
   90980:	dd 9e       	ret5 $lp
   90982:	92 00       	nop16

00090984 <reconstruct>:
   90984:	90 42       	srai45 $r2,#2
   90986:	98 51       	add333 $r1,$r2,$r1
   90988:	50 20 00 00 	addi $r2,$r0,#0
   9098c:	4e 14 00 08 	bgez $r1,9099c <reconstruct+0x18>
   90990:	44 0f 80 00 	movi $r0,#-32768
   90994:	40 01 08 1a 	cmovz $r0,$r2,$r2
   90998:	48 00 00 13 	j 909be <reconstruct+0x3a>
   9099c:	40 00 9c 0a 	srai $r0,$r1,#7
   909a0:	54 10 80 7f 	andi $r1,$r1,#0x7f
   909a4:	50 10 80 80 	addi $r1,$r1,#128
   909a8:	96 1f       	fexti33 $r0,#0x3
   909aa:	94 4f       	slli333 $r1,$r1,#7
   909ac:	52 00 00 0e 	subri $r0,$r0,#14
   909b0:	40 00 80 0e 	sra $r0,$r1,$r0
   909b4:	96 03       	seh33 $r0,$r0
   909b6:	c2 04       	beqz38 $r2,909be <reconstruct+0x3a>
   909b8:	44 1f 80 00 	movi $r1,#-32768
   909bc:	98 01       	add333 $r0,$r0,$r1
   909be:	dd 9e       	ret5 $lp

000909c0 <update>:
   909c0:	3a 6f aa bc 	smw.adm $r6,[$sp],$r10,#0xa    ! {$r6~$r10, $fp, $lp}
   909c4:	51 ff ff dc 	addi $sp,$sp,#-36
   909c8:	05 cf 80 11 	lwi $fp,[$sp+#0x44]
   909cc:	04 9f 80 10 	lwi $r9,[$sp+#0x40]
   909d0:	b4 dc       	lwi450 $r6,[$fp]
   909d2:	f1 81       	swi37.sp $r1,[+#0x4]
   909d4:	40 73 3c 0a 	srai $r7,$r6,#15
   909d8:	40 14 fc 09 	srli $r1,$r9,#31
   909dc:	f3 84       	swi37.sp $r3,[+#0x10]
   909de:	f1 82       	swi37.sp $r1,[+#0x8]
   909e0:	54 32 7f ff 	andi $r3,$r4,#0x7fff
   909e4:	e4 ea       	sltsi45 $r7,#10
   909e6:	e9 05       	bnezs8 909f0 <update+0x30>
   909e8:	44 80 5d 00 	movi $r8,#23808
   909ec:	48 00 00 10 	j 90a0c <update+0x4c>
   909f0:	40 83 28 0a 	srai $r8,$r6,#10
   909f4:	54 84 00 1f 	andi $r8,$r8,#0x1f
   909f8:	50 84 00 20 	addi $r8,$r8,#32
   909fc:	40 74 1c 0c 	sll $r7,$r8,$r7
   90a00:	40 83 84 0a 	srai $r8,$r7,#1
   90a04:	40 74 1c 00 	add $r7,$r8,$r7
   90a08:	40 83 84 0a 	srai $r8,$r7,#1
   90a0c:	bf 14       	lwi37 $r7,[$fp+#0x50]
   90a0e:	cf 03       	bnez38 $r7,90a14 <update+0x54>
   90a10:	f7 83       	swi37.sp $r7,[+#0xc]
   90a12:	d5 05       	j8 90a1c <update+0x5c>
   90a14:	40 84 0c 07 	slts $r8,$r8,$r3
   90a18:	14 8f 80 03 	swi $r8,[$sp+#0xc]
   90a1c:	05 ef 80 01 	lwi $lp,[$sp+#0x4]
   90a20:	8a 5e       	sub45 $r2,$lp
   90a22:	90 45       	srai45 $r2,#5
   90a24:	88 5e       	add45 $r2,$lp
   90a26:	ba 81       	swi37 $r2,[$fp+#0x4]
   90a28:	5e f1 02 20 	sltsi $r15,$r2,#544
   90a2c:	e8 06       	beqzs8 90a38 <update+0x78>
   90a2e:	44 20 02 20 	movi $r2,#544
   90a32:	14 2e 00 01 	swi $r2,[$fp+#0x4]
   90a36:	d5 07       	j8 90a44 <update+0x84>
   90a38:	5e f1 14 01 	sltsi $r15,$r2,#5121
   90a3c:	e9 04       	bnezs8 90a44 <update+0x84>
   90a3e:	44 20 14 00 	movi $r2,#5120
   90a42:	ba 81       	swi37 $r2,[$fp+#0x4]
   90a44:	52 83 00 00 	subri $r8,$r6,#0
   90a48:	91 06       	srai45 $r8,#6
   90a4a:	88 c8       	add45 $r6,$r8
   90a4c:	f1 03       	lwi37.sp $r1,[+#0xc]
   90a4e:	98 b2       	add333 $r2,$r6,$r2
   90a50:	14 2e 00 00 	swi $r2,[$fp+#0x0]
   90a54:	5a 18 01 24 	bnec $r1,#1,90a9c <update+0xdc>
   90a58:	02 2e 00 22 	lhi $r2,[$fp+#0x44]
   90a5c:	02 6e 00 21 	lhi $r6,[$fp+#0x42]
   90a60:	02 9e 00 20 	lhi $r9,[$fp+#0x40]
   90a64:	03 ee 00 1f 	lhi $lp,[$fp+#0x3e]
   90a68:	02 1e 00 1e 	lhi $r1,[$fp+#0x3c]
   90a6c:	44 00 00 00 	movi $r0,#0
   90a70:	12 2e 00 23 	shi $r2,[$fp+#0x46]
   90a74:	b8 85       	swi37 $r0,[$fp+#0x14]
   90a76:	12 6e 00 22 	shi $r6,[$fp+#0x44]
   90a7a:	b8 86       	swi37 $r0,[$fp+#0x18]
   90a7c:	12 9e 00 21 	shi $r9,[$fp+#0x42]
   90a80:	b8 87       	swi37 $r0,[$fp+#0x1c]
   90a82:	13 ee 00 20 	shi $lp,[$fp+#0x40]
   90a86:	b8 88       	swi37 $r0,[$fp+#0x20]
   90a88:	b8 89       	swi37 $r0,[$fp+#0x24]
   90a8a:	b8 8a       	swi37 $r0,[$fp+#0x28]
   90a8c:	b8 8b       	swi37 $r0,[$fp+#0x2c]
   90a8e:	b8 8c       	swi37 $r0,[$fp+#0x30]
   90a90:	12 1e 00 1f 	shi $r1,[$fp+#0x3e]
   90a94:	4e 32 02 05 	beqz $r3,90e9e <update+0x4de>
   90a98:	48 00 02 11 	j 90eba <update+0x4fa>
   90a9c:	04 8e 00 06 	lwi $r8,[$fp+#0x18]
   90aa0:	ba 0d       	lwi37 $r2,[$fp+#0x34]
   90aa2:	40 64 1c 0a 	srai $r6,$r8,#7
   90aa6:	f2 85       	swi37.sp $r2,[+#0x14]
   90aa8:	40 84 18 01 	sub $r8,$r8,$r6
   90aac:	4e 92 00 44 	beqz $r9,90b34 <update+0x174>
   90ab0:	04 6f 80 02 	lwi $r6,[$sp+#0x8]
   90ab4:	40 73 08 03 	xor $r7,$r6,$r2
   90ab8:	4c 61 00 05 	beq $r6,$r2,90ac2 <update+0x102>
   90abc:	ba 05       	lwi37 $r2,[$fp+#0x14]
   90abe:	83 c2       	mov55 $lp,$r2
   90ac0:	d5 04       	j8 90ac8 <update+0x108>
   90ac2:	ba 05       	lwi37 $r2,[$fp+#0x14]
   90ac4:	53 e1 00 00 	subri $lp,$r2,#0
   90ac8:	5e ff 60 01 	sltsi $r15,$lp,#-8191
   90acc:	e8 04       	beqzs8 90ad4 <update+0x114>
   90ace:	50 64 7f 00 	addi $r6,$r8,#-256
   90ad2:	d5 0b       	j8 90ae8 <update+0x128>
   90ad4:	5e ff 20 00 	sltsi $r15,$lp,#8192
   90ad8:	e9 04       	bnezs8 90ae0 <update+0x120>
   90ada:	50 64 00 ff 	addi $r6,$r8,#255
   90ade:	d5 05       	j8 90ae8 <update+0x128>
   90ae0:	41 ef 14 0a 	srai $lp,$lp,#5
   90ae4:	40 6f 20 00 	add $r6,$lp,$r8
   90ae8:	05 ee 00 0e 	lwi $lp,[$fp+#0x38]
   90aec:	04 9f 80 02 	lwi $r9,[$sp+#0x8]
   90af0:	4d e4 80 12 	beq $lp,$r9,90b14 <update+0x154>
   90af4:	5e f3 50 81 	sltsi $r15,$r6,#-12159
   90af8:	4e f3 03 8e 	bnez $r15,91214 <update+0x854>
   90afc:	5e f3 30 80 	sltsi $r15,$r6,#12416
   90b00:	4e f2 03 92 	beqz $r15,91224 <update+0x864>
   90b04:	50 83 7f 80 	addi $r8,$r6,#-128
   90b08:	53 e4 3c 00 	subri $lp,$r8,#15360
   90b0c:	52 9f 00 00 	subri $r9,$lp,#0
   90b10:	48 00 03 90 	j 91230 <update+0x870>
   90b14:	5e f3 4f 81 	sltsi $r15,$r6,#-12415
   90b18:	4e f3 03 7e 	bnez $r15,91214 <update+0x854>
   90b1c:	5e f3 2f 80 	sltsi $r15,$r6,#12160
   90b20:	4e f2 03 82 	beqz $r15,91224 <update+0x864>
   90b24:	50 83 00 80 	addi $r8,$r6,#128
   90b28:	53 e4 3c 00 	subri $lp,$r8,#15360
   90b2c:	52 9f 00 00 	subri $r9,$lp,#0
   90b30:	48 00 03 80 	j 91230 <update+0x870>
   90b34:	04 9e 00 05 	lwi $r9,[$fp+#0x14]
   90b38:	53 e4 3c 00 	subri $lp,$r8,#15360
   90b3c:	40 a4 a0 0a 	srai $r10,$r9,#8
   90b40:	40 a4 a8 01 	sub $r10,$r9,$r10
   90b44:	14 8e 00 06 	swi $r8,[$fp+#0x18]
   90b48:	14 ae 00 05 	swi $r10,[$fp+#0x14]
   90b4c:	52 9f 00 00 	subri $r9,$lp,#0
   90b50:	48 00 00 0c 	j 90b68 <update+0x1a8>
   90b54:	50 a5 00 c0 	addi $r10,$r10,#192
   90b58:	14 ae 00 05 	swi $r10,[$fp+#0x14]
   90b5c:	48 00 00 06 	j 90b68 <update+0x1a8>
   90b60:	50 a5 7f 40 	addi $r10,$r10,#-192
   90b64:	14 ae 00 05 	swi $r10,[$fp+#0x14]
   90b68:	40 f5 24 07 	slts $r15,$r10,$r9
   90b6c:	4e f2 01 86 	beqz $r15,90e78 <update+0x4b8>
   90b70:	14 9e 00 05 	swi $r9,[$fp+#0x14]
   90b74:	5a 00 05 04 	beqc $r0,#5,90b7c <update+0x1bc>
   90b78:	48 00 00 b0 	j 90cd8 <update+0x318>
   90b7c:	4e 32 00 7a 	beqz $r3,90c70 <update+0x2b0>
   90b80:	04 ae 00 07 	lwi $r10,[$fp+#0x1c]
   90b84:	03 ee 00 1e 	lhi $lp,[$fp+#0x3c]
   90b88:	40 05 24 0a 	srai $r0,$r10,#9
   90b8c:	40 9f 00 11 	seh $r9,$lp
   90b90:	8b 40       	sub45 $r10,$r0
   90b92:	40 94 90 03 	xor $r9,$r9,$r4
   90b96:	13 ef 80 0d 	shi $lp,[$sp+#0x1a]
   90b9a:	14 ae 00 07 	swi $r10,[$fp+#0x1c]
   90b9e:	4e 94 00 07 	bgez $r9,90bac <update+0x1ec>
   90ba2:	50 a5 7f 80 	addi $r10,$r10,#-128
   90ba6:	14 ae 00 07 	swi $r10,[$fp+#0x1c]
   90baa:	d5 05       	j8 90bb4 <update+0x1f4>
   90bac:	50 a5 00 80 	addi $r10,$r10,#128
   90bb0:	14 ae 00 07 	swi $r10,[$fp+#0x1c]
   90bb4:	02 0e 00 1f 	lhi $r0,[$fp+#0x3e]
   90bb8:	ba 08       	lwi37 $r2,[$fp+#0x20]
   90bba:	12 0f 80 0e 	shi $r0,[$sp+#0x1c]
   90bbe:	40 01 24 0a 	srai $r0,$r2,#9
   90bc2:	22 6f 80 0e 	lhsi $r6,[$sp+#0x1c]
   90bc6:	9a 10       	sub333 $r0,$r2,$r0
   90bc8:	80 26       	mov55 $r1,$r6
   90bca:	fe 65       	xor33 $r1,$r4
   90bcc:	b8 88       	swi37 $r0,[$fp+#0x20]
   90bce:	4e 14 00 07 	bgez $r1,90bdc <update+0x21c>
   90bd2:	50 00 7f 80 	addi $r0,$r0,#-128
   90bd6:	b8 88       	swi37 $r0,[$fp+#0x20]
   90bd8:	48 00 00 05 	j 90be2 <update+0x222>
   90bdc:	50 00 00 80 	addi $r0,$r0,#128
   90be0:	b8 88       	swi37 $r0,[$fp+#0x20]
   90be2:	ba 09       	lwi37 $r2,[$fp+#0x24]
   90be4:	02 9e 00 20 	lhi $r9,[$fp+#0x40]
   90be8:	40 11 24 0a 	srai $r1,$r2,#9
   90bec:	40 04 80 11 	seh $r0,$r9
   90bf0:	9a 51       	sub333 $r1,$r2,$r1
   90bf2:	fe 25       	xor33 $r0,$r4
   90bf4:	12 9f 80 0f 	shi $r9,[$sp+#0x1e]
   90bf8:	b9 89       	swi37 $r1,[$fp+#0x24]
   90bfa:	4e 04 00 07 	bgez $r0,90c08 <update+0x248>
   90bfe:	50 10 ff 80 	addi $r1,$r1,#-128
   90c02:	b9 89       	swi37 $r1,[$fp+#0x24]
   90c04:	48 00 00 05 	j 90c0e <update+0x24e>
   90c08:	50 10 80 80 	addi $r1,$r1,#128
   90c0c:	b9 89       	swi37 $r1,[$fp+#0x24]
   90c0e:	ba 0a       	lwi37 $r2,[$fp+#0x28]
   90c10:	02 7e 00 21 	lhi $r7,[$fp+#0x42]
   90c14:	40 11 24 0a 	srai $r1,$r2,#9
   90c18:	96 3b       	seh33 $r0,$r7
   90c1a:	9a 51       	sub333 $r1,$r2,$r1
   90c1c:	fe 25       	xor33 $r0,$r4
   90c1e:	b9 8a       	swi37 $r1,[$fp+#0x28]
   90c20:	4e 04 00 06 	bgez $r0,90c2c <update+0x26c>
   90c24:	50 10 ff 80 	addi $r1,$r1,#-128
   90c28:	b9 8a       	swi37 $r1,[$fp+#0x28]
   90c2a:	d5 04       	j8 90c32 <update+0x272>
   90c2c:	50 10 80 80 	addi $r1,$r1,#128
   90c30:	b9 8a       	swi37 $r1,[$fp+#0x28]
   90c32:	be 0b       	lwi37 $r6,[$fp+#0x2c]
   90c34:	02 2e 00 22 	lhi $r2,[$fp+#0x44]
   90c38:	40 13 24 0a 	srai $r1,$r6,#9
   90c3c:	96 13       	seh33 $r0,$r2
   90c3e:	9a 71       	sub333 $r1,$r6,$r1
   90c40:	fe 25       	xor33 $r0,$r4
   90c42:	b9 8b       	swi37 $r1,[$fp+#0x2c]
   90c44:	4e 04 00 06 	bgez $r0,90c50 <update+0x290>
   90c48:	50 10 ff 80 	addi $r1,$r1,#-128
   90c4c:	b9 8b       	swi37 $r1,[$fp+#0x2c]
   90c4e:	d5 04       	j8 90c56 <update+0x296>
   90c50:	50 10 80 80 	addi $r1,$r1,#128
   90c54:	b9 8b       	swi37 $r1,[$fp+#0x2c]
   90c56:	be 0c       	lwi37 $r6,[$fp+#0x30]
   90c58:	22 1e 00 23 	lhsi $r1,[$fp+#0x46]
   90c5c:	40 03 24 0a 	srai $r0,$r6,#9
   90c60:	9a 30       	sub333 $r0,$r6,$r0
   90c62:	fe 65       	xor33 $r1,$r4
   90c64:	14 0e 00 0c 	swi $r0,[$fp+#0x30]
   90c68:	4e 14 01 10 	bgez $r1,90e88 <update+0x4c8>
   90c6c:	48 00 01 14 	j 90e94 <update+0x4d4>
   90c70:	05 ee 00 09 	lwi $lp,[$fp+#0x24]
   90c74:	04 9e 00 07 	lwi $r9,[$fp+#0x1c]
   90c78:	40 3f 24 0a 	srai $r3,$lp,#9
   90c7c:	05 ee 00 0b 	lwi $lp,[$fp+#0x2c]
   90c80:	04 0e 00 0a 	lwi $r0,[$fp+#0x28]
   90c84:	40 1f 24 0a 	srai $r1,$lp,#9
   90c88:	05 ee 00 0c 	lwi $lp,[$fp+#0x30]
   90c8c:	40 74 a4 0a 	srai $r7,$r9,#9
   90c90:	40 20 24 0a 	srai $r2,$r0,#9
   90c94:	40 74 9c 01 	sub $r7,$r9,$r7
   90c98:	40 0f 24 0a 	srai $r0,$lp,#9
   90c9c:	04 9e 00 09 	lwi $r9,[$fp+#0x24]
   90ca0:	05 ee 00 0a 	lwi $lp,[$fp+#0x28]
   90ca4:	04 ae 00 08 	lwi $r10,[$fp+#0x20]
   90ca8:	40 34 8c 01 	sub $r3,$r9,$r3
   90cac:	40 2f 08 01 	sub $r2,$lp,$r2
   90cb0:	04 9e 00 0b 	lwi $r9,[$fp+#0x2c]
   90cb4:	05 ee 00 0c 	lwi $lp,[$fp+#0x30]
   90cb8:	40 65 24 0a 	srai $r6,$r10,#9
   90cbc:	40 65 18 01 	sub $r6,$r10,$r6
   90cc0:	40 14 84 01 	sub $r1,$r9,$r1
   90cc4:	40 0f 00 01 	sub $r0,$lp,$r0
   90cc8:	bf 87       	swi37 $r7,[$fp+#0x1c]
   90cca:	be 88       	swi37 $r6,[$fp+#0x20]
   90ccc:	bb 89       	swi37 $r3,[$fp+#0x24]
   90cce:	ba 8a       	swi37 $r2,[$fp+#0x28]
   90cd0:	b9 8b       	swi37 $r1,[$fp+#0x2c]
   90cd2:	b8 8c       	swi37 $r0,[$fp+#0x30]
   90cd4:	48 00 02 cc 	j 9126c <update+0x8ac>
   90cd8:	cb 2e       	bnez38 $r3,90d34 <update+0x374>
   90cda:	b9 09       	lwi37 $r1,[$fp+#0x24]
   90cdc:	04 9e 00 0a 	lwi $r9,[$fp+#0x28]
   90ce0:	40 20 a0 0a 	srai $r2,$r1,#8
   90ce4:	b9 0b       	lwi37 $r1,[$fp+#0x2c]
   90ce6:	41 e4 a0 0a 	srai $lp,$r9,#8
   90cea:	40 a0 a0 0a 	srai $r10,$r1,#8
   90cee:	b9 0c       	lwi37 $r1,[$fp+#0x30]
   90cf0:	04 7e 00 07 	lwi $r7,[$fp+#0x1c]
   90cf4:	40 90 a0 0a 	srai $r9,$r1,#8
   90cf8:	b9 09       	lwi37 $r1,[$fp+#0x24]
   90cfa:	bb 08       	lwi37 $r3,[$fp+#0x20]
   90cfc:	9a 8a       	sub333 $r2,$r1,$r2
   90cfe:	b9 0a       	lwi37 $r1,[$fp+#0x28]
   90d00:	40 03 a0 0a 	srai $r0,$r7,#8
   90d04:	41 e0 f8 01 	sub $lp,$r1,$lp
   90d08:	b9 0b       	lwi37 $r1,[$fp+#0x2c]
   90d0a:	40 61 a0 0a 	srai $r6,$r3,#8
   90d0e:	40 a0 a8 01 	sub $r10,$r1,$r10
   90d12:	b9 0c       	lwi37 $r1,[$fp+#0x30]
   90d14:	9a 38       	sub333 $r0,$r7,$r0
   90d16:	9b 9e       	sub333 $r6,$r3,$r6
   90d18:	40 90 a4 01 	sub $r9,$r1,$r9
   90d1c:	b8 87       	swi37 $r0,[$fp+#0x1c]
   90d1e:	be 88       	swi37 $r6,[$fp+#0x20]
   90d20:	14 2e 00 09 	swi $r2,[$fp+#0x24]
   90d24:	15 ee 00 0a 	swi $lp,[$fp+#0x28]
   90d28:	14 ae 00 0b 	swi $r10,[$fp+#0x2c]
   90d2c:	14 9e 00 0c 	swi $r9,[$fp+#0x30]
   90d30:	48 00 02 9e 	j 9126c <update+0x8ac>
   90d34:	05 ee 00 07 	lwi $lp,[$fp+#0x1c]
   90d38:	02 2e 00 1e 	lhi $r2,[$fp+#0x3c]
   90d3c:	40 9f 20 0a 	srai $r9,$lp,#8
   90d40:	40 a1 00 11 	seh $r10,$r2
   90d44:	40 9f 24 01 	sub $r9,$lp,$r9
   90d48:	40 a5 10 03 	xor $r10,$r10,$r4
   90d4c:	12 2f 80 0d 	shi $r2,[$sp+#0x1a]
   90d50:	14 9e 00 07 	swi $r9,[$fp+#0x1c]
   90d54:	4e a4 00 08 	bgez $r10,90d64 <update+0x3a4>
   90d58:	50 94 ff 80 	addi $r9,$r9,#-128
   90d5c:	14 9e 00 07 	swi $r9,[$fp+#0x1c]
   90d60:	48 00 00 06 	j 90d6c <update+0x3ac>
   90d64:	50 a4 80 80 	addi $r10,$r9,#128
   90d68:	14 ae 00 07 	swi $r10,[$fp+#0x1c]
   90d6c:	04 9e 00 08 	lwi $r9,[$fp+#0x20]
   90d70:	02 6e 00 1f 	lhi $r6,[$fp+#0x3e]
   90d74:	40 a4 a0 0a 	srai $r10,$r9,#8
   90d78:	41 e3 00 11 	seh $lp,$r6
   90d7c:	40 a4 a8 01 	sub $r10,$r9,$r10
   90d80:	41 ef 10 03 	xor $lp,$lp,$r4
   90d84:	12 6f 80 0e 	shi $r6,[$sp+#0x1c]
   90d88:	14 ae 00 08 	swi $r10,[$fp+#0x20]
   90d8c:	4f e4 00 08 	bgez $lp,90d9c <update+0x3dc>
   90d90:	50 a5 7f 80 	addi $r10,$r10,#-128
   90d94:	14 ae 00 08 	swi $r10,[$fp+#0x20]
   90d98:	48 00 00 06 	j 90da4 <update+0x3e4>
   90d9c:	50 a5 00 80 	addi $r10,$r10,#128
   90da0:	14 ae 00 08 	swi $r10,[$fp+#0x20]
   90da4:	03 ee 00 20 	lhi $lp,[$fp+#0x40]
   90da8:	04 9e 00 09 	lwi $r9,[$fp+#0x24]
   90dac:	13 ef 80 0f 	shi $lp,[$sp+#0x1e]
   90db0:	41 e4 a0 0a 	srai $lp,$r9,#8
   90db4:	22 0f 80 0f 	lhsi $r0,[$sp+#0x1e]
   90db8:	41 e4 f8 01 	sub $lp,$r9,$lp
   90dbc:	81 40       	mov55 $r10,$r0
   90dbe:	40 a5 10 03 	xor $r10,$r10,$r4
   90dc2:	15 ee 00 09 	swi $lp,[$fp+#0x24]
   90dc6:	4e a4 00 07 	bgez $r10,90dd4 <update+0x414>
   90dca:	51 ef 7f 80 	addi $lp,$lp,#-128
   90dce:	15 ee 00 09 	swi $lp,[$fp+#0x24]
   90dd2:	d5 05       	j8 90ddc <update+0x41c>
   90dd4:	50 9f 00 80 	addi $r9,$lp,#128
   90dd8:	14 9e 00 09 	swi $r9,[$fp+#0x24]
   90ddc:	04 9e 00 0a 	lwi $r9,[$fp+#0x28]
   90de0:	02 7e 00 21 	lhi $r7,[$fp+#0x42]
   90de4:	41 e4 a0 0a 	srai $lp,$r9,#8
   90de8:	40 a3 80 11 	seh $r10,$r7
   90dec:	41 e4 f8 01 	sub $lp,$r9,$lp
   90df0:	40 a5 10 03 	xor $r10,$r10,$r4
   90df4:	15 ee 00 0a 	swi $lp,[$fp+#0x28]
   90df8:	4e a4 00 08 	bgez $r10,90e08 <update+0x448>
   90dfc:	51 ef 7f 80 	addi $lp,$lp,#-128
   90e00:	15 ee 00 0a 	swi $lp,[$fp+#0x28]
   90e04:	48 00 00 06 	j 90e10 <update+0x450>
   90e08:	50 9f 00 80 	addi $r9,$lp,#128
   90e0c:	14 9e 00 0a 	swi $r9,[$fp+#0x28]
   90e10:	04 9e 00 0b 	lwi $r9,[$fp+#0x2c]
   90e14:	02 2e 00 22 	lhi $r2,[$fp+#0x44]
   90e18:	41 e4 a0 0a 	srai $lp,$r9,#8
   90e1c:	40 a1 00 11 	seh $r10,$r2
   90e20:	41 e4 f8 01 	sub $lp,$r9,$lp
   90e24:	40 a5 10 03 	xor $r10,$r10,$r4
   90e28:	15 ee 00 0b 	swi $lp,[$fp+#0x2c]
   90e2c:	4e a4 00 08 	bgez $r10,90e3c <update+0x47c>
   90e30:	51 ef 7f 80 	addi $lp,$lp,#-128
   90e34:	15 ee 00 0b 	swi $lp,[$fp+#0x2c]
   90e38:	48 00 00 06 	j 90e44 <update+0x484>
   90e3c:	50 9f 00 80 	addi $r9,$lp,#128
   90e40:	14 9e 00 0b 	swi $r9,[$fp+#0x2c]
   90e44:	04 9e 00 0c 	lwi $r9,[$fp+#0x30]
   90e48:	23 ee 00 23 	lhsi $lp,[$fp+#0x46]
   90e4c:	40 a4 a0 0a 	srai $r10,$r9,#8
   90e50:	40 a4 a8 01 	sub $r10,$r9,$r10
   90e54:	41 ef 10 03 	xor $lp,$lp,$r4
   90e58:	14 ae 00 0c 	swi $r10,[$fp+#0x30]
   90e5c:	4f e5 00 08 	bltz $lp,90e6c <update+0x4ac>
   90e60:	50 95 00 80 	addi $r9,$r10,#128
   90e64:	14 9e 00 0c 	swi $r9,[$fp+#0x30]
   90e68:	48 00 02 18 	j 91298 <update+0x8d8>
   90e6c:	50 a5 7f 80 	addi $r10,$r10,#-128
   90e70:	14 ae 00 0c 	swi $r10,[$fp+#0x30]
   90e74:	48 00 02 12 	j 91298 <update+0x8d8>
   90e78:	40 ff 28 07 	slts $r15,$lp,$r10
   90e7c:	4e f2 fe 7c 	beqz $r15,90b74 <update+0x1b4>
   90e80:	15 ee 00 05 	swi $lp,[$fp+#0x14]
   90e84:	48 ff fe 78 	j 90b74 <update+0x1b4>
   90e88:	50 00 00 80 	addi $r0,$r0,#128
   90e8c:	14 0e 00 0c 	swi $r0,[$fp+#0x30]
   90e90:	48 00 02 04 	j 91298 <update+0x8d8>
   90e94:	50 00 7f 80 	addi $r0,$r0,#-128
   90e98:	b8 8c       	swi37 $r0,[$fp+#0x30]
   90e9a:	48 00 01 ff 	j 91298 <update+0x8d8>
   90e9e:	b9 0d       	lwi37 $r1,[$fp+#0x34]
   90ea0:	81 03       	mov55 $r8,$r3
   90ea2:	f1 85       	swi37.sp $r1,[+#0x14]
   90ea4:	5e 42 00 00 	sltsi $r4,$r4,#0
   90ea8:	fa 50       	movpi45 $r2,#0x20
   90eaa:	44 9f fc 20 	movi $r9,#-992
   90eae:	40 24 90 1b 	cmovn $r2,$r9,$r4
   90eb2:	12 2e 00 1e 	shi $r2,[$fp+#0x3c]
   90eb6:	48 00 00 7d 	j 90fb0 <update+0x5f0>
   90eba:	ba 0d       	lwi37 $r2,[$fp+#0x34]
   90ebc:	81 00       	mov55 $r8,$r0
   90ebe:	f2 85       	swi37.sp $r2,[+#0x14]
   90ec0:	3c 97 e1 22 	lhsi.gp $r9,[+#-15804]
   90ec4:	e0 69       	slts45 $r3,$r9
   90ec6:	e8 05       	beqzs8 90ed0 <update+0x510>
   90ec8:	44 20 00 00 	movi $r2,#0
   90ecc:	48 00 00 5c 	j 90f84 <update+0x5c4>
   90ed0:	3c 97 e1 23 	lhsi.gp $r9,[+#-15802]
   90ed4:	e0 69       	slts45 $r3,$r9
   90ed6:	e8 05       	beqzs8 90ee0 <update+0x520>
   90ed8:	44 20 00 01 	movi $r2,#1
   90edc:	48 00 00 54 	j 90f84 <update+0x5c4>
   90ee0:	3c 97 e1 24 	lhsi.gp $r9,[+#-15800]
   90ee4:	e0 69       	slts45 $r3,$r9
   90ee6:	e8 03       	beqzs8 90eec <update+0x52c>
   90ee8:	84 42       	movi55 $r2,#2
   90eea:	d5 4d       	j8 90f84 <update+0x5c4>
   90eec:	3c 97 e1 25 	lhsi.gp $r9,[+#-15798]
   90ef0:	e0 69       	slts45 $r3,$r9
   90ef2:	e8 03       	beqzs8 90ef8 <update+0x538>
   90ef4:	84 43       	movi55 $r2,#3
   90ef6:	d5 47       	j8 90f84 <update+0x5c4>
   90ef8:	3c 97 e1 26 	lhsi.gp $r9,[+#-15796]
   90efc:	e0 69       	slts45 $r3,$r9
   90efe:	e8 03       	beqzs8 90f04 <update+0x544>
   90f00:	84 44       	movi55 $r2,#4
   90f02:	d5 41       	j8 90f84 <update+0x5c4>
   90f04:	3c 97 e1 27 	lhsi.gp $r9,[+#-15794]
   90f08:	e0 69       	slts45 $r3,$r9
   90f0a:	e8 03       	beqzs8 90f10 <update+0x550>
   90f0c:	84 45       	movi55 $r2,#5
   90f0e:	d5 3b       	j8 90f84 <update+0x5c4>
   90f10:	3c 97 e1 28 	lhsi.gp $r9,[+#-15792]
   90f14:	e0 69       	slts45 $r3,$r9
   90f16:	e8 03       	beqzs8 90f1c <update+0x55c>
   90f18:	84 46       	movi55 $r2,#6
   90f1a:	d5 35       	j8 90f84 <update+0x5c4>
   90f1c:	3c 97 e1 29 	lhsi.gp $r9,[+#-15790]
   90f20:	e0 69       	slts45 $r3,$r9
   90f22:	e8 03       	beqzs8 90f28 <update+0x568>
   90f24:	84 47       	movi55 $r2,#7
   90f26:	d5 2f       	j8 90f84 <update+0x5c4>
   90f28:	3c 97 e1 2a 	lhsi.gp $r9,[+#-15788]
   90f2c:	e0 69       	slts45 $r3,$r9
   90f2e:	e8 03       	beqzs8 90f34 <update+0x574>
   90f30:	84 48       	movi55 $r2,#8
   90f32:	d5 29       	j8 90f84 <update+0x5c4>
   90f34:	3c 97 e1 2b 	lhsi.gp $r9,[+#-15786]
   90f38:	e0 69       	slts45 $r3,$r9
   90f3a:	e8 03       	beqzs8 90f40 <update+0x580>
   90f3c:	84 49       	movi55 $r2,#9
   90f3e:	d5 23       	j8 90f84 <update+0x5c4>
   90f40:	3c 97 e1 2c 	lhsi.gp $r9,[+#-15784]
   90f44:	e0 69       	slts45 $r3,$r9
   90f46:	e8 03       	beqzs8 90f4c <update+0x58c>
   90f48:	84 4a       	movi55 $r2,#10
   90f4a:	d5 1d       	j8 90f84 <update+0x5c4>
   90f4c:	3c 97 e1 2d 	lhsi.gp $r9,[+#-15782]
   90f50:	e0 69       	slts45 $r3,$r9
   90f52:	e8 03       	beqzs8 90f58 <update+0x598>
   90f54:	84 4b       	movi55 $r2,#11
   90f56:	d5 17       	j8 90f84 <update+0x5c4>
   90f58:	3c 97 e1 2e 	lhsi.gp $r9,[+#-15780]
   90f5c:	e0 69       	slts45 $r3,$r9
   90f5e:	e8 03       	beqzs8 90f64 <update+0x5a4>
   90f60:	84 4c       	movi55 $r2,#12
   90f62:	d5 11       	j8 90f84 <update+0x5c4>
   90f64:	3c 97 e1 2f 	lhsi.gp $r9,[+#-15778]
   90f68:	e0 69       	slts45 $r3,$r9
   90f6a:	e8 03       	beqzs8 90f70 <update+0x5b0>
   90f6c:	84 4d       	movi55 $r2,#13
   90f6e:	d5 0b       	j8 90f84 <update+0x5c4>
   90f70:	3c a7 e1 30 	lhsi.gp $r10,[+#-15776]
   90f74:	44 20 00 0e 	movi $r2,#14
   90f78:	40 a1 a8 07 	slts $r10,$r3,$r10
   90f7c:	44 90 00 0f 	movi $r9,#15
   90f80:	40 24 a8 1a 	cmovz $r2,$r9,$r10
   90f84:	4e 45 00 0a 	bltz $r4,90f98 <update+0x5d8>
   90f88:	40 91 98 08 	slli $r9,$r3,#6
   90f8c:	40 94 88 0e 	sra $r9,$r9,$r2
   90f90:	95 16       	slli333 $r4,$r2,#6
   90f92:	88 89       	add45 $r4,$r9
   90f94:	97 23       	seh33 $r4,$r4
   90f96:	d5 0b       	j8 90fac <update+0x5ec>
   90f98:	40 41 98 08 	slli $r4,$r3,#6
   90f9c:	40 42 08 0e 	sra $r4,$r4,$r2
   90fa0:	40 91 18 08 	slli $r9,$r2,#6
   90fa4:	88 89       	add45 $r4,$r9
   90fa6:	50 42 7c 00 	addi $r4,$r4,#-1024
   90faa:	97 23       	seh33 $r4,$r4
   90fac:	12 4e 00 1e 	shi $r4,[$fp+#0x3c]
   90fb0:	be 12       	lwi37 $r6,[$fp+#0x48]
   90fb2:	be 93       	swi37 $r6,[$fp+#0x4c]
   90fb4:	cd 06       	bnez38 $r5,90fc0 <update+0x600>
   90fb6:	fa 90       	movpi45 $r4,#0x20
   90fb8:	14 4e 00 12 	swi $r4,[$fp+#0x48]
   90fbc:	48 00 00 e4 	j 91184 <update+0x7c4>
   90fc0:	4e 57 00 6c 	blez $r5,91098 <update+0x6d8>
   90fc4:	3c 47 e1 22 	lhsi.gp $r4,[+#-15804]
   90fc8:	e0 a4       	slts45 $r5,$r4
   90fca:	e8 05       	beqzs8 90fd4 <update+0x614>
   90fcc:	44 20 00 00 	movi $r2,#0
   90fd0:	48 00 00 5b 	j 91086 <update+0x6c6>
   90fd4:	3c 47 e1 23 	lhsi.gp $r4,[+#-15802]
   90fd8:	e0 a4       	slts45 $r5,$r4
   90fda:	e8 05       	beqzs8 90fe4 <update+0x624>
   90fdc:	44 20 00 01 	movi $r2,#1
   90fe0:	48 00 00 53 	j 91086 <update+0x6c6>
   90fe4:	3c 47 e1 24 	lhsi.gp $r4,[+#-15800]
   90fe8:	e0 a4       	slts45 $r5,$r4
   90fea:	e8 03       	beqzs8 90ff0 <update+0x630>
   90fec:	84 42       	movi55 $r2,#2
   90fee:	d5 4c       	j8 91086 <update+0x6c6>
   90ff0:	3c 47 e1 25 	lhsi.gp $r4,[+#-15798]
   90ff4:	e0 a4       	slts45 $r5,$r4
   90ff6:	e8 03       	beqzs8 90ffc <update+0x63c>
   90ff8:	84 43       	movi55 $r2,#3
   90ffa:	d5 46       	j8 91086 <update+0x6c6>
   90ffc:	3c 47 e1 26 	lhsi.gp $r4,[+#-15796]
   91000:	e0 a4       	slts45 $r5,$r4
   91002:	e8 03       	beqzs8 91008 <update+0x648>
   91004:	84 44       	movi55 $r2,#4
   91006:	d5 40       	j8 91086 <update+0x6c6>
   91008:	3c 47 e1 27 	lhsi.gp $r4,[+#-15794]
   9100c:	e0 a4       	slts45 $r5,$r4
   9100e:	e8 03       	beqzs8 91014 <update+0x654>
   91010:	84 45       	movi55 $r2,#5
   91012:	d5 3a       	j8 91086 <update+0x6c6>
   91014:	3c 47 e1 28 	lhsi.gp $r4,[+#-15792]
   91018:	e0 a4       	slts45 $r5,$r4
   9101a:	e8 03       	beqzs8 91020 <update+0x660>
   9101c:	84 46       	movi55 $r2,#6
   9101e:	d5 34       	j8 91086 <update+0x6c6>
   91020:	3c 47 e1 29 	lhsi.gp $r4,[+#-15790]
   91024:	e0 a4       	slts45 $r5,$r4
   91026:	e8 03       	beqzs8 9102c <update+0x66c>
   91028:	84 47       	movi55 $r2,#7
   9102a:	d5 2e       	j8 91086 <update+0x6c6>
   9102c:	3c 47 e1 2a 	lhsi.gp $r4,[+#-15788]
   91030:	e0 a4       	slts45 $r5,$r4
   91032:	e8 03       	beqzs8 91038 <update+0x678>
   91034:	84 48       	movi55 $r2,#8
   91036:	d5 28       	j8 91086 <update+0x6c6>
   91038:	3c 47 e1 2b 	lhsi.gp $r4,[+#-15786]
   9103c:	e0 a4       	slts45 $r5,$r4
   9103e:	e8 03       	beqzs8 91044 <update+0x684>
   91040:	84 49       	movi55 $r2,#9
   91042:	d5 22       	j8 91086 <update+0x6c6>
   91044:	3c 47 e1 2c 	lhsi.gp $r4,[+#-15784]
   91048:	e0 a4       	slts45 $r5,$r4
   9104a:	e8 03       	beqzs8 91050 <update+0x690>
   9104c:	84 4a       	movi55 $r2,#10
   9104e:	d5 1c       	j8 91086 <update+0x6c6>
   91050:	3c 47 e1 2d 	lhsi.gp $r4,[+#-15782]
   91054:	e0 a4       	slts45 $r5,$r4
   91056:	e8 03       	beqzs8 9105c <update+0x69c>
   91058:	84 4b       	movi55 $r2,#11
   9105a:	d5 16       	j8 91086 <update+0x6c6>
   9105c:	3c 47 e1 2e 	lhsi.gp $r4,[+#-15780]
   91060:	e0 a4       	slts45 $r5,$r4
   91062:	e8 03       	beqzs8 91068 <update+0x6a8>
   91064:	84 4c       	movi55 $r2,#12
   91066:	d5 10       	j8 91086 <update+0x6c6>
   91068:	3c 47 e1 2f 	lhsi.gp $r4,[+#-15778]
   9106c:	e0 a4       	slts45 $r5,$r4
   9106e:	e8 03       	beqzs8 91074 <update+0x6b4>
   91070:	84 4d       	movi55 $r2,#13
   91072:	d5 0a       	j8 91086 <update+0x6c6>
   91074:	3c 97 e1 30 	lhsi.gp $r9,[+#-15776]
   91078:	44 20 00 0e 	movi $r2,#14
   9107c:	40 92 a4 07 	slts $r9,$r5,$r9
   91080:	84 8f       	movi55 $r4,#15
   91082:	40 22 24 1a 	cmovz $r2,$r4,$r9
   91086:	95 6e       	slli333 $r5,$r5,#6
   91088:	40 52 88 0e 	sra $r5,$r5,$r2
   9108c:	95 16       	slli333 $r4,$r2,#6
   9108e:	99 2c       	add333 $r4,$r5,$r4
   91090:	14 4e 00 12 	swi $r4,[$fp+#0x48]
   91094:	48 00 00 78 	j 91184 <update+0x7c4>
   91098:	44 4f 80 01 	movi $r4,#-32767
   9109c:	40 f2 90 07 	slts $r15,$r5,$r4
   910a0:	4e f3 00 6e 	bnez $r15,9117c <update+0x7bc>
   910a4:	3c 47 e1 22 	lhsi.gp $r4,[+#-15804]
   910a8:	fe aa       	neg33 $r2,$r5
   910aa:	e0 44       	slts45 $r2,$r4
   910ac:	e8 04       	beqzs8 910b4 <update+0x6f4>
   910ae:	84 80       	movi55 $r4,#0
   910b0:	48 00 00 5c 	j 91168 <update+0x7a8>
   910b4:	3c 47 e1 23 	lhsi.gp $r4,[+#-15802]
   910b8:	e0 44       	slts45 $r2,$r4
   910ba:	e8 05       	beqzs8 910c4 <update+0x704>
   910bc:	44 40 00 01 	movi $r4,#1
   910c0:	48 00 00 54 	j 91168 <update+0x7a8>
   910c4:	3c 47 e1 24 	lhsi.gp $r4,[+#-15800]
   910c8:	e0 44       	slts45 $r2,$r4
   910ca:	e8 03       	beqzs8 910d0 <update+0x710>
   910cc:	84 82       	movi55 $r4,#2
   910ce:	d5 4d       	j8 91168 <update+0x7a8>
   910d0:	3c 47 e1 25 	lhsi.gp $r4,[+#-15798]
   910d4:	e0 44       	slts45 $r2,$r4
   910d6:	e8 03       	beqzs8 910dc <update+0x71c>
   910d8:	84 83       	movi55 $r4,#3
   910da:	d5 47       	j8 91168 <update+0x7a8>
   910dc:	3c 47 e1 26 	lhsi.gp $r4,[+#-15796]
   910e0:	e0 44       	slts45 $r2,$r4
   910e2:	e8 03       	beqzs8 910e8 <update+0x728>
   910e4:	84 84       	movi55 $r4,#4
   910e6:	d5 41       	j8 91168 <update+0x7a8>
   910e8:	3c 47 e1 27 	lhsi.gp $r4,[+#-15794]
   910ec:	e0 44       	slts45 $r2,$r4
   910ee:	e8 03       	beqzs8 910f4 <update+0x734>
   910f0:	84 85       	movi55 $r4,#5
   910f2:	d5 3b       	j8 91168 <update+0x7a8>
   910f4:	3c 47 e1 28 	lhsi.gp $r4,[+#-15792]
   910f8:	e0 44       	slts45 $r2,$r4
   910fa:	e8 03       	beqzs8 91100 <update+0x740>
   910fc:	84 86       	movi55 $r4,#6
   910fe:	d5 35       	j8 91168 <update+0x7a8>
   91100:	3c 47 e1 29 	lhsi.gp $r4,[+#-15790]
   91104:	e0 44       	slts45 $r2,$r4
   91106:	e8 03       	beqzs8 9110c <update+0x74c>
   91108:	84 87       	movi55 $r4,#7
   9110a:	d5 2f       	j8 91168 <update+0x7a8>
   9110c:	3c 47 e1 2a 	lhsi.gp $r4,[+#-15788]
   91110:	e0 44       	slts45 $r2,$r4
   91112:	e8 03       	beqzs8 91118 <update+0x758>
   91114:	84 88       	movi55 $r4,#8
   91116:	d5 29       	j8 91168 <update+0x7a8>
   91118:	3c 47 e1 2b 	lhsi.gp $r4,[+#-15786]
   9111c:	e0 44       	slts45 $r2,$r4
   9111e:	e8 03       	beqzs8 91124 <update+0x764>
   91120:	84 89       	movi55 $r4,#9
   91122:	d5 23       	j8 91168 <update+0x7a8>
   91124:	3c 47 e1 2c 	lhsi.gp $r4,[+#-15784]
   91128:	e0 44       	slts45 $r2,$r4
   9112a:	e8 03       	beqzs8 91130 <update+0x770>
   9112c:	84 8a       	movi55 $r4,#10
   9112e:	d5 1d       	j8 91168 <update+0x7a8>
   91130:	3c 47 e1 2d 	lhsi.gp $r4,[+#-15782]
   91134:	e0 44       	slts45 $r2,$r4
   91136:	e8 03       	beqzs8 9113c <update+0x77c>
   91138:	84 8b       	movi55 $r4,#11
   9113a:	d5 17       	j8 91168 <update+0x7a8>
   9113c:	3c 47 e1 2e 	lhsi.gp $r4,[+#-15780]
   91140:	e0 44       	slts45 $r2,$r4
   91142:	e8 03       	beqzs8 91148 <update+0x788>
   91144:	84 8c       	movi55 $r4,#12
   91146:	d5 11       	j8 91168 <update+0x7a8>
   91148:	3c 47 e1 2f 	lhsi.gp $r4,[+#-15778]
   9114c:	e0 44       	slts45 $r2,$r4
   9114e:	e8 03       	beqzs8 91154 <update+0x794>
   91150:	84 8d       	movi55 $r4,#13
   91152:	d5 0b       	j8 91168 <update+0x7a8>
   91154:	3c 97 e1 30 	lhsi.gp $r9,[+#-15776]
   91158:	44 40 00 0e 	movi $r4,#14
   9115c:	40 91 24 07 	slts $r9,$r2,$r9
   91160:	44 50 00 0f 	movi $r5,#15
   91164:	40 42 a4 1a 	cmovz $r4,$r5,$r9
   91168:	40 51 18 08 	slli $r5,$r2,#6
   9116c:	40 52 90 0e 	sra $r5,$r5,$r4
   91170:	95 26       	slli333 $r4,$r4,#6
   91172:	99 25       	add333 $r4,$r4,$r5
   91174:	50 42 7c 00 	addi $r4,$r4,#-1024
   91178:	bc 92       	swi37 $r4,[$fp+#0x48]
   9117a:	d5 05       	j8 91184 <update+0x7c4>
   9117c:	44 40 fc 20 	movi $r4,#64544
   91180:	14 4e 00 12 	swi $r4,[$fp+#0x48]
   91184:	04 9f 80 05 	lwi $r9,[$sp+#0x14]
   91188:	05 ef 80 02 	lwi $lp,[$sp+#0x8]
   9118c:	f0 03       	lwi37.sp $r0,[+#0xc]
   9118e:	14 9e 00 0e 	swi $r9,[$fp+#0x38]
   91192:	15 ee 00 0d 	swi $lp,[$fp+#0x34]
   91196:	5a 08 01 15 	bnec $r0,#1,911c0 <update+0x800>
   9119a:	f1 04       	lwi37.sp $r1,[+#0x10]
   9119c:	bd 02       	lwi37 $r5,[$fp+#0x8]
   9119e:	bc 03       	lwi37 $r4,[$fp+#0xc]
   911a0:	94 0a       	slli333 $r0,$r1,#2
   911a2:	9a 04       	sub333 $r0,$r0,$r4
   911a4:	9a 4d       	sub333 $r1,$r1,$r5
   911a6:	44 20 01 00 	movi $r2,#256
   911aa:	90 25       	srai45 $r1,#5
   911ac:	90 07       	srai45 $r0,#7
   911ae:	98 4d       	add333 $r1,$r1,$r5
   911b0:	98 04       	add333 $r0,$r0,$r4
   911b2:	ba 84       	swi37 $r2,[$fp+#0x10]
   911b4:	84 40       	movi55 $r2,#0
   911b6:	ba 94       	swi37 $r2,[$fp+#0x50]
   911b8:	b9 82       	swi37 $r1,[$fp+#0x8]
   911ba:	b8 83       	swi37 $r0,[$fp+#0xc]
   911bc:	48 00 00 80 	j 912bc <update+0x8fc>
   911c0:	5e f4 52 00 	sltsi $r15,$r8,#-11776
   911c4:	e8 04       	beqzs8 911cc <update+0x80c>
   911c6:	84 01       	movi55 $r0,#1
   911c8:	b8 94       	swi37 $r0,[$fp+#0x50]
   911ca:	d5 3f       	j8 91248 <update+0x888>
   911cc:	84 00       	movi55 $r0,#0
   911ce:	b8 94       	swi37 $r0,[$fp+#0x50]
   911d0:	d5 3c       	j8 91248 <update+0x888>
   911d2:	b9 04       	lwi37 $r1,[$fp+#0x10]
   911d4:	52 00 82 00 	subri $r0,$r1,#512
   911d8:	90 04       	srai45 $r0,#4
   911da:	98 01       	add333 $r0,$r0,$r1
   911dc:	b8 84       	swi37 $r0,[$fp+#0x10]
   911de:	d5 6f       	j8 912bc <update+0x8fc>
   911e0:	04 1e 00 14 	lwi $r1,[$fp+#0x50]
   911e4:	5a 18 01 03 	bnec $r1,#1,911ea <update+0x82a>
   911e8:	d5 09       	j8 911fa <update+0x83a>
   911ea:	94 52       	slli333 $r1,$r2,#2
   911ec:	9a 48       	sub333 $r1,$r1,$r0
   911ee:	4e 14 00 03 	bgez $r1,911f4 <update+0x834>
   911f2:	fe 4a       	neg33 $r1,$r1
   911f4:	90 03       	srai45 $r0,#3
   911f6:	e0 20       	slts45 $r1,$r0
   911f8:	e9 08       	bnezs8 91208 <update+0x848>
   911fa:	b8 04       	lwi37 $r0,[$fp+#0x10]
   911fc:	52 10 02 00 	subri $r1,$r0,#512
   91200:	90 24       	srai45 $r1,#4
   91202:	98 08       	add333 $r0,$r1,$r0
   91204:	b8 84       	swi37 $r0,[$fp+#0x10]
   91206:	d5 5b       	j8 912bc <update+0x8fc>
   91208:	b9 04       	lwi37 $r1,[$fp+#0x10]
   9120a:	fe 0a       	neg33 $r0,$r1
   9120c:	90 04       	srai45 $r0,#4
   9120e:	98 01       	add333 $r0,$r0,$r1
   91210:	b8 84       	swi37 $r0,[$fp+#0x10]
   91212:	d5 55       	j8 912bc <update+0x8fc>
   91214:	44 9f 94 00 	movi $r9,#-27648
   91218:	45 e0 6c 00 	movi $lp,#27648
   9121c:	44 8f d0 00 	movi $r8,#-12288
   91220:	48 00 00 08 	j 91230 <update+0x870>
   91224:	44 9f f4 00 	movi $r9,#-3072
   91228:	45 e0 0c 00 	movi $lp,#3072
   9122c:	40 8f 08 08 	slli $r8,$lp,#2
   91230:	40 a1 20 0a 	srai $r10,$r2,#8
   91234:	40 a1 28 01 	sub $r10,$r2,$r10
   91238:	14 8e 00 06 	swi $r8,[$fp+#0x18]
   9123c:	14 ae 00 05 	swi $r10,[$fp+#0x14]
   91240:	4e 72 fc 8a 	beqz $r7,90b54 <update+0x194>
   91244:	48 ff fc 8e 	j 90b60 <update+0x1a0>
   91248:	f2 04       	lwi37.sp $r2,[+#0x10]
   9124a:	bd 02       	lwi37 $r5,[$fp+#0x8]
   9124c:	bc 03       	lwi37 $r4,[$fp+#0xc]
   9124e:	94 12       	slli333 $r0,$r2,#2
   91250:	9a 04       	sub333 $r0,$r0,$r4
   91252:	9a 95       	sub333 $r2,$r2,$r5
   91254:	90 45       	srai45 $r2,#5
   91256:	90 07       	srai45 $r0,#7
   91258:	f6 01       	lwi37.sp $r6,[+#0x4]
   9125a:	98 95       	add333 $r2,$r2,$r5
   9125c:	98 04       	add333 $r0,$r0,$r4
   9125e:	ba 82       	swi37 $r2,[$fp+#0x8]
   91260:	b8 83       	swi37 $r0,[$fp+#0xc]
   91262:	5e f3 06 00 	sltsi $r15,$r6,#1536
   91266:	e8 bd       	beqzs8 911e0 <update+0x820>
   91268:	48 ff ff b5 	j 911d2 <update+0x812>
   9126c:	02 9e 00 22 	lhi $r9,[$fp+#0x44]
   91270:	03 ee 00 21 	lhi $lp,[$fp+#0x42]
   91274:	02 0e 00 20 	lhi $r0,[$fp+#0x40]
   91278:	02 1e 00 1f 	lhi $r1,[$fp+#0x3e]
   9127c:	02 2e 00 1e 	lhi $r2,[$fp+#0x3c]
   91280:	12 9e 00 23 	shi $r9,[$fp+#0x46]
   91284:	13 ee 00 22 	shi $lp,[$fp+#0x44]
   91288:	12 0e 00 21 	shi $r0,[$fp+#0x42]
   9128c:	12 1e 00 20 	shi $r1,[$fp+#0x40]
   91290:	12 2e 00 1f 	shi $r2,[$fp+#0x3e]
   91294:	48 ff fe 08 	j 90ea4 <update+0x4e4>
   91298:	02 6f 80 0f 	lhi $r6,[$sp+#0x1e]
   9129c:	02 9f 80 0e 	lhi $r9,[$sp+#0x1c]
   912a0:	03 ef 80 0d 	lhi $lp,[$sp+#0x1a]
   912a4:	12 2e 00 23 	shi $r2,[$fp+#0x46]
   912a8:	12 7e 00 22 	shi $r7,[$fp+#0x44]
   912ac:	12 6e 00 21 	shi $r6,[$fp+#0x42]
   912b0:	12 9e 00 20 	shi $r9,[$fp+#0x40]
   912b4:	13 ee 00 1f 	shi $lp,[$fp+#0x3e]
   912b8:	48 ff fe 04 	j 90ec0 <update+0x500>
   912bc:	ec 24       	addi10.sp #36
   912be:	3a 6f aa 84 	lmw.bim $r6,[$sp],$r10,#0xa    ! {$r6~$r10, $fp, $lp}
   912c2:	dd 9e       	ret5 $lp

000912c4 <predictor_zero>:
   912c4:	3a 6f aa bc 	smw.adm $r6,[$sp],$r10,#0xa    ! {$r6~$r10, $fp, $lp}
   912c8:	ef cc       	addi10.sp #-52
   912ca:	a0 c7       	lwi333 $r3,[$r0+#0x1c]
   912cc:	22 40 00 1e 	lhsi $r4,[$r0+#0x3c]
   912d0:	40 31 88 0a 	srai $r3,$r3,#2
   912d4:	4e 37 00 04 	blez $r3,912dc <predictor_zero+0x18>
   912d8:	80 23       	mov55 $r1,$r3
   912da:	d5 05       	j8 912e4 <predictor_zero+0x20>
   912dc:	52 11 80 00 	subri $r1,$r3,#0
   912e0:	54 10 9f ff 	andi $r1,$r1,#0x1fff
   912e4:	3c 97 e1 22 	lhsi.gp $r9,[+#-15804]
   912e8:	e0 29       	slts45 $r1,$r9
   912ea:	e8 05       	beqzs8 912f4 <predictor_zero+0x30>
   912ec:	44 20 00 00 	movi $r2,#0
   912f0:	48 00 00 5b 	j 913a6 <predictor_zero+0xe2>
   912f4:	3c 27 e1 23 	lhsi.gp $r2,[+#-15802]
   912f8:	e0 22       	slts45 $r1,$r2
   912fa:	e8 05       	beqzs8 91304 <predictor_zero+0x40>
   912fc:	44 20 00 01 	movi $r2,#1
   91300:	48 00 00 53 	j 913a6 <predictor_zero+0xe2>
   91304:	3c 27 e1 24 	lhsi.gp $r2,[+#-15800]
   91308:	e0 22       	slts45 $r1,$r2
   9130a:	e8 03       	beqzs8 91310 <predictor_zero+0x4c>
   9130c:	84 42       	movi55 $r2,#2
   9130e:	d5 4c       	j8 913a6 <predictor_zero+0xe2>
   91310:	3c 27 e1 25 	lhsi.gp $r2,[+#-15798]
   91314:	e0 22       	slts45 $r1,$r2
   91316:	e8 03       	beqzs8 9131c <predictor_zero+0x58>
   91318:	84 43       	movi55 $r2,#3
   9131a:	d5 46       	j8 913a6 <predictor_zero+0xe2>
   9131c:	3c 27 e1 26 	lhsi.gp $r2,[+#-15796]
   91320:	e0 22       	slts45 $r1,$r2
   91322:	e8 03       	beqzs8 91328 <predictor_zero+0x64>
   91324:	84 44       	movi55 $r2,#4
   91326:	d5 40       	j8 913a6 <predictor_zero+0xe2>
   91328:	3c 27 e1 27 	lhsi.gp $r2,[+#-15794]
   9132c:	e0 22       	slts45 $r1,$r2
   9132e:	e8 03       	beqzs8 91334 <predictor_zero+0x70>
   91330:	84 45       	movi55 $r2,#5
   91332:	d5 3a       	j8 913a6 <predictor_zero+0xe2>
   91334:	3c 27 e1 28 	lhsi.gp $r2,[+#-15792]
   91338:	e0 22       	slts45 $r1,$r2
   9133a:	e8 03       	beqzs8 91340 <predictor_zero+0x7c>
   9133c:	84 46       	movi55 $r2,#6
   9133e:	d5 34       	j8 913a6 <predictor_zero+0xe2>
   91340:	3c 27 e1 29 	lhsi.gp $r2,[+#-15790]
   91344:	e0 22       	slts45 $r1,$r2
   91346:	e8 03       	beqzs8 9134c <predictor_zero+0x88>
   91348:	84 47       	movi55 $r2,#7
   9134a:	d5 2e       	j8 913a6 <predictor_zero+0xe2>
   9134c:	3c 27 e1 2a 	lhsi.gp $r2,[+#-15788]
   91350:	e0 22       	slts45 $r1,$r2
   91352:	e8 03       	beqzs8 91358 <predictor_zero+0x94>
   91354:	84 48       	movi55 $r2,#8
   91356:	d5 28       	j8 913a6 <predictor_zero+0xe2>
   91358:	3c 27 e1 2b 	lhsi.gp $r2,[+#-15786]
   9135c:	e0 22       	slts45 $r1,$r2
   9135e:	e8 03       	beqzs8 91364 <predictor_zero+0xa0>
   91360:	84 49       	movi55 $r2,#9
   91362:	d5 22       	j8 913a6 <predictor_zero+0xe2>
   91364:	3c 27 e1 2c 	lhsi.gp $r2,[+#-15784]
   91368:	e0 22       	slts45 $r1,$r2
   9136a:	e8 03       	beqzs8 91370 <predictor_zero+0xac>
   9136c:	84 4a       	movi55 $r2,#10
   9136e:	d5 1c       	j8 913a6 <predictor_zero+0xe2>
   91370:	3c 27 e1 2d 	lhsi.gp $r2,[+#-15782]
   91374:	e0 22       	slts45 $r1,$r2
   91376:	e8 03       	beqzs8 9137c <predictor_zero+0xb8>
   91378:	84 4b       	movi55 $r2,#11
   9137a:	d5 16       	j8 913a6 <predictor_zero+0xe2>
   9137c:	3c 27 e1 2e 	lhsi.gp $r2,[+#-15780]
   91380:	e0 22       	slts45 $r1,$r2
   91382:	e8 03       	beqzs8 91388 <predictor_zero+0xc4>
   91384:	84 4c       	movi55 $r2,#12
   91386:	d5 10       	j8 913a6 <predictor_zero+0xe2>
   91388:	3c 27 e1 2f 	lhsi.gp $r2,[+#-15778]
   9138c:	e0 22       	slts45 $r1,$r2
   9138e:	e8 03       	beqzs8 91394 <predictor_zero+0xd0>
   91390:	84 4d       	movi55 $r2,#13
   91392:	d5 0a       	j8 913a6 <predictor_zero+0xe2>
   91394:	3c 67 e1 30 	lhsi.gp $r6,[+#-15776]
   91398:	44 20 00 0e 	movi $r2,#14
   9139c:	40 60 98 07 	slts $r6,$r1,$r6
   913a0:	84 af       	movi55 $r5,#15
   913a2:	40 22 98 1a 	cmovz $r2,$r5,$r6
   913a6:	9e 96       	subi333 $r2,$r2,#6
   913a8:	c9 04       	bnez38 $r1,913b0 <predictor_zero+0xec>
   913aa:	fa 30       	movpi45 $r1,#0x20
   913ac:	48 00 00 0c 	j 913c4 <predictor_zero+0x100>
   913b0:	4e 25 00 06 	bltz $r2,913bc <predictor_zero+0xf8>
   913b4:	40 10 88 0e 	sra $r1,$r1,$r2
   913b8:	48 00 00 06 	j 913c4 <predictor_zero+0x100>
   913bc:	52 51 00 00 	subri $r5,$r2,#0
   913c0:	40 10 94 0c 	sll $r1,$r1,$r5
   913c4:	40 62 18 0a 	srai $r6,$r4,#6
   913c8:	97 9f       	fexti33 $r6,#0x3
   913ca:	54 52 00 3f 	andi $r5,$r4,#0x3f
   913ce:	ff 4c       	mul33 $r5,$r1
   913d0:	50 13 7f f3 	addi $r1,$r6,#-13
   913d4:	40 10 88 00 	add $r1,$r1,$r2
   913d8:	50 22 80 30 	addi $r2,$r5,#48
   913dc:	40 21 10 0a 	srai $r2,$r2,#4
   913e0:	4e 15 00 08 	bltz $r1,913f0 <predictor_zero+0x12c>
   913e4:	40 11 04 0c 	sll $r1,$r2,$r1
   913e8:	54 10 ff ff 	andi $r1,$r1,#0x7fff
   913ec:	48 00 00 06 	j 913f8 <predictor_zero+0x134>
   913f0:	52 10 80 00 	subri $r1,$r1,#0
   913f4:	40 11 04 0e 	sra $r1,$r2,$r1
   913f8:	40 32 0c 03 	xor $r3,$r4,$r3
   913fc:	4e 34 00 04 	bgez $r3,91404 <predictor_zero+0x140>
   91400:	52 10 80 00 	subri $r1,$r1,#0
   91404:	3c 27 e1 26 	lhsi.gp $r2,[+#-15796]
   91408:	3c 47 e1 27 	lhsi.gp $r4,[+#-15794]
   9140c:	f2 81       	swi37.sp $r2,[+#0x4]
   9140e:	3c 27 e1 28 	lhsi.gp $r2,[+#-15792]
   91412:	f4 83       	swi37.sp $r4,[+#0xc]
   91414:	f2 82       	swi37.sp $r2,[+#0x8]
   91416:	3c 47 e1 29 	lhsi.gp $r4,[+#-15790]
   9141a:	3c 27 e1 2a 	lhsi.gp $r2,[+#-15788]
   9141e:	f4 84       	swi37.sp $r4,[+#0x10]
   91420:	f2 86       	swi37.sp $r2,[+#0x18]
   91422:	3c 47 e1 2b 	lhsi.gp $r4,[+#-15786]
   91426:	3c 27 e1 2c 	lhsi.gp $r2,[+#-15784]
   9142a:	f4 85       	swi37.sp $r4,[+#0x14]
   9142c:	14 2f 80 08 	swi $r2,[$sp+#0x20]
   91430:	3c 47 e1 2d 	lhsi.gp $r4,[+#-15782]
   91434:	3c 27 e1 2e 	lhsi.gp $r2,[+#-15780]
   91438:	04 30 00 08 	lwi $r3,[$r0+#0x20]
   9143c:	f4 87       	swi37.sp $r4,[+#0x1c]
   9143e:	f2 89       	swi37.sp $r2,[+#0x24]
   91440:	3c 47 e1 2f 	lhsi.gp $r4,[+#-15778]
   91444:	3c 27 e1 30 	lhsi.gp $r2,[+#-15776]
   91448:	40 31 88 0a 	srai $r3,$r3,#2
   9144c:	3c a7 e1 23 	lhsi.gp $r10,[+#-15802]
   91450:	3d c7 e1 24 	lhsi.gp $fp,[+#-15800]
   91454:	3d e7 e1 25 	lhsi.gp $lp,[+#-15798]
   91458:	f4 8b       	swi37.sp $r4,[+#0x2c]
   9145a:	f2 8a       	swi37.sp $r2,[+#0x28]
   9145c:	22 80 00 1f 	lhsi $r8,[$r0+#0x3e]
   91460:	4e 37 00 04 	blez $r3,91468 <predictor_zero+0x1a4>
   91464:	80 43       	mov55 $r2,$r3
   91466:	d5 04       	j8 9146e <predictor_zero+0x1aa>
   91468:	ff 5a       	neg33 $r5,$r3
   9146a:	54 22 9f ff 	andi $r2,$r5,#0x1fff
   9146e:	e0 49       	slts45 $r2,$r9
   91470:	e8 04       	beqzs8 91478 <predictor_zero+0x1b4>
   91472:	84 c6       	movi55 $r6,#6
   91474:	84 9a       	movi55 $r4,#-6
   91476:	d5 57       	j8 91524 <predictor_zero+0x260>
   91478:	e0 4a       	slts45 $r2,$r10
   9147a:	e8 04       	beqzs8 91482 <predictor_zero+0x1be>
   9147c:	84 c5       	movi55 $r6,#5
   9147e:	84 9b       	movi55 $r4,#-5
   91480:	d5 52       	j8 91524 <predictor_zero+0x260>
   91482:	e0 5c       	slts45 $r2,$fp
   91484:	e8 04       	beqzs8 9148c <predictor_zero+0x1c8>
   91486:	84 c4       	movi55 $r6,#4
   91488:	84 9c       	movi55 $r4,#-4
   9148a:	d5 4d       	j8 91524 <predictor_zero+0x260>
   9148c:	e0 5e       	slts45 $r2,$lp
   9148e:	e8 04       	beqzs8 91496 <predictor_zero+0x1d2>
   91490:	84 c3       	movi55 $r6,#3
   91492:	84 9d       	movi55 $r4,#-3
   91494:	d5 48       	j8 91524 <predictor_zero+0x260>
   91496:	f4 01       	lwi37.sp $r4,[+#0x4]
   91498:	e0 44       	slts45 $r2,$r4
   9149a:	e8 04       	beqzs8 914a2 <predictor_zero+0x1de>
   9149c:	84 c2       	movi55 $r6,#2
   9149e:	84 9e       	movi55 $r4,#-2
   914a0:	d5 42       	j8 91524 <predictor_zero+0x260>
   914a2:	f4 03       	lwi37.sp $r4,[+#0xc]
   914a4:	e0 44       	slts45 $r2,$r4
   914a6:	e8 04       	beqzs8 914ae <predictor_zero+0x1ea>
   914a8:	84 c1       	movi55 $r6,#1
   914aa:	84 9f       	movi55 $r4,#-1
   914ac:	d5 3c       	j8 91524 <predictor_zero+0x260>
   914ae:	f4 02       	lwi37.sp $r4,[+#0x8]
   914b0:	e0 44       	slts45 $r2,$r4
   914b2:	e8 04       	beqzs8 914ba <predictor_zero+0x1f6>
   914b4:	84 c0       	movi55 $r6,#0
   914b6:	80 86       	mov55 $r4,$r6
   914b8:	d5 36       	j8 91524 <predictor_zero+0x260>
   914ba:	f4 04       	lwi37.sp $r4,[+#0x10]
   914bc:	e0 44       	slts45 $r2,$r4
   914be:	e8 04       	beqzs8 914c6 <predictor_zero+0x202>
   914c0:	84 df       	movi55 $r6,#-1
   914c2:	84 81       	movi55 $r4,#1
   914c4:	d5 30       	j8 91524 <predictor_zero+0x260>
   914c6:	f4 06       	lwi37.sp $r4,[+#0x18]
   914c8:	e0 44       	slts45 $r2,$r4
   914ca:	e8 04       	beqzs8 914d2 <predictor_zero+0x20e>
   914cc:	84 de       	movi55 $r6,#-2
   914ce:	84 82       	movi55 $r4,#2
   914d0:	d5 2a       	j8 91524 <predictor_zero+0x260>
   914d2:	f4 05       	lwi37.sp $r4,[+#0x14]
   914d4:	e0 44       	slts45 $r2,$r4
   914d6:	e8 04       	beqzs8 914de <predictor_zero+0x21a>
   914d8:	84 dd       	movi55 $r6,#-3
   914da:	84 83       	movi55 $r4,#3
   914dc:	d5 24       	j8 91524 <predictor_zero+0x260>
   914de:	f4 08       	lwi37.sp $r4,[+#0x20]
   914e0:	e0 44       	slts45 $r2,$r4
   914e2:	e8 04       	beqzs8 914ea <predictor_zero+0x226>
   914e4:	84 dc       	movi55 $r6,#-4
   914e6:	84 84       	movi55 $r4,#4
   914e8:	d5 1e       	j8 91524 <predictor_zero+0x260>
   914ea:	f4 07       	lwi37.sp $r4,[+#0x1c]
   914ec:	e0 44       	slts45 $r2,$r4
   914ee:	e8 04       	beqzs8 914f6 <predictor_zero+0x232>
   914f0:	84 db       	movi55 $r6,#-5
   914f2:	84 85       	movi55 $r4,#5
   914f4:	d5 18       	j8 91524 <predictor_zero+0x260>
   914f6:	f4 09       	lwi37.sp $r4,[+#0x24]
   914f8:	e0 44       	slts45 $r2,$r4
   914fa:	e8 04       	beqzs8 91502 <predictor_zero+0x23e>
   914fc:	84 da       	movi55 $r6,#-6
   914fe:	84 86       	movi55 $r4,#6
   91500:	d5 12       	j8 91524 <predictor_zero+0x260>
   91502:	f4 0b       	lwi37.sp $r4,[+#0x2c]
   91504:	e0 44       	slts45 $r2,$r4
   91506:	e8 04       	beqzs8 9150e <predictor_zero+0x24a>
   91508:	84 d9       	movi55 $r6,#-7
   9150a:	84 87       	movi55 $r4,#7
   9150c:	d5 0c       	j8 91524 <predictor_zero+0x260>
   9150e:	f4 0a       	lwi37.sp $r4,[+#0x28]
   91510:	84 a9       	movi55 $r5,#9
   91512:	40 71 10 07 	slts $r7,$r2,$r4
   91516:	84 88       	movi55 $r4,#8
   91518:	84 d8       	movi55 $r6,#-8
   9151a:	40 42 9c 1a 	cmovz $r4,$r5,$r7
   9151e:	84 b7       	movi55 $r5,#-9
   91520:	40 62 9c 1a 	cmovz $r6,$r5,$r7
   91524:	ca 04       	bnez38 $r2,9152c <predictor_zero+0x268>
   91526:	fa 50       	movpi45 $r2,#0x20
   91528:	48 00 00 0a 	j 9153c <predictor_zero+0x278>
   9152c:	4e 44 00 06 	bgez $r4,91538 <predictor_zero+0x274>
   91530:	40 21 18 0c 	sll $r2,$r2,$r6
   91534:	48 00 00 04 	j 9153c <predictor_zero+0x278>
   91538:	40 21 10 0e 	sra $r2,$r2,$r4
   9153c:	40 54 18 0a 	srai $r5,$r8,#6
   91540:	54 62 80 0f 	andi $r6,$r5,#0xf
   91544:	54 54 00 3f 	andi $r5,$r8,#0x3f
   91548:	ff 54       	mul33 $r5,$r2
   9154a:	8e cd       	subi45 $r6,#13
   9154c:	50 52 80 30 	addi $r5,$r5,#48
   91550:	99 b4       	add333 $r6,$r6,$r4
   91552:	90 a4       	srai45 $r5,#4
   91554:	4e 64 00 08 	bgez $r6,91564 <predictor_zero+0x2a0>
   91558:	52 63 00 00 	subri $r6,$r6,#0
   9155c:	40 52 98 0e 	sra $r5,$r5,$r6
   91560:	48 00 00 06 	j 9156c <predictor_zero+0x2a8>
   91564:	40 52 98 0c 	sll $r5,$r5,$r6
   91568:	54 52 ff ff 	andi $r5,$r5,#0x7fff
   9156c:	40 34 0c 03 	xor $r3,$r8,$r3
   91570:	4e 34 00 04 	bgez $r3,91578 <predictor_zero+0x2b4>
   91574:	52 52 80 00 	subri $r5,$r5,#0
   91578:	04 30 00 09 	lwi $r3,[$r0+#0x24]
   9157c:	40 52 84 00 	add $r5,$r5,$r1
   91580:	40 81 88 0a 	srai $r8,$r3,#2
   91584:	22 10 00 20 	lhsi $r1,[$r0+#0x40]
   91588:	4e 87 00 04 	blez $r8,91590 <predictor_zero+0x2cc>
   9158c:	80 c8       	mov55 $r6,$r8
   9158e:	d5 05       	j8 91598 <predictor_zero+0x2d4>
   91590:	52 24 00 00 	subri $r2,$r8,#0
   91594:	54 61 1f ff 	andi $r6,$r2,#0x1fff
   91598:	e0 c9       	slts45 $r6,$r9
   9159a:	e8 04       	beqzs8 915a2 <predictor_zero+0x2de>
   9159c:	84 66       	movi55 $r3,#6
   9159e:	84 9a       	movi55 $r4,#-6
   915a0:	d5 57       	j8 9164e <predictor_zero+0x38a>
   915a2:	e0 ca       	slts45 $r6,$r10
   915a4:	e8 04       	beqzs8 915ac <predictor_zero+0x2e8>
   915a6:	84 65       	movi55 $r3,#5
   915a8:	84 9b       	movi55 $r4,#-5
   915aa:	d5 52       	j8 9164e <predictor_zero+0x38a>
   915ac:	e0 dc       	slts45 $r6,$fp
   915ae:	e8 04       	beqzs8 915b6 <predictor_zero+0x2f2>
   915b0:	84 64       	movi55 $r3,#4
   915b2:	84 9c       	movi55 $r4,#-4
   915b4:	d5 4d       	j8 9164e <predictor_zero+0x38a>
   915b6:	e0 de       	slts45 $r6,$lp
   915b8:	e8 04       	beqzs8 915c0 <predictor_zero+0x2fc>
   915ba:	84 63       	movi55 $r3,#3
   915bc:	84 9d       	movi55 $r4,#-3
   915be:	d5 48       	j8 9164e <predictor_zero+0x38a>
   915c0:	f2 01       	lwi37.sp $r2,[+#0x4]
   915c2:	e0 c2       	slts45 $r6,$r2
   915c4:	e8 04       	beqzs8 915cc <predictor_zero+0x308>
   915c6:	84 62       	movi55 $r3,#2
   915c8:	84 9e       	movi55 $r4,#-2
   915ca:	d5 42       	j8 9164e <predictor_zero+0x38a>
   915cc:	f4 03       	lwi37.sp $r4,[+#0xc]
   915ce:	e0 c4       	slts45 $r6,$r4
   915d0:	e8 04       	beqzs8 915d8 <predictor_zero+0x314>
   915d2:	84 61       	movi55 $r3,#1
   915d4:	84 9f       	movi55 $r4,#-1
   915d6:	d5 3c       	j8 9164e <predictor_zero+0x38a>
   915d8:	f2 02       	lwi37.sp $r2,[+#0x8]
   915da:	e0 c2       	slts45 $r6,$r2
   915dc:	e8 04       	beqzs8 915e4 <predictor_zero+0x320>
   915de:	84 60       	movi55 $r3,#0
   915e0:	80 83       	mov55 $r4,$r3
   915e2:	d5 36       	j8 9164e <predictor_zero+0x38a>
   915e4:	f4 04       	lwi37.sp $r4,[+#0x10]
   915e6:	e0 c4       	slts45 $r6,$r4
   915e8:	e8 04       	beqzs8 915f0 <predictor_zero+0x32c>
   915ea:	84 7f       	movi55 $r3,#-1
   915ec:	84 81       	movi55 $r4,#1
   915ee:	d5 30       	j8 9164e <predictor_zero+0x38a>
   915f0:	f2 06       	lwi37.sp $r2,[+#0x18]
   915f2:	e0 c2       	slts45 $r6,$r2
   915f4:	e8 04       	beqzs8 915fc <predictor_zero+0x338>
   915f6:	84 7e       	movi55 $r3,#-2
   915f8:	84 82       	movi55 $r4,#2
   915fa:	d5 2a       	j8 9164e <predictor_zero+0x38a>
   915fc:	f4 05       	lwi37.sp $r4,[+#0x14]
   915fe:	e0 c4       	slts45 $r6,$r4
   91600:	e8 04       	beqzs8 91608 <predictor_zero+0x344>
   91602:	84 7d       	movi55 $r3,#-3
   91604:	84 83       	movi55 $r4,#3
   91606:	d5 24       	j8 9164e <predictor_zero+0x38a>
   91608:	f2 08       	lwi37.sp $r2,[+#0x20]
   9160a:	e0 c2       	slts45 $r6,$r2
   9160c:	e8 04       	beqzs8 91614 <predictor_zero+0x350>
   9160e:	84 7c       	movi55 $r3,#-4
   91610:	84 84       	movi55 $r4,#4
   91612:	d5 1e       	j8 9164e <predictor_zero+0x38a>
   91614:	f4 07       	lwi37.sp $r4,[+#0x1c]
   91616:	e0 c4       	slts45 $r6,$r4
   91618:	e8 04       	beqzs8 91620 <predictor_zero+0x35c>
   9161a:	84 7b       	movi55 $r3,#-5
   9161c:	84 85       	movi55 $r4,#5
   9161e:	d5 18       	j8 9164e <predictor_zero+0x38a>
   91620:	f2 09       	lwi37.sp $r2,[+#0x24]
   91622:	e0 c2       	slts45 $r6,$r2
   91624:	e8 04       	beqzs8 9162c <predictor_zero+0x368>
   91626:	84 7a       	movi55 $r3,#-6
   91628:	84 86       	movi55 $r4,#6
   9162a:	d5 12       	j8 9164e <predictor_zero+0x38a>
   9162c:	f4 0b       	lwi37.sp $r4,[+#0x2c]
   9162e:	e0 c4       	slts45 $r6,$r4
   91630:	e8 04       	beqzs8 91638 <predictor_zero+0x374>
   91632:	84 79       	movi55 $r3,#-7
   91634:	84 87       	movi55 $r4,#7
   91636:	d5 0c       	j8 9164e <predictor_zero+0x38a>
   91638:	f2 0a       	lwi37.sp $r2,[+#0x28]
   9163a:	84 88       	movi55 $r4,#8
   9163c:	40 73 08 07 	slts $r7,$r6,$r2
   91640:	84 49       	movi55 $r2,#9
   91642:	84 78       	movi55 $r3,#-8
   91644:	40 41 1c 1a 	cmovz $r4,$r2,$r7
   91648:	84 57       	movi55 $r2,#-9
   9164a:	40 31 1c 1a 	cmovz $r3,$r2,$r7
   9164e:	ce 03       	bnez38 $r6,91654 <predictor_zero+0x390>
   91650:	fa d0       	movpi45 $r6,#0x20
   91652:	d5 09       	j8 91664 <predictor_zero+0x3a0>
   91654:	4e 44 00 06 	bgez $r4,91660 <predictor_zero+0x39c>
   91658:	40 63 0c 0c 	sll $r6,$r6,$r3
   9165c:	48 00 00 04 	j 91664 <predictor_zero+0x3a0>
   91660:	40 63 10 0e 	sra $r6,$r6,$r4
   91664:	40 20 98 0a 	srai $r2,$r1,#6
   91668:	54 31 00 0f 	andi $r3,$r2,#0xf
   9166c:	54 20 80 3f 	andi $r2,$r1,#0x3f
   91670:	fe b4       	mul33 $r2,$r6
   91672:	8e 6d       	subi45 $r3,#13
   91674:	50 21 00 30 	addi $r2,$r2,#48
   91678:	98 dc       	add333 $r3,$r3,$r4
   9167a:	90 44       	srai45 $r2,#4
   9167c:	4e 34 00 08 	bgez $r3,9168c <predictor_zero+0x3c8>
   91680:	52 31 80 00 	subri $r3,$r3,#0
   91684:	40 21 0c 0e 	sra $r2,$r2,$r3
   91688:	48 00 00 06 	j 91694 <predictor_zero+0x3d0>
   9168c:	40 21 0c 0c 	sll $r2,$r2,$r3
   91690:	54 21 7f ff 	andi $r2,$r2,#0x7fff
   91694:	40 10 a0 03 	xor $r1,$r1,$r8
   91698:	4e 14 00 04 	bgez $r1,916a0 <predictor_zero+0x3dc>
   9169c:	52 21 00 00 	subri $r2,$r2,#0
   916a0:	04 10 00 0a 	lwi $r1,[$r0+#0x28]
   916a4:	99 2a       	add333 $r4,$r5,$r2
   916a6:	90 22       	srai45 $r1,#2
   916a8:	22 80 00 21 	lhsi $r8,[$r0+#0x42]
   916ac:	4e 17 00 04 	blez $r1,916b4 <predictor_zero+0x3f0>
   916b0:	80 a1       	mov55 $r5,$r1
   916b2:	d5 05       	j8 916bc <predictor_zero+0x3f8>
   916b4:	52 20 80 00 	subri $r2,$r1,#0
   916b8:	54 51 1f ff 	andi $r5,$r2,#0x1fff
   916bc:	e0 a9       	slts45 $r5,$r9
   916be:	e8 04       	beqzs8 916c6 <predictor_zero+0x402>
   916c0:	84 66       	movi55 $r3,#6
   916c2:	84 fa       	movi55 $r7,#-6
   916c4:	d5 57       	j8 91772 <predictor_zero+0x4ae>
   916c6:	e0 aa       	slts45 $r5,$r10
   916c8:	e8 04       	beqzs8 916d0 <predictor_zero+0x40c>
   916ca:	84 65       	movi55 $r3,#5
   916cc:	84 fb       	movi55 $r7,#-5
   916ce:	d5 52       	j8 91772 <predictor_zero+0x4ae>
   916d0:	e0 bc       	slts45 $r5,$fp
   916d2:	e8 04       	beqzs8 916da <predictor_zero+0x416>
   916d4:	84 64       	movi55 $r3,#4
   916d6:	84 fc       	movi55 $r7,#-4
   916d8:	d5 4d       	j8 91772 <predictor_zero+0x4ae>
   916da:	e0 be       	slts45 $r5,$lp
   916dc:	e8 04       	beqzs8 916e4 <predictor_zero+0x420>
   916de:	84 63       	movi55 $r3,#3
   916e0:	84 fd       	movi55 $r7,#-3
   916e2:	d5 48       	j8 91772 <predictor_zero+0x4ae>
   916e4:	f2 01       	lwi37.sp $r2,[+#0x4]
   916e6:	e0 a2       	slts45 $r5,$r2
   916e8:	e8 04       	beqzs8 916f0 <predictor_zero+0x42c>
   916ea:	84 62       	movi55 $r3,#2
   916ec:	84 fe       	movi55 $r7,#-2
   916ee:	d5 42       	j8 91772 <predictor_zero+0x4ae>
   916f0:	f2 03       	lwi37.sp $r2,[+#0xc]
   916f2:	e0 a2       	slts45 $r5,$r2
   916f4:	e8 04       	beqzs8 916fc <predictor_zero+0x438>
   916f6:	84 61       	movi55 $r3,#1
   916f8:	84 ff       	movi55 $r7,#-1
   916fa:	d5 3c       	j8 91772 <predictor_zero+0x4ae>
   916fc:	f2 02       	lwi37.sp $r2,[+#0x8]
   916fe:	e0 a2       	slts45 $r5,$r2
   91700:	e8 04       	beqzs8 91708 <predictor_zero+0x444>
   91702:	84 60       	movi55 $r3,#0
   91704:	80 e3       	mov55 $r7,$r3
   91706:	d5 36       	j8 91772 <predictor_zero+0x4ae>
   91708:	f2 04       	lwi37.sp $r2,[+#0x10]
   9170a:	e0 a2       	slts45 $r5,$r2
   9170c:	e8 04       	beqzs8 91714 <predictor_zero+0x450>
   9170e:	84 7f       	movi55 $r3,#-1
   91710:	84 e1       	movi55 $r7,#1
   91712:	d5 30       	j8 91772 <predictor_zero+0x4ae>
   91714:	f2 06       	lwi37.sp $r2,[+#0x18]
   91716:	e0 a2       	slts45 $r5,$r2
   91718:	e8 04       	beqzs8 91720 <predictor_zero+0x45c>
   9171a:	84 7e       	movi55 $r3,#-2
   9171c:	84 e2       	movi55 $r7,#2
   9171e:	d5 2a       	j8 91772 <predictor_zero+0x4ae>
   91720:	f2 05       	lwi37.sp $r2,[+#0x14]
   91722:	e0 a2       	slts45 $r5,$r2
   91724:	e8 04       	beqzs8 9172c <predictor_zero+0x468>
   91726:	84 7d       	movi55 $r3,#-3
   91728:	84 e3       	movi55 $r7,#3
   9172a:	d5 24       	j8 91772 <predictor_zero+0x4ae>
   9172c:	f2 08       	lwi37.sp $r2,[+#0x20]
   9172e:	e0 a2       	slts45 $r5,$r2
   91730:	e8 04       	beqzs8 91738 <predictor_zero+0x474>
   91732:	84 7c       	movi55 $r3,#-4
   91734:	84 e4       	movi55 $r7,#4
   91736:	d5 1e       	j8 91772 <predictor_zero+0x4ae>
   91738:	f2 07       	lwi37.sp $r2,[+#0x1c]
   9173a:	e0 a2       	slts45 $r5,$r2
   9173c:	e8 04       	beqzs8 91744 <predictor_zero+0x480>
   9173e:	84 7b       	movi55 $r3,#-5
   91740:	84 e5       	movi55 $r7,#5
   91742:	d5 18       	j8 91772 <predictor_zero+0x4ae>
   91744:	f2 09       	lwi37.sp $r2,[+#0x24]
   91746:	e0 a2       	slts45 $r5,$r2
   91748:	e8 04       	beqzs8 91750 <predictor_zero+0x48c>
   9174a:	84 7a       	movi55 $r3,#-6
   9174c:	84 e6       	movi55 $r7,#6
   9174e:	d5 12       	j8 91772 <predictor_zero+0x4ae>
   91750:	f2 0b       	lwi37.sp $r2,[+#0x2c]
   91752:	e0 a2       	slts45 $r5,$r2
   91754:	e8 04       	beqzs8 9175c <predictor_zero+0x498>
   91756:	84 79       	movi55 $r3,#-7
   91758:	84 e7       	movi55 $r7,#7
   9175a:	d5 0c       	j8 91772 <predictor_zero+0x4ae>
   9175c:	f2 0a       	lwi37.sp $r2,[+#0x28]
   9175e:	84 e8       	movi55 $r7,#8
   91760:	40 62 88 07 	slts $r6,$r5,$r2
   91764:	84 49       	movi55 $r2,#9
   91766:	84 78       	movi55 $r3,#-8
   91768:	40 71 18 1a 	cmovz $r7,$r2,$r6
   9176c:	84 57       	movi55 $r2,#-9
   9176e:	40 31 18 1a 	cmovz $r3,$r2,$r6
   91772:	cd 03       	bnez38 $r5,91778 <predictor_zero+0x4b4>
   91774:	fa b0       	movpi45 $r5,#0x20
   91776:	d5 09       	j8 91788 <predictor_zero+0x4c4>
   91778:	4e 74 00 06 	bgez $r7,91784 <predictor_zero+0x4c0>
   9177c:	40 52 8c 0c 	sll $r5,$r5,$r3
   91780:	48 00 00 04 	j 91788 <predictor_zero+0x4c4>
   91784:	40 52 9c 0e 	sra $r5,$r5,$r7
   91788:	40 24 18 0a 	srai $r2,$r8,#6
   9178c:	54 31 00 0f 	andi $r3,$r2,#0xf
   91790:	54 24 00 3f 	andi $r2,$r8,#0x3f
   91794:	fe ac       	mul33 $r2,$r5
   91796:	8e 6d       	subi45 $r3,#13
   91798:	50 21 00 30 	addi $r2,$r2,#48
   9179c:	98 df       	add333 $r3,$r3,$r7
   9179e:	90 44       	srai45 $r2,#4
   917a0:	4e 34 00 08 	bgez $r3,917b0 <predictor_zero+0x4ec>
   917a4:	52 31 80 00 	subri $r3,$r3,#0
   917a8:	40 21 0c 0e 	sra $r2,$r2,$r3
   917ac:	48 00 00 06 	j 917b8 <predictor_zero+0x4f4>
   917b0:	40 21 0c 0c 	sll $r2,$r2,$r3
   917b4:	54 21 7f ff 	andi $r2,$r2,#0x7fff
   917b8:	40 14 04 03 	xor $r1,$r8,$r1
   917bc:	4e 14 00 04 	bgez $r1,917c4 <predictor_zero+0x500>
   917c0:	52 21 00 00 	subri $r2,$r2,#0
   917c4:	04 10 00 0b 	lwi $r1,[$r0+#0x2c]
   917c8:	40 82 08 00 	add $r8,$r4,$r2
   917cc:	40 10 88 0a 	srai $r1,$r1,#2
   917d0:	22 40 00 22 	lhsi $r4,[$r0+#0x44]
   917d4:	4e 17 00 04 	blez $r1,917dc <predictor_zero+0x518>
   917d8:	80 a1       	mov55 $r5,$r1
   917da:	d5 05       	j8 917e4 <predictor_zero+0x520>
   917dc:	52 20 80 00 	subri $r2,$r1,#0
   917e0:	54 51 1f ff 	andi $r5,$r2,#0x1fff
   917e4:	e0 a9       	slts45 $r5,$r9
   917e6:	e8 04       	beqzs8 917ee <predictor_zero+0x52a>
   917e8:	84 66       	movi55 $r3,#6
   917ea:	84 fa       	movi55 $r7,#-6
   917ec:	d5 57       	j8 9189a <predictor_zero+0x5d6>
   917ee:	e0 aa       	slts45 $r5,$r10
   917f0:	e8 04       	beqzs8 917f8 <predictor_zero+0x534>
   917f2:	84 65       	movi55 $r3,#5
   917f4:	84 fb       	movi55 $r7,#-5
   917f6:	d5 52       	j8 9189a <predictor_zero+0x5d6>
   917f8:	e0 bc       	slts45 $r5,$fp
   917fa:	e8 04       	beqzs8 91802 <predictor_zero+0x53e>
   917fc:	84 64       	movi55 $r3,#4
   917fe:	84 fc       	movi55 $r7,#-4
   91800:	d5 4d       	j8 9189a <predictor_zero+0x5d6>
   91802:	e0 be       	slts45 $r5,$lp
   91804:	e8 04       	beqzs8 9180c <predictor_zero+0x548>
   91806:	84 63       	movi55 $r3,#3
   91808:	84 fd       	movi55 $r7,#-3
   9180a:	d5 48       	j8 9189a <predictor_zero+0x5d6>
   9180c:	f2 01       	lwi37.sp $r2,[+#0x4]
   9180e:	e0 a2       	slts45 $r5,$r2
   91810:	e8 04       	beqzs8 91818 <predictor_zero+0x554>
   91812:	84 62       	movi55 $r3,#2
   91814:	84 fe       	movi55 $r7,#-2
   91816:	d5 42       	j8 9189a <predictor_zero+0x5d6>
   91818:	f2 03       	lwi37.sp $r2,[+#0xc]
   9181a:	e0 a2       	slts45 $r5,$r2
   9181c:	e8 04       	beqzs8 91824 <predictor_zero+0x560>
   9181e:	84 61       	movi55 $r3,#1
   91820:	84 ff       	movi55 $r7,#-1
   91822:	d5 3c       	j8 9189a <predictor_zero+0x5d6>
   91824:	f2 02       	lwi37.sp $r2,[+#0x8]
   91826:	e0 a2       	slts45 $r5,$r2
   91828:	e8 04       	beqzs8 91830 <predictor_zero+0x56c>
   9182a:	84 60       	movi55 $r3,#0
   9182c:	80 e3       	mov55 $r7,$r3
   9182e:	d5 36       	j8 9189a <predictor_zero+0x5d6>
   91830:	f2 04       	lwi37.sp $r2,[+#0x10]
   91832:	e0 a2       	slts45 $r5,$r2
   91834:	e8 04       	beqzs8 9183c <predictor_zero+0x578>
   91836:	84 7f       	movi55 $r3,#-1
   91838:	84 e1       	movi55 $r7,#1
   9183a:	d5 30       	j8 9189a <predictor_zero+0x5d6>
   9183c:	f2 06       	lwi37.sp $r2,[+#0x18]
   9183e:	e0 a2       	slts45 $r5,$r2
   91840:	e8 04       	beqzs8 91848 <predictor_zero+0x584>
   91842:	84 7e       	movi55 $r3,#-2
   91844:	84 e2       	movi55 $r7,#2
   91846:	d5 2a       	j8 9189a <predictor_zero+0x5d6>
   91848:	f2 05       	lwi37.sp $r2,[+#0x14]
   9184a:	e0 a2       	slts45 $r5,$r2
   9184c:	e8 04       	beqzs8 91854 <predictor_zero+0x590>
   9184e:	84 7d       	movi55 $r3,#-3
   91850:	84 e3       	movi55 $r7,#3
   91852:	d5 24       	j8 9189a <predictor_zero+0x5d6>
   91854:	f2 08       	lwi37.sp $r2,[+#0x20]
   91856:	e0 a2       	slts45 $r5,$r2
   91858:	e8 04       	beqzs8 91860 <predictor_zero+0x59c>
   9185a:	84 7c       	movi55 $r3,#-4
   9185c:	84 e4       	movi55 $r7,#4
   9185e:	d5 1e       	j8 9189a <predictor_zero+0x5d6>
   91860:	f2 07       	lwi37.sp $r2,[+#0x1c]
   91862:	e0 a2       	slts45 $r5,$r2
   91864:	e8 04       	beqzs8 9186c <predictor_zero+0x5a8>
   91866:	84 7b       	movi55 $r3,#-5
   91868:	84 e5       	movi55 $r7,#5
   9186a:	d5 18       	j8 9189a <predictor_zero+0x5d6>
   9186c:	f2 09       	lwi37.sp $r2,[+#0x24]
   9186e:	e0 a2       	slts45 $r5,$r2
   91870:	e8 04       	beqzs8 91878 <predictor_zero+0x5b4>
   91872:	84 7a       	movi55 $r3,#-6
   91874:	84 e6       	movi55 $r7,#6
   91876:	d5 12       	j8 9189a <predictor_zero+0x5d6>
   91878:	f2 0b       	lwi37.sp $r2,[+#0x2c]
   9187a:	e0 a2       	slts45 $r5,$r2
   9187c:	e8 04       	beqzs8 91884 <predictor_zero+0x5c0>
   9187e:	84 79       	movi55 $r3,#-7
   91880:	84 e7       	movi55 $r7,#7
   91882:	d5 0c       	j8 9189a <predictor_zero+0x5d6>
   91884:	f2 0a       	lwi37.sp $r2,[+#0x28]
   91886:	84 e8       	movi55 $r7,#8
   91888:	40 62 88 07 	slts $r6,$r5,$r2
   9188c:	84 49       	movi55 $r2,#9
   9188e:	84 78       	movi55 $r3,#-8
   91890:	40 71 18 1a 	cmovz $r7,$r2,$r6
   91894:	84 57       	movi55 $r2,#-9
   91896:	40 31 18 1a 	cmovz $r3,$r2,$r6
   9189a:	cd 03       	bnez38 $r5,918a0 <predictor_zero+0x5dc>
   9189c:	fa b0       	movpi45 $r5,#0x20
   9189e:	d5 09       	j8 918b0 <predictor_zero+0x5ec>
   918a0:	4e 74 00 06 	bgez $r7,918ac <predictor_zero+0x5e8>
   918a4:	40 52 8c 0c 	sll $r5,$r5,$r3
   918a8:	48 00 00 04 	j 918b0 <predictor_zero+0x5ec>
   918ac:	40 52 9c 0e 	sra $r5,$r5,$r7
   918b0:	40 22 18 0a 	srai $r2,$r4,#6
   918b4:	54 31 00 0f 	andi $r3,$r2,#0xf
   918b8:	54 22 00 3f 	andi $r2,$r4,#0x3f
   918bc:	fe ac       	mul33 $r2,$r5
   918be:	8e 6d       	subi45 $r3,#13
   918c0:	50 21 00 30 	addi $r2,$r2,#48
   918c4:	98 df       	add333 $r3,$r3,$r7
   918c6:	90 44       	srai45 $r2,#4
   918c8:	4e 34 00 08 	bgez $r3,918d8 <predictor_zero+0x614>
   918cc:	52 31 80 00 	subri $r3,$r3,#0
   918d0:	40 21 0c 0e 	sra $r2,$r2,$r3
   918d4:	48 00 00 06 	j 918e0 <predictor_zero+0x61c>
   918d8:	40 21 0c 0c 	sll $r2,$r2,$r3
   918dc:	54 21 7f ff 	andi $r2,$r2,#0x7fff
   918e0:	40 12 04 03 	xor $r1,$r4,$r1
   918e4:	4e 14 00 04 	bgez $r1,918ec <predictor_zero+0x628>
   918e8:	52 21 00 00 	subri $r2,$r2,#0
   918ec:	04 10 00 0c 	lwi $r1,[$r0+#0x30]
   918f0:	40 84 08 00 	add $r8,$r8,$r2
   918f4:	40 70 88 0a 	srai $r7,$r1,#2
   918f8:	22 60 00 23 	lhsi $r6,[$r0+#0x46]
   918fc:	4e 77 00 04 	blez $r7,91904 <predictor_zero+0x640>
   91900:	80 67       	mov55 $r3,$r7
   91902:	d5 05       	j8 9190c <predictor_zero+0x648>
   91904:	52 33 80 00 	subri $r3,$r7,#0
   91908:	54 31 9f ff 	andi $r3,$r3,#0x1fff
   9190c:	e0 69       	slts45 $r3,$r9
   9190e:	e8 04       	beqzs8 91916 <predictor_zero+0x652>
   91910:	84 46       	movi55 $r2,#6
   91912:	84 3a       	movi55 $r1,#-6
   91914:	d5 57       	j8 919c2 <predictor_zero+0x6fe>
   91916:	e0 6a       	slts45 $r3,$r10
   91918:	e8 04       	beqzs8 91920 <predictor_zero+0x65c>
   9191a:	84 45       	movi55 $r2,#5
   9191c:	84 3b       	movi55 $r1,#-5
   9191e:	d5 52       	j8 919c2 <predictor_zero+0x6fe>
   91920:	e0 7c       	slts45 $r3,$fp
   91922:	e8 04       	beqzs8 9192a <predictor_zero+0x666>
   91924:	84 44       	movi55 $r2,#4
   91926:	84 3c       	movi55 $r1,#-4
   91928:	d5 4d       	j8 919c2 <predictor_zero+0x6fe>
   9192a:	e0 7e       	slts45 $r3,$lp
   9192c:	e8 04       	beqzs8 91934 <predictor_zero+0x670>
   9192e:	84 43       	movi55 $r2,#3
   91930:	84 3d       	movi55 $r1,#-3
   91932:	d5 48       	j8 919c2 <predictor_zero+0x6fe>
   91934:	f4 01       	lwi37.sp $r4,[+#0x4]
   91936:	e0 64       	slts45 $r3,$r4
   91938:	e8 04       	beqzs8 91940 <predictor_zero+0x67c>
   9193a:	84 42       	movi55 $r2,#2
   9193c:	84 3e       	movi55 $r1,#-2
   9193e:	d5 42       	j8 919c2 <predictor_zero+0x6fe>
   91940:	f0 03       	lwi37.sp $r0,[+#0xc]
   91942:	e0 60       	slts45 $r3,$r0
   91944:	e8 04       	beqzs8 9194c <predictor_zero+0x688>
   91946:	84 41       	movi55 $r2,#1
   91948:	84 3f       	movi55 $r1,#-1
   9194a:	d5 3c       	j8 919c2 <predictor_zero+0x6fe>
   9194c:	f2 02       	lwi37.sp $r2,[+#0x8]
   9194e:	e0 62       	slts45 $r3,$r2
   91950:	e8 04       	beqzs8 91958 <predictor_zero+0x694>
   91952:	84 40       	movi55 $r2,#0
   91954:	80 22       	mov55 $r1,$r2
   91956:	d5 36       	j8 919c2 <predictor_zero+0x6fe>
   91958:	f4 04       	lwi37.sp $r4,[+#0x10]
   9195a:	e0 64       	slts45 $r3,$r4
   9195c:	e8 04       	beqzs8 91964 <predictor_zero+0x6a0>
   9195e:	84 5f       	movi55 $r2,#-1
   91960:	84 21       	movi55 $r1,#1
   91962:	d5 30       	j8 919c2 <predictor_zero+0x6fe>
   91964:	f0 06       	lwi37.sp $r0,[+#0x18]
   91966:	e0 60       	slts45 $r3,$r0
   91968:	e8 04       	beqzs8 91970 <predictor_zero+0x6ac>
   9196a:	84 5e       	movi55 $r2,#-2
   9196c:	84 22       	movi55 $r1,#2
   9196e:	d5 2a       	j8 919c2 <predictor_zero+0x6fe>
   91970:	f2 05       	lwi37.sp $r2,[+#0x14]
   91972:	e0 62       	slts45 $r3,$r2
   91974:	e8 04       	beqzs8 9197c <predictor_zero+0x6b8>
   91976:	84 5d       	movi55 $r2,#-3
   91978:	84 23       	movi55 $r1,#3
   9197a:	d5 24       	j8 919c2 <predictor_zero+0x6fe>
   9197c:	f4 08       	lwi37.sp $r4,[+#0x20]
   9197e:	e0 64       	slts45 $r3,$r4
   91980:	e8 04       	beqzs8 91988 <predictor_zero+0x6c4>
   91982:	84 5c       	movi55 $r2,#-4
   91984:	84 24       	movi55 $r1,#4
   91986:	d5 1e       	j8 919c2 <predictor_zero+0x6fe>
   91988:	f0 07       	lwi37.sp $r0,[+#0x1c]
   9198a:	e0 60       	slts45 $r3,$r0
   9198c:	e8 04       	beqzs8 91994 <predictor_zero+0x6d0>
   9198e:	84 5b       	movi55 $r2,#-5
   91990:	84 25       	movi55 $r1,#5
   91992:	d5 18       	j8 919c2 <predictor_zero+0x6fe>
   91994:	f2 09       	lwi37.sp $r2,[+#0x24]
   91996:	e0 62       	slts45 $r3,$r2
   91998:	e8 04       	beqzs8 919a0 <predictor_zero+0x6dc>
   9199a:	84 5a       	movi55 $r2,#-6
   9199c:	84 26       	movi55 $r1,#6
   9199e:	d5 12       	j8 919c2 <predictor_zero+0x6fe>
   919a0:	f4 0b       	lwi37.sp $r4,[+#0x2c]
   919a2:	e0 64       	slts45 $r3,$r4
   919a4:	e8 04       	beqzs8 919ac <predictor_zero+0x6e8>
   919a6:	84 59       	movi55 $r2,#-7
   919a8:	84 27       	movi55 $r1,#7
   919aa:	d5 0c       	j8 919c2 <predictor_zero+0x6fe>
   919ac:	f0 0a       	lwi37.sp $r0,[+#0x28]
   919ae:	84 a9       	movi55 $r5,#9
   919b0:	40 41 80 07 	slts $r4,$r3,$r0
   919b4:	84 28       	movi55 $r1,#8
   919b6:	84 58       	movi55 $r2,#-8
   919b8:	40 12 90 1a 	cmovz $r1,$r5,$r4
   919bc:	84 b7       	movi55 $r5,#-9
   919be:	40 22 90 1a 	cmovz $r2,$r5,$r4
   919c2:	cb 03       	bnez38 $r3,919c8 <predictor_zero+0x704>
   919c4:	fa 50       	movpi45 $r2,#0x20
   919c6:	d5 09       	j8 919d8 <predictor_zero+0x714>
   919c8:	4e 15 00 06 	bltz $r1,919d4 <predictor_zero+0x710>
   919cc:	40 21 84 0e 	sra $r2,$r3,$r1
   919d0:	48 00 00 04 	j 919d8 <predictor_zero+0x714>
   919d4:	40 21 88 0c 	sll $r2,$r3,$r2
   919d8:	40 33 18 0a 	srai $r3,$r6,#6
   919dc:	96 df       	fexti33 $r3,#0x3
   919de:	54 43 00 3f 	andi $r4,$r6,#0x3f
   919e2:	fe a4       	mul33 $r2,$r4
   919e4:	8e 6d       	subi45 $r3,#13
   919e6:	50 21 00 30 	addi $r2,$r2,#48
   919ea:	98 59       	add333 $r1,$r3,$r1
   919ec:	40 21 10 0a 	srai $r2,$r2,#4
   919f0:	4e 15 00 08 	bltz $r1,91a00 <predictor_zero+0x73c>
   919f4:	40 21 04 0c 	sll $r2,$r2,$r1
   919f8:	54 01 7f ff 	andi $r0,$r2,#0x7fff
   919fc:	48 00 00 06 	j 91a08 <predictor_zero+0x744>
   91a00:	52 30 80 00 	subri $r3,$r1,#0
   91a04:	40 01 0c 0e 	sra $r0,$r2,$r3
   91a08:	40 13 1c 03 	xor $r1,$r6,$r7
   91a0c:	4e 14 00 03 	bgez $r1,91a12 <predictor_zero+0x74e>
   91a10:	fe 02       	neg33 $r0,$r0
   91a12:	88 08       	add45 $r0,$r8
   91a14:	ec 34       	addi10.sp #52
   91a16:	3a 6f aa 84 	lmw.bim $r6,[$sp],$r10,#0xa    ! {$r6~$r10, $fp, $lp}
   91a1a:	dd 9e       	ret5 $lp

00091a1c <predictor_pole>:
   91a1c:	3a 6f 9c 3c 	smw.adm $r6,[$sp],$r7,#0x0    ! {$r6~$r7}
   91a20:	a1 06       	lwi333 $r4,[$r0+#0x18]
   91a22:	04 30 00 13 	lwi $r3,[$r0+#0x4c]
   91a26:	90 82       	srai45 $r4,#2
   91a28:	4e 47 00 04 	blez $r4,91a30 <predictor_pole+0x14>
   91a2c:	80 24       	mov55 $r1,$r4
   91a2e:	d5 05       	j8 91a38 <predictor_pole+0x1c>
   91a30:	52 12 00 00 	subri $r1,$r4,#0
   91a34:	54 10 9f ff 	andi $r1,$r1,#0x1fff
   91a38:	3c 67 e1 22 	lhsi.gp $r6,[+#-15804]
   91a3c:	e0 26       	slts45 $r1,$r6
   91a3e:	e8 05       	beqzs8 91a48 <predictor_pole+0x2c>
   91a40:	44 20 00 00 	movi $r2,#0
   91a44:	48 00 00 5b 	j 91afa <predictor_pole+0xde>
   91a48:	3c 27 e1 23 	lhsi.gp $r2,[+#-15802]
   91a4c:	e0 22       	slts45 $r1,$r2
   91a4e:	e8 05       	beqzs8 91a58 <predictor_pole+0x3c>
   91a50:	44 20 00 01 	movi $r2,#1
   91a54:	48 00 00 53 	j 91afa <predictor_pole+0xde>
   91a58:	3c 27 e1 24 	lhsi.gp $r2,[+#-15800]
   91a5c:	e0 22       	slts45 $r1,$r2
   91a5e:	e8 03       	beqzs8 91a64 <predictor_pole+0x48>
   91a60:	84 42       	movi55 $r2,#2
   91a62:	d5 4c       	j8 91afa <predictor_pole+0xde>
   91a64:	3c 27 e1 25 	lhsi.gp $r2,[+#-15798]
   91a68:	e0 22       	slts45 $r1,$r2
   91a6a:	e8 03       	beqzs8 91a70 <predictor_pole+0x54>
   91a6c:	84 43       	movi55 $r2,#3
   91a6e:	d5 46       	j8 91afa <predictor_pole+0xde>
   91a70:	3c 27 e1 26 	lhsi.gp $r2,[+#-15796]
   91a74:	e0 22       	slts45 $r1,$r2
   91a76:	e8 03       	beqzs8 91a7c <predictor_pole+0x60>
   91a78:	84 44       	movi55 $r2,#4
   91a7a:	d5 40       	j8 91afa <predictor_pole+0xde>
   91a7c:	3c 27 e1 27 	lhsi.gp $r2,[+#-15794]
   91a80:	e0 22       	slts45 $r1,$r2
   91a82:	e8 03       	beqzs8 91a88 <predictor_pole+0x6c>
   91a84:	84 45       	movi55 $r2,#5
   91a86:	d5 3a       	j8 91afa <predictor_pole+0xde>
   91a88:	3c 27 e1 28 	lhsi.gp $r2,[+#-15792]
   91a8c:	e0 22       	slts45 $r1,$r2
   91a8e:	e8 03       	beqzs8 91a94 <predictor_pole+0x78>
   91a90:	84 46       	movi55 $r2,#6
   91a92:	d5 34       	j8 91afa <predictor_pole+0xde>
   91a94:	3c 27 e1 29 	lhsi.gp $r2,[+#-15790]
   91a98:	e0 22       	slts45 $r1,$r2
   91a9a:	e8 03       	beqzs8 91aa0 <predictor_pole+0x84>
   91a9c:	84 47       	movi55 $r2,#7
   91a9e:	d5 2e       	j8 91afa <predictor_pole+0xde>
   91aa0:	3c 27 e1 2a 	lhsi.gp $r2,[+#-15788]
   91aa4:	e0 22       	slts45 $r1,$r2
   91aa6:	e8 03       	beqzs8 91aac <predictor_pole+0x90>
   91aa8:	84 48       	movi55 $r2,#8
   91aaa:	d5 28       	j8 91afa <predictor_pole+0xde>
   91aac:	3c 27 e1 2b 	lhsi.gp $r2,[+#-15786]
   91ab0:	e0 22       	slts45 $r1,$r2
   91ab2:	e8 03       	beqzs8 91ab8 <predictor_pole+0x9c>
   91ab4:	84 49       	movi55 $r2,#9
   91ab6:	d5 22       	j8 91afa <predictor_pole+0xde>
   91ab8:	3c 27 e1 2c 	lhsi.gp $r2,[+#-15784]
   91abc:	e0 22       	slts45 $r1,$r2
   91abe:	e8 03       	beqzs8 91ac4 <predictor_pole+0xa8>
   91ac0:	84 4a       	movi55 $r2,#10
   91ac2:	d5 1c       	j8 91afa <predictor_pole+0xde>
   91ac4:	3c 27 e1 2d 	lhsi.gp $r2,[+#-15782]
   91ac8:	e0 22       	slts45 $r1,$r2
   91aca:	e8 03       	beqzs8 91ad0 <predictor_pole+0xb4>
   91acc:	84 4b       	movi55 $r2,#11
   91ace:	d5 16       	j8 91afa <predictor_pole+0xde>
   91ad0:	3c 27 e1 2e 	lhsi.gp $r2,[+#-15780]
   91ad4:	e0 22       	slts45 $r1,$r2
   91ad6:	e8 03       	beqzs8 91adc <predictor_pole+0xc0>
   91ad8:	84 4c       	movi55 $r2,#12
   91ada:	d5 10       	j8 91afa <predictor_pole+0xde>
   91adc:	3c 27 e1 2f 	lhsi.gp $r2,[+#-15778]
   91ae0:	e0 22       	slts45 $r1,$r2
   91ae2:	e8 03       	beqzs8 91ae8 <predictor_pole+0xcc>
   91ae4:	84 4d       	movi55 $r2,#13
   91ae6:	d5 0a       	j8 91afa <predictor_pole+0xde>
   91ae8:	3c 77 e1 30 	lhsi.gp $r7,[+#-15776]
   91aec:	44 20 00 0e 	movi $r2,#14
   91af0:	40 70 9c 07 	slts $r7,$r1,$r7
   91af4:	84 af       	movi55 $r5,#15
   91af6:	40 22 9c 1a 	cmovz $r2,$r5,$r7
   91afa:	9e 96       	subi333 $r2,$r2,#6
   91afc:	c9 04       	bnez38 $r1,91b04 <predictor_pole+0xe8>
   91afe:	fa 30       	movpi45 $r1,#0x20
   91b00:	48 00 00 0c 	j 91b18 <predictor_pole+0xfc>
   91b04:	4e 25 00 06 	bltz $r2,91b10 <predictor_pole+0xf4>
   91b08:	40 10 88 0e 	sra $r1,$r1,$r2
   91b0c:	48 00 00 06 	j 91b18 <predictor_pole+0xfc>
   91b10:	52 51 00 00 	subri $r5,$r2,#0
   91b14:	40 10 94 0c 	sll $r1,$r1,$r5
   91b18:	40 51 98 0a 	srai $r5,$r3,#6
   91b1c:	97 5f       	fexti33 $r5,#0x3
   91b1e:	54 71 80 3f 	andi $r7,$r3,#0x3f
   91b22:	8e ad       	subi45 $r5,#13
   91b24:	fe 7c       	mul33 $r1,$r7
   91b26:	98 aa       	add333 $r2,$r5,$r2
   91b28:	50 50 80 30 	addi $r5,$r1,#48
   91b2c:	40 52 90 0a 	srai $r5,$r5,#4
   91b30:	4e 25 00 08 	bltz $r2,91b40 <predictor_pole+0x124>
   91b34:	40 52 88 0c 	sll $r5,$r5,$r2
   91b38:	54 52 ff ff 	andi $r5,$r5,#0x7fff
   91b3c:	48 00 00 06 	j 91b48 <predictor_pole+0x12c>
   91b40:	52 21 00 00 	subri $r2,$r2,#0
   91b44:	40 52 88 0e 	sra $r5,$r5,$r2
   91b48:	fe e5       	xor33 $r3,$r4
   91b4a:	4e 34 00 03 	bgez $r3,91b50 <predictor_pole+0x134>
   91b4e:	ff 6a       	neg33 $r5,$r5
   91b50:	04 40 00 05 	lwi $r4,[$r0+#0x14]
   91b54:	04 30 00 12 	lwi $r3,[$r0+#0x48]
   91b58:	40 42 08 0a 	srai $r4,$r4,#2
   91b5c:	4e 47 00 04 	blez $r4,91b64 <predictor_pole+0x148>
   91b60:	80 24       	mov55 $r1,$r4
   91b62:	d5 04       	j8 91b6a <predictor_pole+0x14e>
   91b64:	fe 62       	neg33 $r1,$r4
   91b66:	54 10 9f ff 	andi $r1,$r1,#0x1fff
   91b6a:	e0 26       	slts45 $r1,$r6
   91b6c:	e8 04       	beqzs8 91b74 <predictor_pole+0x158>
   91b6e:	84 40       	movi55 $r2,#0
   91b70:	48 00 00 5b 	j 91c26 <predictor_pole+0x20a>
   91b74:	3c 07 e1 23 	lhsi.gp $r0,[+#-15802]
   91b78:	e0 20       	slts45 $r1,$r0
   91b7a:	e8 05       	beqzs8 91b84 <predictor_pole+0x168>
   91b7c:	44 20 00 01 	movi $r2,#1
   91b80:	48 00 00 53 	j 91c26 <predictor_pole+0x20a>
   91b84:	3c 07 e1 24 	lhsi.gp $r0,[+#-15800]
   91b88:	e0 20       	slts45 $r1,$r0
   91b8a:	e8 03       	beqzs8 91b90 <predictor_pole+0x174>
   91b8c:	84 42       	movi55 $r2,#2
   91b8e:	d5 4c       	j8 91c26 <predictor_pole+0x20a>
   91b90:	3c 07 e1 25 	lhsi.gp $r0,[+#-15798]
   91b94:	e0 20       	slts45 $r1,$r0
   91b96:	e8 03       	beqzs8 91b9c <predictor_pole+0x180>
   91b98:	84 43       	movi55 $r2,#3
   91b9a:	d5 46       	j8 91c26 <predictor_pole+0x20a>
   91b9c:	3c 07 e1 26 	lhsi.gp $r0,[+#-15796]
   91ba0:	e0 20       	slts45 $r1,$r0
   91ba2:	e8 03       	beqzs8 91ba8 <predictor_pole+0x18c>
   91ba4:	84 44       	movi55 $r2,#4
   91ba6:	d5 40       	j8 91c26 <predictor_pole+0x20a>
   91ba8:	3c 07 e1 27 	lhsi.gp $r0,[+#-15794]
   91bac:	e0 20       	slts45 $r1,$r0
   91bae:	e8 03       	beqzs8 91bb4 <predictor_pole+0x198>
   91bb0:	84 45       	movi55 $r2,#5
   91bb2:	d5 3a       	j8 91c26 <predictor_pole+0x20a>
   91bb4:	3c 07 e1 28 	lhsi.gp $r0,[+#-15792]
   91bb8:	e0 20       	slts45 $r1,$r0
   91bba:	e8 03       	beqzs8 91bc0 <predictor_pole+0x1a4>
   91bbc:	84 46       	movi55 $r2,#6
   91bbe:	d5 34       	j8 91c26 <predictor_pole+0x20a>
   91bc0:	3c 07 e1 29 	lhsi.gp $r0,[+#-15790]
   91bc4:	e0 20       	slts45 $r1,$r0
   91bc6:	e8 03       	beqzs8 91bcc <predictor_pole+0x1b0>
   91bc8:	84 47       	movi55 $r2,#7
   91bca:	d5 2e       	j8 91c26 <predictor_pole+0x20a>
   91bcc:	3c 07 e1 2a 	lhsi.gp $r0,[+#-15788]
   91bd0:	e0 20       	slts45 $r1,$r0
   91bd2:	e8 03       	beqzs8 91bd8 <predictor_pole+0x1bc>
   91bd4:	84 48       	movi55 $r2,#8
   91bd6:	d5 28       	j8 91c26 <predictor_pole+0x20a>
   91bd8:	3c 07 e1 2b 	lhsi.gp $r0,[+#-15786]
   91bdc:	e0 20       	slts45 $r1,$r0
   91bde:	e8 03       	beqzs8 91be4 <predictor_pole+0x1c8>
   91be0:	84 49       	movi55 $r2,#9
   91be2:	d5 22       	j8 91c26 <predictor_pole+0x20a>
   91be4:	3c 07 e1 2c 	lhsi.gp $r0,[+#-15784]
   91be8:	e0 20       	slts45 $r1,$r0
   91bea:	e8 03       	beqzs8 91bf0 <predictor_pole+0x1d4>
   91bec:	84 4a       	movi55 $r2,#10
   91bee:	d5 1c       	j8 91c26 <predictor_pole+0x20a>
   91bf0:	3c 07 e1 2d 	lhsi.gp $r0,[+#-15782]
   91bf4:	e0 20       	slts45 $r1,$r0
   91bf6:	e8 03       	beqzs8 91bfc <predictor_pole+0x1e0>
   91bf8:	84 4b       	movi55 $r2,#11
   91bfa:	d5 16       	j8 91c26 <predictor_pole+0x20a>
   91bfc:	3c 07 e1 2e 	lhsi.gp $r0,[+#-15780]
   91c00:	e0 20       	slts45 $r1,$r0
   91c02:	e8 03       	beqzs8 91c08 <predictor_pole+0x1ec>
   91c04:	84 4c       	movi55 $r2,#12
   91c06:	d5 10       	j8 91c26 <predictor_pole+0x20a>
   91c08:	3c 07 e1 2f 	lhsi.gp $r0,[+#-15778]
   91c0c:	e0 20       	slts45 $r1,$r0
   91c0e:	e8 03       	beqzs8 91c14 <predictor_pole+0x1f8>
   91c10:	84 4d       	movi55 $r2,#13
   91c12:	d5 0a       	j8 91c26 <predictor_pole+0x20a>
   91c14:	3c 67 e1 30 	lhsi.gp $r6,[+#-15776]
   91c18:	44 20 00 0e 	movi $r2,#14
   91c1c:	40 60 98 07 	slts $r6,$r1,$r6
   91c20:	84 0f       	movi55 $r0,#15
   91c22:	40 20 18 1a 	cmovz $r2,$r0,$r6
   91c26:	9e 96       	subi333 $r2,$r2,#6
   91c28:	c9 04       	bnez38 $r1,91c30 <predictor_pole+0x214>
   91c2a:	fa 30       	movpi45 $r1,#0x20
   91c2c:	48 00 00 0c 	j 91c44 <predictor_pole+0x228>
   91c30:	4e 25 00 06 	bltz $r2,91c3c <predictor_pole+0x220>
   91c34:	40 10 88 0e 	sra $r1,$r1,$r2
   91c38:	48 00 00 06 	j 91c44 <predictor_pole+0x228>
   91c3c:	52 01 00 00 	subri $r0,$r2,#0
   91c40:	40 10 80 0c 	sll $r1,$r1,$r0
   91c44:	40 61 98 0a 	srai $r6,$r3,#6
   91c48:	97 9f       	fexti33 $r6,#0x3
   91c4a:	54 01 80 3f 	andi $r0,$r3,#0x3f
   91c4e:	fe 0c       	mul33 $r0,$r1
   91c50:	50 13 7f f3 	addi $r1,$r6,#-13
   91c54:	50 00 00 30 	addi $r0,$r0,#48
   91c58:	98 8a       	add333 $r2,$r1,$r2
   91c5a:	90 04       	srai45 $r0,#4
   91c5c:	4e 25 00 08 	bltz $r2,91c6c <predictor_pole+0x250>
   91c60:	40 00 08 0c 	sll $r0,$r0,$r2
   91c64:	54 00 7f ff 	andi $r0,$r0,#0x7fff
   91c68:	48 00 00 06 	j 91c74 <predictor_pole+0x258>
   91c6c:	52 21 00 00 	subri $r2,$r2,#0
   91c70:	40 00 08 0e 	sra $r0,$r0,$r2
   91c74:	fe e5       	xor33 $r3,$r4
   91c76:	4e 34 00 03 	bgez $r3,91c7c <predictor_pole+0x260>
   91c7a:	fe 02       	neg33 $r0,$r0
   91c7c:	40 00 14 00 	add $r0,$r0,$r5
   91c80:	3a 6f 9c 04 	lmw.bim $r6,[$sp],$r7,#0x0    ! {$r6~$r7}
   91c84:	dd 9e       	ret5 $lp
   91c86:	92 00       	nop16

00091c88 <ima_adpcm_encode_init>:
   91c88:	84 00       	movi55 $r0,#0
   91c8a:	3c 0b eb 4d 	shi.gp $r0,[+#-10598]
   91c8e:	3c 0b eb 4e 	shi.gp $r0,[+#-10596]
   91c92:	3e 0f c9 44 	addi.gp $r0,#-14012
   91c96:	50 20 00 a0 	addi $r2,$r0,#160
   91c9a:	84 20       	movi55 $r1,#0
   91c9c:	aa 41       	swi333.bi $r1,[$r0],#0x4
   91c9e:	4c 01 7f ff 	bne $r0,$r2,91c9c <ima_adpcm_encode_init+0x14>
   91ca2:	fa 16       	movpi45 $r0,#0x26
   91ca4:	3c 0b eb 4c 	shi.gp $r0,[+#-10600]
   91ca8:	dd 9e       	ret5 $lp
   91caa:	92 00       	nop16

00091cac <ima_32_encoder>:
   91cac:	3a 6f a0 3c 	smw.adm $r6,[$sp],$r8,#0x0    ! {$r6~$r8}
   91cb0:	3c 57 eb 4e 	lhsi.gp $r5,[+#-10596]
   91cb4:	3c 63 eb 4d 	lhi.gp $r6,[+#-10598]
   91cb8:	46 10 00 a7 	sethi $r1,#0xa7
   91cbc:	58 10 82 f4 	ori $r1,$r1,#0x2f4
   91cc0:	40 00 14 01 	sub $r0,$r0,$r5
   91cc4:	38 10 99 11 	lhs $r1,[$r1+($r6<<#0x1)]
   91cc8:	4e 05 00 05 	bltz $r0,91cd2 <ima_32_encoder+0x26>
   91ccc:	44 20 00 00 	movi $r2,#0
   91cd0:	d5 03       	j8 91cd6 <ima_32_encoder+0x2a>
   91cd2:	fe 02       	neg33 $r0,$r0
   91cd4:	84 41       	movi55 $r2,#1
   91cd6:	98 92       	add333 $r2,$r2,$r2
   91cd8:	40 40 04 07 	slts $r4,$r0,$r1
   91cdc:	50 81 00 01 	addi $r8,$r2,#1
   91ce0:	40 81 10 1b 	cmovn $r8,$r2,$r4
   91ce4:	40 20 04 01 	sub $r2,$r0,$r1
   91ce8:	40 01 10 1a 	cmovz $r0,$r2,$r4
   91cec:	40 30 84 0a 	srai $r3,$r1,#1
   91cf0:	40 84 20 00 	add $r8,$r8,$r8
   91cf4:	40 20 0c 07 	slts $r2,$r0,$r3
   91cf8:	50 74 00 01 	addi $r7,$r8,#1
   91cfc:	40 83 88 1a 	cmovz $r8,$r7,$r2
   91d00:	84 e0       	movi55 $r7,#0
   91d02:	40 70 90 1a 	cmovz $r7,$r1,$r4
   91d06:	80 87       	mov55 $r4,$r7
   91d08:	40 70 0c 01 	sub $r7,$r0,$r3
   91d0c:	40 03 88 1a 	cmovz $r0,$r7,$r2
   91d10:	40 84 20 00 	add $r8,$r8,$r8
   91d14:	40 70 88 0a 	srai $r7,$r1,#2
   91d18:	40 32 0c 00 	add $r3,$r4,$r3
   91d1c:	40 41 88 1a 	cmovz $r4,$r3,$r2
   91d20:	40 30 1c 07 	slts $r3,$r0,$r7
   91d24:	50 04 00 01 	addi $r0,$r8,#1
   91d28:	80 44       	mov55 $r2,$r4
   91d2a:	40 04 0c 1b 	cmovn $r0,$r8,$r3
   91d2e:	99 e7       	add333 $r7,$r4,$r7
   91d30:	40 23 8c 1a 	cmovz $r2,$r7,$r3
   91d34:	90 23       	srai45 $r1,#3
   91d36:	54 80 00 08 	andi $r8,$r0,#0x8
   91d3a:	98 51       	add333 $r1,$r2,$r1
   91d3c:	4e 82 00 05 	beqz $r8,91d46 <ima_32_encoder+0x9a>
   91d40:	40 12 84 01 	sub $r1,$r5,$r1
   91d44:	d5 02       	j8 91d48 <ima_32_encoder+0x9c>
   91d46:	98 4d       	add333 $r1,$r1,$r5
   91d48:	46 20 00 a7 	sethi $r2,#0xa7
   91d4c:	58 21 02 e4 	ori $r2,$r2,#0x2e4
   91d50:	38 31 00 10 	lbs $r3,[$r2+($r0<<#0x0)]
   91d54:	44 2f 80 00 	movi $r2,#-32768
   91d58:	40 31 98 00 	add $r3,$r3,$r6
   91d5c:	40 50 88 07 	slts $r5,$r1,$r2
   91d60:	44 20 00 58 	movi $r2,#88
   91d64:	40 41 0c 07 	slts $r4,$r2,$r3
   91d68:	44 2f 80 00 	movi $r2,#-32768
   91d6c:	40 11 14 1b 	cmovn $r1,$r2,$r5
   91d70:	44 20 00 58 	movi $r2,#88
   91d74:	40 21 90 1a 	cmovz $r2,$r3,$r4
   91d78:	44 30 7f ff 	movi $r3,#32767
   91d7c:	40 51 84 07 	slts $r5,$r3,$r1
   91d80:	40 11 94 1b 	cmovn $r1,$r3,$r5
   91d84:	5e 41 00 00 	sltsi $r4,$r2,#0
   91d88:	44 30 00 00 	movi $r3,#0
   91d8c:	40 21 90 1b 	cmovn $r2,$r3,$r4
   91d90:	3c 1b eb 4e 	shi.gp $r1,[+#-10596]
   91d94:	3c 2b eb 4d 	shi.gp $r2,[+#-10598]
   91d98:	3a 6f a0 04 	lmw.bim $r6,[$sp],$r8,#0x0    ! {$r6~$r8}
   91d9c:	dd 9e       	ret5 $lp
   91d9e:	92 00       	nop16

00091da0 <ima_adpcm_encode_proc>:
   91da0:	3a 6f aa bc 	smw.adm $r6,[$sp],$r10,#0xa    ! {$r6~$r10, $fp, $lp}
   91da4:	ef ec       	addi10.sp #-20
   91da6:	f1 82       	swi37.sp $r1,[+#0x8]
   91da8:	4e 26 00 06 	bgtz $r2,91db4 <ima_adpcm_encode_proc+0x14>
   91dac:	44 00 00 00 	movi $r0,#0
   91db0:	48 00 01 08 	j 91fc0 <ima_adpcm_encode_proc+0x220>
   91db4:	9e 91       	subi333 $r2,$r2,#1
   91db6:	87 80       	movi55 $fp,#0
   91db8:	92 41       	srli45 $r2,#1
   91dba:	9c 91       	addi333 $r2,$r2,#1
   91dbc:	15 cf 80 00 	swi $fp,[$sp+#0x0]
   91dc0:	f0 81       	swi37.sp $r0,[+#0x4]
   91dc2:	f2 83       	swi37.sp $r2,[+#0xc]
   91dc4:	83 dc       	mov55 $lp,$fp
   91dc6:	80 40       	mov55 $r2,$r0
   91dc8:	22 01 00 00 	lhsi $r0,[$r2+#0x0]
   91dcc:	3c 17 eb 4e 	lhsi.gp $r1,[+#-10596]
   91dd0:	3d c3 eb 4d 	lhi.gp $fp,[+#-10598]
   91dd4:	46 20 00 a7 	sethi $r2,#0xa7
   91dd8:	58 21 02 f4 	ori $r2,$r2,#0x2f4
   91ddc:	40 00 04 01 	sub $r0,$r0,$r1
   91de0:	38 91 71 11 	lhs $r9,[$r2+($fp<<#0x1)]
   91de4:	4e 05 00 04 	bltz $r0,91dec <ima_adpcm_encode_proc+0x4c>
   91de8:	84 e0       	movi55 $r7,#0
   91dea:	d5 03       	j8 91df0 <ima_adpcm_encode_proc+0x50>
   91dec:	fe 02       	neg33 $r0,$r0
   91dee:	84 e1       	movi55 $r7,#1
   91df0:	40 83 9c 00 	add $r8,$r7,$r7
   91df4:	40 60 24 07 	slts $r6,$r0,$r9
   91df8:	50 74 00 01 	addi $r7,$r8,#1
   91dfc:	40 74 18 1b 	cmovn $r7,$r8,$r6
   91e00:	40 40 24 01 	sub $r4,$r0,$r9
   91e04:	40 02 18 1a 	cmovz $r0,$r4,$r6
   91e08:	40 54 84 0a 	srai $r5,$r9,#1
   91e0c:	40 83 9c 00 	add $r8,$r7,$r7
   91e10:	40 a0 14 07 	slts $r10,$r0,$r5
   91e14:	50 74 00 01 	addi $r7,$r8,#1
   91e18:	50 34 80 00 	addi $r3,$r9,#0
   91e1c:	40 3f 18 1b 	cmovn $r3,$lp,$r6
   91e20:	40 74 28 1b 	cmovn $r7,$r8,$r10
   91e24:	40 60 14 01 	sub $r6,$r0,$r5
   91e28:	40 84 88 0a 	srai $r8,$r9,#2
   91e2c:	40 60 28 1b 	cmovn $r6,$r0,$r10
   91e30:	99 ff       	add333 $r7,$r7,$r7
   91e32:	99 5d       	add333 $r5,$r3,$r5
   91e34:	40 63 20 07 	slts $r6,$r6,$r8
   91e38:	40 51 a8 1b 	cmovn $r5,$r3,$r10
   91e3c:	50 03 80 01 	addi $r0,$r7,#1
   91e40:	40 03 98 1b 	cmovn $r0,$r7,$r6
   91e44:	40 42 a0 00 	add $r4,$r5,$r8
   91e48:	40 52 18 1a 	cmovz $r5,$r4,$r6
   91e4c:	40 94 8c 0a 	srai $r9,$r9,#3
   91e50:	54 80 00 08 	andi $r8,$r0,#0x8
   91e54:	40 64 94 00 	add $r6,$r9,$r5
   91e58:	4e 82 00 04 	beqz $r8,91e60 <ima_adpcm_encode_proc+0xc0>
   91e5c:	9b 0e       	sub333 $r4,$r1,$r6
   91e5e:	d5 03       	j8 91e64 <ima_adpcm_encode_proc+0xc4>
   91e60:	40 43 04 00 	add $r4,$r6,$r1
   91e64:	46 10 00 a7 	sethi $r1,#0xa7
   91e68:	58 10 82 e4 	ori $r1,$r1,#0x2e4
   91e6c:	38 20 80 10 	lbs $r2,[$r1+($r0<<#0x0)]
   91e70:	44 1f 80 00 	movi $r1,#-32768
   91e74:	40 32 04 07 	slts $r3,$r4,$r1
   91e78:	40 21 70 00 	add $r2,$r2,$fp
   91e7c:	44 10 00 58 	movi $r1,#88
   91e80:	40 50 88 07 	slts $r5,$r1,$r2
   91e84:	44 1f 80 00 	movi $r1,#-32768
   91e88:	40 40 8c 1b 	cmovn $r4,$r1,$r3
   91e8c:	44 10 00 58 	movi $r1,#88
   91e90:	40 20 94 1b 	cmovn $r2,$r1,$r5
   91e94:	44 10 7f ff 	movi $r1,#32767
   91e98:	40 30 90 07 	slts $r3,$r1,$r4
   91e9c:	5e 51 00 00 	sltsi $r5,$r2,#0
   91ea0:	40 12 0c 1a 	cmovz $r1,$r4,$r3
   91ea4:	40 2f 14 1b 	cmovn $r2,$lp,$r5
   91ea8:	41 c0 80 11 	seh $fp,$r1
   91eac:	40 21 00 13 	zeh $r2,$r2
   91eb0:	46 10 00 a7 	sethi $r1,#0xa7
   91eb4:	58 10 82 f4 	ori $r1,$r1,#0x2f4
   91eb8:	3d cb eb 4e 	shi.gp $fp,[+#-10596]
   91ebc:	3c 2b eb 4d 	shi.gp $r2,[+#-10598]
   91ec0:	38 90 89 11 	lhs $r9,[$r1+($r2<<#0x1)]
   91ec4:	04 1f 80 01 	lwi $r1,[$sp+#0x4]
   91ec8:	22 30 80 01 	lhsi $r3,[$r1+#0x2]
   91ecc:	40 51 f0 01 	sub $r5,$r3,$fp
   91ed0:	4e 55 00 04 	bltz $r5,91ed8 <ima_adpcm_encode_proc+0x138>
   91ed4:	84 80       	movi55 $r4,#0
   91ed6:	d5 03       	j8 91edc <ima_adpcm_encode_proc+0x13c>
   91ed8:	ff 6a       	neg33 $r5,$r5
   91eda:	84 81       	movi55 $r4,#1
   91edc:	40 82 10 00 	add $r8,$r4,$r4
   91ee0:	40 62 a4 07 	slts $r6,$r5,$r9
   91ee4:	50 44 00 01 	addi $r4,$r8,#1
   91ee8:	40 44 18 1b 	cmovn $r4,$r8,$r6
   91eec:	40 32 a4 01 	sub $r3,$r5,$r9
   91ef0:	40 32 98 1b 	cmovn $r3,$r5,$r6
   91ef4:	40 82 10 00 	add $r8,$r4,$r4
   91ef8:	40 54 84 0a 	srai $r5,$r9,#1
   91efc:	40 a1 94 07 	slts $r10,$r3,$r5
   91f00:	50 44 00 01 	addi $r4,$r8,#1
   91f04:	50 14 80 00 	addi $r1,$r9,#0
   91f08:	40 44 28 1b 	cmovn $r4,$r8,$r10
   91f0c:	40 1f 18 1b 	cmovn $r1,$lp,$r6
   91f10:	40 61 94 01 	sub $r6,$r3,$r5
   91f14:	40 84 88 0a 	srai $r8,$r9,#2
   91f18:	40 61 a8 1b 	cmovn $r6,$r3,$r10
   91f1c:	99 e4       	add333 $r7,$r4,$r4
   91f1e:	99 4d       	add333 $r5,$r1,$r5
   91f20:	40 63 20 07 	slts $r6,$r6,$r8
   91f24:	40 50 a8 1b 	cmovn $r5,$r1,$r10
   91f28:	50 43 80 01 	addi $r4,$r7,#1
   91f2c:	40 43 98 1b 	cmovn $r4,$r7,$r6
   91f30:	40 32 a0 00 	add $r3,$r5,$r8
   91f34:	40 51 98 1a 	cmovz $r5,$r3,$r6
   91f38:	40 94 8c 0a 	srai $r9,$r9,#3
   91f3c:	54 82 00 08 	andi $r8,$r4,#0x8
   91f40:	40 64 94 00 	add $r6,$r9,$r5
   91f44:	4e 82 00 06 	beqz $r8,91f50 <ima_adpcm_encode_proc+0x1b0>
   91f48:	40 3e 18 01 	sub $r3,$fp,$r6
   91f4c:	48 00 00 04 	j 91f54 <ima_adpcm_encode_proc+0x1b4>
   91f50:	40 3e 18 00 	add $r3,$fp,$r6
   91f54:	46 10 00 a7 	sethi $r1,#0xa7
   91f58:	58 10 82 e4 	ori $r1,$r1,#0x2e4
   91f5c:	38 50 90 10 	lbs $r5,[$r1+($r4<<#0x0)]
   91f60:	44 1f 80 00 	movi $r1,#-32768
   91f64:	40 81 84 07 	slts $r8,$r3,$r1
   91f68:	40 22 88 00 	add $r2,$r5,$r2
   91f6c:	44 10 00 58 	movi $r1,#88
   91f70:	40 50 88 07 	slts $r5,$r1,$r2
   91f74:	44 1f 80 00 	movi $r1,#-32768
   91f78:	40 30 a0 1b 	cmovn $r3,$r1,$r8
   91f7c:	44 10 00 58 	movi $r1,#88
   91f80:	40 20 94 1b 	cmovn $r2,$r1,$r5
   91f84:	5e 51 00 00 	sltsi $r5,$r2,#0
   91f88:	44 10 7f ff 	movi $r1,#32767
   91f8c:	40 60 8c 07 	slts $r6,$r1,$r3
   91f90:	40 2f 14 1b 	cmovn $r2,$lp,$r5
   91f94:	40 30 98 1b 	cmovn $r3,$r1,$r6
   91f98:	3c 2b eb 4d 	shi.gp $r2,[+#-10598]
   91f9c:	b4 3f       	lwi450 $r1,[$sp]
   91f9e:	f2 02       	lwi37.sp $r2,[+#0x8]
   91fa0:	95 24       	slli333 $r4,$r4,#4
   91fa2:	fe 27       	or33 $r0,$r4
   91fa4:	3c 3b eb 4e 	shi.gp $r3,[+#-10596]
   91fa8:	38 01 04 08 	sb $r0,[$r2+($r1<<#0x0)]
   91fac:	9c 49       	addi333 $r1,$r1,#1
   91fae:	f2 01       	lwi37.sp $r2,[+#0x4]
   91fb0:	f0 03       	lwi37.sp $r0,[+#0xc]
   91fb2:	9c 94       	addi333 $r2,$r2,#4
   91fb4:	b6 3f       	swi450 $r1,[$sp]
   91fb6:	f2 81       	swi37.sp $r2,[+#0x4]
   91fb8:	4c 10 7f 08 	bne $r1,$r0,91dc8 <ima_adpcm_encode_proc+0x28>
   91fbc:	83 81       	mov55 $fp,$r1
   91fbe:	80 01       	mov55 $r0,$r1
   91fc0:	ec 14       	addi10.sp #20
   91fc2:	3a 6f aa 84 	lmw.bim $r6,[$sp],$r10,#0xa    ! {$r6~$r10, $fp, $lp}
   91fc6:	dd 9e       	ret5 $lp

00091fc8 <ima_adpcm_encode_proc_halfrate>:
   91fc8:	3a 6f aa bc 	smw.adm $r6,[$sp],$r10,#0xa    ! {$r6~$r10, $fp, $lp}
   91fcc:	ef cc       	addi10.sp #-52
   91fce:	f1 8a       	swi37.sp $r1,[+#0x28]
   91fd0:	4e 26 00 06 	bgtz $r2,91fdc <ima_adpcm_encode_proc_halfrate+0x14>
   91fd4:	44 00 00 00 	movi $r0,#0
   91fd8:	48 00 01 8f 	j 922f6 <ima_adpcm_encode_proc_halfrate+0x32e>
   91fdc:	9e 91       	subi333 $r2,$r2,#1
   91fde:	92 42       	srli45 $r2,#2
   91fe0:	84 20       	movi55 $r1,#0
   91fe2:	9c 91       	addi333 $r2,$r2,#1
   91fe4:	f1 82       	swi37.sp $r1,[+#0x8]
   91fe6:	f0 81       	swi37.sp $r0,[+#0x4]
   91fe8:	f2 8b       	swi37.sp $r2,[+#0x2c]
   91fea:	80 80       	mov55 $r4,$r0
   91fec:	22 22 00 00 	lhsi $r2,[$r4+#0x0]
   91ff0:	22 12 00 01 	lhsi $r1,[$r4+#0x2]
   91ff4:	3c 77 eb 4c 	lhsi.gp $r7,[+#-10600]
   91ff8:	3e 5f c9 44 	addi.gp $r5,#-14012
   91ffc:	90 42       	srai45 $r2,#2
   91ffe:	90 22       	srai45 $r1,#2
   92000:	50 43 80 29 	addi $r4,$r7,#41
   92004:	9c f9       	addi333 $r3,$r7,#1
   92006:	50 03 80 28 	addi $r0,$r7,#40
   9200a:	99 bf       	add333 $r6,$r7,$r7
   9200c:	38 12 81 09 	sh $r1,[$r5+($r0<<#0x1)]
   92010:	40 63 14 00 	add $r6,$r6,$r5
   92014:	38 12 9d 09 	sh $r1,[$r5+($r7<<#0x1)]
   92018:	38 22 91 09 	sh $r2,[$r5+($r4<<#0x1)]
   9201c:	38 22 8d 09 	sh $r2,[$r5+($r3<<#0x1)]
   92020:	84 60       	movi55 $r3,#0
   92022:	50 53 00 4e 	addi $r5,$r6,#78
   92026:	80 83       	mov55 $r4,$r3
   92028:	38 23 0c 11 	lhs $r2,[$r6+($r3<<#0x0)]
   9202c:	2a 02 ff ff 	lhsi.bi $r0,[$r5],#-0x2
   92030:	46 80 00 a7 	sethi $r8,#0xa7
   92034:	58 84 02 bc 	ori $r8,$r8,#0x2bc
   92038:	38 14 0c 11 	lhs $r1,[$r8+($r3<<#0x0)]
   9203c:	98 02       	add333 $r0,$r0,$r2
   9203e:	9c da       	addi333 $r3,$r3,#2
   92040:	42 40 04 73 	maddr32 $r4,$r0,$r1
   92044:	5a 38 28 f2 	bnec $r3,#40,92028 <ima_adpcm_encode_proc_halfrate+0x60>
   92048:	9e 3a       	subi333 $r0,$r7,#2
   9204a:	96 03       	seh33 $r0,$r0
   9204c:	3c 0b eb 4c 	shi.gp $r0,[+#-10600]
   92050:	4e 05 00 0f 	bltz $r0,9206e <ima_adpcm_encode_proc_halfrate+0xa6>
   92054:	9e 42       	subi333 $r1,$r0,#2
   92056:	96 4b       	seh33 $r1,$r1
   92058:	f1 86       	swi37.sp $r1,[+#0x18]
   9205a:	9c 81       	addi333 $r2,$r0,#1
   9205c:	50 10 00 28 	addi $r1,$r0,#40
   92060:	50 50 00 29 	addi $r5,$r0,#41
   92064:	f1 89       	swi37.sp $r1,[+#0x24]
   92066:	f2 88       	swi37.sp $r2,[+#0x20]
   92068:	f5 87       	swi37.sp $r5,[+#0x1c]
   9206a:	99 80       	add333 $r6,$r0,$r0
   9206c:	d5 10       	j8 9208c <ima_adpcm_encode_proc_halfrate+0xc4>
   9206e:	fa f6       	movpi45 $r7,#0x26
   92070:	fb 14       	movpi45 $r8,#0x24
   92072:	fa 37       	movpi45 $r1,#0x27
   92074:	94 89       	slli333 $r2,$r1,#1
   92076:	44 00 00 4f 	movi $r0,#79
   9207a:	3c 7b eb 4c 	shi.gp $r7,[+#-10600]
   9207e:	14 8f 80 06 	swi $r8,[$sp+#0x18]
   92082:	f1 88       	swi37.sp $r1,[+#0x20]
   92084:	f2 89       	swi37.sp $r2,[+#0x24]
   92086:	f0 87       	swi37.sp $r0,[+#0x1c]
   92088:	9f 83       	subi333 $r6,$r0,#3
   9208a:	fa 16       	movpi45 $r0,#0x26
   9208c:	40 42 3c 0a 	srai $r4,$r4,#15
   92090:	3c 37 eb 4e 	lhsi.gp $r3,[+#-10596]
   92094:	97 23       	seh33 $r4,$r4
   92096:	3c 13 eb 4d 	lhi.gp $r1,[+#-10598]
   9209a:	9b e3       	sub333 $r7,$r4,$r3
   9209c:	46 40 00 a7 	sethi $r4,#0xa7
   920a0:	58 42 02 f4 	ori $r4,$r4,#0x2f4
   920a4:	38 82 05 11 	lhs $r8,[$r4+($r1<<#0x1)]
   920a8:	4e 75 00 04 	bltz $r7,920b0 <ima_adpcm_encode_proc_halfrate+0xe8>
   920ac:	84 80       	movi55 $r4,#0
   920ae:	d5 03       	j8 920b4 <ima_adpcm_encode_proc_halfrate+0xec>
   920b0:	ff fa       	neg33 $r7,$r7
   920b2:	84 81       	movi55 $r4,#1
   920b4:	40 52 10 00 	add $r5,$r4,$r4
   920b8:	40 a3 a0 07 	slts $r10,$r7,$r8
   920bc:	50 42 80 01 	addi $r4,$r5,#1
   920c0:	40 42 a8 1b 	cmovn $r4,$r5,$r10
   920c4:	40 23 a0 01 	sub $r2,$r7,$r8
   920c8:	40 71 28 1a 	cmovz $r7,$r2,$r10
   920cc:	40 54 04 0a 	srai $r5,$r8,#1
   920d0:	40 22 10 00 	add $r2,$r4,$r4
   920d4:	40 93 94 07 	slts $r9,$r7,$r5
   920d8:	50 41 00 01 	addi $r4,$r2,#1
   920dc:	40 41 24 1b 	cmovn $r4,$r2,$r9
   920e0:	84 40       	movi55 $r2,#0
   920e2:	40 24 28 1a 	cmovz $r2,$r8,$r10
   920e6:	81 42       	mov55 $r10,$r2
   920e8:	40 23 94 01 	sub $r2,$r7,$r5
   920ec:	41 c4 08 0a 	srai $fp,$r8,#2
   920f0:	40 23 a4 1b 	cmovn $r2,$r7,$r9
   920f4:	41 e2 10 00 	add $lp,$r4,$r4
   920f8:	40 55 14 00 	add $r5,$r10,$r5
   920fc:	40 71 70 07 	slts $r7,$r2,$fp
   92100:	40 55 24 1b 	cmovn $r5,$r10,$r9
   92104:	50 4f 00 01 	addi $r4,$lp,#1
   92108:	41 e2 1c 1a 	cmovz $lp,$r4,$r7
   9210c:	40 22 f0 00 	add $r2,$r5,$fp
   92110:	40 22 9c 1b 	cmovn $r2,$r5,$r7
   92114:	91 03       	srai45 $r8,#3
   92116:	54 7f 00 08 	andi $r7,$lp,#0x8
   9211a:	15 ef 80 03 	swi $lp,[$sp+#0xc]
   9211e:	88 48       	add45 $r2,$r8
   92120:	c7 04       	beqz38 $r7,92128 <ima_adpcm_encode_proc_halfrate+0x160>
   92122:	40 81 88 01 	sub $r8,$r3,$r2
   92126:	d5 03       	j8 9212c <ima_adpcm_encode_proc_halfrate+0x164>
   92128:	40 81 0c 00 	add $r8,$r2,$r3
   9212c:	f5 03       	lwi37.sp $r5,[+#0xc]
   9212e:	46 40 00 a7 	sethi $r4,#0xa7
   92132:	58 42 02 e4 	ori $r4,$r4,#0x2e4
   92136:	38 32 14 10 	lbs $r3,[$r4+($r5<<#0x0)]
   9213a:	44 20 00 58 	movi $r2,#88
   9213e:	99 d9       	add333 $r7,$r3,$r1
   92140:	44 1f 80 00 	movi $r1,#-32768
   92144:	40 54 04 07 	slts $r5,$r8,$r1
   92148:	40 80 94 1b 	cmovn $r8,$r1,$r5
   9214c:	40 91 1c 07 	slts $r9,$r2,$r7
   92150:	44 40 7f ff 	movi $r4,#32767
   92154:	80 62       	mov55 $r3,$r2
   92156:	40 33 a4 1a 	cmovz $r3,$r7,$r9
   9215a:	80 44       	mov55 $r2,$r4
   9215c:	40 72 20 07 	slts $r7,$r4,$r8
   92160:	40 24 1c 1a 	cmovz $r2,$r8,$r7
   92164:	5e 51 80 00 	sltsi $r5,$r3,#0
   92168:	84 e0       	movi55 $r7,#0
   9216a:	40 33 94 1b 	cmovn $r3,$r7,$r5
   9216e:	96 93       	seh33 $r2,$r2
   92170:	96 d9       	zeh33 $r3,$r3
   92172:	3c 2b eb 4e 	shi.gp $r2,[+#-10596]
   92176:	3c 3b eb 4d 	shi.gp $r3,[+#-10598]
   9217a:	f2 85       	swi37.sp $r2,[+#0x14]
   9217c:	f2 01       	lwi37.sp $r2,[+#0x4]
   9217e:	f3 84       	swi37.sp $r3,[+#0x10]
   92180:	22 31 00 03 	lhsi $r3,[$r2+#0x6]
   92184:	22 51 00 02 	lhsi $r5,[$r2+#0x4]
   92188:	f4 09       	lwi37.sp $r4,[+#0x24]
   9218a:	3e 1f c9 44 	addi.gp $r1,#-14012
   9218e:	90 62       	srai45 $r3,#2
   92190:	04 7f 80 07 	lwi $r7,[$sp+#0x1c]
   92194:	04 8f 80 08 	lwi $r8,[$sp+#0x20]
   92198:	38 30 91 09 	sh $r3,[$r1+($r4<<#0x1)]
   9219c:	40 52 88 0a 	srai $r5,$r5,#2
   921a0:	38 30 81 09 	sh $r3,[$r1+($r0<<#0x1)]
   921a4:	99 b1       	add333 $r6,$r6,$r1
   921a6:	84 60       	movi55 $r3,#0
   921a8:	38 50 9d 09 	sh $r5,[$r1+($r7<<#0x1)]
   921ac:	50 41 80 00 	addi $r4,$r3,#0
   921b0:	38 50 a1 09 	sh $r5,[$r1+($r8<<#0x1)]
   921b4:	50 53 00 4e 	addi $r5,$r6,#78
   921b8:	38 23 0c 11 	lhs $r2,[$r6+($r3<<#0x0)]
   921bc:	2a 02 ff ff 	lhsi.bi $r0,[$r5],#-0x2
   921c0:	46 70 00 a7 	sethi $r7,#0xa7
   921c4:	58 73 82 bc 	ori $r7,$r7,#0x2bc
   921c8:	38 13 8c 11 	lhs $r1,[$r7+($r3<<#0x0)]
   921cc:	98 02       	add333 $r0,$r0,$r2
   921ce:	9c da       	addi333 $r3,$r3,#2
   921d0:	42 40 04 73 	maddr32 $r4,$r0,$r1
   921d4:	5a 38 28 f2 	bnec $r3,#40,921b8 <ima_adpcm_encode_proc_halfrate+0x1f0>
   921d8:	04 8f 80 06 	lwi $r8,[$sp+#0x18]
   921dc:	3c 8b eb 4c 	shi.gp $r8,[+#-10600]
   921e0:	4e 84 00 05 	bgez $r8,921ea <ima_adpcm_encode_proc_halfrate+0x222>
   921e4:	fa 16       	movpi45 $r0,#0x26
   921e6:	3c 0b eb 4c 	shi.gp $r0,[+#-10600]
   921ea:	90 8f       	srai45 $r4,#15
   921ec:	f1 05       	lwi37.sp $r1,[+#0x14]
   921ee:	97 23       	seh33 $r4,$r4
   921f0:	f2 04       	lwi37.sp $r2,[+#0x10]
   921f2:	9b e1       	sub333 $r7,$r4,$r1
   921f4:	46 40 00 a7 	sethi $r4,#0xa7
   921f8:	58 42 02 f4 	ori $r4,$r4,#0x2f4
   921fc:	38 62 09 11 	lhs $r6,[$r4+($r2<<#0x1)]
   92200:	4e 75 00 04 	bltz $r7,92208 <ima_adpcm_encode_proc_halfrate+0x240>
   92204:	84 60       	movi55 $r3,#0
   92206:	d5 03       	j8 9220c <ima_adpcm_encode_proc_halfrate+0x244>
   92208:	ff fa       	neg33 $r7,$r7
   9220a:	84 61       	movi55 $r3,#1
   9220c:	40 51 8c 00 	add $r5,$r3,$r3
   92210:	40 a3 98 07 	slts $r10,$r7,$r6
   92214:	9c e9       	addi333 $r3,$r5,#1
   92216:	9a be       	sub333 $r2,$r7,$r6
   92218:	40 32 a8 1b 	cmovn $r3,$r5,$r10
   9221c:	50 53 80 00 	addi $r5,$r7,#0
   92220:	40 93 04 0a 	srai $r9,$r6,#1
   92224:	40 51 28 1a 	cmovz $r5,$r2,$r10
   92228:	40 71 8c 00 	add $r7,$r3,$r3
   9222c:	40 82 a4 07 	slts $r8,$r5,$r9
   92230:	50 33 80 01 	addi $r3,$r7,#1
   92234:	40 33 a0 1b 	cmovn $r3,$r7,$r8
   92238:	44 70 00 00 	movi $r7,#0
   9223c:	40 73 28 1a 	cmovz $r7,$r6,$r10
   92240:	40 22 a4 01 	sub $r2,$r5,$r9
   92244:	41 c3 08 0a 	srai $fp,$r6,#2
   92248:	40 51 20 1a 	cmovz $r5,$r2,$r8
   9224c:	41 e1 8c 00 	add $lp,$r3,$r3
   92250:	40 43 a4 00 	add $r4,$r7,$r9
   92254:	40 52 f0 07 	slts $r5,$r5,$fp
   92258:	40 72 20 1a 	cmovz $r7,$r4,$r8
   9225c:	50 3f 00 01 	addi $r3,$lp,#1
   92260:	50 9f 00 00 	addi $r9,$lp,#0
   92264:	40 91 94 1a 	cmovz $r9,$r3,$r5
   92268:	40 23 f0 00 	add $r2,$r7,$fp
   9226c:	40 71 14 1a 	cmovz $r7,$r2,$r5
   92270:	90 c3       	srai45 $r6,#3
   92272:	54 54 80 08 	andi $r5,$r9,#0x8
   92276:	99 b7       	add333 $r6,$r6,$r7
   92278:	c5 04       	beqz38 $r5,92280 <ima_adpcm_encode_proc_halfrate+0x2b8>
   9227a:	f5 05       	lwi37.sp $r5,[+#0x14]
   9227c:	9b ae       	sub333 $r6,$r5,$r6
   9227e:	d5 03       	j8 92284 <ima_adpcm_encode_proc_halfrate+0x2bc>
   92280:	f7 05       	lwi37.sp $r7,[+#0x14]
   92282:	99 be       	add333 $r6,$r7,$r6
   92284:	46 80 00 a7 	sethi $r8,#0xa7
   92288:	58 84 02 e4 	ori $r8,$r8,#0x2e4
   9228c:	f0 04       	lwi37.sp $r0,[+#0x10]
   9228e:	38 14 24 10 	lbs $r1,[$r8+($r9<<#0x0)]
   92292:	44 2f 80 00 	movi $r2,#-32768
   92296:	98 48       	add333 $r1,$r1,$r0
   92298:	44 40 00 58 	movi $r4,#88
   9229c:	40 53 08 07 	slts $r5,$r6,$r2
   922a0:	40 72 04 07 	slts $r7,$r4,$r1
   922a4:	50 83 00 00 	addi $r8,$r6,#0
   922a8:	40 81 14 1b 	cmovn $r8,$r2,$r5
   922ac:	40 12 1c 1b 	cmovn $r1,$r4,$r7
   922b0:	44 50 7f ff 	movi $r5,#32767
   922b4:	40 62 a0 07 	slts $r6,$r5,$r8
   922b8:	80 45       	mov55 $r2,$r5
   922ba:	5e 50 80 00 	sltsi $r5,$r1,#0
   922be:	84 e0       	movi55 $r7,#0
   922c0:	40 24 18 1a 	cmovz $r2,$r8,$r6
   922c4:	40 13 94 1b 	cmovn $r1,$r7,$r5
   922c8:	04 8f 80 03 	lwi $r8,[$sp+#0xc]
   922cc:	3c 2b eb 4e 	shi.gp $r2,[+#-10596]
   922d0:	3c 1b eb 4d 	shi.gp $r1,[+#-10598]
   922d4:	f2 02       	lwi37.sp $r2,[+#0x8]
   922d6:	40 34 90 08 	slli $r3,$r9,#4
   922da:	f1 0a       	lwi37.sp $r1,[+#0x28]
   922dc:	40 04 0c 04 	or $r0,$r8,$r3
   922e0:	38 00 88 08 	sb $r0,[$r1+($r2<<#0x0)]
   922e4:	9c 91       	addi333 $r2,$r2,#1
   922e6:	f4 01       	lwi37.sp $r4,[+#0x4]
   922e8:	f5 0b       	lwi37.sp $r5,[+#0x2c]
   922ea:	8c 88       	addi45 $r4,#8
   922ec:	f2 82       	swi37.sp $r2,[+#0x8]
   922ee:	f4 81       	swi37.sp $r4,[+#0x4]
   922f0:	4c 22 fe 7e 	bne $r2,$r5,91fec <ima_adpcm_encode_proc_halfrate+0x24>
   922f4:	80 02       	mov55 $r0,$r2
   922f6:	ec 34       	addi10.sp #52
   922f8:	3a 6f aa 84 	lmw.bim $r6,[$sp],$r10,#0xa    ! {$r6~$r10, $fp, $lp}
   922fc:	dd 9e       	ret5 $lp
   922fe:	92 00       	nop16

00092300 <GyrBessel>:
   92300:	fc 00       	push25 $r6,#0x0    ! {$r6, $fp, $gp, $lp}
   92302:	a1 09       	lwi333 $r4,[$r1+#0x4]
   92304:	a1 8a       	lwi333 $r6,[$r1+#0x8]
   92306:	44 5f ff af 	movi $r5,#-81
   9230a:	84 4f       	movi55 $r2,#15
   9230c:	ff 64       	mul33 $r5,$r4
   9230e:	fe b4       	mul33 $r2,$r6
   92310:	50 52 80 40 	addi $r5,$r5,#64
   92314:	50 21 00 40 	addi $r2,$r2,#64
   92318:	b4 61       	lwi450 $r3,[$r1]
   9231a:	90 a7       	srai45 $r5,#7
   9231c:	90 47       	srai45 $r2,#7
   9231e:	98 aa       	add333 $r2,$r5,$r2
   92320:	44 50 00 a3 	movi $r5,#163
   92324:	ff 5c       	mul33 $r5,$r3
   92326:	50 52 80 40 	addi $r5,$r5,#64
   9232a:	90 a7       	srai45 $r5,#7
   9232c:	98 95       	add333 $r2,$r2,$r5
   9232e:	fa af       	movpi45 $r5,#0x1f
   92330:	42 20 14 73 	maddr32 $r2,$r0,$r5
   92334:	a9 0a       	swi333 $r4,[$r1+#0x8]
   92336:	b6 41       	swi450 $r2,[$r1]
   92338:	50 21 00 40 	addi $r2,$r2,#64
   9233c:	40 01 1c 09 	srli $r0,$r2,#7
   92340:	96 03       	seh33 $r0,$r0
   92342:	a8 c9       	swi333 $r3,[$r1+#0x4]
   92344:	fc 80       	pop25 $r6,#0x0    ! {$r6, $fp, $gp, $lp}

00092346 <SumOfSquares>:
   92346:	fc 00       	push25 $r6,#0x0    ! {$r6, $fp, $gp, $lp}
   92348:	fe 04       	mul33 $r0,$r0
   9234a:	42 00 84 73 	maddr32 $r0,$r1,$r1
   9234e:	fc 80       	pop25 $r6,#0x0    ! {$r6, $fp, $gp, $lp}

00092350 <ComputeDelta>:
   92350:	fc 00       	push25 $r6,#0x0    ! {$r6, $fp, $gp, $lp}
   92352:	b4 82       	lwi450 $r4,[$r2]
   92354:	42 40 80 73 	maddr32 $r4,$r1,$r0
   92358:	b4 03       	lwi450 $r0,[$r3]
   9235a:	9a 20       	sub333 $r0,$r4,$r0
   9235c:	b6 02       	swi450 $r0,[$r2]
   9235e:	c0 19       	beqz38 $r0,92390 <ComputeDelta+0x40>
   92360:	50 00 01 00 	addi $r0,$r0,#256
   92364:	90 09       	srai45 $r0,#9
   92366:	96 03       	seh33 $r0,$r0
   92368:	40 10 24 08 	slli $r1,$r0,#9
   9236c:	b6 23       	swi450 $r1,[$r3]
   9236e:	c9 03       	bnez38 $r1,92374 <ComputeDelta+0x24>
   92370:	b4 42       	lwi450 $r2,[$r2]
   92372:	b6 43       	swi450 $r2,[$r3]
   92374:	5e f0 7f 81 	sltsi $r15,$r0,#-127
   92378:	e8 04       	beqzs8 92380 <ComputeDelta+0x30>
   9237a:	44 0f ff 81 	movi $r0,#-127
   9237e:	d5 0a       	j8 92392 <ComputeDelta+0x42>
   92380:	5e f0 00 80 	sltsi $r15,$r0,#128
   92384:	e9 04       	bnezs8 9238c <ComputeDelta+0x3c>
   92386:	44 00 00 7f 	movi $r0,#127
   9238a:	d5 04       	j8 92392 <ComputeDelta+0x42>
   9238c:	96 02       	seb33 $r0,$r0
   9238e:	d5 02       	j8 92392 <ComputeDelta+0x42>
   92390:	b6 03       	swi450 $r0,[$r3]
   92392:	fc 80       	pop25 $r6,#0x0    ! {$r6, $fp, $gp, $lp}

00092394 <AIR_MOTION_ResetSwipeRecognition>:
   92394:	fc 00       	push25 $r6,#0x0    ! {$r6, $fp, $gp, $lp}
   92396:	84 00       	movi55 $r0,#0
   92398:	3c 0b e6 c0 	shi.gp $r0,[+#-12928]
   9239c:	3c 0b e6 c1 	shi.gp $r0,[+#-12926]
   923a0:	3c 0b e6 c2 	shi.gp $r0,[+#-12924]
   923a4:	3e 07 cd 88 	sbi.gp $r0,[+#-12920]
   923a8:	fc 80       	pop25 $r6,#0x0    ! {$r6, $fp, $gp, $lp}

000923aa <AIR_MOTION_Init>:
   923aa:	fc 20       	push25 $r8,#0x0    ! {$r6~$r8, $fp, $gp, $lp}
   923ac:	87 80       	movi55 $fp,#0
   923ae:	80 c0       	mov55 $r6,$r0
   923b0:	3a 03 0c 04 	lmw.bim $r0,[$r6],$r3,#0x0    ! {$r0~$r3}
   923b4:	3e 4f cc 8c 	addi.gp $r4,#-13172
   923b8:	80 a4       	mov55 $r5,$r4
   923ba:	3a 02 8c 24 	smw.bim $r0,[$r5],$r3,#0x0    ! {$r0~$r3}
   923be:	3a 03 0c 00 	lmw.bi $r0,[$r6],$r3,#0x0    ! {$r0~$r3}
   923c2:	3a 02 8c 20 	smw.bi $r0,[$r5],$r3,#0x0    ! {$r0~$r3}
   923c6:	84 67       	movi55 $r3,#7
   923c8:	46 20 01 00 	sethi $r2,#0x100
   923cc:	02 02 00 0e 	lhi $r0,[$r4+#0x1c]
   923d0:	fe c4       	mul33 $r3,$r0
   923d2:	42 10 00 24 	mul $r1,$r0,$r0
   923d6:	40 21 0c 76 	divsr $r2,$r3,$r2,$r3
   923da:	3c 2f f3 2d 	swi.gp $r2,[+#-13132]
   923de:	44 20 20 c0 	movi $r2,#8384
   923e2:	40 21 00 76 	divsr $r2,$r3,$r2,$r0
   923e6:	a6 e0       	lbi333 $r3,[$r4+#0x0]
   923e8:	8c 50       	addi45 $r2,#16
   923ea:	90 45       	srai45 $r2,#5
   923ec:	96 90       	zeb33 $r2,$r2
   923ee:	fe d4       	mul33 $r3,$r2
   923f0:	ae e0       	sbi333 $r3,[$r4+#0x0]
   923f2:	a6 e1       	lbi333 $r3,[$r4+#0x1]
   923f4:	fe 9c       	mul33 $r2,$r3
   923f6:	a4 e6       	lhi333 $r3,[$r4+#0xc]
   923f8:	ae a1       	sbi333 $r2,[$r4+#0x1]
   923fa:	fe c4       	mul33 $r3,$r0
   923fc:	44 20 01 06 	movi $r2,#262
   92400:	50 31 80 83 	addi $r3,$r3,#131
   92404:	40 31 88 b7 	divr $r3,$r5,$r3,$r2
   92408:	ac e6       	shi333 $r3,[$r4+#0xc]
   9240a:	a4 e7       	lhi333 $r3,[$r4+#0xe]
   9240c:	fe c4       	mul33 $r3,$r0
   9240e:	50 31 80 83 	addi $r3,$r3,#131
   92412:	40 21 88 77 	divr $r2,$r3,$r3,$r2
   92416:	ac a7       	shi333 $r2,[$r4+#0xe]
   92418:	fa 41       	movpi45 $r2,#0x11
   9241a:	fe 14       	mul33 $r0,$r2
   9241c:	50 00 01 00 	addi $r0,$r0,#256
   92420:	90 09       	srai45 $r0,#9
   92422:	3c 0b e6 58 	shi.gp $r0,[+#-13136]
   92426:	00 02 00 10 	lbi $r0,[$r4+#0x10]
   9242a:	9c 05       	addi333 $r0,$r0,#5
   9242c:	10 02 00 10 	sbi $r0,[$r4+#0x10]
   92430:	a0 25       	lwi333 $r0,[$r4+#0x14]
   92432:	5a 00 01 08 	beqc $r0,#1,92442 <AIR_MOTION_Init+0x98>
   92436:	c0 04       	beqz38 $r0,9243e <AIR_MOTION_Init+0x94>
   92438:	5a 08 02 0b 	bnec $r0,#2,9244e <AIR_MOTION_Init+0xa4>
   9243c:	d5 05       	j8 92446 <AIR_MOTION_Init+0x9c>
   9243e:	94 4a       	slli333 $r1,$r1,#2
   92440:	d5 05       	j8 9244a <AIR_MOTION_Init+0xa0>
   92442:	94 4b       	slli333 $r1,$r1,#3
   92444:	d5 03       	j8 9244a <AIR_MOTION_Init+0xa0>
   92446:	fa 02       	movpi45 $r0,#0x12
   92448:	fe 44       	mul33 $r1,$r0
   9244a:	3c 1f f3 6d 	swi.gp $r1,[+#-12876]
   9244e:	3c 1d f3 6d 	lwi.gp $r1,[+#-12876]
   92452:	84 e0       	movi55 $r7,#0
   92454:	8c 28       	addi45 $r1,#8
   92456:	92 24       	srli45 $r1,#4
   92458:	3c 1f f3 6d 	swi.gp $r1,[+#-12876]
   9245c:	84 00       	movi55 $r0,#0
   9245e:	3e 07 cc ac 	sbi.gp $r0,[+#-13140]
   92462:	3c 7b e6 57 	shi.gp $r7,[+#-13138]
   92466:	3c 7b e6 c1 	shi.gp $r7,[+#-12926]
   9246a:	3c 7b e6 c2 	shi.gp $r7,[+#-12924]
   9246e:	85 01       	movi55 $r8,#1
   92470:	3e 77 cd 88 	sbi.gp $r7,[+#-12920]
   92474:	3e 87 cd b0 	sbi.gp $r8,[+#-12880]
   92478:	3e 07 cd b1 	sbi.gp $r0,[+#-12879]
   9247c:	84 c0       	movi55 $r6,#0
   9247e:	3e 07 cd b2 	sbi.gp $r0,[+#-12878]
   92482:	3c 6f f3 6f 	swi.gp $r6,[+#-12868]
   92486:	3c 6f f3 70 	swi.gp $r6,[+#-12864]
   9248a:	3c 6f f3 71 	swi.gp $r6,[+#-12860]
   9248e:	3c 6f f3 72 	swi.gp $r6,[+#-12856]
   92492:	80 26       	mov55 $r1,$r6
   92494:	44 20 00 70 	movi $r2,#112
   92498:	3e 0f cd 10 	addi.gp $r0,#-13040
   9249c:	49 00 0b a2 	jal 93be0 <memset>
   924a0:	80 26       	mov55 $r1,$r6
   924a2:	fa 5c       	movpi45 $r2,#0x2c
   924a4:	3e 0f cc b8 	addi.gp $r0,#-13128
   924a8:	49 00 0b 9c 	jal 93be0 <memset>
   924ac:	80 26       	mov55 $r1,$r6
   924ae:	fa 5c       	movpi45 $r2,#0x2c
   924b0:	3e 0f cc e4 	addi.gp $r0,#-13084
   924b4:	49 00 0b 96 	jal 93be0 <memset>
   924b8:	80 26       	mov55 $r1,$r6
   924ba:	84 4c       	movi55 $r2,#12
   924bc:	3e 0f cd 98 	addi.gp $r0,#-12904
   924c0:	49 00 0b 90 	jal 93be0 <memset>
   924c4:	80 26       	mov55 $r1,$r6
   924c6:	84 4c       	movi55 $r2,#12
   924c8:	3e 0f cd a4 	addi.gp $r0,#-12892
   924cc:	49 00 0b 8a 	jal 93be0 <memset>
   924d0:	3c 6f f3 6e 	swi.gp $r6,[+#-12872]
   924d4:	3c 6f f5 92 	swi.gp $r6,[+#-10680]
   924d8:	3c 6f f5 93 	swi.gp $r6,[+#-10676]
   924dc:	3c 6b eb 32 	shi.gp $r6,[+#-10652]
   924e0:	3c 7b eb 33 	shi.gp $r7,[+#-10650]
   924e4:	3e 87 d6 b8 	sbi.gp $r8,[+#-10568]
   924e8:	3c 13 e6 53 	lhi.gp $r1,[+#-13146]
   924ec:	3e 0f d6 50 	addi.gp $r0,#-10672
   924f0:	ac 42       	shi333 $r1,[$r0+#0x4]
   924f2:	ad c0       	shi333 $r7,[$r0+#0x0]
   924f4:	ad c1       	shi333 $r7,[$r0+#0x2]
   924f6:	80 26       	mov55 $r1,$r6
   924f8:	84 4c       	movi55 $r2,#12
   924fa:	3e 0f cd 8c 	addi.gp $r0,#-12916
   924fe:	49 00 0b 71 	jal 93be0 <memset>
   92502:	3c 13 e6 4c 	lhi.gp $r1,[+#-13160]
   92506:	84 03       	movi55 $r0,#3
   92508:	fe 44       	mul33 $r1,$r0
   9250a:	9c 49       	addi333 $r1,$r1,#1
   9250c:	92 21       	srli45 $r1,#1
   9250e:	3c 1b e6 c3 	shi.gp $r1,[+#-12922]
   92512:	3c 13 e6 53 	lhi.gp $r1,[+#-13146]
   92516:	3c 7b e6 c0 	shi.gp $r7,[+#-12928]
   9251a:	96 cb       	seh33 $r3,$r1
   9251c:	3e 0f d6 5c 	addi.gp $r0,#-10660
   92520:	ad c0       	shi333 $r7,[$r0+#0x0]
   92522:	ad c1       	shi333 $r7,[$r0+#0x2]
   92524:	ac c2       	shi333 $r3,[$r0+#0x4]
   92526:	3c 7b eb 4f 	shi.gp $r7,[+#-10594]
   9252a:	3c 7b eb 50 	shi.gp $r7,[+#-10592]
   9252e:	3c 7b eb 52 	shi.gp $r7,[+#-10588]
   92532:	44 20 04 00 	movi $r2,#1024
   92536:	3e 0f c9 e4 	addi.gp $r0,#-13852
   9253a:	b6 40       	swi450 $r2,[$r0]
   9253c:	a9 81       	swi333 $r6,[$r0+#0x4]
   9253e:	a9 82       	swi333 $r6,[$r0+#0x8]
   92540:	a9 83       	swi333 $r6,[$r0+#0xc]
   92542:	3c 03 e6 54 	lhi.gp $r0,[+#-13144]
   92546:	44 50 00 36 	movi $r5,#54
   9254a:	ff 44       	mul33 $r5,$r0
   9254c:	8c a8       	addi45 $r5,#8
   9254e:	92 a4       	srli45 $r5,#4
   92550:	95 17       	slli333 $r4,$r2,#7
   92552:	40 52 14 97 	divr $r5,$r4,$r4,$r5
   92556:	9c 01       	addi333 $r0,$r0,#1
   92558:	90 01       	srai45 $r0,#1
   9255a:	3c 5b eb 51 	shi.gp $r5,[+#-10590]
   9255e:	3c 6f f5 96 	swi.gp $r6,[+#-10664]
   92562:	3c 0b eb 54 	shi.gp $r0,[+#-10584]
   92566:	46 00 01 01 	sethi $r0,#0x101
   9256a:	5c f0 84 01 	slti $r15,$r1,#1025
   9256e:	e8 07       	beqzs8 9257c <AIR_MOTION_Init+0x1d2>
   92570:	94 95       	slli333 $r2,$r2,#5
   92572:	40 11 04 57 	divr $r1,$r2,$r2,$r1
   92576:	3c 1b eb 53 	shi.gp $r1,[+#-10586]
   9257a:	d5 07       	j8 92588 <AIR_MOTION_Init+0x1de>
   9257c:	40 21 88 76 	divsr $r2,$r3,$r3,$r2
   92580:	94 95       	slli333 $r2,$r2,#5
   92582:	fe 92       	neg33 $r2,$r2
   92584:	3c 2b eb 53 	shi.gp $r2,[+#-10586]
   92588:	fc a0       	pop25 $r8,#0x0    ! {$r6~$r8, $fp, $gp, $lp}

0009258a <AIR_MOTION_ProcessDelta>:
   9258a:	fc 48       	push25 $r10,#0x40    ! {$r6~$r10, $fp, $gp, $lp}
   9258c:	b1 8c       	addri36.sp $r6,#0x30
   9258e:	3a 13 10 20 	smw.bi $r1,[$r6],$r4,#0x0    ! {$r1~$r4}
   92592:	3e 1f cc ac 	addi.gp $r1,#-13140
   92596:	a6 88       	lbi333 $r2,[$r1+#0x0]
   92598:	f0 81       	swi37.sp $r0,[+#0x4]
   9259a:	e6 45       	slti45 $r2,#5
   9259c:	e8 03       	beqzs8 925a2 <AIR_MOTION_ProcessDelta+0x18>
   9259e:	48 00 03 46 	j 92c2a <AIR_MOTION_ProcessDelta+0x6a0>
   925a2:	3e 1f cc 8c 	addi.gp $r1,#-13172
   925a6:	00 40 80 10 	lbi $r4,[$r1+#0x10]
   925aa:	22 33 00 00 	lhsi $r3,[$r6+#0x0]
   925ae:	e2 44       	slt45 $r2,$r4
   925b0:	4e f3 03 19 	bnez $r15,92be2 <AIR_MOTION_ProcessDelta+0x658>
   925b4:	80 03       	mov55 $r0,$r3
   925b6:	3e 1f cd 8c 	addi.gp $r1,#-12916
   925ba:	f3 8b       	swi37.sp $r3,[+#0x2c]
   925bc:	49 ff fe a2 	jal 92300 <GyrBessel>
   925c0:	ac 30       	shi333 $r0,[$r6+#0x0]
   925c2:	22 13 00 01 	lhsi $r1,[$r6+#0x2]
   925c6:	22 03 00 02 	lhsi $r0,[$r6+#0x4]
   925ca:	f1 82       	swi37.sp $r1,[+#0x8]
   925cc:	f0 8a       	swi37.sp $r0,[+#0x28]
   925ce:	80 01       	mov55 $r0,$r1
   925d0:	3e 1f cd 98 	addi.gp $r1,#-12904
   925d4:	49 ff fe 96 	jal 92300 <GyrBessel>
   925d8:	ac 31       	shi333 $r0,[$r6+#0x2]
   925da:	22 03 00 02 	lhsi $r0,[$r6+#0x4]
   925de:	3e 7f cd 10 	addi.gp $r7,#-13040
   925e2:	3e 1f cd a4 	addi.gp $r1,#-12892
   925e6:	49 ff fe 8d 	jal 92300 <GyrBessel>
   925ea:	01 e3 80 6c 	lbi $lp,[$r7+#0x6c]
   925ee:	04 83 80 08 	lwi $r8,[$r7+#0x20]
   925f2:	81 5e       	mov55 $r10,$lp
   925f4:	50 25 00 10 	addi $r2,$r10,#16
   925f8:	38 53 a9 11 	lhs $r5,[$r7+($r10<<#0x1)]
   925fc:	98 92       	add333 $r2,$r2,$r2
   925fe:	98 97       	add333 $r2,$r2,$r7
   92600:	04 93 80 11 	lwi $r9,[$r7+#0x44]
   92604:	40 54 14 01 	sub $r5,$r8,$r5
   92608:	22 81 00 02 	lhsi $r8,[$r2+#0x4]
   9260c:	50 45 00 24 	addi $r4,$r10,#36
   92610:	22 33 00 00 	lhsi $r3,[$r6+#0x0]
   92614:	f0 83       	swi37.sp $r0,[+#0xc]
   92616:	22 63 00 01 	lhsi $r6,[$r6+#0x2]
   9261a:	40 84 a0 01 	sub $r8,$r9,$r8
   9261e:	83 87       	mov55 $fp,$r7
   92620:	b9 1a       	lwi37 $r1,[$fp+#0x68]
   92622:	38 93 91 11 	lhs $r9,[$r7+($r4<<#0x1)]
   92626:	98 2b       	add333 $r0,$r5,$r3
   92628:	b6 7f       	swi450 $r3,[$sp]
   9262a:	40 54 18 00 	add $r5,$r8,$r6
   9262e:	04 8f 80 03 	lwi $r8,[$sp+#0xc]
   92632:	8a 29       	sub45 $r1,$r9
   92634:	40 30 a0 00 	add $r3,$r1,$r8
   92638:	b4 3f       	lwi450 $r1,[$sp]
   9263a:	ad 92       	shi333 $r6,[$r2+#0x4]
   9263c:	38 13 a9 09 	sh $r1,[$r7+($r10<<#0x1)]
   92640:	38 83 91 09 	sh $r8,[$r7+($r4<<#0x1)]
   92644:	50 2f 00 01 	addi $r2,$lp,#1
   92648:	22 43 80 12 	lhsi $r4,[$r7+#0x24]
   9264c:	23 e3 80 00 	lhsi $lp,[$r7+#0x0]
   92650:	22 63 80 24 	lhsi $r6,[$r7+#0x48]
   92654:	96 9f       	fexti33 $r2,#0x3
   92656:	b8 88       	swi37 $r0,[$fp+#0x20]
   92658:	bd 91       	swi37 $r5,[$fp+#0x44]
   9265a:	bb 9a       	swi37 $r3,[$fp+#0x68]
   9265c:	10 23 80 6c 	sbi $r2,[$r7+#0x6c]
   92660:	50 a3 80 02 	addi $r10,$r7,#2
   92664:	81 24       	mov55 $r9,$r4
   92666:	80 e6       	mov55 $r7,$r6
   92668:	80 3e       	mov55 $r1,$lp
   9266a:	22 25 00 00 	lhsi $r2,[$r10+#0x0]
   9266e:	e0 41       	slts45 $r2,$r1
   92670:	e9 06       	bnezs8 9267c <AIR_MOTION_ProcessDelta+0xf2>
   92672:	40 ff 08 07 	slts $r15,$lp,$r2
   92676:	e8 02       	beqzs8 9267a <AIR_MOTION_ProcessDelta+0xf0>
   92678:	83 c2       	mov55 $lp,$r2
   9267a:	80 41       	mov55 $r2,$r1
   9267c:	22 85 00 12 	lhsi $r8,[$r10+#0x24]
   92680:	e1 09       	slts45 $r8,$r9
   92682:	e9 05       	bnezs8 9268c <AIR_MOTION_ProcessDelta+0x102>
   92684:	e0 88       	slts45 $r4,$r8
   92686:	e8 02       	beqzs8 9268a <AIR_MOTION_ProcessDelta+0x100>
   92688:	80 88       	mov55 $r4,$r8
   9268a:	81 09       	mov55 $r8,$r9
   9268c:	22 15 00 24 	lhsi $r1,[$r10+#0x48]
   92690:	e0 26       	slts45 $r1,$r6
   92692:	e9 05       	bnezs8 9269c <AIR_MOTION_ProcessDelta+0x112>
   92694:	e0 e1       	slts45 $r7,$r1
   92696:	e8 02       	beqzs8 9269a <AIR_MOTION_ProcessDelta+0x110>
   92698:	80 e1       	mov55 $r7,$r1
   9269a:	80 26       	mov55 $r1,$r6
   9269c:	8d 42       	addi45 $r10,#2
   9269e:	3e 6f cd 30 	addi.gp $r6,#-13008
   926a2:	4c a3 00 06 	beq $r10,$r6,926ae <AIR_MOTION_ProcessDelta+0x124>
   926a6:	80 c1       	mov55 $r6,$r1
   926a8:	81 28       	mov55 $r9,$r8
   926aa:	80 22       	mov55 $r1,$r2
   926ac:	d5 df       	j8 9266a <AIR_MOTION_ProcessDelta+0xe0>
   926ae:	2e 97 cc 94 	lbi.gp $r9,[+#-13164]
   926b2:	40 82 20 01 	sub $r8,$r4,$r8
   926b6:	e1 28       	slts45 $r9,$r8
   926b8:	e9 09       	bnezs8 926ca <AIR_MOTION_ProcessDelta+0x140>
   926ba:	9b f9       	sub333 $r7,$r7,$r1
   926bc:	e1 27       	slts45 $r9,$r7
   926be:	e9 06       	bnezs8 926ca <AIR_MOTION_ProcessDelta+0x140>
   926c0:	40 2f 08 01 	sub $r2,$lp,$r2
   926c4:	e1 22       	slts45 $r9,$r2
   926c6:	4e f2 03 15 	beqz $r15,92cf0 <AIR_MOTION_ProcessDelta+0x766>
   926ca:	84 e0       	movi55 $r7,#0
   926cc:	3c 7b e6 57 	shi.gp $r7,[+#-13138]
   926d0:	84 40       	movi55 $r2,#0
   926d2:	3c 13 e6 57 	lhi.gp $r1,[+#-13138]
   926d6:	3c 73 e6 4b 	lhi.gp $r7,[+#-13162]
   926da:	e2 27       	slt45 $r1,$r7
   926dc:	e9 18       	bnezs8 9270c <AIR_MOTION_ProcessDelta+0x182>
   926de:	84 e0       	movi55 $r7,#0
   926e0:	3c 7b e6 57 	shi.gp $r7,[+#-13138]
   926e4:	3c 77 e6 48 	lhsi.gp $r7,[+#-13168]
   926e8:	df 09       	bnes38 $r7,926fa <AIR_MOTION_ProcessDelta+0x170>
   926ea:	3c 77 e6 49 	lhsi.gp $r7,[+#-13166]
   926ee:	4c 71 c0 06 	bne $r7,$r3,926fa <AIR_MOTION_ProcessDelta+0x170>
   926f2:	3c 77 e6 47 	lhsi.gp $r7,[+#-13170]
   926f6:	4c 70 00 0b 	beq $r7,$r0,9270c <AIR_MOTION_ProcessDelta+0x182>
   926fa:	3e 1f cc 8c 	addi.gp $r1,#-13172
   926fe:	85 01       	movi55 $r8,#1
   92700:	ac 09       	shi333 $r0,[$r1+#0x2]
   92702:	ad 4a       	shi333 $r5,[$r1+#0x4]
   92704:	ac cb       	shi333 $r3,[$r1+#0x6]
   92706:	14 8f 80 05 	swi $r8,[$sp+#0x14]
   9270a:	d5 03       	j8 92710 <AIR_MOTION_ProcessDelta+0x186>
   9270c:	84 00       	movi55 $r0,#0
   9270e:	f0 85       	swi37.sp $r0,[+#0x14]
   92710:	b4 3f       	lwi450 $r1,[$sp]
   92712:	b1 8c       	addri36.sp $r6,#0x30
   92714:	95 4c       	slli333 $r5,$r1,#4
   92716:	3e 1f cc 8c 	addi.gp $r1,#-13172
   9271a:	22 70 80 01 	lhsi $r7,[$r1+#0x2]
   9271e:	f2 84       	swi37.sp $r2,[+#0x10]
   92720:	9b 6f       	sub333 $r5,$r5,$r7
   92722:	8c a8       	addi45 $r5,#8
   92724:	90 a4       	srai45 $r5,#4
   92726:	ad 70       	shi333 $r5,[$r6+#0x0]
   92728:	22 53 00 01 	lhsi $r5,[$r6+#0x2]
   9272c:	22 70 80 02 	lhsi $r7,[$r1+#0x4]
   92730:	95 6c       	slli333 $r5,$r5,#4
   92732:	9b 6f       	sub333 $r5,$r5,$r7
   92734:	8c a8       	addi45 $r5,#8
   92736:	90 a4       	srai45 $r5,#4
   92738:	96 ab       	seh33 $r2,$r5
   9273a:	f3 03       	lwi37.sp $r3,[+#0xc]
   9273c:	22 50 80 03 	lhsi $r5,[$r1+#0x6]
   92740:	95 1c       	slli333 $r4,$r3,#4
   92742:	52 52 80 08 	subri $r5,$r5,#8
   92746:	99 2c       	add333 $r4,$r5,$r4
   92748:	90 84       	srai45 $r4,#4
   9274a:	96 63       	seh33 $r1,$r4
   9274c:	ac 72       	shi333 $r1,[$r6+#0x4]
   9274e:	ac b1       	shi333 $r2,[$r6+#0x2]
   92750:	80 02       	mov55 $r0,$r2
   92752:	49 ff fd fa 	jal 92346 <SumOfSquares>
   92756:	00 73 00 0c 	lbi $r7,[$r6+#0xc]
   9275a:	2e 57 cd b1 	lbi.gp $r5,[+#-12879]
   9275e:	80 80       	mov55 $r4,$r0
   92760:	3e 1f cd b2 	addi.gp $r1,#-12878
   92764:	d7 09       	beqs38 $r7,92776 <AIR_MOTION_ProcessDelta+0x1ec>
   92766:	84 40       	movi55 $r2,#0
   92768:	3e 27 cd b0 	sbi.gp $r2,[+#-12880]
   9276c:	84 e0       	movi55 $r7,#0
   9276e:	ae 88       	sbi333 $r2,[$r1+#0x0]
   92770:	3c 7f f3 6e 	swi.gp $r7,[+#-12872]
   92774:	d5 06       	j8 92780 <AIR_MOTION_ProcessDelta+0x1f6>
   92776:	a6 88       	lbi333 $r2,[$r1+#0x0]
   92778:	5a 20 ff 04 	beqc $r2,#255,92780 <AIR_MOTION_ProcessDelta+0x1f6>
   9277c:	9d 51       	addi333 $r5,$r2,#1
   9277e:	af 48       	sbi333 $r5,[$r1+#0x0]
   92780:	3c 1d f3 6d 	lwi.gp $r1,[+#-12876]
   92784:	84 44       	movi55 $r2,#4
   92786:	40 00 90 06 	slt $r0,$r1,$r4
   9278a:	84 66       	movi55 $r3,#6
   9278c:	3e 1f cd b8 	addi.gp $r1,#-12872
   92790:	49 00 02 e7 	jal 92d5e <StabilityModule>
   92794:	c0 04       	beqz38 $r0,9279c <AIR_MOTION_ProcessDelta+0x212>
   92796:	84 a1       	movi55 $r5,#1
   92798:	3e 57 cd b0 	sbi.gp $r5,[+#-12880]
   9279c:	3c 33 e6 4c 	lhi.gp $r3,[+#-13160]
   927a0:	cb 09       	bnez38 $r3,927b2 <AIR_MOTION_ProcessDelta+0x228>
   927a2:	b6 7f       	swi450 $r3,[$sp]
   927a4:	f3 83       	swi37.sp $r3,[+#0xc]
   927a6:	f3 86       	swi37.sp $r3,[+#0x18]
   927a8:	f3 87       	swi37.sp $r3,[+#0x1c]
   927aa:	f3 88       	swi37.sp $r3,[+#0x20]
   927ac:	f3 89       	swi37.sp $r3,[+#0x24]
   927ae:	48 00 00 bc 	j 92926 <AIR_MOTION_ProcessDelta+0x39c>
   927b2:	2e a7 cd 88 	lbi.gp $r10,[+#-12920]
   927b6:	b0 4c       	addri36.sp $r1,#0x30
   927b8:	22 90 80 00 	lhsi $r9,[$r1+#0x0]
   927bc:	22 80 80 01 	lhsi $r8,[$r1+#0x2]
   927c0:	22 50 80 02 	lhsi $r5,[$r1+#0x4]
   927c4:	4e a2 00 0a 	beqz $r10,927d8 <AIR_MOTION_ProcessDelta+0x24e>
   927c8:	84 80       	movi55 $r4,#0
   927ca:	83 c4       	mov55 $lp,$r4
   927cc:	80 c4       	mov55 $r6,$r4
   927ce:	81 04       	mov55 $r8,$r4
   927d0:	80 24       	mov55 $r1,$r4
   927d2:	80 44       	mov55 $r2,$r4
   927d4:	48 00 00 a1 	j 92916 <AIR_MOTION_ProcessDelta+0x38c>
   927d8:	3c 13 e6 c0 	lhi.gp $r1,[+#-12928]
   927dc:	44 60 7b 0b 	movi $r6,#31499
   927e0:	99 0e       	add333 $r4,$r1,$r6
   927e2:	97 a1       	zeh33 $r6,$r4
   927e4:	44 40 f6 16 	movi $r4,#62998
   927e8:	e2 86       	slt45 $r4,$r6
   927ea:	e9 0a       	bnezs8 927fe <AIR_MOTION_ProcessDelta+0x274>
   927ec:	84 8e       	movi55 $r4,#14
   927ee:	42 94 90 24 	mul $r9,$r9,$r4
   927f2:	50 94 81 00 	addi $r9,$r9,#256
   927f6:	91 29       	srai45 $r9,#9
   927f8:	89 21       	add45 $r9,$r1
   927fa:	3c 9b e6 c0 	shi.gp $r9,[+#-12928]
   927fe:	3d e3 e6 c1 	lhi.gp $lp,[+#-12926]
   92802:	44 00 7b 0b 	movi $r0,#31499
   92806:	40 9f 00 00 	add $r9,$lp,$r0
   9280a:	40 94 80 13 	zeh $r9,$r9
   9280e:	95 01       	slli333 $r4,$r0,#1
   92810:	e2 89       	slt45 $r4,$r9
   92812:	e9 0a       	bnezs8 92826 <AIR_MOTION_ProcessDelta+0x29c>
   92814:	85 2e       	movi55 $r9,#14
   92816:	42 84 24 24 	mul $r8,$r8,$r9
   9281a:	50 84 01 00 	addi $r8,$r8,#256
   9281e:	91 09       	srai45 $r8,#9
   92820:	89 1e       	add45 $r8,$lp
   92822:	3c 8b e6 c1 	shi.gp $r8,[+#-12926]
   92826:	3c 23 e6 c2 	lhi.gp $r2,[+#-12924]
   9282a:	80 c0       	mov55 $r6,$r0
   9282c:	40 81 18 00 	add $r8,$r2,$r6
   92830:	40 84 00 13 	zeh $r8,$r8
   92834:	40 90 04 08 	slli $r9,$r0,#1
   92838:	e3 28       	slt45 $r9,$r8
   9283a:	e9 09       	bnezs8 9284c <AIR_MOTION_ProcessDelta+0x2c2>
   9283c:	84 ee       	movi55 $r7,#14
   9283e:	ff ec       	mul33 $r7,$r5
   92840:	50 73 81 00 	addi $r7,$r7,#256
   92844:	90 e9       	srai45 $r7,#9
   92846:	99 d7       	add333 $r7,$r2,$r7
   92848:	3c 7b e6 c2 	shi.gp $r7,[+#-12924]
   9284c:	3c 07 e6 c0 	lhsi.gp $r0,[+#-12928]
   92850:	80 20       	mov55 $r1,$r0
   92852:	4e 04 00 03 	bgez $r0,92858 <AIR_MOTION_ProcessDelta+0x2ce>
   92856:	fe 42       	neg33 $r1,$r0
   92858:	3c 67 e6 c1 	lhsi.gp $r6,[+#-12926]
   9285c:	96 8b       	seh33 $r2,$r1
   9285e:	3c a7 e6 c2 	lhsi.gp $r10,[+#-12924]
   92862:	80 26       	mov55 $r1,$r6
   92864:	4e 64 00 03 	bgez $r6,9286a <AIR_MOTION_ProcessDelta+0x2e0>
   92868:	fe 72       	neg33 $r1,$r6
   9286a:	3c 53 e6 4d 	lhi.gp $r5,[+#-13158]
   9286e:	96 4b       	seh33 $r1,$r1
   92870:	e0 25       	slts45 $r1,$r5
   92872:	e8 17       	beqzs8 928a0 <AIR_MOTION_ProcessDelta+0x316>
   92874:	e0 45       	slts45 $r2,$r5
   92876:	e8 15       	beqzs8 928a0 <AIR_MOTION_ProcessDelta+0x316>
   92878:	40 91 80 11 	seh $r9,$r3
   9287c:	e1 49       	slts45 $r10,$r9
   9287e:	e9 07       	bnezs8 9288c <AIR_MOTION_ProcessDelta+0x302>
   92880:	85 21       	movi55 $r9,#1
   92882:	3e 97 cd 88 	sbi.gp $r9,[+#-12920]
   92886:	84 80       	movi55 $r4,#0
   92888:	87 c1       	movi55 $lp,#1
   9288a:	d5 0d       	j8 928a4 <AIR_MOTION_ProcessDelta+0x31a>
   9288c:	52 84 80 00 	subri $r8,$r9,#0
   92890:	e1 0a       	slts45 $r8,$r10
   92892:	e9 07       	bnezs8 928a0 <AIR_MOTION_ProcessDelta+0x316>
   92894:	85 21       	movi55 $r9,#1
   92896:	3e 97 cd 88 	sbi.gp $r9,[+#-12920]
   9289a:	84 81       	movi55 $r4,#1
   9289c:	87 c0       	movi55 $lp,#0
   9289e:	d5 03       	j8 928a4 <AIR_MOTION_ProcessDelta+0x31a>
   928a0:	84 80       	movi55 $r4,#0
   928a2:	83 c4       	mov55 $lp,$r4
   928a4:	81 0a       	mov55 $r8,$r10
   928a6:	4e a4 00 04 	bgez $r10,928ae <AIR_MOTION_ProcessDelta+0x324>
   928aa:	52 85 00 00 	subri $r8,$r10,#0
   928ae:	40 a4 00 11 	seh $r10,$r8
   928b2:	e1 45       	slts45 $r10,$r5
   928b4:	e8 15       	beqzs8 928de <AIR_MOTION_ProcessDelta+0x354>
   928b6:	e0 45       	slts45 $r2,$r5
   928b8:	e8 13       	beqzs8 928de <AIR_MOTION_ProcessDelta+0x354>
   928ba:	97 db       	seh33 $r7,$r3
   928bc:	e0 c7       	slts45 $r6,$r7
   928be:	e9 07       	bnezs8 928cc <AIR_MOTION_ProcessDelta+0x342>
   928c0:	85 21       	movi55 $r9,#1
   928c2:	3e 97 cd 88 	sbi.gp $r9,[+#-12920]
   928c6:	84 c1       	movi55 $r6,#1
   928c8:	85 00       	movi55 $r8,#0
   928ca:	d5 0c       	j8 928e2 <AIR_MOTION_ProcessDelta+0x358>
   928cc:	ff fa       	neg33 $r7,$r7
   928ce:	e0 e6       	slts45 $r7,$r6
   928d0:	e9 07       	bnezs8 928de <AIR_MOTION_ProcessDelta+0x354>
   928d2:	85 21       	movi55 $r9,#1
   928d4:	3e 97 cd 88 	sbi.gp $r9,[+#-12920]
   928d8:	84 c0       	movi55 $r6,#0
   928da:	85 01       	movi55 $r8,#1
   928dc:	d5 03       	j8 928e2 <AIR_MOTION_ProcessDelta+0x358>
   928de:	84 c0       	movi55 $r6,#0
   928e0:	81 06       	mov55 $r8,$r6
   928e2:	e0 25       	slts45 $r1,$r5
   928e4:	e8 17       	beqzs8 92912 <AIR_MOTION_ProcessDelta+0x388>
   928e6:	e1 45       	slts45 $r10,$r5
   928e8:	e8 15       	beqzs8 92912 <AIR_MOTION_ProcessDelta+0x388>
   928ea:	3c 27 e6 c3 	lhsi.gp $r2,[+#-12922]
   928ee:	e0 02       	slts45 $r0,$r2
   928f0:	e9 07       	bnezs8 928fe <AIR_MOTION_ProcessDelta+0x374>
   928f2:	85 41       	movi55 $r10,#1
   928f4:	3e a7 cd 88 	sbi.gp $r10,[+#-12920]
   928f8:	84 21       	movi55 $r1,#1
   928fa:	84 40       	movi55 $r2,#0
   928fc:	d5 0d       	j8 92916 <AIR_MOTION_ProcessDelta+0x38c>
   928fe:	52 91 00 00 	subri $r9,$r2,#0
   92902:	e1 20       	slts45 $r9,$r0
   92904:	e9 07       	bnezs8 92912 <AIR_MOTION_ProcessDelta+0x388>
   92906:	85 41       	movi55 $r10,#1
   92908:	3e a7 cd 88 	sbi.gp $r10,[+#-12920]
   9290c:	84 20       	movi55 $r1,#0
   9290e:	84 41       	movi55 $r2,#1
   92910:	d5 03       	j8 92916 <AIR_MOTION_ProcessDelta+0x38c>
   92912:	84 20       	movi55 $r1,#0
   92914:	80 41       	mov55 $r2,$r1
   92916:	b6 9f       	swi450 $r4,[$sp]
   92918:	15 ef 80 03 	swi $lp,[$sp+#0xc]
   9291c:	f6 86       	swi37.sp $r6,[+#0x18]
   9291e:	14 8f 80 07 	swi $r8,[$sp+#0x1c]
   92922:	f1 88       	swi37.sp $r1,[+#0x20]
   92924:	f2 89       	swi37.sp $r2,[+#0x24]
   92926:	2e 67 cc a4 	lbi.gp $r6,[+#-13148]
   9292a:	c6 24       	beqz38 $r6,92972 <AIR_MOTION_ProcessDelta+0x3e8>
   9292c:	04 8f 80 0b 	lwi $r8,[$sp+#0x2c]
   92930:	3c 67 e6 47 	lhsi.gp $r6,[+#-13170]
   92934:	40 34 10 08 	slli $r3,$r8,#4
   92938:	9b 9e       	sub333 $r6,$r3,$r6
   9293a:	8c c8       	addi45 $r6,#8
   9293c:	50 9f 80 30 	addi $r9,$sp,#48
   92940:	90 c4       	srai45 $r6,#4
   92942:	f0 02       	lwi37.sp $r0,[+#0x8]
   92944:	12 64 80 00 	shi $r6,[$r9+#0x0]
   92948:	3c 67 e6 48 	lhsi.gp $r6,[+#-13168]
   9294c:	94 c4       	slli333 $r3,$r0,#4
   9294e:	9b 9e       	sub333 $r6,$r3,$r6
   92950:	8c c8       	addi45 $r6,#8
   92952:	90 c4       	srai45 $r6,#4
   92954:	f1 0a       	lwi37.sp $r1,[+#0x28]
   92956:	12 64 80 01 	shi $r6,[$r9+#0x2]
   9295a:	3c 67 e6 49 	lhsi.gp $r6,[+#-13166]
   9295e:	94 cc       	slli333 $r3,$r1,#4
   92960:	9b 9e       	sub333 $r6,$r3,$r6
   92962:	8c c8       	addi45 $r6,#8
   92964:	90 c4       	srai45 $r6,#4
   92966:	12 64 80 02 	shi $r6,[$r9+#0x4]
   9296a:	80 09       	mov55 $r0,$r9
   9296c:	84 20       	movi55 $r1,#0
   9296e:	49 00 02 85 	jal 92e78 <ProcessRollCompensation>
   92972:	2e 37 cd b2 	lbi.gp $r3,[+#-12878]
   92976:	2e 67 cc 9d 	lbi.gp $r6,[+#-13155]
   9297a:	e2 66       	slt45 $r3,$r6
   9297c:	e8 0a       	beqzs8 92990 <AIR_MOTION_ProcessDelta+0x406>
   9297e:	2e 37 cd b0 	lbi.gp $r3,[+#-12880]
   92982:	cb 07       	bnez38 $r3,92990 <AIR_MOTION_ProcessDelta+0x406>
   92984:	84 41       	movi55 $r2,#1
   92986:	80 c3       	mov55 $r6,$r3
   92988:	80 03       	mov55 $r0,$r3
   9298a:	f2 82       	swi37.sp $r2,[+#0x8]
   9298c:	48 00 01 5c 	j 92c44 <AIR_MOTION_ProcessDelta+0x6ba>
   92990:	3c 5d f3 2d 	lwi.gp $r5,[+#-13132]
   92994:	3d e7 e6 48 	lhsi.gp $lp,[+#-13168]
   92998:	f6 02       	lwi37.sp $r6,[+#0x8]
   9299a:	52 3f 00 08 	subri $r3,$lp,#8
   9299e:	41 e3 10 08 	slli $lp,$r6,#4
   929a2:	41 e1 f8 00 	add $lp,$r3,$lp
   929a6:	41 ef 10 09 	srli $lp,$lp,#4
   929aa:	41 ef 00 11 	seh $lp,$lp
   929ae:	43 ef 14 24 	mul $lp,$lp,$r5
   929b2:	51 ef 00 40 	addi $lp,$lp,#64
   929b6:	41 ef 1c 0a 	srai $lp,$lp,#7
   929ba:	40 9f 00 11 	seh $r9,$lp
   929be:	04 8f 80 0a 	lwi $r8,[$sp+#0x28]
   929c2:	3d e7 e6 49 	lhsi.gp $lp,[+#-13166]
   929c6:	40 a4 10 08 	slli $r10,$r8,#4
   929ca:	53 ef 00 08 	subri $lp,$lp,#8
   929ce:	40 6f 28 00 	add $r6,$lp,$r10
   929d2:	92 c4       	srli45 $r6,#4
   929d4:	97 b3       	seh33 $r6,$r6
   929d6:	ff ac       	mul33 $r6,$r5
   929d8:	50 63 00 40 	addi $r6,$r6,#64
   929dc:	90 c7       	srai45 $r6,#7
   929de:	96 b3       	seh33 $r2,$r6
   929e0:	50 64 80 80 	addi $r6,$r9,#128
   929e4:	97 b1       	zeh33 $r6,$r6
   929e6:	5c f3 01 01 	slti $r15,$r6,#257
   929ea:	e8 02       	beqzs8 929ee <AIR_MOTION_ProcessDelta+0x464>
   929ec:	85 20       	movi55 $r9,#0
   929ee:	50 61 00 80 	addi $r6,$r2,#128
   929f2:	97 b1       	zeh33 $r6,$r6
   929f4:	5c f3 01 01 	slti $r15,$r6,#257
   929f8:	e8 02       	beqzs8 929fc <AIR_MOTION_ProcessDelta+0x472>
   929fa:	84 40       	movi55 $r2,#0
   929fc:	80 69       	mov55 $r3,$r9
   929fe:	5e f4 fe 40 	sltsi $r15,$r9,#-448
   92a02:	e8 03       	beqzs8 92a08 <AIR_MOTION_ProcessDelta+0x47e>
   92a04:	44 3f fe 40 	movi $r3,#-448
   92a08:	97 9b       	seh33 $r6,$r3
   92a0a:	5e f3 01 c1 	sltsi $r15,$r6,#449
   92a0e:	e9 03       	bnezs8 92a14 <AIR_MOTION_ProcessDelta+0x48a>
   92a10:	44 30 01 c0 	movi $r3,#448
   92a14:	97 db       	seh33 $r7,$r3
   92a16:	80 62       	mov55 $r3,$r2
   92a18:	5e f1 7e 40 	sltsi $r15,$r2,#-448
   92a1c:	e8 03       	beqzs8 92a22 <AIR_MOTION_ProcessDelta+0x498>
   92a1e:	44 3f fe 40 	movi $r3,#-448
   92a22:	97 9b       	seh33 $r6,$r3
   92a24:	5e f3 01 c1 	sltsi $r15,$r6,#449
   92a28:	e9 03       	bnezs8 92a2e <AIR_MOTION_ProcessDelta+0x4a4>
   92a2a:	44 30 01 c0 	movi $r3,#448
   92a2e:	96 db       	seh33 $r3,$r3
   92a30:	4e 75 00 04 	bltz $r7,92a38 <AIR_MOTION_ProcessDelta+0x4ae>
   92a34:	80 c7       	mov55 $r6,$r7
   92a36:	d5 03       	j8 92a3c <AIR_MOTION_ProcessDelta+0x4b2>
   92a38:	ff bb       	not33 $r6,$r7
   92a3a:	97 b3       	seh33 $r6,$r6
   92a3c:	4e 35 00 04 	bltz $r3,92a44 <AIR_MOTION_ProcessDelta+0x4ba>
   92a40:	83 c3       	mov55 $lp,$r3
   92a42:	d5 05       	j8 92a4c <AIR_MOTION_ProcessDelta+0x4c2>
   92a44:	40 a1 8c 05 	nor $r10,$r3,$r3
   92a48:	41 e5 00 11 	seh $lp,$r10
   92a4c:	40 a3 00 11 	seh $r10,$r6
   92a50:	5e f5 01 e1 	sltsi $r15,$r10,#481
   92a54:	e9 03       	bnezs8 92a5a <AIR_MOTION_ProcessDelta+0x4d0>
   92a56:	44 60 01 e0 	movi $r6,#480
   92a5a:	40 af 00 11 	seh $r10,$lp
   92a5e:	96 b3       	seh33 $r2,$r6
   92a60:	5e f5 01 e1 	sltsi $r15,$r10,#481
   92a64:	e9 03       	bnezs8 92a6a <AIR_MOTION_ProcessDelta+0x4e0>
   92a66:	45 e0 01 e0 	movi $lp,#480
   92a6a:	3e 9f cc e4 	addi.gp $r9,#-13084
   92a6e:	00 84 80 28 	lbi $r8,[$r9+#0x28]
   92a72:	83 89       	mov55 $fp,$r9
   92a74:	be 04       	lwi37 $r6,[$fp+#0x10]
   92a76:	80 a8       	mov55 $r5,$r8
   92a78:	50 a2 80 08 	addi $r10,$r5,#8
   92a7c:	40 0f 00 11 	seh $r0,$lp
   92a80:	89 4a       	add45 $r10,$r10
   92a82:	39 e4 95 11 	lhs $lp,[$r9+($r5<<#0x1)]
   92a86:	89 49       	add45 $r10,$r9
   92a88:	8a de       	sub45 $r6,$lp
   92a8a:	bc 09       	lwi37 $r4,[$fp+#0x24]
   92a8c:	23 e5 00 02 	lhsi $lp,[$r10+#0x4]
   92a90:	12 35 00 02 	shi $r3,[$r10+#0x4]
   92a94:	41 e2 78 01 	sub $lp,$r4,$lp
   92a98:	50 a4 00 01 	addi $r10,$r8,#1
   92a9c:	99 be       	add333 $r6,$r7,$r6
   92a9e:	41 ef 0c 00 	add $lp,$lp,$r3
   92aa2:	54 a5 00 ff 	andi $r10,$r10,#0xff
   92aa6:	be 84       	swi37 $r6,[$fp+#0x10]
   92aa8:	15 e4 80 09 	swi $lp,[$r9+#0x24]
   92aac:	38 74 95 09 	sh $r7,[$r9+($r5<<#0x1)]
   92ab0:	10 a4 80 28 	sbi $r10,[$r9+#0x28]
   92ab4:	e7 46       	slti45 $r10,#6
   92ab6:	e9 04       	bnezs8 92abe <AIR_MOTION_ProcessDelta+0x534>
   92ab8:	85 40       	movi55 $r10,#0
   92aba:	10 a4 80 28 	sbi $r10,[$r9+#0x28]
   92abe:	3e 3f cc b8 	addi.gp $r3,#-13128
   92ac2:	00 41 80 28 	lbi $r4,[$r3+#0x28]
   92ac6:	05 e1 80 04 	lwi $lp,[$r3+#0x10]
   92aca:	80 a4       	mov55 $r5,$r4
   92acc:	38 a1 95 11 	lhs $r10,[$r3+($r5<<#0x1)]
   92ad0:	04 91 80 09 	lwi $r9,[$r3+#0x24]
   92ad4:	40 7f 28 01 	sub $r7,$lp,$r10
   92ad8:	50 a2 80 08 	addi $r10,$r5,#8
   92adc:	89 4a       	add45 $r10,$r10
   92ade:	89 43       	add45 $r10,$r3
   92ae0:	23 e5 00 02 	lhsi $lp,[$r10+#0x4]
   92ae4:	9d a1       	addi333 $r6,$r4,#1
   92ae6:	8b 3e       	sub45 $r9,$lp
   92ae8:	40 14 80 00 	add $r1,$r9,$r0
   92aec:	41 e1 1c 00 	add $lp,$r2,$r7
   92af0:	97 97       	fexti33 $r6,#0x2
   92af2:	15 e1 80 04 	swi $lp,[$r3+#0x10]
   92af6:	14 11 80 09 	swi $r1,[$r3+#0x24]
   92afa:	38 21 95 09 	sh $r2,[$r3+($r5<<#0x1)]
   92afe:	12 05 00 02 	shi $r0,[$r10+#0x4]
   92b02:	10 61 80 28 	sbi $r6,[$r3+#0x28]
   92b06:	80 1e       	mov55 $r0,$lp
   92b08:	49 ff fc 1f 	jal 92346 <SumOfSquares>
   92b0c:	46 30 09 c3 	sethi $r3,#0x9c3
   92b10:	58 31 8f ff 	ori $r3,$r3,#0xfff
   92b14:	e2 60       	slt45 $r3,$r0
   92b16:	e8 02       	beqzs8 92b1a <AIR_MOTION_ProcessDelta+0x590>
   92b18:	d5 37       	j8 92b86 <AIR_MOTION_ProcessDelta+0x5fc>
   92b1a:	3c 67 e6 7a 	lhsi.gp $r6,[+#-13068]
   92b1e:	3c 37 e6 84 	lhsi.gp $r3,[+#-13048]
   92b22:	81 46       	mov55 $r10,$r6
   92b24:	4e 64 00 04 	bgez $r6,92b2c <AIR_MOTION_ProcessDelta+0x5a2>
   92b28:	52 a3 00 00 	subri $r10,$r6,#0
   92b2c:	83 c3       	mov55 $lp,$r3
   92b2e:	4e 34 00 04 	bgez $r3,92b36 <AIR_MOTION_ProcessDelta+0x5ac>
   92b32:	53 e1 80 00 	subri $lp,$r3,#0
   92b36:	e5 42       	sltsi45 $r10,#2
   92b38:	e8 06       	beqzs8 92b44 <AIR_MOTION_ProcessDelta+0x5ba>
   92b3a:	5e ff 00 02 	sltsi $r15,$lp,#2
   92b3e:	e8 07       	beqzs8 92b4c <AIR_MOTION_ProcessDelta+0x5c2>
   92b40:	84 41       	movi55 $r2,#1
   92b42:	d5 11       	j8 92b64 <AIR_MOTION_ProcessDelta+0x5da>
   92b44:	e1 5e       	slts45 $r10,$lp
   92b46:	e9 03       	bnezs8 92b4c <AIR_MOTION_ProcessDelta+0x5c2>
   92b48:	fe dc       	mul33 $r3,$r3
   92b4a:	d5 04       	j8 92b52 <AIR_MOTION_ProcessDelta+0x5c8>
   92b4c:	42 33 18 24 	mul $r3,$r6,$r6
   92b50:	81 5e       	mov55 $r10,$lp
   92b52:	40 65 28 00 	add $r6,$r10,$r10
   92b56:	40 61 98 76 	divsr $r6,$r3,$r3,$r6
   92b5a:	88 ca       	add45 $r6,$r10
   92b5c:	96 b1       	zeh33 $r2,$r6
   92b5e:	5c f1 02 41 	slti $r15,$r2,#577
   92b62:	e8 03       	beqzs8 92b68 <AIR_MOTION_ProcessDelta+0x5de>
   92b64:	84 60       	movi55 $r3,#0
   92b66:	d5 03       	j8 92b6c <AIR_MOTION_ProcessDelta+0x5e2>
   92b68:	50 31 7d c0 	addi $r3,$r2,#-576
   92b6c:	50 61 80 10 	addi $r6,$r3,#16
   92b70:	95 b2       	slli333 $r6,$r6,#2
   92b72:	40 13 1c 09 	srli $r1,$r6,#7
   92b76:	5c f1 02 41 	slti $r15,$r2,#577
   92b7a:	e9 03       	bnezs8 92b80 <AIR_MOTION_ProcessDelta+0x5f6>
   92b7c:	50 10 80 2a 	addi $r1,$r1,#42
   92b80:	5c f0 80 67 	slti $r15,$r1,#103
   92b84:	e9 03       	bnezs8 92b8a <AIR_MOTION_ProcessDelta+0x600>
   92b86:	44 10 00 66 	movi $r1,#102
   92b8a:	50 af 80 30 	addi $r10,$sp,#48
   92b8e:	22 35 00 02 	lhsi $r3,[$r10+#0x4]
   92b92:	22 65 00 01 	lhsi $r6,[$r10+#0x2]
   92b96:	fe cc       	mul33 $r3,$r1
   92b98:	ff 8c       	mul33 $r6,$r1
   92b9a:	50 31 80 40 	addi $r3,$r3,#64
   92b9e:	50 63 00 40 	addi $r6,$r6,#64
   92ba2:	90 67       	srai45 $r3,#7
   92ba4:	96 db       	seh33 $r3,$r3
   92ba6:	90 c7       	srai45 $r6,#7
   92ba8:	12 65 00 01 	shi $r6,[$r10+#0x2]
   92bac:	12 35 00 02 	shi $r3,[$r10+#0x4]
   92bb0:	2e 1f cc 8c 	lbsi.gp $r1,[+#-13172]
   92bb4:	80 03       	mov55 $r0,$r3
   92bb6:	3e 2f cd bc 	addi.gp $r2,#-12868
   92bba:	3e 3f cd c4 	addi.gp $r3,#-12860
   92bbe:	49 ff fb c9 	jal 92350 <ComputeDelta>
   92bc2:	02 35 00 01 	lhi $r3,[$r10+#0x2]
   92bc6:	2e 1f cc 8d 	lbsi.gp $r1,[+#-13171]
   92bca:	fe da       	neg33 $r3,$r3
   92bcc:	80 c0       	mov55 $r6,$r0
   92bce:	3e 2f cd c0 	addi.gp $r2,#-12864
   92bd2:	96 1b       	seh33 $r0,$r3
   92bd4:	3e 3f cd c8 	addi.gp $r3,#-12856
   92bd8:	49 ff fb bc 	jal 92350 <ComputeDelta>
   92bdc:	84 21       	movi55 $r1,#1
   92bde:	f1 82       	swi37.sp $r1,[+#0x8]
   92be0:	d5 32       	j8 92c44 <AIR_MOTION_ProcessDelta+0x6ba>
   92be2:	80 43       	mov55 $r2,$r3
   92be4:	22 40 80 01 	lhsi $r4,[$r1+#0x2]
   92be8:	94 94       	slli333 $r2,$r2,#4
   92bea:	9a 94       	sub333 $r2,$r2,$r4
   92bec:	8c 48       	addi45 $r2,#8
   92bee:	90 44       	srai45 $r2,#4
   92bf0:	ac b0       	shi333 $r2,[$r6+#0x0]
   92bf2:	22 23 00 01 	lhsi $r2,[$r6+#0x2]
   92bf6:	22 30 80 02 	lhsi $r3,[$r1+#0x4]
   92bfa:	94 94       	slli333 $r2,$r2,#4
   92bfc:	9a 93       	sub333 $r2,$r2,$r3
   92bfe:	8c 48       	addi45 $r2,#8
   92c00:	90 44       	srai45 $r2,#4
   92c02:	ac b1       	shi333 $r2,[$r6+#0x2]
   92c04:	22 23 00 02 	lhsi $r2,[$r6+#0x4]
   92c08:	22 30 80 03 	lhsi $r3,[$r1+#0x6]
   92c0c:	94 94       	slli333 $r2,$r2,#4
   92c0e:	9a 93       	sub333 $r2,$r2,$r3
   92c10:	8c 48       	addi45 $r2,#8
   92c12:	00 10 80 18 	lbi $r1,[$r1+#0x18]
   92c16:	90 44       	srai45 $r2,#4
   92c18:	ac b2       	shi333 $r2,[$r6+#0x4]
   92c1a:	c1 05       	beqz38 $r1,92c24 <AIR_MOTION_ProcessDelta+0x69a>
   92c1c:	80 06       	mov55 $r0,$r6
   92c1e:	84 21       	movi55 $r1,#1
   92c20:	49 00 01 2c 	jal 92e78 <ProcessRollCompensation>
   92c24:	3e 1f cc ac 	addi.gp $r1,#-13140
   92c28:	a6 88       	lbi333 $r2,[$r1+#0x0]
   92c2a:	84 c0       	movi55 $r6,#0
   92c2c:	9c 91       	addi333 $r2,$r2,#1
   92c2e:	ae 88       	sbi333 $r2,[$r1+#0x0]
   92c30:	f6 82       	swi37.sp $r6,[+#0x8]
   92c32:	f6 84       	swi37.sp $r6,[+#0x10]
   92c34:	f6 85       	swi37.sp $r6,[+#0x14]
   92c36:	b6 df       	swi450 $r6,[$sp]
   92c38:	f6 83       	swi37.sp $r6,[+#0xc]
   92c3a:	f6 86       	swi37.sp $r6,[+#0x18]
   92c3c:	f6 87       	swi37.sp $r6,[+#0x1c]
   92c3e:	f6 88       	swi37.sp $r6,[+#0x20]
   92c40:	f6 89       	swi37.sp $r6,[+#0x24]
   92c42:	80 06       	mov55 $r0,$r6
   92c44:	00 2f 80 3c 	lbi $r2,[$sp+#0x3c]
   92c48:	3e 27 cd b1 	sbi.gp $r2,[+#-12879]
   92c4c:	f5 01       	lwi37.sp $r5,[+#0x4]
   92c4e:	3c 37 e6 47 	lhsi.gp $r3,[+#-13170]
   92c52:	3d e7 e6 48 	lhsi.gp $lp,[+#-13168]
   92c56:	3c a3 e6 49 	lhi.gp $r10,[+#-13166]
   92c5a:	04 8f 80 09 	lwi $r8,[$sp+#0x24]
   92c5e:	f2 08       	lwi37.sp $r2,[+#0x20]
   92c60:	12 a2 80 03 	shi $r10,[$r5+#0x6]
   92c64:	00 a2 80 0a 	lbi $r10,[$r5+#0xa]
   92c68:	54 94 00 01 	andi $r9,$r8,#0x1
   92c6c:	44 1f ff cf 	movi $r1,#-49
   92c70:	ac e9       	shi333 $r3,[$r5+#0x2]
   92c72:	40 a5 04 02 	and $r10,$r10,$r1
   92c76:	f3 07       	lwi37.sp $r3,[+#0x1c]
   92c78:	97 14       	xlsb33 $r4,$r2
   92c7a:	40 94 94 08 	slli $r9,$r9,#5
   92c7e:	f1 06       	lwi37.sp $r1,[+#0x18]
   92c80:	40 95 24 04 	or $r9,$r10,$r9
   92c84:	95 24       	slli333 $r4,$r4,#4
   92c86:	13 e2 80 02 	shi $lp,[$r5+#0x4]
   92c8a:	40 44 90 04 	or $r4,$r9,$r4
   92c8e:	54 81 80 01 	andi $r8,$r3,#0x1
   92c92:	84 b3       	movi55 $r5,#-13
   92c94:	f2 03       	lwi37.sp $r2,[+#0xc]
   92c96:	40 84 0c 08 	slli $r8,$r8,#3
   92c9a:	ff 2e       	and33 $r4,$r5
   92c9c:	97 cc       	xlsb33 $r7,$r1
   92c9e:	95 fa       	slli333 $r7,$r7,#2
   92ca0:	40 42 20 04 	or $r4,$r4,$r8
   92ca4:	96 54       	xlsb33 $r1,$r2
   92ca6:	ff 3f       	or33 $r4,$r7
   92ca8:	84 7d       	movi55 $r3,#-3
   92caa:	b5 1f       	lwi450 $r8,[$sp]
   92cac:	99 c9       	add333 $r7,$r1,$r1
   92cae:	ff 1e       	and33 $r4,$r3
   92cb0:	ff 3f       	or33 $r4,$r7
   92cb2:	f2 01       	lwi37.sp $r2,[+#0x4]
   92cb4:	54 54 00 01 	andi $r5,$r8,#0x1
   92cb8:	92 81       	srli45 $r4,#1
   92cba:	95 21       	slli333 $r4,$r4,#1
   92cbc:	ff 2f       	or33 $r4,$r5
   92cbe:	10 41 00 0a 	sbi $r4,[$r2+#0xa]
   92cc2:	a7 10       	lbi333 $r4,[$r2+#0x0]
   92cc4:	f5 05       	lwi37.sp $r5,[+#0x14]
   92cc6:	f1 04       	lwi37.sp $r1,[+#0x10]
   92cc8:	85 19       	movi55 $r8,#-7
   92cca:	94 ea       	slli333 $r3,$r5,#2
   92ccc:	40 42 20 02 	and $r4,$r4,$r8
   92cd0:	98 89       	add333 $r2,$r1,$r1
   92cd2:	40 12 0c 04 	or $r1,$r4,$r3
   92cd6:	fe 57       	or33 $r1,$r2
   92cd8:	f3 02       	lwi37.sp $r3,[+#0x8]
   92cda:	f5 01       	lwi37.sp $r5,[+#0x4]
   92cdc:	92 21       	srli45 $r1,#1
   92cde:	94 49       	slli333 $r1,$r1,#1
   92ce0:	fe 5f       	or33 $r1,$r3
   92ce2:	ae 68       	sbi333 $r1,[$r5+#0x0]
   92ce4:	10 02 80 09 	sbi $r0,[$r5+#0x9]
   92ce8:	10 62 80 08 	sbi $r6,[$r5+#0x8]
   92cec:	f0 01       	lwi37.sp $r0,[+#0x4]
   92cee:	fc c8       	pop25 $r10,#0x40    ! {$r6~$r10, $fp, $gp, $lp}
   92cf0:	3c 23 e6 57 	lhi.gp $r2,[+#-13138]
   92cf4:	9c 91       	addi333 $r2,$r2,#1
   92cf6:	3c 2b e6 57 	shi.gp $r2,[+#-13138]
   92cfa:	84 41       	movi55 $r2,#1
   92cfc:	48 ff fc eb 	j 926d2 <AIR_MOTION_ProcessDelta+0x148>

00092d00 <Norm3DApprox>:
   92d00:	fc 00       	push25 $r6,#0x0    ! {$r6, $fp, $gp, $lp}
   92d02:	44 3f 80 00 	movi $r3,#-32768
   92d06:	4c 01 c0 05 	bne $r0,$r3,92d10 <Norm3DApprox+0x10>
   92d0a:	44 00 7f ff 	movi $r0,#32767
   92d0e:	d5 04       	j8 92d16 <Norm3DApprox+0x16>
   92d10:	4e 04 00 03 	bgez $r0,92d16 <Norm3DApprox+0x16>
   92d14:	fe 02       	neg33 $r0,$r0
   92d16:	4c 11 c0 05 	bne $r1,$r3,92d20 <Norm3DApprox+0x20>
   92d1a:	44 10 7f ff 	movi $r1,#32767
   92d1e:	d5 04       	j8 92d26 <Norm3DApprox+0x26>
   92d20:	4e 14 00 03 	bgez $r1,92d26 <Norm3DApprox+0x26>
   92d24:	fe 4a       	neg33 $r1,$r1
   92d26:	80 61       	mov55 $r3,$r1
   92d28:	e2 20       	slt45 $r1,$r0
   92d2a:	e8 02       	beqzs8 92d2e <Norm3DApprox+0x2e>
   92d2c:	80 60       	mov55 $r3,$r0
   92d2e:	98 08       	add333 $r0,$r1,$r0
   92d30:	44 1f 80 00 	movi $r1,#-32768
   92d34:	4c 20 c0 05 	bne $r2,$r1,92d3e <Norm3DApprox+0x3e>
   92d38:	44 20 7f ff 	movi $r2,#32767
   92d3c:	d5 04       	j8 92d44 <Norm3DApprox+0x44>
   92d3e:	4e 24 00 03 	bgez $r2,92d44 <Norm3DApprox+0x44>
   92d42:	fe 92       	neg33 $r2,$r2
   92d44:	e2 62       	slt45 $r3,$r2
   92d46:	e8 03       	beqzs8 92d4c <Norm3DApprox+0x4c>
   92d48:	80 62       	mov55 $r3,$r2
   92d4a:	d5 03       	j8 92d50 <Norm3DApprox+0x50>
   92d4c:	9a 03       	sub333 $r0,$r0,$r3
   92d4e:	98 02       	add333 $r0,$r0,$r2
   92d50:	fa 25       	movpi45 $r1,#0x15
   92d52:	fe 0c       	mul33 $r0,$r1
   92d54:	50 00 00 20 	addi $r0,$r0,#32
   92d58:	92 06       	srli45 $r0,#6
   92d5a:	98 03       	add333 $r0,$r0,$r3
   92d5c:	fc 80       	pop25 $r6,#0x0    ! {$r6, $fp, $gp, $lp}

00092d5e <StabilityModule>:
   92d5e:	fc 00       	push25 $r6,#0x0    ! {$r6, $fp, $gp, $lp}
   92d60:	a7 0a       	lbi333 $r4,[$r1+#0x2]
   92d62:	84 a1       	movi55 $r5,#1
   92d64:	40 42 90 0c 	sll $r4,$r5,$r4
   92d68:	a7 4b       	lbi333 $r5,[$r1+#0x3]
   92d6a:	96 00       	zeb33 $r0,$r0
   92d6c:	a5 88       	lhi333 $r6,[$r1+#0x0]
   92d6e:	97 21       	zeh33 $r4,$r4
   92d70:	99 45       	add333 $r5,$r0,$r5
   92d72:	97 68       	zeb33 $r5,$r5
   92d74:	ff a6       	and33 $r6,$r4
   92d76:	96 90       	zeb33 $r2,$r2
   92d78:	96 d8       	zeb33 $r3,$r3
   92d7a:	af 4b       	sbi333 $r5,[$r1+#0x3]
   92d7c:	c6 03       	beqz38 $r6,92d82 <StabilityModule+0x24>
   92d7e:	9f 69       	subi333 $r5,$r5,#1
   92d80:	af 4b       	sbi333 $r5,[$r1+#0x3]
   92d82:	a5 48       	lhi333 $r5,[$r1+#0x0]
   92d84:	c0 04       	beqz38 $r0,92d8c <StabilityModule+0x2e>
   92d86:	ff 2f       	or33 $r4,$r5
   92d88:	ad 08       	shi333 $r4,[$r1+#0x0]
   92d8a:	d5 04       	j8 92d92 <StabilityModule+0x34>
   92d8c:	ff 23       	not33 $r4,$r4
   92d8e:	ff 66       	and33 $r5,$r4
   92d90:	ad 48       	shi333 $r5,[$r1+#0x0]
   92d92:	a7 0a       	lbi333 $r4,[$r1+#0x2]
   92d94:	9d 21       	addi333 $r4,$r4,#1
   92d96:	97 20       	zeb33 $r4,$r4
   92d98:	af 0a       	sbi333 $r4,[$r1+#0x2]
   92d9a:	e2 83       	slt45 $r4,$r3
   92d9c:	e9 03       	bnezs8 92da2 <StabilityModule+0x44>
   92d9e:	84 00       	movi55 $r0,#0
   92da0:	ae 0a       	sbi333 $r0,[$r1+#0x2]
   92da2:	a6 0b       	lbi333 $r0,[$r1+#0x3]
   92da4:	40 00 08 06 	slt $r0,$r0,$r2
   92da8:	56 00 00 01 	xori $r0,$r0,#0x1
   92dac:	fc 80       	pop25 $r6,#0x0    ! {$r6, $fp, $gp, $lp}

00092dae <iTwoPiMod>:
   92dae:	fc 00       	push25 $r6,#0x0    ! {$r6, $fp, $gp, $lp}
   92db0:	5e f0 0c 91 	sltsi $r15,$r0,#3217
   92db4:	e9 04       	bnezs8 92dbc <iTwoPiMod+0xe>
   92db6:	50 00 66 e0 	addi $r0,$r0,#-6432
   92dba:	d5 06       	j8 92dc6 <iTwoPiMod+0x18>
   92dbc:	5e f0 73 71 	sltsi $r15,$r0,#-3215
   92dc0:	e8 03       	beqzs8 92dc6 <iTwoPiMod+0x18>
   92dc2:	50 00 19 20 	addi $r0,$r0,#6432
   92dc6:	fc 80       	pop25 $r6,#0x0    ! {$r6, $fp, $gp, $lp}

00092dc8 <quarterSin>:
   92dc8:	fc 00       	push25 $r6,#0x0    ! {$r6, $fp, $gp, $lp}
   92dca:	5e f0 02 bd 	sltsi $r15,$r0,#701
   92dce:	e8 0e       	beqzs8 92dea <quarterSin+0x22>
   92dd0:	44 1f ff 56 	movi $r1,#-170
   92dd4:	fe 44       	mul33 $r1,$r0
   92dd6:	50 10 82 00 	addi $r1,$r1,#512
   92dda:	90 2a       	srai45 $r1,#10
   92ddc:	50 10 84 26 	addi $r1,$r1,#1062
   92de0:	fe 0c       	mul33 $r0,$r1
   92de2:	50 00 02 00 	addi $r0,$r0,#512
   92de6:	90 0a       	srai45 $r0,#10
   92de8:	d5 0f       	j8 92e06 <quarterSin+0x3e>
   92dea:	44 1f fe 3a 	movi $r1,#-454
   92dee:	fe 44       	mul33 $r1,$r0
   92df0:	50 10 82 00 	addi $r1,$r1,#512
   92df4:	90 2a       	srai45 $r1,#10
   92df6:	50 10 85 a9 	addi $r1,$r1,#1449
   92dfa:	fe 0c       	mul33 $r0,$r1
   92dfc:	50 00 02 00 	addi $r0,$r0,#512
   92e00:	90 0a       	srai45 $r0,#10
   92e02:	50 00 7f 7d 	addi $r0,$r0,#-131
   92e06:	96 03       	seh33 $r0,$r0
   92e08:	fc 80       	pop25 $r6,#0x0    ! {$r6, $fp, $gp, $lp}

00092e0a <iSin>:
   92e0a:	fc 00       	push25 $r6,#0x0    ! {$r6, $fp, $gp, $lp}
   92e0c:	50 20 06 48 	addi $r2,$r0,#1608
   92e10:	5c f1 06 48 	slti $r15,$r2,#1608
   92e14:	e8 03       	beqzs8 92e1a <iSin+0x10>
   92e16:	fe 02       	neg33 $r0,$r0
   92e18:	d5 08       	j8 92e28 <iSin+0x1e>
   92e1a:	50 20 0c 8f 	addi $r2,$r0,#3215
   92e1e:	5c f1 06 47 	slti $r15,$r2,#1607
   92e22:	e8 08       	beqzs8 92e32 <iSin+0x28>
   92e24:	50 00 0c 90 	addi $r0,$r0,#3216
   92e28:	49 ff ff d0 	jal 92dc8 <quarterSin>
   92e2c:	fe 02       	neg33 $r0,$r0
   92e2e:	96 03       	seh33 $r0,$r0
   92e30:	d5 0a       	j8 92e44 <iSin+0x3a>
   92e32:	50 20 79 b7 	addi $r2,$r0,#-1609
   92e36:	5c f1 06 48 	slti $r15,$r2,#1608
   92e3a:	e8 03       	beqzs8 92e40 <iSin+0x36>
   92e3c:	52 00 0c 90 	subri $r0,$r0,#3216
   92e40:	49 ff ff c4 	jal 92dc8 <quarterSin>
   92e44:	fc 80       	pop25 $r6,#0x0    ! {$r6, $fp, $gp, $lp}

00092e46 <T.30>:
   92e46:	fc 00       	push25 $r6,#0x0    ! {$r6, $fp, $gp, $lp}
   92e48:	3e 1f d6 48 	addi.gp $r1,#-10680
   92e4c:	22 20 80 00 	lhsi $r2,[$r1+#0x0]
   92e50:	a0 c9       	lwi333 $r3,[$r1+#0x4]
   92e52:	ac 89       	shi333 $r2,[$r1+#0x2]
   92e54:	ac 08       	shi333 $r0,[$r1+#0x0]
   92e56:	98 02       	add333 $r0,$r0,$r2
   92e58:	44 20 00 ec 	movi $r2,#236
   92e5c:	fe 9c       	mul33 $r2,$r3
   92e5e:	50 21 00 80 	addi $r2,$r2,#128
   92e62:	84 6a       	movi55 $r3,#10
   92e64:	90 48       	srai45 $r2,#8
   92e66:	42 20 0c 73 	maddr32 $r2,$r0,$r3
   92e6a:	a8 89       	swi333 $r2,[$r1+#0x4]
   92e6c:	50 21 00 80 	addi $r2,$r2,#128
   92e70:	40 01 20 09 	srli $r0,$r2,#8
   92e74:	96 03       	seh33 $r0,$r0
   92e76:	fc 80       	pop25 $r6,#0x0    ! {$r6, $fp, $gp, $lp}

00092e78 <ProcessRollCompensation>:
   92e78:	fc 44       	push25 $r10,#0x20    ! {$r6~$r10, $fp, $gp, $lp}
   92e7a:	87 80       	movi55 $fp,#0
   92e7c:	b6 1f       	swi450 $r0,[$sp]
   92e7e:	96 48       	zeb33 $r1,$r1
   92e80:	f1 82       	swi37.sp $r1,[+#0x8]
   92e82:	22 00 00 03 	lhsi $r0,[$r0+#0x6]
   92e86:	b4 3f       	lwi450 $r1,[$sp]
   92e88:	42 60 00 24 	mul $r6,$r0,$r0
   92e8c:	22 30 80 04 	lhsi $r3,[$r1+#0x8]
   92e90:	22 20 80 05 	lhsi $r2,[$r1+#0xa]
   92e94:	42 61 8c 73 	maddr32 $r6,$r3,$r3
   92e98:	42 61 08 73 	maddr32 $r6,$r2,$r2
   92e9c:	f2 02       	lwi37.sp $r2,[+#0x8]
   92e9e:	c2 06       	beqz38 $r2,92eaa <ProcessRollCompensation+0x32>
   92ea0:	98 80       	add333 $r2,$r0,$r0
   92ea2:	96 13       	seh33 $r0,$r2
   92ea4:	49 ff ff d1 	jal 92e46 <T.30>
   92ea8:	d5 05       	j8 92eb2 <ProcessRollCompensation+0x3a>
   92eaa:	49 ff ff ce 	jal 92e46 <T.30>
   92eae:	b4 7f       	lwi450 $r3,[$sp]
   92eb0:	ac 1b       	shi333 $r0,[$r3+#0x6]
   92eb2:	b4 9f       	lwi450 $r4,[$sp]
   92eb4:	22 22 00 03 	lhsi $r2,[$r4+#0x6]
   92eb8:	2e 47 d6 b8 	lbi.gp $r4,[+#-10568]
   92ebc:	fe 94       	mul33 $r2,$r2
   92ebe:	c4 0d       	beqz38 $r4,92ed8 <ProcessRollCompensation+0x60>
   92ec0:	44 40 00 3f 	movi $r4,#63
   92ec4:	ff 34       	mul33 $r4,$r6
   92ec6:	50 42 00 40 	addi $r4,$r4,#64
   92eca:	92 87       	srli45 $r4,#7
   92ecc:	e2 82       	slt45 $r4,$r2
   92ece:	e9 05       	bnezs8 92ed8 <ProcessRollCompensation+0x60>
   92ed0:	84 40       	movi55 $r2,#0
   92ed2:	3e 27 d6 b8 	sbi.gp $r2,[+#-10568]
   92ed6:	d5 0c       	j8 92eee <ProcessRollCompensation+0x76>
   92ed8:	44 30 00 68 	movi $r3,#104
   92edc:	ff 9c       	mul33 $r6,$r3
   92ede:	50 63 00 40 	addi $r6,$r6,#64
   92ee2:	92 c7       	srli45 $r6,#7
   92ee4:	e2 46       	slt45 $r2,$r6
   92ee6:	e9 04       	bnezs8 92eee <ProcessRollCompensation+0x76>
   92ee8:	84 61       	movi55 $r3,#1
   92eea:	3e 37 d6 b8 	sbi.gp $r3,[+#-10568]
   92eee:	2e 27 d6 b8 	lbi.gp $r2,[+#-10568]
   92ef2:	3e 1f d6 64 	addi.gp $r1,#-10652
   92ef6:	5c 01 00 01 	slti $r0,$r2,#1
   92efa:	84 6a       	movi55 $r3,#10
   92efc:	84 48       	movi55 $r2,#8
   92efe:	49 ff ff 30 	jal 92d5e <StabilityModule>
   92f02:	f5 02       	lwi37.sp $r5,[+#0x8]
   92f04:	f0 87       	swi37.sp $r0,[+#0x1c]
   92f06:	cd 04       	bnez38 $r5,92f0e <ProcessRollCompensation+0x96>
   92f08:	84 e1       	movi55 $r7,#1
   92f0a:	f7 86       	swi37.sp $r7,[+#0x18]
   92f0c:	d5 06       	j8 92f18 <ProcessRollCompensation+0xa0>
   92f0e:	2e 27 d6 b8 	lbi.gp $r2,[+#-10568]
   92f12:	5c 21 00 01 	slti $r2,$r2,#1
   92f16:	f2 86       	swi37.sp $r2,[+#0x18]
   92f18:	b4 1f       	lwi450 $r0,[$sp]
   92f1a:	22 30 00 00 	lhsi $r3,[$r0+#0x0]
   92f1e:	22 10 00 01 	lhsi $r1,[$r0+#0x2]
   92f22:	22 20 00 02 	lhsi $r2,[$r0+#0x4]
   92f26:	f1 83       	swi37.sp $r1,[+#0xc]
   92f28:	f2 84       	swi37.sp $r2,[+#0x10]
   92f2a:	3c 43 eb 54 	lhi.gp $r4,[+#-10584]
   92f2e:	80 a3       	mov55 $r5,$r3
   92f30:	4e 34 00 03 	bgez $r3,92f36 <ProcessRollCompensation+0xbe>
   92f34:	ff 5a       	neg33 $r5,$r3
   92f36:	97 69       	zeh33 $r5,$r5
   92f38:	e2 85       	slt45 $r4,$r5
   92f3a:	e9 12       	bnezs8 92f5e <ProcessRollCompensation+0xe6>
   92f3c:	f5 03       	lwi37.sp $r5,[+#0xc]
   92f3e:	4e 54 00 03 	bgez $r5,92f44 <ProcessRollCompensation+0xcc>
   92f42:	ff 6a       	neg33 $r5,$r5
   92f44:	97 69       	zeh33 $r5,$r5
   92f46:	e2 85       	slt45 $r4,$r5
   92f48:	e9 0b       	bnezs8 92f5e <ProcessRollCompensation+0xe6>
   92f4a:	f5 04       	lwi37.sp $r5,[+#0x10]
   92f4c:	4e 54 00 03 	bgez $r5,92f52 <ProcessRollCompensation+0xda>
   92f50:	ff 6a       	neg33 $r5,$r5
   92f52:	97 69       	zeh33 $r5,$r5
   92f54:	40 42 14 06 	slt $r4,$r4,$r5
   92f58:	56 a2 00 01 	xori $r10,$r4,#0x1
   92f5c:	d5 02       	j8 92f60 <ProcessRollCompensation+0xe8>
   92f5e:	85 40       	movi55 $r10,#0
   92f60:	3c 77 eb 4f 	lhsi.gp $r7,[+#-10594]
   92f64:	3c 3b eb 4f 	shi.gp $r3,[+#-10594]
   92f68:	99 fb       	add333 $r7,$r7,$r3
   92f6a:	f3 03       	lwi37.sp $r3,[+#0xc]
   92f6c:	3c 87 eb 50 	lhsi.gp $r8,[+#-10592]
   92f70:	3c 3b eb 50 	shi.gp $r3,[+#-10592]
   92f74:	3c 67 eb 52 	lhsi.gp $r6,[+#-10588]
   92f78:	f4 04       	lwi37.sp $r4,[+#0x10]
   92f7a:	89 03       	add45 $r8,$r3
   92f7c:	99 b4       	add333 $r6,$r6,$r4
   92f7e:	3c 4b eb 52 	shi.gp $r4,[+#-10588]
   92f82:	8d 01       	addi45 $r8,#1
   92f84:	3c 43 eb 51 	lhi.gp $r4,[+#-10590]
   92f88:	91 01       	srai45 $r8,#1
   92f8a:	42 54 10 24 	mul $r5,$r8,$r4
   92f8e:	9d f9       	addi333 $r7,$r7,#1
   92f90:	9d b1       	addi333 $r6,$r6,#1
   92f92:	90 c1       	srai45 $r6,#1
   92f94:	90 e1       	srai45 $r7,#1
   92f96:	50 52 80 40 	addi $r5,$r5,#64
   92f9a:	ff e4       	mul33 $r7,$r4
   92f9c:	90 a7       	srai45 $r5,#7
   92f9e:	ff 34       	mul33 $r4,$r6
   92fa0:	f5 85       	swi37.sp $r5,[+#0x14]
   92fa2:	50 42 00 40 	addi $r4,$r4,#64
   92fa6:	b4 bf       	lwi450 $r5,[$sp]
   92fa8:	3d e7 eb 53 	lhsi.gp $lp,[+#-10586]
   92fac:	50 73 80 40 	addi $r7,$r7,#64
   92fb0:	90 87       	srai45 $r4,#7
   92fb2:	90 e7       	srai45 $r7,#7
   92fb4:	f4 81       	swi37.sp $r4,[+#0x4]
   92fb6:	22 92 80 03 	lhsi $r9,[$r5+#0x6]
   92fba:	22 82 80 04 	lhsi $r8,[$r5+#0x8]
   92fbe:	22 62 80 05 	lhsi $r6,[$r5+#0xa]
   92fc2:	4f e5 00 0f 	bltz $lp,92fe0 <ProcessRollCompensation+0x168>
   92fc6:	42 9f 24 24 	mul $r9,$lp,$r9
   92fca:	42 84 78 24 	mul $r8,$r8,$lp
   92fce:	42 63 78 24 	mul $r6,$r6,$lp
   92fd2:	8d 30       	addi45 $r9,#16
   92fd4:	8d 10       	addi45 $r8,#16
   92fd6:	8c d0       	addi45 $r6,#16
   92fd8:	91 25       	srai45 $r9,#5
   92fda:	91 05       	srai45 $r8,#5
   92fdc:	90 c5       	srai45 $r6,#5
   92fde:	d5 0e       	j8 92ffa <ProcessRollCompensation+0x182>
   92fe0:	53 ef 00 00 	subri $lp,$lp,#0
   92fe4:	40 94 94 08 	slli $r9,$r9,#5
   92fe8:	40 84 14 08 	slli $r8,$r8,#5
   92fec:	95 b5       	slli333 $r6,$r6,#5
   92fee:	40 94 f8 76 	divsr $r9,$r3,$r9,$lp
   92ff2:	40 84 78 76 	divsr $r8,$r3,$r8,$lp
   92ff6:	40 63 7b d6 	divsr $r6,$lp,$r6,$lp
   92ffa:	54 a5 00 ff 	andi $r10,$r10,#0xff
   92ffe:	4e a3 00 05 	bnez $r10,93008 <ProcessRollCompensation+0x190>
   93002:	f0 02       	lwi37.sp $r0,[+#0x8]
   93004:	4e 02 00 94 	beqz $r0,9312c <ProcessRollCompensation+0x2b4>
   93008:	40 04 80 11 	seh $r0,$r9
   9300c:	40 14 00 11 	seh $r1,$r8
   93010:	96 b3       	seh33 $r2,$r6
   93012:	49 ff fe 77 	jal 92d00 <Norm3DApprox>
   93016:	80 60       	mov55 $r3,$r0
   93018:	4e 06 00 03 	bgtz $r0,9301e <ProcessRollCompensation+0x1a6>
   9301c:	84 61       	movi55 $r3,#1
   9301e:	40 94 a8 08 	slli $r9,$r9,#10
   93022:	40 84 28 08 	slli $r8,$r8,#10
   93026:	40 24 8d 56 	divsr $r2,$r10,$r9,$r3
   9302a:	40 63 28 08 	slli $r6,$r6,#10
   9302e:	3c 4d f2 7c 	lwi.gp $r4,[+#-13840]
   93032:	3c 9d f2 79 	lwi.gp $r9,[+#-13852]
   93036:	40 14 0d 56 	divsr $r1,$r10,$r8,$r3
   9303a:	3c ad f2 7a 	lwi.gp $r10,[+#-13848]
   9303e:	40 33 0c d6 	divsr $r3,$r6,$r6,$r3
   93042:	3c 6d f2 7b 	lwi.gp $r6,[+#-13844]
   93046:	43 e5 10 24 	mul $lp,$r10,$r4
   9304a:	51 ef 01 00 	addi $lp,$lp,#256
   9304e:	40 5f 24 0a 	srai $r5,$lp,#9
   93052:	43 e4 98 24 	mul $lp,$r9,$r6
   93056:	51 ef 01 00 	addi $lp,$lp,#256
   9305a:	41 ef 24 0a 	srai $lp,$lp,#9
   9305e:	42 94 a8 24 	mul $r9,$r9,$r10
   93062:	42 a5 28 24 	mul $r10,$r10,$r10
   93066:	40 82 f8 01 	sub $r8,$r5,$lp
   9306a:	50 a5 01 00 	addi $r10,$r10,#256
   9306e:	43 e3 10 24 	mul $lp,$r6,$r4
   93072:	ff b4       	mul33 $r6,$r6
   93074:	91 49       	srai45 $r10,#9
   93076:	50 63 01 00 	addi $r6,$r6,#256
   9307a:	52 a5 04 00 	subri $r10,$r10,#1024
   9307e:	90 c9       	srai45 $r6,#9
   93080:	40 45 18 01 	sub $r4,$r10,$r6
   93084:	50 94 81 00 	addi $r9,$r9,#256
   93088:	51 ef 01 00 	addi $lp,$lp,#256
   9308c:	91 29       	srai45 $r9,#9
   9308e:	41 ef 24 0a 	srai $lp,$lp,#9
   93092:	42 60 90 24 	mul $r6,$r1,$r4
   93096:	89 3e       	add45 $r9,$lp
   93098:	50 63 02 00 	addi $r6,$r6,#512
   9309c:	40 a3 28 0a 	srai $r10,$r6,#10
   930a0:	42 61 a4 24 	mul $r6,$r3,$r9
   930a4:	50 63 02 00 	addi $r6,$r6,#512
   930a8:	42 31 a0 24 	mul $r3,$r3,$r8
   930ac:	90 ca       	srai45 $r6,#10
   930ae:	42 91 24 24 	mul $r9,$r2,$r9
   930b2:	42 80 a0 24 	mul $r8,$r1,$r8
   930b6:	40 65 18 01 	sub $r6,$r10,$r6
   930ba:	50 94 82 00 	addi $r9,$r9,#512
   930be:	42 a1 10 24 	mul $r10,$r2,$r4
   930c2:	50 84 02 00 	addi $r8,$r8,#512
   930c6:	91 2a       	srai45 $r9,#10
   930c8:	50 31 82 00 	addi $r3,$r3,#512
   930cc:	50 a5 02 00 	addi $r10,$r10,#512
   930d0:	91 0a       	srai45 $r8,#10
   930d2:	90 6a       	srai45 $r3,#10
   930d4:	91 4a       	srai45 $r10,#10
   930d6:	40 84 a0 01 	sub $r8,$r9,$r8
   930da:	50 93 00 40 	addi $r9,$r6,#64
   930de:	40 a1 a8 01 	sub $r10,$r3,$r10
   930e2:	5c f4 80 81 	slti $r15,$r9,#129
   930e6:	e8 02       	beqzs8 930ea <ProcessRollCompensation+0x272>
   930e8:	84 c0       	movi55 $r6,#0
   930ea:	50 95 00 40 	addi $r9,$r10,#64
   930ee:	5c f4 80 81 	slti $r15,$r9,#129
   930f2:	e8 02       	beqzs8 930f6 <ProcessRollCompensation+0x27e>
   930f4:	85 40       	movi55 $r10,#0
   930f6:	50 94 00 40 	addi $r9,$r8,#64
   930fa:	5c f4 80 81 	slti $r15,$r9,#129
   930fe:	e8 02       	beqzs8 93102 <ProcessRollCompensation+0x28a>
   93100:	85 00       	movi55 $r8,#0
   93102:	f1 02       	lwi37.sp $r1,[+#0x8]
   93104:	c1 07       	beqz38 $r1,93112 <ProcessRollCompensation+0x29a>
   93106:	95 b5       	slli333 $r6,$r6,#5
   93108:	40 55 14 08 	slli $r5,$r10,#5
   9310c:	40 14 14 08 	slli $r1,$r8,#5
   93110:	d5 07       	j8 9311e <ProcessRollCompensation+0x2a6>
   93112:	84 25       	movi55 $r1,#5
   93114:	ff 8c       	mul33 $r6,$r1
   93116:	42 55 04 24 	mul $r5,$r10,$r1
   9311a:	42 14 04 24 	mul $r1,$r8,$r1
   9311e:	f2 05       	lwi37.sp $r2,[+#0x14]
   93120:	f3 01       	lwi37.sp $r3,[+#0x4]
   93122:	98 95       	add333 $r2,$r2,$r5
   93124:	98 d9       	add333 $r3,$r3,$r1
   93126:	f2 85       	swi37.sp $r2,[+#0x14]
   93128:	f3 81       	swi37.sp $r3,[+#0x4]
   9312a:	99 fe       	add333 $r7,$r7,$r6
   9312c:	f4 05       	lwi37.sp $r4,[+#0x14]
   9312e:	f5 01       	lwi37.sp $r5,[+#0x4]
   93130:	96 63       	seh33 $r1,$r4
   93132:	96 3b       	seh33 $r0,$r7
   93134:	96 ab       	seh33 $r2,$r5
   93136:	49 ff fd e5 	jal 92d00 <Norm3DApprox>
   9313a:	80 20       	mov55 $r1,$r0
   9313c:	4e 06 00 03 	bgtz $r0,93142 <ProcessRollCompensation+0x2ca>
   93140:	84 21       	movi55 $r1,#1
   93142:	40 73 a8 08 	slli $r7,$r7,#10
   93146:	40 03 84 d6 	divsr $r0,$r6,$r7,$r1
   9314a:	f2 05       	lwi37.sp $r2,[+#0x14]
   9314c:	f3 01       	lwi37.sp $r3,[+#0x4]
   9314e:	40 51 28 08 	slli $r5,$r2,#10
   93152:	40 41 a8 08 	slli $r4,$r3,#10
   93156:	40 72 84 d6 	divsr $r7,$r6,$r5,$r1
   9315a:	f0 82       	swi37.sp $r0,[+#0x8]
   9315c:	40 82 04 d6 	divsr $r8,$r6,$r4,$r1
   93160:	fa 99       	movpi45 $r4,#0x29
   93162:	fe 64       	mul33 $r1,$r4
   93164:	50 10 90 00 	addi $r1,$r1,#4096
   93168:	40 00 b4 0a 	srai $r0,$r1,#13
   9316c:	49 ff fe 21 	jal 92dae <iTwoPiMod>
   93170:	80 c0       	mov55 $r6,$r0
   93172:	52 00 06 48 	subri $r0,$r0,#1608
   93176:	49 ff fe 1c 	jal 92dae <iTwoPiMod>
   9317a:	49 ff fe 48 	jal 92e0a <iSin>
   9317e:	f0 81       	swi37.sp $r0,[+#0x4]
   93180:	80 06       	mov55 $r0,$r6
   93182:	3e 6f c9 e4 	addi.gp $r6,#-13852
   93186:	49 ff fe 42 	jal 92e0a <iSin>
   9318a:	b5 46       	lwi450 $r10,[$r6]
   9318c:	f4 01       	lwi37.sp $r4,[+#0x4]
   9318e:	80 20       	mov55 $r1,$r0
   93190:	a0 b3       	lwi333 $r2,[$r6+#0xc]
   93192:	04 93 00 01 	lwi $r9,[$r6+#0x4]
   93196:	a0 32       	lwi333 $r0,[$r6+#0x8]
   93198:	f5 02       	lwi37.sp $r5,[+#0x8]
   9319a:	42 62 28 24 	mul $r6,$r4,$r10
   9319e:	50 63 02 00 	addi $r6,$r6,#512
   931a2:	41 e3 28 0a 	srai $lp,$r6,#10
   931a6:	42 62 a4 24 	mul $r6,$r5,$r9
   931aa:	50 63 02 00 	addi $r6,$r6,#512
   931ae:	90 ca       	srai45 $r6,#10
   931b0:	ff 8c       	mul33 $r6,$r1
   931b2:	50 63 02 00 	addi $r6,$r6,#512
   931b6:	90 ca       	srai45 $r6,#10
   931b8:	41 ef 18 01 	sub $lp,$lp,$r6
   931bc:	42 63 80 24 	mul $r6,$r7,$r0
   931c0:	50 63 02 00 	addi $r6,$r6,#512
   931c4:	90 ca       	srai45 $r6,#10
   931c6:	ff 8c       	mul33 $r6,$r1
   931c8:	50 63 02 00 	addi $r6,$r6,#512
   931cc:	90 ca       	srai45 $r6,#10
   931ce:	41 ef 18 01 	sub $lp,$lp,$r6
   931d2:	42 64 08 24 	mul $r6,$r8,$r2
   931d6:	42 32 a8 24 	mul $r3,$r5,$r10
   931da:	50 63 02 00 	addi $r6,$r6,#512
   931de:	90 ca       	srai45 $r6,#10
   931e0:	50 31 82 00 	addi $r3,$r3,#512
   931e4:	ff 8c       	mul33 $r6,$r1
   931e6:	90 6a       	srai45 $r3,#10
   931e8:	50 63 02 00 	addi $r6,$r6,#512
   931ec:	fe cc       	mul33 $r3,$r1
   931ee:	50 31 82 00 	addi $r3,$r3,#512
   931f2:	90 ca       	srai45 $r6,#10
   931f4:	40 6f 18 01 	sub $r6,$lp,$r6
   931f8:	41 e1 a8 0a 	srai $lp,$r3,#10
   931fc:	42 34 00 24 	mul $r3,$r8,$r0
   93200:	50 31 82 00 	addi $r3,$r3,#512
   93204:	90 6a       	srai45 $r3,#10
   93206:	fe cc       	mul33 $r3,$r1
   93208:	50 31 82 00 	addi $r3,$r3,#512
   9320c:	90 6a       	srai45 $r3,#10
   9320e:	41 ef 0c 00 	add $lp,$lp,$r3
   93212:	42 32 24 24 	mul $r3,$r4,$r9
   93216:	50 31 82 00 	addi $r3,$r3,#512
   9321a:	90 6a       	srai45 $r3,#10
   9321c:	41 ef 0c 00 	add $lp,$lp,$r3
   93220:	42 33 88 24 	mul $r3,$r7,$r2
   93224:	50 31 82 00 	addi $r3,$r3,#512
   93228:	90 6a       	srai45 $r3,#10
   9322a:	fe cc       	mul33 $r3,$r1
   9322c:	50 31 82 00 	addi $r3,$r3,#512
   93230:	90 6a       	srai45 $r3,#10
   93232:	40 4f 0c 01 	sub $r4,$lp,$r3
   93236:	42 33 a8 24 	mul $r3,$r7,$r10
   9323a:	50 31 82 00 	addi $r3,$r3,#512
   9323e:	90 6a       	srai45 $r3,#10
   93240:	fe cc       	mul33 $r3,$r1
   93242:	50 31 82 00 	addi $r3,$r3,#512
   93246:	41 e1 a8 0a 	srai $lp,$r3,#10
   9324a:	42 32 88 24 	mul $r3,$r5,$r2
   9324e:	50 31 82 00 	addi $r3,$r3,#512
   93252:	90 6a       	srai45 $r3,#10
   93254:	fe cc       	mul33 $r3,$r1
   93256:	f5 01       	lwi37.sp $r5,[+#0x4]
   93258:	50 31 82 00 	addi $r3,$r3,#512
   9325c:	90 6a       	srai45 $r3,#10
   9325e:	41 ef 0c 00 	add $lp,$lp,$r3
   93262:	42 32 80 24 	mul $r3,$r5,$r0
   93266:	50 31 82 00 	addi $r3,$r3,#512
   9326a:	90 6a       	srai45 $r3,#10
   9326c:	41 ef 0c 00 	add $lp,$lp,$r3
   93270:	42 34 24 24 	mul $r3,$r8,$r9
   93274:	42 93 a4 24 	mul $r9,$r7,$r9
   93278:	f7 01       	lwi37.sp $r7,[+#0x4]
   9327a:	42 a4 28 24 	mul $r10,$r8,$r10
   9327e:	42 83 88 24 	mul $r8,$r7,$r2
   93282:	f2 02       	lwi37.sp $r2,[+#0x8]
   93284:	50 a5 02 00 	addi $r10,$r10,#512
   93288:	50 94 82 00 	addi $r9,$r9,#512
   9328c:	91 4a       	srai45 $r10,#10
   9328e:	91 2a       	srai45 $r9,#10
   93290:	42 71 00 24 	mul $r7,$r2,$r0
   93294:	50 31 82 00 	addi $r3,$r3,#512
   93298:	42 a5 04 24 	mul $r10,$r10,$r1
   9329c:	42 94 84 24 	mul $r9,$r9,$r1
   932a0:	50 73 82 00 	addi $r7,$r7,#512
   932a4:	90 6a       	srai45 $r3,#10
   932a6:	50 a5 02 00 	addi $r10,$r10,#512
   932aa:	50 94 82 00 	addi $r9,$r9,#512
   932ae:	90 ea       	srai45 $r7,#10
   932b0:	91 4a       	srai45 $r10,#10
   932b2:	fe cc       	mul33 $r3,$r1
   932b4:	91 2a       	srai45 $r9,#10
   932b6:	50 84 02 00 	addi $r8,$r8,#512
   932ba:	ff cc       	mul33 $r7,$r1
   932bc:	40 55 24 00 	add $r5,$r10,$r9
   932c0:	50 31 82 00 	addi $r3,$r3,#512
   932c4:	91 0a       	srai45 $r8,#10
   932c6:	50 73 82 00 	addi $r7,$r7,#512
   932ca:	90 ea       	srai45 $r7,#10
   932cc:	90 6a       	srai45 $r3,#10
   932ce:	88 a8       	add45 $r5,$r8
   932d0:	40 a2 9c 01 	sub $r10,$r5,$r7
   932d4:	40 3f 0c 01 	sub $r3,$lp,$r3
   932d8:	80 e6       	mov55 $r7,$r6
   932da:	4e 64 00 03 	bgez $r6,932e0 <ProcessRollCompensation+0x468>
   932de:	ff f2       	neg33 $r7,$r6
   932e0:	81 04       	mov55 $r8,$r4
   932e2:	4e 44 00 04 	bgez $r4,932ea <ProcessRollCompensation+0x472>
   932e6:	52 82 00 00 	subri $r8,$r4,#0
   932ea:	80 a3       	mov55 $r5,$r3
   932ec:	4e 34 00 03 	bgez $r3,932f2 <ProcessRollCompensation+0x47a>
   932f0:	ff 5a       	neg33 $r5,$r3
   932f2:	81 28       	mov55 $r9,$r8
   932f4:	e1 07       	slts45 $r8,$r7
   932f6:	e8 02       	beqzs8 932fa <ProcessRollCompensation+0x482>
   932f8:	81 27       	mov55 $r9,$r7
   932fa:	e1 25       	slts45 $r9,$r5
   932fc:	e8 02       	beqzs8 93300 <ProcessRollCompensation+0x488>
   932fe:	81 25       	mov55 $r9,$r5
   93300:	88 e8       	add45 $r7,$r8
   93302:	99 fd       	add333 $r7,$r7,$r5
   93304:	80 aa       	mov55 $r5,$r10
   93306:	4e a4 00 04 	bgez $r10,9330e <ProcessRollCompensation+0x496>
   9330a:	52 55 00 00 	subri $r5,$r10,#0
   9330e:	e1 25       	slts45 $r9,$r5
   93310:	e8 03       	beqzs8 93316 <ProcessRollCompensation+0x49e>
   93312:	81 25       	mov55 $r9,$r5
   93314:	d5 03       	j8 9331a <ProcessRollCompensation+0x4a2>
   93316:	8a e9       	sub45 $r7,$r9
   93318:	99 fd       	add333 $r7,$r7,$r5
   9331a:	fb 05       	movpi45 $r8,#0x15
   9331c:	42 73 a0 24 	mul $r7,$r7,$r8
   93320:	50 73 80 20 	addi $r7,$r7,#32
   93324:	90 e6       	srai45 $r7,#6
   93326:	40 13 a4 00 	add $r1,$r7,$r9
   9332a:	4e 16 00 03 	bgtz $r1,93330 <ProcessRollCompensation+0x4b8>
   9332e:	84 21       	movi55 $r1,#1
   93330:	40 63 28 08 	slli $r6,$r6,#10
   93334:	40 42 28 08 	slli $r4,$r4,#10
   93338:	40 31 a8 08 	slli $r3,$r3,#10
   9333c:	40 63 04 b6 	divsr $r6,$r5,$r6,$r1
   93340:	40 42 04 b6 	divsr $r4,$r5,$r4,$r1
   93344:	40 31 84 b6 	divsr $r3,$r5,$r3,$r1
   93348:	40 55 28 08 	slli $r5,$r10,#10
   9334c:	42 82 18 24 	mul $r8,$r4,$r6
   93350:	50 84 01 00 	addi $r8,$r8,#256
   93354:	91 09       	srai45 $r8,#9
   93356:	40 12 84 b6 	divsr $r1,$r5,$r5,$r1
   9335a:	3e 5f c9 e4 	addi.gp $r5,#-13852
   9335e:	a9 29       	swi333 $r4,[$r5+#0x4]
   93360:	b6 c5       	swi450 $r6,[$r5]
   93362:	a8 ea       	swi333 $r3,[$r5+#0x8]
   93364:	42 70 90 24 	mul $r7,$r1,$r4
   93368:	ff 24       	mul33 $r4,$r4
   9336a:	a8 6b       	swi333 $r1,[$r5+#0xc]
   9336c:	50 42 01 00 	addi $r4,$r4,#256
   93370:	42 51 98 24 	mul $r5,$r3,$r6
   93374:	42 60 8c 24 	mul $r6,$r1,$r3
   93378:	fe dc       	mul33 $r3,$r3
   9337a:	50 73 81 00 	addi $r7,$r7,#256
   9337e:	50 52 81 00 	addi $r5,$r5,#256
   93382:	50 63 01 00 	addi $r6,$r6,#256
   93386:	90 89       	srai45 $r4,#9
   93388:	50 31 81 00 	addi $r3,$r3,#256
   9338c:	90 a9       	srai45 $r5,#9
   9338e:	90 69       	srai45 $r3,#9
   93390:	90 e9       	srai45 $r7,#9
   93392:	90 c9       	srai45 $r6,#9
   93394:	52 42 04 00 	subri $r4,$r4,#1024
   93398:	9b fd       	sub333 $r7,$r7,$r5
   9339a:	9b 23       	sub333 $r4,$r4,$r3
   9339c:	88 c8       	add45 $r6,$r8
   9339e:	3e 5f d6 5c 	addi.gp $r5,#-10660
   933a2:	97 fb       	seh33 $r7,$r7
   933a4:	97 b3       	seh33 $r6,$r6
   933a6:	97 23       	seh33 $r4,$r4
   933a8:	ad e8       	shi333 $r7,[$r5+#0x0]
   933aa:	ad a9       	shi333 $r6,[$r5+#0x2]
   933ac:	ad 2a       	shi333 $r4,[$r5+#0x4]
   933ae:	f3 06       	lwi37.sp $r3,[+#0x18]
   933b0:	f5 07       	lwi37.sp $r5,[+#0x1c]
   933b2:	40 11 94 02 	and $r1,$r3,$r5
   933b6:	c1 06       	beqz38 $r1,933c2 <ProcessRollCompensation+0x54a>
   933b8:	3e 1f d6 50 	addi.gp $r1,#-10672
   933bc:	ad c8       	shi333 $r7,[$r1+#0x0]
   933be:	ad 89       	shi333 $r6,[$r1+#0x2]
   933c0:	ad 0a       	shi333 $r4,[$r1+#0x4]
   933c2:	3c 27 eb 2a 	lhsi.gp $r2,[+#-10668]
   933c6:	3c 17 eb 29 	lhsi.gp $r1,[+#-10670]
   933ca:	80 61       	mov55 $r3,$r1
   933cc:	4e 14 00 03 	bgez $r1,933d2 <ProcessRollCompensation+0x55a>
   933d0:	fe ca       	neg33 $r3,$r1
   933d2:	80 82       	mov55 $r4,$r2
   933d4:	4e 24 00 03 	bgez $r2,933da <ProcessRollCompensation+0x562>
   933d8:	ff 12       	neg33 $r4,$r2
   933da:	e4 62       	sltsi45 $r3,#2
   933dc:	e8 05       	beqzs8 933e6 <ProcessRollCompensation+0x56e>
   933de:	e4 82       	sltsi45 $r4,#2
   933e0:	e8 08       	beqzs8 933f0 <ProcessRollCompensation+0x578>
   933e2:	84 61       	movi55 $r3,#1
   933e4:	d5 0e       	j8 93400 <ProcessRollCompensation+0x588>
   933e6:	e0 64       	slts45 $r3,$r4
   933e8:	e9 04       	bnezs8 933f0 <ProcessRollCompensation+0x578>
   933ea:	42 51 08 24 	mul $r5,$r2,$r2
   933ee:	d5 04       	j8 933f6 <ProcessRollCompensation+0x57e>
   933f0:	42 50 84 24 	mul $r5,$r1,$r1
   933f4:	80 64       	mov55 $r3,$r4
   933f6:	99 1b       	add333 $r4,$r3,$r3
   933f8:	40 52 90 96 	divsr $r5,$r4,$r5,$r4
   933fc:	98 eb       	add333 $r3,$r5,$r3
   933fe:	96 d9       	zeh33 $r3,$r3
   93400:	f7 03       	lwi37.sp $r7,[+#0xc]
   93402:	f0 04       	lwi37.sp $r0,[+#0x10]
   93404:	42 41 1c 24 	mul $r4,$r2,$r7
   93408:	fe 84       	mul33 $r2,$r0
   9340a:	42 40 80 75 	msubr32 $r4,$r1,$r0
   9340e:	42 20 9c 73 	maddr32 $r2,$r1,$r7
   93412:	40 42 0c b6 	divsr $r4,$r5,$r4,$r3
   93416:	b4 bf       	lwi450 $r5,[$sp]
   93418:	40 11 0c 56 	divsr $r1,$r2,$r2,$r3
   9341c:	ad 29       	shi333 $r4,[$r5+#0x2]
   9341e:	ac 6a       	shi333 $r1,[$r5+#0x4]
   93420:	fc c4       	pop25 $r10,#0x20    ! {$r6~$r10, $fp, $gp, $lp}

00093422 <__gf_dplog10>:
   93422:	3b ff fc bc 	smw.adm $sp,[$sp],$sp,#0x2    ! {$lp}
   93426:	3a 6f a8 3c 	smw.adm $r6,[$sp],$r10,#0x0    ! {$r6~$r10}
   9342a:	ef d4       	addi10.sp #-44
   9342c:	46 98 00 00 	sethi $r9,#0x80000
   93430:	40 30 ac 08 	slli $r3,$r1,#11
   93434:	40 a0 54 09 	srli $r10,$r0,#21
   93438:	40 a5 24 04 	or $r10,$r10,$r9
   9343c:	40 31 a8 04 	or $r3,$r3,$r10
   93440:	40 20 2c 08 	slli $r2,$r0,#11
   93444:	40 40 d0 09 	srli $r4,$r1,#20
   93448:	50 a2 7f ff 	addi $r10,$r4,#-1
   9344c:	5c f5 07 fe 	slti $r15,$r10,#2046
   93450:	e8 44       	beqzs8 934d8 <__gf_dplog10+0xb6>
   93452:	f0 81       	swi37.sp $r0,[+#0x4]
   93454:	f1 82       	swi37.sp $r1,[+#0x8]
   93456:	f2 83       	swi37.sp $r2,[+#0xc]
   93458:	f3 84       	swi37.sp $r3,[+#0x10]
   9345a:	f4 85       	swi37.sp $r4,[+#0x14]
   9345c:	14 9f 80 0a 	swi $r9,[$sp+#0x28]
   93460:	80 02       	mov55 $r0,$r2
   93462:	80 23       	mov55 $r1,$r3
   93464:	80 44       	mov55 $r2,$r4
   93466:	49 00 00 74 	jal 9354e <__gf_dpexlog>
   9346a:	46 33 72 87 	sethi $r3,#0x37287
   9346e:	58 31 81 95 	ori $r3,$r3,#0x195
   93472:	46 4d e5 bd 	sethi $r4,#0xde5bd
   93476:	58 42 08 a9 	ori $r4,$r4,#0x8a9
   9347a:	44 50 03 fd 	movi $r5,#1021
   9347e:	49 00 02 ac 	jal 939d6 <__gf_exmul>
   93482:	80 e2       	mov55 $r7,$r2
   93484:	80 c1       	mov55 $r6,$r1
   93486:	80 a0       	mov55 $r5,$r0
   93488:	04 9f 80 0a 	lwi $r9,[$sp+#0x28]
   9348c:	f4 05       	lwi37.sp $r4,[+#0x14]
   9348e:	f3 04       	lwi37.sp $r3,[+#0x10]
   93490:	f2 03       	lwi37.sp $r2,[+#0xc]
   93492:	f1 02       	lwi37.sp $r1,[+#0x8]
   93494:	f0 01       	lwi37.sp $r0,[+#0x4]
   93496:	44 f0 04 00 	movi $r15,#1024
   9349a:	88 af       	add45 $r5,$r15
   9349c:	e2 af       	slt45 $r5,$r15
   9349e:	e8 03       	beqzs8 934a4 <__gf_dplog10+0x82>
   934a0:	88 cf       	add45 $r6,$r15
   934a2:	e2 cf       	slt45 $r6,$r15
   934a4:	88 ef       	add45 $r7,$r15
   934a6:	40 02 ac 09 	srli $r0,$r5,#11
   934aa:	40 a3 54 08 	slli $r10,$r6,#21
   934ae:	40 00 28 04 	or $r0,$r0,$r10
   934b2:	94 71       	slli333 $r1,$r6,#1
   934b4:	92 2c       	srli45 $r1,#12
   934b6:	40 a3 d0 08 	slli $r10,$r7,#20
   934ba:	40 10 a8 04 	or $r1,$r1,$r10
   934be:	5e f2 03 ff 	sltsi $r15,$r4,#1023
   934c2:	e8 05       	beqzs8 934cc <__gf_dplog10+0xaa>
   934c4:	46 98 00 00 	sethi $r9,#0x80000
   934c8:	40 10 a4 04 	or $r1,$r1,$r9
   934cc:	ec 2c       	addi10.sp #44
   934ce:	3a 6f a8 04 	lmw.bim $r6,[$sp],$r10,#0x0    ! {$r6~$r10}
   934d2:	3b ff fc 84 	lmw.bim $sp,[$sp],$sp,#0x2    ! {$lp}
   934d6:	dd 9e       	ret5 $lp
   934d8:	40 a0 84 08 	slli $r10,$r1,#1
   934dc:	40 a5 00 04 	or $r10,$r10,$r0
   934e0:	4e a2 00 34 	beqz $r10,93548 <__gf_dplog10+0x126>
   934e4:	cc 24       	bnez38 $r4,9352c <__gf_dplog10+0x10a>
   934e6:	81 e2       	mov55 $r15,$r2
   934e8:	98 92       	add333 $r2,$r2,$r2
   934ea:	e2 4f       	slt45 $r2,$r15
   934ec:	98 db       	add333 $r3,$r3,$r3
   934ee:	88 6f       	add45 $r3,$r15
   934f0:	cb 08       	bnez38 $r3,93500 <__gf_dplog10+0xde>
   934f2:	ca 03       	bnez38 $r2,934f8 <__gf_dplog10+0xd6>
   934f4:	84 80       	movi55 $r4,#0
   934f6:	d5 1a       	j8 9352a <__gf_dplog10+0x108>
   934f8:	80 62       	mov55 $r3,$r2
   934fa:	84 40       	movi55 $r2,#0
   934fc:	fb 10       	movpi45 $r8,#0x20
   934fe:	8a 88       	sub45 $r4,$r8
   93500:	3a 0f 94 3c 	smw.adm $r0,[$sp],$r5,#0x0    ! {$r0~$r5}
   93504:	80 03       	mov55 $r0,$r3
   93506:	49 00 98 50 	jal a65a6 <countLeadingZeros32>
   9350a:	81 00       	mov55 $r8,$r0
   9350c:	3a 0f 94 04 	lmw.bim $r0,[$sp],$r5,#0x0    ! {$r0~$r5}
   93510:	4e 82 00 0d 	beqz $r8,9352a <__gf_dplog10+0x108>
   93514:	8a 88       	sub45 $r4,$r8
   93516:	52 94 00 20 	subri $r9,$r8,#32
   9351a:	40 91 24 0d 	srl $r9,$r2,$r9
   9351e:	40 21 20 0c 	sll $r2,$r2,$r8
   93522:	40 31 a0 0c 	sll $r3,$r3,$r8
   93526:	40 31 a4 04 	or $r3,$r3,$r9
   9352a:	d5 94       	j8 93452 <__gf_dplog10+0x30>
   9352c:	46 98 00 ff 	sethi $r9,#0x800ff
   93530:	58 94 8f ff 	ori $r9,$r9,#0xfff
   93534:	40 a0 a4 02 	and $r10,$r1,$r9
   93538:	40 a5 00 04 	or $r10,$r10,$r0
   9353c:	4e a2 ff c8 	beqz $r10,934cc <__gf_dplog10+0xaa>
   93540:	44 18 00 00 	movi $r1,#-524288
   93544:	84 00       	movi55 $r0,#0
   93546:	d5 c3       	j8 934cc <__gf_dplog10+0xaa>
   93548:	46 1f ff 00 	sethi $r1,#0xfff00
   9354c:	d5 c0       	j8 934cc <__gf_dplog10+0xaa>

0009354e <__gf_dpexlog>:
   9354e:	3b ff fc bc 	smw.adm $sp,[$sp],$sp,#0x2    ! {$lp}
   93552:	3a 6f a8 3c 	smw.adm $r6,[$sp],$r10,#0x0    ! {$r6~$r10}
   93556:	ef d4       	addi10.sp #-44
   93558:	81 01       	mov55 $r8,$r1
   9355a:	40 40 f0 09 	srli $r4,$r1,#28
   9355e:	80 e0       	mov55 $r7,$r0
   93560:	44 90 03 fe 	movi $r9,#1022
   93564:	92 01       	srli45 $r0,#1
   93566:	40 f0 fc 08 	slli $r15,$r1,#31
   9356a:	40 00 3c 04 	or $r0,$r0,$r15
   9356e:	92 21       	srli45 $r1,#1
   93570:	40 f2 6c 08 	slli $r15,$r4,#27
   93574:	88 2f       	add45 $r1,$r15
   93576:	40 84 10 08 	slli $r8,$r8,#4
   9357a:	93 04       	srli45 $r8,#4
   9357c:	50 31 7c 01 	addi $r3,$r2,#-1023
   93580:	e4 60       	sltsi45 $r3,#0
   93582:	e8 0f       	beqzs8 935a0 <__gf_dpexlog+0x52>
   93584:	40 34 88 01 	sub $r3,$r9,$r2
   93588:	9f 27       	subi333 $r4,$r4,#7
   9358a:	46 f0 80 00 	sethi $r15,#0x8000
   9358e:	88 2f       	add45 $r1,$r15
   93590:	46 f1 00 00 	sethi $r15,#0x10000
   93594:	8b 0f       	sub45 $r8,$r15
   93596:	52 84 00 00 	subri $r8,$r8,#0
   9359a:	c7 03       	beqz38 $r7,935a0 <__gf_dpexlog+0x52>
   9359c:	ff fa       	neg33 $r7,$r7
   9359e:	8f 01       	subi45 $r8,#1
   935a0:	44 20 03 ff 	movi $r2,#1023
   935a4:	4e 83 00 09 	bnez $r8,935b6 <__gf_dpexlog+0x68>
   935a8:	cf 03       	bnez38 $r7,935ae <__gf_dpexlog+0x60>
   935aa:	85 20       	movi55 $r9,#0
   935ac:	d5 19       	j8 935de <__gf_dpexlog+0x90>
   935ae:	81 07       	mov55 $r8,$r7
   935b0:	84 e0       	movi55 $r7,#0
   935b2:	fa b0       	movpi45 $r5,#0x20
   935b4:	8b 25       	sub45 $r9,$r5
   935b6:	3a 0f 90 3c 	smw.adm $r0,[$sp],$r4,#0x0    ! {$r0~$r4}
   935ba:	80 08       	mov55 $r0,$r8
   935bc:	49 00 97 f5 	jal a65a6 <countLeadingZeros32>
   935c0:	80 a0       	mov55 $r5,$r0
   935c2:	3a 0f 90 04 	lmw.bim $r0,[$sp],$r4,#0x0    ! {$r0~$r4}
   935c6:	c5 0c       	beqz38 $r5,935de <__gf_dpexlog+0x90>
   935c8:	8b 25       	sub45 $r9,$r5
   935ca:	52 62 80 20 	subri $r6,$r5,#32
   935ce:	40 63 98 0d 	srl $r6,$r7,$r6
   935d2:	40 73 94 0c 	sll $r7,$r7,$r5
   935d6:	40 84 14 0c 	sll $r8,$r8,$r5
   935da:	40 84 18 04 	or $r8,$r8,$r6
   935de:	f0 81       	swi37.sp $r0,[+#0x4]
   935e0:	f1 82       	swi37.sp $r1,[+#0x8]
   935e2:	f2 83       	swi37.sp $r2,[+#0xc]
   935e4:	f3 84       	swi37.sp $r3,[+#0x10]
   935e6:	f4 85       	swi37.sp $r4,[+#0x14]
   935e8:	f5 86       	swi37.sp $r5,[+#0x18]
   935ea:	f6 87       	swi37.sp $r6,[+#0x1c]
   935ec:	80 07       	mov55 $r0,$r7
   935ee:	80 28       	mov55 $r1,$r8
   935f0:	80 49       	mov55 $r2,$r9
   935f2:	f3 01       	lwi37.sp $r3,[+#0x4]
   935f4:	f4 02       	lwi37.sp $r4,[+#0x8]
   935f6:	f5 03       	lwi37.sp $r5,[+#0xc]
   935f8:	49 00 00 fe 	jal 937f4 <__gf_exdiv>
   935fc:	f0 88       	swi37.sp $r0,[+#0x20]
   935fe:	f1 89       	swi37.sp $r1,[+#0x24]
   93600:	f2 8a       	swi37.sp $r2,[+#0x28]
   93602:	80 60       	mov55 $r3,$r0
   93604:	80 81       	mov55 $r4,$r1
   93606:	80 a2       	mov55 $r5,$r2
   93608:	49 00 01 e7 	jal 939d6 <__gf_exmul>
   9360c:	84 63       	movi55 $r3,#3
   9360e:	3e 4f c3 7c 	addi.gp $r4,#-15492
   93612:	49 00 02 47 	jal 93aa0 <__gf_sigmax>
   93616:	04 9f 80 0a 	lwi $r9,[$sp+#0x28]
   9361a:	04 8f 80 09 	lwi $r8,[$sp+#0x24]
   9361e:	f7 08       	lwi37.sp $r7,[+#0x20]
   93620:	f6 07       	lwi37.sp $r6,[+#0x1c]
   93622:	f5 06       	lwi37.sp $r5,[+#0x18]
   93624:	f4 05       	lwi37.sp $r4,[+#0x14]
   93626:	f3 04       	lwi37.sp $r3,[+#0x10]
   93628:	9c 91       	addi333 $r2,$r2,#1
   9362a:	f0 81       	swi37.sp $r0,[+#0x4]
   9362c:	f1 82       	swi37.sp $r1,[+#0x8]
   9362e:	f2 83       	swi37.sp $r2,[+#0xc]
   93630:	80 07       	mov55 $r0,$r7
   93632:	80 28       	mov55 $r1,$r8
   93634:	80 49       	mov55 $r2,$r9
   93636:	f3 01       	lwi37.sp $r3,[+#0x4]
   93638:	f4 02       	lwi37.sp $r4,[+#0x8]
   9363a:	f5 03       	lwi37.sp $r5,[+#0xc]
   9363c:	49 00 01 cd 	jal 939d6 <__gf_exmul>
   93640:	3e af c3 a4 	addi.gp $r10,#-15452
   93644:	04 ff 80 05 	lwi $r15,[$sp+#0x14]
   93648:	40 f7 88 08 	slli $r15,$r15,#2
   9364c:	89 4f       	add45 $r10,$r15
   9364e:	89 4f       	add45 $r10,$r15
   93650:	89 4f       	add45 $r10,$r15
   93652:	b4 6a       	lwi450 $r3,[$r10]
   93654:	04 45 00 01 	lwi $r4,[$r10+#0x4]
   93658:	04 55 00 02 	lwi $r5,[$r10+#0x8]
   9365c:	49 00 00 7d 	jal 93756 <__gf_exadd>
   93660:	81 22       	mov55 $r9,$r2
   93662:	81 01       	mov55 $r8,$r1
   93664:	80 e0       	mov55 $r7,$r0
   93666:	f6 07       	lwi37.sp $r6,[+#0x1c]
   93668:	f5 06       	lwi37.sp $r5,[+#0x18]
   9366a:	f4 05       	lwi37.sp $r4,[+#0x14]
   9366c:	f3 04       	lwi37.sp $r3,[+#0x10]
   9366e:	f2 03       	lwi37.sp $r2,[+#0xc]
   93670:	f1 02       	lwi37.sp $r1,[+#0x8]
   93672:	f0 01       	lwi37.sp $r0,[+#0x4]
   93674:	c3 68       	beqz38 $r3,93744 <__gf_dpexlog+0x1f6>
   93676:	44 20 04 1e 	movi $r2,#1054
   9367a:	3a 0f 90 3c 	smw.adm $r0,[$sp],$r4,#0x0    ! {$r0~$r4}
   9367e:	80 03       	mov55 $r0,$r3
   93680:	49 00 97 93 	jal a65a6 <countLeadingZeros32>
   93684:	80 a0       	mov55 $r5,$r0
   93686:	3a 0f 90 04 	lmw.bim $r0,[$sp],$r4,#0x0    ! {$r0~$r4}
   9368a:	9a 95       	sub333 $r2,$r2,$r5
   9368c:	40 31 94 0c 	sll $r3,$r3,$r5
   93690:	46 5b 17 21 	sethi $r5,#0xb1721
   93694:	58 52 87 f7 	ori $r5,$r5,#0x7f7
   93698:	3a 2f 94 3c 	smw.adm $r2,[$sp],$r5,#0x0    ! {$r2~$r5}
   9369c:	80 03       	mov55 $r0,$r3
   9369e:	84 20       	movi55 $r1,#0
   936a0:	80 45       	mov55 $r2,$r5
   936a2:	84 60       	movi55 $r3,#0
   936a4:	49 00 05 0a 	jal 940b8 <__muldi3>
   936a8:	3a 2f 94 04 	lmw.bim $r2,[$sp],$r5,#0x0    ! {$r2~$r5}
   936ac:	46 5d 1c f7 	sethi $r5,#0xd1cf7
   936b0:	58 52 89 ac 	ori $r5,$r5,#0x9ac
   936b4:	81 45       	mov55 $r10,$r5
   936b6:	3a 0f 8c 3c 	smw.adm $r0,[$sp],$r3,#0x0    ! {$r0~$r3}
   936ba:	80 03       	mov55 $r0,$r3
   936bc:	84 20       	movi55 $r1,#0
   936be:	80 45       	mov55 $r2,$r5
   936c0:	84 60       	movi55 $r3,#0
   936c2:	49 00 04 fb 	jal 940b8 <__muldi3>
   936c6:	fd 20       	movd44 $r4,$r0
   936c8:	3a 0f 8c 04 	lmw.bim $r0,[$sp],$r3,#0x0    ! {$r0~$r3}
   936cc:	80 c4       	mov55 $r6,$r4
   936ce:	80 85       	mov55 $r4,$r5
   936d0:	80 aa       	mov55 $r5,$r10
   936d2:	98 04       	add333 $r0,$r0,$r4
   936d4:	e2 04       	slt45 $r0,$r4
   936d6:	88 2f       	add45 $r1,$r15
   936d8:	e4 20       	sltsi45 $r1,#0
   936da:	e9 15       	bnezs8 93704 <__gf_dpexlog+0x1b6>
   936dc:	81 e6       	mov55 $r15,$r6
   936de:	99 b6       	add333 $r6,$r6,$r6
   936e0:	e2 cf       	slt45 $r6,$r15
   936e2:	e8 0b       	beqzs8 936f8 <__gf_dpexlog+0x1aa>
   936e4:	81 e0       	mov55 $r15,$r0
   936e6:	98 00       	add333 $r0,$r0,$r0
   936e8:	e2 0f       	slt45 $r0,$r15
   936ea:	e8 03       	beqzs8 936f0 <__gf_dpexlog+0x1a2>
   936ec:	9c 01       	addi333 $r0,$r0,#1
   936ee:	d5 08       	j8 936fe <__gf_dpexlog+0x1b0>
   936f0:	85 e1       	movi55 $r15,#1
   936f2:	88 0f       	add45 $r0,$r15
   936f4:	e2 0f       	slt45 $r0,$r15
   936f6:	d5 04       	j8 936fe <__gf_dpexlog+0x1b0>
   936f8:	81 e0       	mov55 $r15,$r0
   936fa:	98 00       	add333 $r0,$r0,$r0
   936fc:	e2 0f       	slt45 $r0,$r15
   936fe:	98 49       	add333 $r1,$r1,$r1
   93700:	88 2f       	add45 $r1,$r15
   93702:	9e 91       	subi333 $r2,$r2,#1
   93704:	81 e6       	mov55 $r15,$r6
   93706:	99 b6       	add333 $r6,$r6,$r6
   93708:	e2 cf       	slt45 $r6,$r15
   9370a:	e8 03       	beqzs8 93710 <__gf_dpexlog+0x1c2>
   9370c:	88 0f       	add45 $r0,$r15
   9370e:	e2 0f       	slt45 $r0,$r15
   93710:	88 2f       	add45 $r1,$r15
   93712:	f0 81       	swi37.sp $r0,[+#0x4]
   93714:	f1 82       	swi37.sp $r1,[+#0x8]
   93716:	f2 83       	swi37.sp $r2,[+#0xc]
   93718:	f3 84       	swi37.sp $r3,[+#0x10]
   9371a:	f4 85       	swi37.sp $r4,[+#0x14]
   9371c:	f5 86       	swi37.sp $r5,[+#0x18]
   9371e:	f6 87       	swi37.sp $r6,[+#0x1c]
   93720:	80 07       	mov55 $r0,$r7
   93722:	80 28       	mov55 $r1,$r8
   93724:	80 49       	mov55 $r2,$r9
   93726:	f3 01       	lwi37.sp $r3,[+#0x4]
   93728:	f4 02       	lwi37.sp $r4,[+#0x8]
   9372a:	f5 03       	lwi37.sp $r5,[+#0xc]
   9372c:	49 00 00 15 	jal 93756 <__gf_exadd>
   93730:	81 22       	mov55 $r9,$r2
   93732:	81 01       	mov55 $r8,$r1
   93734:	80 e0       	mov55 $r7,$r0
   93736:	f6 07       	lwi37.sp $r6,[+#0x1c]
   93738:	f5 06       	lwi37.sp $r5,[+#0x18]
   9373a:	f4 05       	lwi37.sp $r4,[+#0x14]
   9373c:	f3 04       	lwi37.sp $r3,[+#0x10]
   9373e:	f2 03       	lwi37.sp $r2,[+#0xc]
   93740:	f1 02       	lwi37.sp $r1,[+#0x8]
   93742:	f0 01       	lwi37.sp $r0,[+#0x4]
   93744:	80 07       	mov55 $r0,$r7
   93746:	80 28       	mov55 $r1,$r8
   93748:	80 49       	mov55 $r2,$r9
   9374a:	ec 2c       	addi10.sp #44
   9374c:	3a 6f a8 04 	lmw.bim $r6,[$sp],$r10,#0x0    ! {$r6~$r10}
   93750:	3b ff fc 84 	lmw.bim $sp,[$sp],$sp,#0x2    ! {$lp}
   93754:	dd 9e       	ret5 $lp

00093756 <__gf_exadd>:
   93756:	3b ff fc bc 	smw.adm $sp,[$sp],$sp,#0x2    ! {$lp}
   9375a:	3a 6f a0 3c 	smw.adm $r6,[$sp],$r8,#0x0    ! {$r6~$r8}
   9375e:	9b 95       	sub333 $r6,$r2,$r5
   93760:	e4 c0       	sltsi45 $r6,#0
   93762:	e9 15       	bnezs8 9378c <__gf_exadd+0x36>
   93764:	fb 10       	movpi45 $r8,#0x20
   93766:	e2 c8       	slt45 $r6,$r8
   93768:	e9 06       	bnezs8 93774 <__gf_exadd+0x1e>
   9376a:	80 64       	mov55 $r3,$r4
   9376c:	84 80       	movi55 $r4,#0
   9376e:	50 63 7f e0 	addi $r6,$r6,#-32
   93772:	cb f9       	bnez38 $r3,93764 <__gf_exadd+0xe>
   93774:	c6 21       	beqz38 $r6,937b6 <__gf_exadd+0x60>
   93776:	80 e4       	mov55 $r7,$r4
   93778:	40 31 98 0d 	srl $r3,$r3,$r6
   9377c:	40 42 18 0d 	srl $r4,$r4,$r6
   93780:	52 63 00 20 	subri $r6,$r6,#32
   93784:	40 73 98 0c 	sll $r7,$r7,$r6
   93788:	fe ff       	or33 $r3,$r7
   9378a:	d5 16       	j8 937b6 <__gf_exadd+0x60>
   9378c:	80 45       	mov55 $r2,$r5
   9378e:	ff b2       	neg33 $r6,$r6
   93790:	fb 10       	movpi45 $r8,#0x20
   93792:	e2 c8       	slt45 $r6,$r8
   93794:	e9 06       	bnezs8 937a0 <__gf_exadd+0x4a>
   93796:	80 01       	mov55 $r0,$r1
   93798:	84 20       	movi55 $r1,#0
   9379a:	50 63 7f e0 	addi $r6,$r6,#-32
   9379e:	c8 f9       	bnez38 $r0,93790 <__gf_exadd+0x3a>
   937a0:	c6 0b       	beqz38 $r6,937b6 <__gf_exadd+0x60>
   937a2:	80 e1       	mov55 $r7,$r1
   937a4:	40 00 18 0d 	srl $r0,$r0,$r6
   937a8:	40 10 98 0d 	srl $r1,$r1,$r6
   937ac:	52 63 00 20 	subri $r6,$r6,#32
   937b0:	40 73 98 0c 	sll $r7,$r7,$r6
   937b4:	fe 3f       	or33 $r0,$r7
   937b6:	98 03       	add333 $r0,$r0,$r3
   937b8:	e2 03       	slt45 $r0,$r3
   937ba:	e8 0a       	beqzs8 937ce <__gf_exadd+0x78>
   937bc:	98 4c       	add333 $r1,$r1,$r4
   937be:	e2 24       	slt45 $r1,$r4
   937c0:	e8 03       	beqzs8 937c6 <__gf_exadd+0x70>
   937c2:	9c 49       	addi333 $r1,$r1,#1
   937c4:	d5 07       	j8 937d2 <__gf_exadd+0x7c>
   937c6:	85 e1       	movi55 $r15,#1
   937c8:	88 2f       	add45 $r1,$r15
   937ca:	e2 2f       	slt45 $r1,$r15
   937cc:	d5 03       	j8 937d2 <__gf_exadd+0x7c>
   937ce:	98 4c       	add333 $r1,$r1,$r4
   937d0:	e2 24       	slt45 $r1,$r4
   937d2:	e8 0c       	beqzs8 937ea <__gf_exadd+0x94>
   937d4:	92 01       	srli45 $r0,#1
   937d6:	40 80 fc 08 	slli $r8,$r1,#31
   937da:	40 00 20 04 	or $r0,$r0,$r8
   937de:	92 21       	srli45 $r1,#1
   937e0:	46 88 00 00 	sethi $r8,#0x80000
   937e4:	40 10 a0 04 	or $r1,$r1,$r8
   937e8:	9c 91       	addi333 $r2,$r2,#1
   937ea:	3a 6f a0 04 	lmw.bim $r6,[$sp],$r8,#0x0    ! {$r6~$r8}
   937ee:	3b ff fc 84 	lmw.bim $sp,[$sp],$sp,#0x2    ! {$lp}
   937f2:	dd 9e       	ret5 $lp

000937f4 <__gf_exdiv>:
   937f4:	3b ff fc bc 	smw.adm $sp,[$sp],$sp,#0x2    ! {$lp}
   937f8:	3a 6f a8 3c 	smw.adm $r6,[$sp],$r10,#0x0    ! {$r6~$r10}
   937fc:	4e 42 00 e7 	beqz $r4,939ca <__gf_exdiv+0x1d6>
   93800:	9a 95       	sub333 $r2,$r2,$r5
   93802:	50 21 03 ff 	addi $r2,$r2,#1023
   93806:	92 01       	srli45 $r0,#1
   93808:	40 a0 fc 08 	slli $r10,$r1,#31
   9380c:	40 00 28 04 	or $r0,$r0,$r10
   93810:	92 21       	srli45 $r1,#1
   93812:	40 92 40 09 	srli $r9,$r4,#16
   93816:	40 60 a4 37 	divr $r6,$r1,$r1,$r9
   9381a:	44 70 ff ff 	movi $r7,#65535
   9381e:	ff e6       	and33 $r7,$r4
   93820:	42 83 98 24 	mul $r8,$r7,$r6
   93824:	40 10 c0 08 	slli $r1,$r1,#16
   93828:	40 a0 40 09 	srli $r10,$r0,#16
   9382c:	40 10 a8 04 	or $r1,$r1,$r10
   93830:	81 e1       	mov55 $r15,$r1
   93832:	8a 28       	sub45 $r1,$r8
   93834:	40 f7 84 06 	slt $r15,$r15,$r1
   93838:	e8 05       	beqzs8 93842 <__gf_exdiv+0x4e>
   9383a:	9f b1       	subi333 $r6,$r6,#1
   9383c:	98 4c       	add333 $r1,$r1,$r4
   9383e:	e2 24       	slt45 $r1,$r4
   93840:	e8 fd       	beqzs8 9383a <__gf_exdiv+0x46>
   93842:	40 90 a4 37 	divr $r9,$r1,$r1,$r9
   93846:	42 83 a4 24 	mul $r8,$r7,$r9
   9384a:	44 50 ff ff 	movi $r5,#65535
   9384e:	40 10 c0 08 	slli $r1,$r1,#16
   93852:	40 a0 14 02 	and $r10,$r0,$r5
   93856:	40 10 a8 04 	or $r1,$r1,$r10
   9385a:	81 e1       	mov55 $r15,$r1
   9385c:	8a 28       	sub45 $r1,$r8
   9385e:	40 f7 84 06 	slt $r15,$r15,$r1
   93862:	e8 05       	beqzs8 9386c <__gf_exdiv+0x78>
   93864:	8f 21       	subi45 $r9,#1
   93866:	98 4c       	add333 $r1,$r1,$r4
   93868:	e2 24       	slt45 $r1,$r4
   9386a:	e8 fd       	beqzs8 93864 <__gf_exdiv+0x70>
   9386c:	40 63 40 08 	slli $r6,$r6,#16
   93870:	88 c9       	add45 $r6,$r9
   93872:	3a 0f 94 3c 	smw.adm $r0,[$sp],$r5,#0x0    ! {$r0~$r5}
   93876:	80 03       	mov55 $r0,$r3
   93878:	84 20       	movi55 $r1,#0
   9387a:	80 46       	mov55 $r2,$r6
   9387c:	84 60       	movi55 $r3,#0
   9387e:	49 00 04 1d 	jal 940b8 <__muldi3>
   93882:	81 01       	mov55 $r8,$r1
   93884:	81 20       	mov55 $r9,$r0
   93886:	3a 0f 94 04 	lmw.bim $r0,[$sp],$r5,#0x0    ! {$r0~$r5}
   9388a:	84 00       	movi55 $r0,#0
   9388c:	81 e0       	mov55 $r15,$r0
   9388e:	8a 09       	sub45 $r0,$r9
   93890:	40 f7 80 06 	slt $r15,$r15,$r0
   93894:	e8 0d       	beqzs8 938ae <__gf_exdiv+0xba>
   93896:	81 e1       	mov55 $r15,$r1
   93898:	8a 28       	sub45 $r1,$r8
   9389a:	40 f7 84 06 	slt $r15,$r15,$r1
   9389e:	e8 03       	beqzs8 938a4 <__gf_exdiv+0xb0>
   938a0:	9e 49       	subi333 $r1,$r1,#1
   938a2:	d5 0a       	j8 938b6 <__gf_exdiv+0xc2>
   938a4:	81 e1       	mov55 $r15,$r1
   938a6:	9e 49       	subi333 $r1,$r1,#1
   938a8:	40 f7 84 06 	slt $r15,$r15,$r1
   938ac:	d5 05       	j8 938b6 <__gf_exdiv+0xc2>
   938ae:	81 e1       	mov55 $r15,$r1
   938b0:	8a 28       	sub45 $r1,$r8
   938b2:	40 f7 84 06 	slt $r15,$r15,$r1
   938b6:	e8 11       	beqzs8 938d8 <__gf_exdiv+0xe4>
   938b8:	9f b1       	subi333 $r6,$r6,#1
   938ba:	98 03       	add333 $r0,$r0,$r3
   938bc:	e2 03       	slt45 $r0,$r3
   938be:	e8 0a       	beqzs8 938d2 <__gf_exdiv+0xde>
   938c0:	98 4c       	add333 $r1,$r1,$r4
   938c2:	e2 24       	slt45 $r1,$r4
   938c4:	e8 03       	beqzs8 938ca <__gf_exdiv+0xd6>
   938c6:	9c 49       	addi333 $r1,$r1,#1
   938c8:	d5 07       	j8 938d6 <__gf_exdiv+0xe2>
   938ca:	85 e1       	movi55 $r15,#1
   938cc:	88 2f       	add45 $r1,$r15
   938ce:	e2 2f       	slt45 $r1,$r15
   938d0:	d5 03       	j8 938d6 <__gf_exdiv+0xe2>
   938d2:	98 4c       	add333 $r1,$r1,$r4
   938d4:	e2 24       	slt45 $r1,$r4
   938d6:	e8 f1       	beqzs8 938b8 <__gf_exdiv+0xc4>
   938d8:	4c 12 40 07 	bne $r1,$r4,938e6 <__gf_exdiv+0xf2>
   938dc:	81 03       	mov55 $r8,$r3
   938de:	80 20       	mov55 $r1,$r0
   938e0:	84 e0       	movi55 $r7,#0
   938e2:	81 27       	mov55 $r9,$r7
   938e4:	d5 3d       	j8 9395e <__gf_exdiv+0x16a>
   938e6:	40 92 40 09 	srli $r9,$r4,#16
   938ea:	40 70 a4 37 	divr $r7,$r1,$r1,$r9
   938ee:	44 50 ff ff 	movi $r5,#65535
   938f2:	ff 66       	and33 $r5,$r4
   938f4:	42 82 9c 24 	mul $r8,$r5,$r7
   938f8:	40 10 c0 08 	slli $r1,$r1,#16
   938fc:	40 a0 40 09 	srli $r10,$r0,#16
   93900:	40 10 a8 04 	or $r1,$r1,$r10
   93904:	81 e1       	mov55 $r15,$r1
   93906:	8a 28       	sub45 $r1,$r8
   93908:	40 f7 84 06 	slt $r15,$r15,$r1
   9390c:	e8 05       	beqzs8 93916 <__gf_exdiv+0x122>
   9390e:	9f f9       	subi333 $r7,$r7,#1
   93910:	98 4c       	add333 $r1,$r1,$r4
   93912:	e2 24       	slt45 $r1,$r4
   93914:	e8 fd       	beqzs8 9390e <__gf_exdiv+0x11a>
   93916:	40 90 a4 37 	divr $r9,$r1,$r1,$r9
   9391a:	42 82 a4 24 	mul $r8,$r5,$r9
   9391e:	44 50 ff ff 	movi $r5,#65535
   93922:	40 10 c0 08 	slli $r1,$r1,#16
   93926:	40 a0 14 02 	and $r10,$r0,$r5
   9392a:	40 10 a8 04 	or $r1,$r1,$r10
   9392e:	81 e1       	mov55 $r15,$r1
   93930:	8a 28       	sub45 $r1,$r8
   93932:	40 f7 84 06 	slt $r15,$r15,$r1
   93936:	e8 05       	beqzs8 93940 <__gf_exdiv+0x14c>
   93938:	8f 21       	subi45 $r9,#1
   9393a:	98 4c       	add333 $r1,$r1,$r4
   9393c:	e2 24       	slt45 $r1,$r4
   9393e:	e8 fd       	beqzs8 93938 <__gf_exdiv+0x144>
   93940:	40 73 c0 08 	slli $r7,$r7,#16
   93944:	88 e9       	add45 $r7,$r9
   93946:	3a 0f 94 3c 	smw.adm $r0,[$sp],$r5,#0x0    ! {$r0~$r5}
   9394a:	80 03       	mov55 $r0,$r3
   9394c:	84 20       	movi55 $r1,#0
   9394e:	80 47       	mov55 $r2,$r7
   93950:	84 60       	movi55 $r3,#0
   93952:	49 00 03 b3 	jal 940b8 <__muldi3>
   93956:	81 01       	mov55 $r8,$r1
   93958:	81 20       	mov55 $r9,$r0
   9395a:	3a 0f 94 04 	lmw.bim $r0,[$sp],$r5,#0x0    ! {$r0~$r5}
   9395e:	84 00       	movi55 $r0,#0
   93960:	81 e0       	mov55 $r15,$r0
   93962:	8a 09       	sub45 $r0,$r9
   93964:	40 f7 80 06 	slt $r15,$r15,$r0
   93968:	e8 0d       	beqzs8 93982 <__gf_exdiv+0x18e>
   9396a:	81 e1       	mov55 $r15,$r1
   9396c:	8a 28       	sub45 $r1,$r8
   9396e:	40 f7 84 06 	slt $r15,$r15,$r1
   93972:	e8 03       	beqzs8 93978 <__gf_exdiv+0x184>
   93974:	9e 49       	subi333 $r1,$r1,#1
   93976:	d5 0a       	j8 9398a <__gf_exdiv+0x196>
   93978:	81 e1       	mov55 $r15,$r1
   9397a:	9e 49       	subi333 $r1,$r1,#1
   9397c:	40 f7 84 06 	slt $r15,$r15,$r1
   93980:	d5 05       	j8 9398a <__gf_exdiv+0x196>
   93982:	81 e1       	mov55 $r15,$r1
   93984:	8a 28       	sub45 $r1,$r8
   93986:	40 f7 84 06 	slt $r15,$r15,$r1
   9398a:	e8 11       	beqzs8 939ac <__gf_exdiv+0x1b8>
   9398c:	9f f9       	subi333 $r7,$r7,#1
   9398e:	98 03       	add333 $r0,$r0,$r3
   93990:	e2 03       	slt45 $r0,$r3
   93992:	e8 0a       	beqzs8 939a6 <__gf_exdiv+0x1b2>
   93994:	98 4c       	add333 $r1,$r1,$r4
   93996:	e2 24       	slt45 $r1,$r4
   93998:	e8 03       	beqzs8 9399e <__gf_exdiv+0x1aa>
   9399a:	9c 49       	addi333 $r1,$r1,#1
   9399c:	d5 07       	j8 939aa <__gf_exdiv+0x1b6>
   9399e:	85 e1       	movi55 $r15,#1
   939a0:	88 2f       	add45 $r1,$r15
   939a2:	e2 2f       	slt45 $r1,$r15
   939a4:	d5 03       	j8 939aa <__gf_exdiv+0x1b6>
   939a6:	98 4c       	add333 $r1,$r1,$r4
   939a8:	e2 24       	slt45 $r1,$r4
   939aa:	e8 f1       	beqzs8 9398c <__gf_exdiv+0x198>
   939ac:	e4 c0       	sltsi45 $r6,#0
   939ae:	e9 07       	bnezs8 939bc <__gf_exdiv+0x1c8>
   939b0:	81 e7       	mov55 $r15,$r7
   939b2:	99 ff       	add333 $r7,$r7,$r7
   939b4:	e2 ef       	slt45 $r7,$r15
   939b6:	99 b6       	add333 $r6,$r6,$r6
   939b8:	88 cf       	add45 $r6,$r15
   939ba:	9e 91       	subi333 $r2,$r2,#1
   939bc:	80 26       	mov55 $r1,$r6
   939be:	80 07       	mov55 $r0,$r7
   939c0:	3a 6f a8 04 	lmw.bim $r6,[$sp],$r10,#0x0    ! {$r6~$r10}
   939c4:	3b ff fc 84 	lmw.bim $sp,[$sp],$sp,#0x2    ! {$lp}
   939c8:	dd 9e       	ret5 $lp
   939ca:	44 20 07 ff 	movi $r2,#2047
   939ce:	46 18 00 00 	sethi $r1,#0x80000
   939d2:	84 00       	movi55 $r0,#0
   939d4:	d5 f6       	j8 939c0 <__gf_exdiv+0x1cc>

000939d6 <__gf_exmul>:
   939d6:	3b ff fc bc 	smw.adm $sp,[$sp],$sp,#0x2    ! {$lp}
   939da:	3a 6f a8 3c 	smw.adm $r6,[$sp],$r10,#0x0    ! {$r6~$r10}
   939de:	3a 0f 94 3c 	smw.adm $r0,[$sp],$r5,#0x0    ! {$r0~$r5}
   939e2:	80 01       	mov55 $r0,$r1
   939e4:	84 20       	movi55 $r1,#0
   939e6:	80 44       	mov55 $r2,$r4
   939e8:	84 60       	movi55 $r3,#0
   939ea:	49 00 03 67 	jal 940b8 <__muldi3>
   939ee:	80 c1       	mov55 $r6,$r1
   939f0:	80 e0       	mov55 $r7,$r0
   939f2:	3a 0f 94 04 	lmw.bim $r0,[$sp],$r5,#0x0    ! {$r0~$r5}
   939f6:	3a 0f 94 3c 	smw.adm $r0,[$sp],$r5,#0x0    ! {$r0~$r5}
   939fa:	80 01       	mov55 $r0,$r1
   939fc:	84 20       	movi55 $r1,#0
   939fe:	80 43       	mov55 $r2,$r3
   93a00:	84 60       	movi55 $r3,#0
   93a02:	49 00 03 5b 	jal 940b8 <__muldi3>
   93a06:	fd 40       	movd44 $r8,$r0
   93a08:	3a 0f 94 04 	lmw.bim $r0,[$sp],$r5,#0x0    ! {$r0~$r5}
   93a0c:	88 e9       	add45 $r7,$r9
   93a0e:	e2 e9       	slt45 $r7,$r9
   93a10:	88 cf       	add45 $r6,$r15
   93a12:	81 40       	mov55 $r10,$r0
   93a14:	3a 2f 94 3c 	smw.adm $r2,[$sp],$r5,#0x0    ! {$r2~$r5}
   93a18:	84 20       	movi55 $r1,#0
   93a1a:	80 44       	mov55 $r2,$r4
   93a1c:	84 60       	movi55 $r3,#0
   93a1e:	49 00 03 4d 	jal 940b8 <__muldi3>
   93a22:	3a 2f 94 04 	lmw.bim $r2,[$sp],$r5,#0x0    ! {$r2~$r5}
   93a26:	81 20       	mov55 $r9,$r0
   93a28:	80 0a       	mov55 $r0,$r10
   93a2a:	89 28       	add45 $r9,$r8
   93a2c:	e3 28       	slt45 $r9,$r8
   93a2e:	e8 0a       	beqzs8 93a42 <__gf_exmul+0x6c>
   93a30:	99 f9       	add333 $r7,$r7,$r1
   93a32:	e2 e1       	slt45 $r7,$r1
   93a34:	e8 03       	beqzs8 93a3a <__gf_exmul+0x64>
   93a36:	9d f9       	addi333 $r7,$r7,#1
   93a38:	d5 07       	j8 93a46 <__gf_exmul+0x70>
   93a3a:	85 e1       	movi55 $r15,#1
   93a3c:	88 ef       	add45 $r7,$r15
   93a3e:	e2 ef       	slt45 $r7,$r15
   93a40:	d5 03       	j8 93a46 <__gf_exmul+0x70>
   93a42:	99 f9       	add333 $r7,$r7,$r1
   93a44:	e2 e1       	slt45 $r7,$r1
   93a46:	88 cf       	add45 $r6,$r15
   93a48:	81 e9       	mov55 $r15,$r9
   93a4a:	89 29       	add45 $r9,$r9
   93a4c:	e3 2f       	slt45 $r9,$r15
   93a4e:	e8 03       	beqzs8 93a54 <__gf_exmul+0x7e>
   93a50:	88 ef       	add45 $r7,$r15
   93a52:	e2 ef       	slt45 $r7,$r15
   93a54:	88 cf       	add45 $r6,$r15
   93a56:	e4 c0       	sltsi45 $r6,#0
   93a58:	e9 16       	bnezs8 93a84 <__gf_exmul+0xae>
   93a5a:	c6 1f       	beqz38 $r6,93a98 <__gf_exmul+0xc2>
   93a5c:	81 e9       	mov55 $r15,$r9
   93a5e:	89 29       	add45 $r9,$r9
   93a60:	e3 2f       	slt45 $r9,$r15
   93a62:	e8 0b       	beqzs8 93a78 <__gf_exmul+0xa2>
   93a64:	81 e7       	mov55 $r15,$r7
   93a66:	99 ff       	add333 $r7,$r7,$r7
   93a68:	e2 ef       	slt45 $r7,$r15
   93a6a:	e8 03       	beqzs8 93a70 <__gf_exmul+0x9a>
   93a6c:	9d f9       	addi333 $r7,$r7,#1
   93a6e:	d5 08       	j8 93a7e <__gf_exmul+0xa8>
   93a70:	85 e1       	movi55 $r15,#1
   93a72:	88 ef       	add45 $r7,$r15
   93a74:	e2 ef       	slt45 $r7,$r15
   93a76:	d5 04       	j8 93a7e <__gf_exmul+0xa8>
   93a78:	81 e7       	mov55 $r15,$r7
   93a7a:	99 ff       	add333 $r7,$r7,$r7
   93a7c:	e2 ef       	slt45 $r7,$r15
   93a7e:	99 b6       	add333 $r6,$r6,$r6
   93a80:	88 cf       	add45 $r6,$r15
   93a82:	9e 91       	subi333 $r2,$r2,#1
   93a84:	98 95       	add333 $r2,$r2,$r5
   93a86:	50 21 7c 02 	addi $r2,$r2,#-1022
   93a8a:	80 07       	mov55 $r0,$r7
   93a8c:	80 26       	mov55 $r1,$r6
   93a8e:	3a 6f a8 04 	lmw.bim $r6,[$sp],$r10,#0x0    ! {$r6~$r10}
   93a92:	3b ff fc 84 	lmw.bim $sp,[$sp],$sp,#0x2    ! {$lp}
   93a96:	dd 9e       	ret5 $lp
   93a98:	84 40       	movi55 $r2,#0
   93a9a:	84 20       	movi55 $r1,#0
   93a9c:	84 00       	movi55 $r0,#0
   93a9e:	d5 f8       	j8 93a8e <__gf_exmul+0xb8>

00093aa0 <__gf_sigmax>:
   93aa0:	3b ff fc bc 	smw.adm $sp,[$sp],$sp,#0x2    ! {$lp}
   93aa4:	3a 6f a4 3c 	smw.adm $r6,[$sp],$r9,#0x0    ! {$r6~$r9}
   93aa8:	52 51 03 fe 	subri $r5,$r2,#1022
   93aac:	fb 10       	movpi45 $r8,#0x20
   93aae:	e2 a8       	slt45 $r5,$r8
   93ab0:	e9 06       	bnezs8 93abc <__gf_sigmax+0x1c>
   93ab2:	80 01       	mov55 $r0,$r1
   93ab4:	84 20       	movi55 $r1,#0
   93ab6:	50 52 ff e0 	addi $r5,$r5,#-32
   93aba:	c8 f9       	bnez38 $r0,93aac <__gf_sigmax+0xc>
   93abc:	c5 0b       	beqz38 $r5,93ad2 <__gf_sigmax+0x32>
   93abe:	80 c1       	mov55 $r6,$r1
   93ac0:	40 00 14 0d 	srl $r0,$r0,$r5
   93ac4:	40 10 94 0d 	srl $r1,$r1,$r5
   93ac8:	52 52 80 20 	subri $r5,$r5,#32
   93acc:	40 63 14 0c 	sll $r6,$r6,$r5
   93ad0:	fe 37       	or33 $r0,$r6
   93ad2:	b4 c4       	lwi450 $r6,[$r4]
   93ad4:	9d 24       	addi333 $r4,$r4,#4
   93ad6:	b4 e4       	lwi450 $r7,[$r4]
   93ad8:	9d 24       	addi333 $r4,$r4,#4
   93ada:	81 27       	mov55 $r9,$r7
   93adc:	3a 0f 94 3c 	smw.adm $r0,[$sp],$r5,#0x0    ! {$r0~$r5}
   93ae0:	80 01       	mov55 $r0,$r1
   93ae2:	84 20       	movi55 $r1,#0
   93ae4:	80 46       	mov55 $r2,$r6
   93ae6:	84 60       	movi55 $r3,#0
   93ae8:	49 00 02 e8 	jal 940b8 <__muldi3>
   93aec:	80 c1       	mov55 $r6,$r1
   93aee:	3a 0f 94 04 	lmw.bim $r0,[$sp],$r5,#0x0    ! {$r0~$r5}
   93af2:	80 e9       	mov55 $r7,$r9
   93af4:	81 23       	mov55 $r9,$r3
   93af6:	3a 0f 84 3c 	smw.adm $r0,[$sp],$r1,#0x0    ! {$r0~$r1}
   93afa:	3a 4f 94 3c 	smw.adm $r4,[$sp],$r5,#0x0    ! {$r4~$r5}
   93afe:	80 01       	mov55 $r0,$r1
   93b00:	84 20       	movi55 $r1,#0
   93b02:	80 47       	mov55 $r2,$r7
   93b04:	84 60       	movi55 $r3,#0
   93b06:	49 00 02 d9 	jal 940b8 <__muldi3>
   93b0a:	fd 10       	movd44 $r2,$r0
   93b0c:	3a 4f 94 04 	lmw.bim $r4,[$sp],$r5,#0x0    ! {$r4~$r5}
   93b10:	3a 0f 84 04 	lmw.bim $r0,[$sp],$r1,#0x0    ! {$r0~$r1}
   93b14:	80 a2       	mov55 $r5,$r2
   93b16:	80 43       	mov55 $r2,$r3
   93b18:	80 69       	mov55 $r3,$r9
   93b1a:	99 b5       	add333 $r6,$r6,$r5
   93b1c:	e2 c5       	slt45 $r6,$r5
   93b1e:	88 4f       	add45 $r2,$r15
   93b20:	81 24       	mov55 $r9,$r4
   93b22:	3a 0f 8c 3c 	smw.adm $r0,[$sp],$r3,#0x0    ! {$r0~$r3}
   93b26:	84 20       	movi55 $r1,#0
   93b28:	80 47       	mov55 $r2,$r7
   93b2a:	84 60       	movi55 $r3,#0
   93b2c:	49 00 02 c6 	jal 940b8 <__muldi3>
   93b30:	80 a1       	mov55 $r5,$r1
   93b32:	3a 0f 8c 04 	lmw.bim $r0,[$sp],$r3,#0x0    ! {$r0~$r3}
   93b36:	80 89       	mov55 $r4,$r9
   93b38:	99 b5       	add333 $r6,$r6,$r5
   93b3a:	e2 c5       	slt45 $r6,$r5
   93b3c:	88 4f       	add45 $r2,$r15
   93b3e:	e4 e0       	sltsi45 $r7,#0
   93b40:	e8 07       	beqzs8 93b4e <__gf_sigmax+0xae>
   93b42:	81 e6       	mov55 $r15,$r6
   93b44:	9b b0       	sub333 $r6,$r6,$r0
   93b46:	40 f7 98 06 	slt $r15,$r15,$r6
   93b4a:	9a 91       	sub333 $r2,$r2,$r1
   93b4c:	8a 4f       	sub45 $r2,$r15
   93b4e:	80 e2       	mov55 $r7,$r2
   93b50:	b4 a4       	lwi450 $r5,[$r4]
   93b52:	9d 24       	addi333 $r4,$r4,#4
   93b54:	b4 44       	lwi450 $r2,[$r4]
   93b56:	9d 24       	addi333 $r4,$r4,#4
   93b58:	99 b5       	add333 $r6,$r6,$r5
   93b5a:	e2 c5       	slt45 $r6,$r5
   93b5c:	99 fa       	add333 $r7,$r7,$r2
   93b5e:	88 ef       	add45 $r7,$r15
   93b60:	9e d9       	subi333 $r3,$r3,#1
   93b62:	e4 60       	sltsi45 $r3,#0
   93b64:	e8 bb       	beqzs8 93ada <__gf_sigmax+0x3a>
   93b66:	44 20 03 ff 	movi $r2,#1023
   93b6a:	e4 e0       	sltsi45 $r7,#0
   93b6c:	e9 07       	bnezs8 93b7a <__gf_sigmax+0xda>
   93b6e:	81 e6       	mov55 $r15,$r6
   93b70:	99 b6       	add333 $r6,$r6,$r6
   93b72:	e2 cf       	slt45 $r6,$r15
   93b74:	99 ff       	add333 $r7,$r7,$r7
   93b76:	88 ef       	add45 $r7,$r15
   93b78:	9e 91       	subi333 $r2,$r2,#1
   93b7a:	80 06       	mov55 $r0,$r6
   93b7c:	80 27       	mov55 $r1,$r7
   93b7e:	3a 6f a4 04 	lmw.bim $r6,[$sp],$r9,#0x0    ! {$r6~$r9}
   93b82:	3b ff fc 84 	lmw.bim $sp,[$sp],$sp,#0x2    ! {$lp}
   93b86:	dd 9e       	ret5 $lp

00093b88 <memcmp>:
   93b88:	99 42       	add333 $r5,$r0,$r2
   93b8a:	d0 09       	beqs38 $r0,93b9c <memcmp+0x14>
   93b8c:	08 30 00 01 	lbi.bi $r3,[$r0],#0x1
   93b90:	08 40 80 01 	lbi.bi $r4,[$r1],#0x1
   93b94:	4c 32 3f fb 	beq $r3,$r4,93b8a <memcmp+0x2>
   93b98:	9a 1c       	sub333 $r0,$r3,$r4
   93b9a:	dd 9e       	ret5 $lp
   93b9c:	84 00       	movi55 $r0,#0
   93b9e:	dd 9e       	ret5 $lp

00093ba0 <memcpy>:
   93ba0:	80 60       	mov55 $r3,$r0
   93ba2:	c2 07       	beqz38 $r2,93bb0 <memcpy+0x10>
   93ba4:	99 4a       	add333 $r5,$r1,$r2
   93ba6:	08 40 80 01 	lbi.bi $r4,[$r1],#0x1
   93baa:	18 41 80 01 	sbi.bi $r4,[$r3],#0x1
   93bae:	d9 fc       	bnes38 $r1,93ba6 <memcpy+0x6>
   93bb0:	dd 9e       	ret5 $lp
   93bb2:	92 00       	nop16

00093bb4 <memmove>:
   93bb4:	c2 14       	beqz38 $r2,93bdc <memmove+0x28>
   93bb6:	80 60       	mov55 $r3,$r0
   93bb8:	e2 20       	slt45 $r1,$r0
   93bba:	e8 0b       	beqzs8 93bd0 <memmove+0x1c>
   93bbc:	9e 91       	subi333 $r2,$r2,#1
   93bbe:	98 da       	add333 $r3,$r3,$r2
   93bc0:	99 4a       	add333 $r5,$r1,$r2
   93bc2:	9e 49       	subi333 $r1,$r1,#1
   93bc4:	08 42 ff ff 	lbi.bi $r4,[$r5],#-0x1
   93bc8:	18 41 ff ff 	sbi.bi $r4,[$r3],#-0x1
   93bcc:	d9 fc       	bnes38 $r1,93bc4 <memmove+0x10>
   93bce:	dd 9e       	ret5 $lp
   93bd0:	99 4a       	add333 $r5,$r1,$r2
   93bd2:	08 40 80 01 	lbi.bi $r4,[$r1],#0x1
   93bd6:	18 41 80 01 	sbi.bi $r4,[$r3],#0x1
   93bda:	d9 fc       	bnes38 $r1,93bd2 <memmove+0x1e>
   93bdc:	dd 9e       	ret5 $lp
   93bde:	92 00       	nop16

00093be0 <memset>:
   93be0:	80 60       	mov55 $r3,$r0
   93be2:	99 5a       	add333 $r5,$r3,$r2
   93be4:	d3 04       	beqs38 $r3,93bec <memset+0xc>
   93be6:	18 11 80 01 	sbi.bi $r1,[$r3],#0x1
   93bea:	d5 fd       	j8 93be4 <memset+0x4>
   93bec:	dd 9e       	ret5 $lp
   93bee:	92 00       	nop16

00093bf0 <strcmp>:
   93bf0:	40 50 80 04 	or $r5,$r1,$r0
   93bf4:	97 4f       	fexti33 $r5,#0x1
   93bf6:	cd 1b       	bnez38 $r5,93c2c <strcmp+0x3c>
   93bf8:	b4 a0       	lwi450 $r5,[$r0]
   93bfa:	b4 61       	lwi450 $r3,[$r1]
   93bfc:	4c 51 c0 18 	bne $r5,$r3,93c2c <strcmp+0x3c>
   93c00:	46 4f ef ef 	sethi $r4,#0xfefef
   93c04:	58 42 0e ff 	ori $r4,$r4,#0xeff
   93c08:	46 28 08 08 	sethi $r2,#0x80808
   93c0c:	58 21 00 80 	ori $r2,$r2,#0x80
   93c10:	40 32 94 05 	nor $r3,$r5,$r5
   93c14:	40 52 90 00 	add $r5,$r5,$r4
   93c18:	40 52 8c 02 	and $r5,$r5,$r3
   93c1c:	40 52 88 02 	and $r5,$r5,$r2
   93c20:	cd 0e       	bnez38 $r5,93c3c <strcmp+0x4c>
   93c22:	9c 04       	addi333 $r0,$r0,#4
   93c24:	b4 a0       	lwi450 $r5,[$r0]
   93c26:	9c 4c       	addi333 $r1,$r1,#4
   93c28:	b4 61       	lwi450 $r3,[$r1]
   93c2a:	d3 f3       	beqs38 $r3,93c10 <strcmp+0x20>
   93c2c:	a7 40       	lbi333 $r5,[$r0+#0x0]
   93c2e:	a6 c8       	lbi333 $r3,[$r1+#0x0]
   93c30:	db 04       	bnes38 $r3,93c38 <strcmp+0x48>
   93c32:	9c 01       	addi333 $r0,$r0,#1
   93c34:	9c 49       	addi333 $r1,$r1,#1
   93c36:	cd fb       	bnez38 $r5,93c2c <strcmp+0x3c>
   93c38:	9a 2b       	sub333 $r0,$r5,$r3
   93c3a:	dd 9e       	ret5 $lp
   93c3c:	84 00       	movi55 $r0,#0
   93c3e:	dd 9e       	ret5 $lp

00093c40 <strcpy>:
   93c40:	80 60       	mov55 $r3,$r0
   93c42:	08 40 80 01 	lbi.bi $r4,[$r1],#0x1
   93c46:	18 41 80 01 	sbi.bi $r4,[$r3],#0x1
   93c4a:	cc fc       	bnez38 $r4,93c42 <strcpy+0x2>
   93c4c:	dd 9e       	ret5 $lp
   93c4e:	92 00       	nop16

00093c50 <strlen>:
   93c50:	9d 41       	addi333 $r5,$r0,#1
   93c52:	28 20 00 01 	lbsi.bi $r2,[$r0],#0x1
   93c56:	ca fe       	bnez38 $r2,93c52 <strlen+0x2>
   93c58:	9a 05       	sub333 $r0,$r0,$r5
   93c5a:	dd 9e       	ret5 $lp

00093c5c <strncmp>:
   93c5c:	c2 0a       	beqz38 $r2,93c70 <strncmp+0x14>
   93c5e:	08 40 00 01 	lbi.bi $r4,[$r0],#0x1
   93c62:	08 50 80 01 	lbi.bi $r5,[$r1],#0x1
   93c66:	dc 03       	bnes38 $r4,93c6c <strncmp+0x10>
   93c68:	9e 91       	subi333 $r2,$r2,#1
   93c6a:	cc f9       	bnez38 $r4,93c5c <strncmp>
   93c6c:	9a 25       	sub333 $r0,$r4,$r5
   93c6e:	dd 9e       	ret5 $lp
   93c70:	84 00       	movi55 $r0,#0
   93c72:	dd 9e       	ret5 $lp

00093c74 <__aeabi_f2d>:
   93c74:	3b ff fc bc 	smw.adm $sp,[$sp],$sp,#0x2    ! {$lp}
   93c78:	40 30 5c 09 	srli $r3,$r0,#23
   93c7c:	96 d8       	zeb33 $r3,$r3
   93c7e:	46 58 00 00 	sethi $r5,#0x80000
   93c82:	40 20 14 02 	and $r2,$r0,$r5
   93c86:	9f 59       	subi333 $r5,$r3,#1
   93c88:	5c f2 80 fe 	slti $r15,$r5,#254
   93c8c:	e8 11       	beqzs8 93cae <__aeabi_f2d+0x3a>
   93c8e:	50 31 83 80 	addi $r3,$r3,#896
   93c92:	40 50 24 08 	slli $r5,$r0,#9
   93c96:	92 ac       	srli45 $r5,#12
   93c98:	fe af       	or33 $r2,$r5
   93c9a:	40 10 74 08 	slli $r1,$r0,#29
   93c9e:	40 51 d0 08 	slli $r5,$r3,#20
   93ca2:	fe af       	or33 $r2,$r5
   93ca4:	80 01       	mov55 $r0,$r1
   93ca6:	80 22       	mov55 $r1,$r2
   93ca8:	3b ff fc 84 	lmw.bim $sp,[$sp],$sp,#0x2    ! {$lp}
   93cac:	dd 9e       	ret5 $lp
   93cae:	84 20       	movi55 $r1,#0
   93cb0:	98 00       	add333 $r0,$r0,$r0
   93cb2:	c0 f6       	beqz38 $r0,93c9e <__aeabi_f2d+0x2a>
   93cb4:	cb 08       	bnez38 $r3,93cc4 <__aeabi_f2d+0x50>
   93cb6:	9e d9       	subi333 $r3,$r3,#1
   93cb8:	98 00       	add333 $r0,$r0,$r0
   93cba:	46 50 08 00 	sethi $r5,#0x800
   93cbe:	e2 05       	slt45 $r0,$r5
   93cc0:	e9 fb       	bnezs8 93cb6 <__aeabi_f2d+0x42>
   93cc2:	d5 e6       	j8 93c8e <__aeabi_f2d+0x1a>
   93cc4:	44 30 07 ff 	movi $r3,#2047
   93cc8:	46 5f f0 00 	sethi $r5,#0xff000
   93ccc:	e2 a0       	slt45 $r5,$r0
   93cce:	e8 e8       	beqzs8 93c9e <__aeabi_f2d+0x2a>
   93cd0:	44 28 00 00 	movi $r2,#-524288
   93cd4:	d5 e5       	j8 93c9e <__aeabi_f2d+0x2a>

00093cd6 <__float64_mul>:
   93cd6:	3b ff fc bc 	smw.adm $sp,[$sp],$sp,#0x2    ! {$lp}
   93cda:	3a 6f a8 3c 	smw.adm $r6,[$sp],$r10,#0x0    ! {$r6~$r10}
   93cde:	95 89       	slli333 $r6,$r1,#1
   93ce0:	92 d5       	srli45 $r6,#21
   93ce2:	40 50 ac 08 	slli $r5,$r1,#11
   93ce6:	40 a0 54 09 	srli $r10,$r0,#21
   93cea:	40 52 a8 04 	or $r5,$r5,$r10
   93cee:	40 40 2c 08 	slli $r4,$r0,#11
   93cf2:	46 78 00 00 	sethi $r7,#0x80000
   93cf6:	ff 7f       	or33 $r5,$r7
   93cf8:	40 91 84 08 	slli $r9,$r3,#1
   93cfc:	93 35       	srli45 $r9,#21
   93cfe:	40 81 ac 08 	slli $r8,$r3,#11
   93d02:	40 a1 54 09 	srli $r10,$r2,#21
   93d06:	40 84 28 04 	or $r8,$r8,$r10
   93d0a:	40 84 1c 04 	or $r8,$r8,$r7
   93d0e:	fe 5d       	xor33 $r1,$r3
   93d10:	fe 7e       	and33 $r1,$r7
   93d12:	40 71 2c 08 	slli $r7,$r2,#11
   93d16:	50 a3 7f ff 	addi $r10,$r6,#-1
   93d1a:	5c f5 07 fe 	slti $r15,$r10,#2046
   93d1e:	4e f2 00 93 	beqz $r15,93e44 <__float64_mul+0x16e>
   93d22:	50 a4 ff ff 	addi $r10,$r9,#-1
   93d26:	5c f5 07 fe 	slti $r15,$r10,#2046
   93d2a:	4e f2 00 c6 	beqz $r15,93eb6 <__float64_mul+0x1e0>
   93d2e:	50 a4 fc 02 	addi $r10,$r9,#-1022
   93d32:	88 ca       	add45 $r6,$r10
   93d34:	81 48       	mov55 $r10,$r8
   93d36:	3a 0f 94 3c 	smw.adm $r0,[$sp],$r5,#0x0    ! {$r0~$r5}
   93d3a:	80 05       	mov55 $r0,$r5
   93d3c:	84 20       	movi55 $r1,#0
   93d3e:	80 48       	mov55 $r2,$r8
   93d40:	84 60       	movi55 $r3,#0
   93d42:	49 00 01 bb 	jal 940b8 <__muldi3>
   93d46:	fd 40       	movd44 $r8,$r0
   93d48:	3a 0f 94 04 	lmw.bim $r0,[$sp],$r5,#0x0    ! {$r0~$r5}
   93d4c:	80 68       	mov55 $r3,$r8
   93d4e:	81 0a       	mov55 $r8,$r10
   93d50:	81 41       	mov55 $r10,$r1
   93d52:	3a 2f 94 3c 	smw.adm $r2,[$sp],$r5,#0x0    ! {$r2~$r5}
   93d56:	80 04       	mov55 $r0,$r4
   93d58:	84 20       	movi55 $r1,#0
   93d5a:	80 48       	mov55 $r2,$r8
   93d5c:	84 60       	movi55 $r3,#0
   93d5e:	49 00 01 ad 	jal 940b8 <__muldi3>
   93d62:	3a 2f 94 04 	lmw.bim $r2,[$sp],$r5,#0x0    ! {$r2~$r5}
   93d66:	80 40       	mov55 $r2,$r0
   93d68:	80 01       	mov55 $r0,$r1
   93d6a:	80 2a       	mov55 $r1,$r10
   93d6c:	98 d8       	add333 $r3,$r3,$r0
   93d6e:	e2 60       	slt45 $r3,$r0
   93d70:	89 2f       	add45 $r9,$r15
   93d72:	81 41       	mov55 $r10,$r1
   93d74:	3a 2f 94 3c 	smw.adm $r2,[$sp],$r5,#0x0    ! {$r2~$r5}
   93d78:	80 05       	mov55 $r0,$r5
   93d7a:	84 20       	movi55 $r1,#0
   93d7c:	80 47       	mov55 $r2,$r7
   93d7e:	84 60       	movi55 $r3,#0
   93d80:	49 00 01 9c 	jal 940b8 <__muldi3>
   93d84:	3a 2f 94 04 	lmw.bim $r2,[$sp],$r5,#0x0    ! {$r2~$r5}
   93d88:	81 00       	mov55 $r8,$r0
   93d8a:	80 01       	mov55 $r0,$r1
   93d8c:	80 2a       	mov55 $r1,$r10
   93d8e:	88 48       	add45 $r2,$r8
   93d90:	e2 48       	slt45 $r2,$r8
   93d92:	e8 0a       	beqzs8 93da6 <__float64_mul+0xd0>
   93d94:	98 d8       	add333 $r3,$r3,$r0
   93d96:	e2 60       	slt45 $r3,$r0
   93d98:	e8 03       	beqzs8 93d9e <__float64_mul+0xc8>
   93d9a:	9c d9       	addi333 $r3,$r3,#1
   93d9c:	d5 07       	j8 93daa <__float64_mul+0xd4>
   93d9e:	85 e1       	movi55 $r15,#1
   93da0:	88 6f       	add45 $r3,$r15
   93da2:	e2 6f       	slt45 $r3,$r15
   93da4:	d5 03       	j8 93daa <__float64_mul+0xd4>
   93da6:	98 d8       	add333 $r3,$r3,$r0
   93da8:	e2 60       	slt45 $r3,$r0
   93daa:	89 2f       	add45 $r9,$r15
   93dac:	81 49       	mov55 $r10,$r9
   93dae:	3a 0f 94 3c 	smw.adm $r0,[$sp],$r5,#0x0    ! {$r0~$r5}
   93db2:	80 04       	mov55 $r0,$r4
   93db4:	84 20       	movi55 $r1,#0
   93db6:	80 47       	mov55 $r2,$r7
   93db8:	84 60       	movi55 $r3,#0
   93dba:	49 00 01 7f 	jal 940b8 <__muldi3>
   93dbe:	fd 40       	movd44 $r8,$r0
   93dc0:	3a 0f 94 04 	lmw.bim $r0,[$sp],$r5,#0x0    ! {$r0~$r5}
   93dc4:	80 08       	mov55 $r0,$r8
   93dc6:	81 09       	mov55 $r8,$r9
   93dc8:	81 2a       	mov55 $r9,$r10
   93dca:	88 48       	add45 $r2,$r8
   93dcc:	e2 48       	slt45 $r2,$r8
   93dce:	e8 03       	beqzs8 93dd4 <__float64_mul+0xfe>
   93dd0:	88 6f       	add45 $r3,$r15
   93dd2:	e2 6f       	slt45 $r3,$r15
   93dd4:	89 2f       	add45 $r9,$r15
   93dd6:	40 a0 08 04 	or $r10,$r0,$r2
   93dda:	4e a2 00 04 	beqz $r10,93de2 <__float64_mul+0x10c>
   93dde:	58 31 80 01 	ori $r3,$r3,#0x1
   93de2:	80 a9       	mov55 $r5,$r9
   93de4:	80 83       	mov55 $r4,$r3
   93de6:	e4 a0       	sltsi45 $r5,#0
   93de8:	e9 07       	bnezs8 93df6 <__float64_mul+0x120>
   93dea:	81 e4       	mov55 $r15,$r4
   93dec:	99 24       	add333 $r4,$r4,$r4
   93dee:	e2 8f       	slt45 $r4,$r15
   93df0:	99 6d       	add333 $r5,$r5,$r5
   93df2:	88 af       	add45 $r5,$r15
   93df4:	9f b1       	subi333 $r6,$r6,#1
   93df6:	50 a3 7f ff 	addi $r10,$r6,#-1
   93dfa:	5c f5 07 fe 	slti $r15,$r10,#2046
   93dfe:	4e f2 00 9b 	beqz $r15,93f34 <__float64_mul+0x25e>
   93e02:	44 f0 04 00 	movi $r15,#1024
   93e06:	88 8f       	add45 $r4,$r15
   93e08:	e2 8f       	slt45 $r4,$r15
   93e0a:	e8 03       	beqzs8 93e10 <__float64_mul+0x13a>
   93e0c:	88 af       	add45 $r5,$r15
   93e0e:	e2 af       	slt45 $r5,$r15
   93e10:	88 cf       	add45 $r6,$r15
   93e12:	40 a2 2c 09 	srli $r10,$r4,#11
   93e16:	54 a5 00 01 	andi $r10,$r10,#0x1
   93e1a:	8a 8a       	sub45 $r4,$r10
   93e1c:	40 02 2c 09 	srli $r0,$r4,#11
   93e20:	40 a2 d4 08 	slli $r10,$r5,#21
   93e24:	40 00 28 04 	or $r0,$r0,$r10
   93e28:	40 a2 84 08 	slli $r10,$r5,#1
   93e2c:	93 4c       	srli45 $r10,#12
   93e2e:	40 10 a8 04 	or $r1,$r1,$r10
   93e32:	40 a3 50 08 	slli $r10,$r6,#20
   93e36:	40 10 a8 04 	or $r1,$r1,$r10
   93e3a:	3a 6f a8 04 	lmw.bim $r6,[$sp],$r10,#0x0    ! {$r6~$r10}
   93e3e:	3b ff fc 84 	lmw.bim $sp,[$sp],$sp,#0x2    ! {$lp}
   93e42:	dd 9e       	ret5 $lp
   93e44:	81 e4       	mov55 $r15,$r4
   93e46:	99 24       	add333 $r4,$r4,$r4
   93e48:	e2 8f       	slt45 $r4,$r15
   93e4a:	99 6d       	add333 $r5,$r5,$r5
   93e4c:	88 af       	add45 $r5,$r15
   93e4e:	ce 25       	bnez38 $r6,93e98 <__float64_mul+0x1c2>
   93e50:	40 a2 90 04 	or $r10,$r5,$r4
   93e54:	4e a2 00 1e 	beqz $r10,93e90 <__float64_mul+0x1ba>
   93e58:	cd 08       	bnez38 $r5,93e68 <__float64_mul+0x192>
   93e5a:	cc 03       	bnez38 $r4,93e60 <__float64_mul+0x18a>
   93e5c:	84 c0       	movi55 $r6,#0
   93e5e:	d5 17       	j8 93e8c <__float64_mul+0x1b6>
   93e60:	80 a4       	mov55 $r5,$r4
   93e62:	84 80       	movi55 $r4,#0
   93e64:	fa 10       	movpi45 $r0,#0x20
   93e66:	9b b0       	sub333 $r6,$r6,$r0
   93e68:	3a 1f 94 3c 	smw.adm $r1,[$sp],$r5,#0x0    ! {$r1~$r5}
   93e6c:	80 05       	mov55 $r0,$r5
   93e6e:	49 00 93 9c 	jal a65a6 <countLeadingZeros32>
   93e72:	3a 1f 94 04 	lmw.bim $r1,[$sp],$r5,#0x0    ! {$r1~$r5}
   93e76:	c0 0b       	beqz38 $r0,93e8c <__float64_mul+0x1b6>
   93e78:	9b b0       	sub333 $r6,$r6,$r0
   93e7a:	52 30 00 20 	subri $r3,$r0,#32
   93e7e:	40 32 0c 0d 	srl $r3,$r4,$r3
   93e82:	40 42 00 0c 	sll $r4,$r4,$r0
   93e86:	40 52 80 0c 	sll $r5,$r5,$r0
   93e8a:	ff 5f       	or33 $r5,$r3
   93e8c:	48 ff ff 4b 	j 93d22 <__float64_mul+0x4c>
   93e90:	52 f4 87 ff 	subri $r15,$r9,#2047
   93e94:	e8 4b       	beqzs8 93f2a <__float64_mul+0x254>
   93e96:	d5 d2       	j8 93e3a <__float64_mul+0x164>
   93e98:	40 a2 90 04 	or $r10,$r5,$r4
   93e9c:	4e a3 00 47 	bnez $r10,93f2a <__float64_mul+0x254>
   93ea0:	4e 93 00 08 	bnez $r9,93eb0 <__float64_mul+0x1da>
   93ea4:	40 a4 04 08 	slli $r10,$r8,#1
   93ea8:	40 a5 1c 04 	or $r10,$r10,$r7
   93eac:	4e a2 00 3f 	beqz $r10,93f2a <__float64_mul+0x254>
   93eb0:	52 f4 87 ff 	subri $r15,$r9,#2047
   93eb4:	e9 35       	bnezs8 93f1e <__float64_mul+0x248>
   93eb6:	81 e7       	mov55 $r15,$r7
   93eb8:	99 ff       	add333 $r7,$r7,$r7
   93eba:	e2 ef       	slt45 $r7,$r15
   93ebc:	89 08       	add45 $r8,$r8
   93ebe:	89 0f       	add45 $r8,$r15
   93ec0:	4e 93 00 2b 	bnez $r9,93f16 <__float64_mul+0x240>
   93ec4:	40 a4 1c 04 	or $r10,$r8,$r7
   93ec8:	4e a2 00 25 	beqz $r10,93f12 <__float64_mul+0x23c>
   93ecc:	4e 83 00 09 	bnez $r8,93ede <__float64_mul+0x208>
   93ed0:	cf 03       	bnez38 $r7,93ed6 <__float64_mul+0x200>
   93ed2:	85 20       	movi55 $r9,#0
   93ed4:	d5 1d       	j8 93f0e <__float64_mul+0x238>
   93ed6:	81 07       	mov55 $r8,$r7
   93ed8:	84 e0       	movi55 $r7,#0
   93eda:	fa 50       	movpi45 $r2,#0x20
   93edc:	8b 22       	sub45 $r9,$r2
   93ede:	3a 0f 84 3c 	smw.adm $r0,[$sp],$r1,#0x0    ! {$r0~$r1}
   93ee2:	3a 3f 94 3c 	smw.adm $r3,[$sp],$r5,#0x0    ! {$r3~$r5}
   93ee6:	80 08       	mov55 $r0,$r8
   93ee8:	49 00 93 5f 	jal a65a6 <countLeadingZeros32>
   93eec:	80 40       	mov55 $r2,$r0
   93eee:	3a 3f 94 04 	lmw.bim $r3,[$sp],$r5,#0x0    ! {$r3~$r5}
   93ef2:	3a 0f 84 04 	lmw.bim $r0,[$sp],$r1,#0x0    ! {$r0~$r1}
   93ef6:	c2 0c       	beqz38 $r2,93f0e <__float64_mul+0x238>
   93ef8:	8b 22       	sub45 $r9,$r2
   93efa:	52 01 00 20 	subri $r0,$r2,#32
   93efe:	40 03 80 0d 	srl $r0,$r7,$r0
   93f02:	40 73 88 0c 	sll $r7,$r7,$r2
   93f06:	40 84 08 0c 	sll $r8,$r8,$r2
   93f0a:	40 84 00 04 	or $r8,$r8,$r0
   93f0e:	48 ff ff 10 	j 93d2e <__float64_mul+0x58>
   93f12:	84 00       	movi55 $r0,#0
   93f14:	d5 93       	j8 93e3a <__float64_mul+0x164>
   93f16:	40 a4 1c 04 	or $r10,$r8,$r7
   93f1a:	4e a3 00 08 	bnez $r10,93f2a <__float64_mul+0x254>
   93f1e:	46 a7 ff 00 	sethi $r10,#0x7ff00
   93f22:	40 10 a8 04 	or $r1,$r1,$r10
   93f26:	84 00       	movi55 $r0,#0
   93f28:	d5 89       	j8 93e3a <__float64_mul+0x164>
   93f2a:	44 18 00 00 	movi $r1,#-524288
   93f2e:	84 00       	movi55 $r0,#0
   93f30:	48 ff ff 85 	j 93e3a <__float64_mul+0x164>
   93f34:	4e 66 ff f5 	bgtz $r6,93f1e <__float64_mul+0x248>
   93f38:	52 03 00 01 	subri $r0,$r6,#1
   93f3c:	84 40       	movi55 $r2,#0
   93f3e:	fb 50       	movpi45 $r10,#0x20
   93f40:	e2 0a       	slt45 $r0,$r10
   93f42:	e9 07       	bnezs8 93f50 <__float64_mul+0x27a>
   93f44:	fe a7       	or33 $r2,$r4
   93f46:	80 85       	mov55 $r4,$r5
   93f48:	84 a0       	movi55 $r5,#0
   93f4a:	50 00 7f e0 	addi $r0,$r0,#-32
   93f4e:	cc f8       	bnez38 $r4,93f3e <__float64_mul+0x268>
   93f50:	c0 13       	beqz38 $r0,93f76 <__float64_mul+0x2a0>
   93f52:	80 65       	mov55 $r3,$r5
