Archive member included because of file (symbol)

components/Libraries/external/AML/\libAML.a(AIR_MOTION_Lib.o)
                              /cygdrive/c/Airoha/AiroBlueSDK/AB1600_1_0_5_0/projects/Remote/output/remote_mouse.o (AIR_MOTION_ResetSwipeRecognition)
components/Libraries/external/AML/\libAML.a(RollCompFullDynamic3D.o)
                              components/Libraries/external/AML/\libAML.a(AIR_MOTION_Lib.o) (StabilityModule)
components/Libraries/external/algo/\libalg.a(ab_adc.o)
                              /cygdrive/c/Airoha/AiroBlueSDK/AB1600_1_0_5_0/projects/Remote/output/remote.o (AB_ADC_Get_Voltage)
components/Libraries/external/algo/\libalg.a(ab_clk.o)
                              /cygdrive/c/Airoha/AiroBlueSDK/AB1600_1_0_5_0/projects/Remote/output/remote.o (AB_CLK_Switch)
components/Libraries/external/algo/\libalg.a(ab_assert.o)
                              /cygdrive/c/Airoha/AiroBlueSDK/AB1600_1_0_5_0/projects/Remote/output/pj/components/Libraries/hci_devices/hci_spi_1602.o (assert_ab_callback_verbose)
components/Libraries/external/algo/\libalg.a(ab_flash.o)
                              /cygdrive/c/Airoha/AiroBlueSDK/AB1600_1_0_5_0/projects/Remote/output/remote_mouse.o (AB_Flash_ByteProgram)
components/Libraries/external/algo/\libalg.a(ab_led.o)
                              /cygdrive/c/Airoha/AiroBlueSDK/AB1600_1_0_5_0/projects/Remote/output/remote_led.o (AB_LED_set_brightness)
components/Libraries/external/algo/\libalg.a(ab_malloc_hook.o)
                              /cygdrive/c/Airoha/AiroBlueSDK/AB1600_1_0_5_0/projects/Remote/output/pj/components/Libraries/hci_devices/hci_spi_1602.o (free)
components/Libraries/external/algo/\libalg.a(ab_printf_hook.o)
                              /cygdrive/c/Airoha/AiroBlueSDK/AB1600_1_0_5_0/projects/Remote/output/main.o (printf)
components/Libraries/external/algo/\libalg.a(ab_pwr.o)
                              /cygdrive/c/Airoha/AiroBlueSDK/AB1600_1_0_5_0/projects/Remote/output/remote_microphone.o (AB_PWR_Stanby)
components/Libraries/external/algo/\libalg.a(ab_queue.o)
                              /cygdrive/c/Airoha/AiroBlueSDK/AB1600_1_0_5_0/projects/Remote/output/pj/components/Libraries/hci_devices/hci_spi_1602.o (AB_queue_push)
components/Libraries/external/algo/\libalg.a(ab_mp_sector.o)
                              /cygdrive/c/Airoha/AiroBlueSDK/AB1600_1_0_5_0/projects/Remote/output/remote.o (AB_SECTOR_GetMpParameter)
components/Libraries/external/algo/\libalg.a(ab_spi.o)
                              /cygdrive/c/Airoha/AiroBlueSDK/AB1600_1_0_5_0/projects/Remote/output/pj/components/Libraries/hci_devices/hci_spi_1602.o (AB_SPI_WriteAndRead)
components/Libraries/external/algo/\libalg.a(bsp_generic.o)
                              /cygdrive/c/Airoha/AiroBlueSDK/AB1600_1_0_5_0/projects/Remote/output/main.o (AB_BSP_initEx)
components/Libraries/external/algo/\libalg.a(ab_timer.o)
                              /cygdrive/c/Airoha/AiroBlueSDK/AB1600_1_0_5_0/projects/Remote/output/remote.o (AB_Timer_AlertUnset)
components/Libraries/external/algo/\libalg.a(ab_uart.o)
                              /cygdrive/c/Airoha/AiroBlueSDK/AB1600_1_0_5_0/projects/Remote/output/remote_microphone.o (AB_UART_SetBaud)
components/Libraries/external/algo/\libalg.a(ab_airoha_vcmd.o)
                              components/Libraries/external/algo/\libalg.a(bsp_generic.o) (ab_airoha_vcmd_Bdie_reset_enable)
components/Libraries/external/algo/\libalg.a(drv_adc.o)
                              components/Libraries/external/algo/\libalg.a(ab_adc.o) (DRV_ADC_Read)
components/Libraries/external/algo/\libalg.a(drv_clk.o)
                              components/Libraries/external/algo/\libalg.a(ab_clk.o) (DRV_CLK_SysSel)
components/Libraries/external/algo/\libalg.a(drv_flash.o)
                              components/Libraries/external/algo/\libalg.a(ab_flash.o) (DRV_Flash_ByteProgram)
components/Libraries/external/algo/\libalg.a(drv_gpio.o)
                              /cygdrive/c/Airoha/AiroBlueSDK/AB1600_1_0_5_0/projects/Remote/output/remote_mouse.o (DRV_Gpio_IntDis)
components/Libraries/external/algo/\libalg.a(drv_odgpio.o)
                              /cygdrive/c/Airoha/AiroBlueSDK/AB1600_1_0_5_0/projects/Remote/output/remote_led.o (DRV_OdGpio_IeSet)
components/Libraries/external/algo/\libalg.a(drv_keyscan.o)
                              /cygdrive/c/Airoha/AiroBlueSDK/AB1600_1_0_5_0/projects/Remote/output/remote.o (DRV_KeyScan_Dis)
components/Libraries/external/algo/\libalg.a(drv_led.o)
                              components/Libraries/external/algo/\libalg.a(ab_led.o) (DRV_Led_Set)
components/Libraries/external/algo/\libalg.a(drv_mic.o)
                              /cygdrive/c/Airoha/AiroBlueSDK/AB1600_1_0_5_0/projects/Remote/output/remote.o (DRV_Mic_Disable)
components/Libraries/external/algo/\libalg.a(drv_odpinmux.o)
                              components/Libraries/external/algo/\libalg.a(ab_led.o) (DRV_OdPinMux_SigSet)
components/Libraries/external/algo/\libalg.a(drv_pinmux.o)
                              /cygdrive/c/Airoha/AiroBlueSDK/AB1600_1_0_5_0/projects/Remote/output/spl/components/Libraries/external/ICM_20688_spi/mtd.o (DRV_PinMux_GrpSet)
components/Libraries/external/algo/\libalg.a(drv_pwr.o)
                              /cygdrive/c/Airoha/AiroBlueSDK/AB1600_1_0_5_0/projects/Remote/output/remote.o (DRV_Pwr_EnterMode)
components/Libraries/external/algo/\libalg.a(drv_spi.o)
                              components/Libraries/external/algo/\libalg.a(ab_spi.o) (DRV_SPI_Deinit)
components/Libraries/external/algo/\libalg.a(drv_timer32b0.o)
                              /cygdrive/c/Airoha/AiroBlueSDK/AB1600_1_0_5_0/projects/Remote/output/remote.o (DRV_TMR32B0_Disable)
components/Libraries/external/algo/\libalg.a(drv_uart.o)
                              components/Libraries/external/algo/\libalg.a(ab_uart.o) (DRV_Uart_SetBaud)
components/Libraries/external/algo/\libalg.a(drv_wdt.o)
                              /cygdrive/c/Airoha/AiroBlueSDK/AB1600_1_0_5_0/projects/Remote/output/remote_mouse.o (DRV_WDT_Disable)
components/Libraries/external/algo/\libalg.a(service_battery.o)
                              /cygdrive/c/Airoha/AiroBlueSDK/AB1600_1_0_5_0/projects/Remote/output/remote.o (BAS_update_battery_level)
components/Libraries/external/algo/\libalg.a(service_device_firmware_update_OTA.o)
                              /cygdrive/c/Airoha/AiroBlueSDK/AB1600_1_0_5_0/projects/Remote/output/remote.o (OTA_change_permission)
components/Libraries/external/algo/\libalg.a(service_device_information.o)
                              /cygdrive/c/Airoha/AiroBlueSDK/AB1600_1_0_5_0/projects/Remote/output/remote_gatt.o (DIS_init)
components/Libraries/external/algo/\libalg.a(service_generic_access.o)
                              /cygdrive/c/Airoha/AiroBlueSDK/AB1600_1_0_5_0/projects/Remote/output/remote_gatt.o (GAS_support_privacy_feature)
components/Libraries/external/algo/\libalg.a(service_generic_attribute.o)
                              /cygdrive/c/Airoha/AiroBlueSDK/AB1600_1_0_5_0/projects/Remote/output/remote_gatt.o (GATT_init)
components/Libraries/external/algo/\libalg.a(service_human_interface_device.o)
                              /cygdrive/c/Airoha/AiroBlueSDK/AB1600_1_0_5_0/projects/Remote/output/remote_gatt.o (HIDS_add_report)
components/Libraries/external/algo/\libalg.a(console.o)
                              components/Libraries/external/algo/\libalg.a(bsp_generic.o) (AB_console_handle)
components/Libraries/external/algo/\libalg.a(shell.o)
                              components/Libraries/external/algo/\libalg.a(console.o) (AB_shell_main_loop)
components/Libraries/external/algo/\libalg.a(ab_debug.o)
                              components/Libraries/external/algo/\libalg.a(bsp_generic.o) (AB_Debug_CpuExceptionMonitor)
components/Libraries/external/algo/\libalg.a(dfu.o)
                              components/Libraries/external/algo/\libalg.a(ab_airoha_vcmd.o) (AB_DFU_set_active_code_area)
components/Libraries/external/algo/\libalg.a(ab_module.o)
                              components/Libraries/external/algo/\libalg.a(ab_airoha_vcmd.o) (AB_module_count)
components/BT/release/\libbtcore.a(hci_h4_parser.o)
                              components/BT/release/hci_protocol_1602.o (hci_h4_decode)
components/BT/release/\libbtcore.a(bt.o)
                              /cygdrive/c/Airoha/AiroBlueSDK/AB1600_1_0_5_0/projects/Remote/output/remote.o (BT_Log_Enable)
components/BT/release/\libbtcore.a(ble_gap.o)
                              /cygdrive/c/Airoha/AiroBlueSDK/AB1600_1_0_5_0/projects/Remote/output/remote.o (ble_gap_disconnect)
components/BT/release/\libbtcore.a(ble_gap_links.o)
                              components/BT/release/\libbtcore.a(ble_gap.o) (ble_gap_link_GetIdx_ByHandle)
components/BT/release/\libbtcore.a(ble_gap_sm.o)
                              components/BT/release/\libbtcore.a(bt.o) (BLE_gap_sm_init)
components/BT/release/\libbtcore.a(ble_l2cap.o)
                              components/BT/release/\libbtcore.a(ble_gap.o) (l2cap_notify)
components/BT/release/\libbtcore.a(l2cap_le_sig.o)
                              components/BT/release/\libbtcore.a(ble_gap.o) (l2cap_lesig_conn_param_update_req)
components/BT/release/\libbtcore.a(ble_att.o)
                              components/Libraries/external/algo/\libalg.a(service_device_firmware_update_OTA.o) (BLE_att_get_attribute_length)
components/BT/release/\libbtcore.a(ble_gatt_server.o)
                              components/Libraries/external/algo/\libalg.a(service_generic_attribute.o) (BLE_gatt_charact_indicate)
components/BT/release/\libbtcore.a(ble_gatt_client.o)
                              components/BT/release/\libbtcore.a(ble_att.o) (ATT_Client_GetHandleValueReport)
components/BT/release/\libbtcore.a(sm.o)
                              components/BT/release/\libbtcore.a(ble_gap_sm.o) (sm_init)
components/BT/release/\libbtcore.a(sm_cryptotool.o)
                              components/BT/release/\libbtcore.a(ble_gap_sm.o) (SM_CryptoTool_ReadLocalP256PublicKeyComplete)
components/BT/release/\libbtcore.a(sm_hal.o)
                              components/BT/release/\libbtcore.a(ble_gap_sm.o) (sm_hal_flash_get_last_paired_device)
components/BT/release/\libbtcore.a(sm_protocol.o)
                              components/BT/release/\libbtcore.a(sm_hal.o) (SM_Protocol_L2capEventHandler)
components/BT/release/\libbtcore.a(sm_slave.o)
                              components/BT/release/\libbtcore.a(ble_gap_sm.o) (SM_Slave_OOBInputRsp)
components/BT/release/\libbtcore.a(sm_master.o)
                              components/BT/release/\libbtcore.a(ble_gap_sm.o) (SM_Master_OOBInputRsp)
components/BT/release/\libbtcore.a(Drv_Trng.o)
                              components/BT/release/hci_protocol_1602.o (DRV_TRNG_Get)
components/BT/release/\libbtcore.a(Drv_MMITimer.o)
                              components/BT/release/\libbtcore.a(bt.o) (Drv_MMITimerDisable)
components/BT/release/\libbtcore.a(Ab_MMITimer.o)
                              components/BT/release/\libbtcore.a(ble_att.o) (Ab_MMITimerUnset)
components/BT/release/\libbtcore.a(Drv_1602.o)
                              /cygdrive/c/Airoha/AiroBlueSDK/AB1600_1_0_5_0/projects/Remote/output/pj/components/Libraries/hci_devices/hci_spi_1602.o (Drv_1602DataReady)
components/BT/release/\libbtcore.a(encrypt.o)
                              components/BT/release/\libbtcore.a(bt.o) (Encrypt)
components/BT/release/\libbtcore.a(hci.o)
                              components/BT/release/\libbtcore.a(bt.o) (hci_log_set)
components/BT/release/\libbtcore.a(hci_cmd_evt_dat.o)
                              components/BT/release/\libbtcore.a(bt.o) (hci_dat_info_update)
components/BT/release/\libbtcore.a(sm_common.o)
                              components/BT/release/\libbtcore.a(sm_hal.o) (SM_Common_ValueCompare)
output/\lib1600.a(ab_log.o)   components/BT/release/\libbtcore.a(hci.o) (AB_Log_EvtShow)
C:\Andestech\AndeSight211RDS\toolchains\nds32le-elf-mculib-v3m\nds32le-elf\libc\mculib\usr\lib\libm.a(lib_a-w_log10.o)
                              /cygdrive/c/Airoha/AiroBlueSDK/AB1600_1_0_5_0/projects/Remote/output/remote_microphone.o (log10)
C:\Andestech\AndeSight211RDS\toolchains\nds32le-elf-mculib-v3m\nds32le-elf\libc\mculib\usr\lib\libm.a(gf_dpexlog.o)
                              C:\Andestech\AndeSight211RDS\toolchains\nds32le-elf-mculib-v3m\nds32le-elf\libc\mculib\usr\lib\libm.a(lib_a-w_log10.o) (__gf_dpexlog)
C:\Andestech\AndeSight211RDS\toolchains\nds32le-elf-mculib-v3m\nds32le-elf\libc\mculib\usr\lib\libm.a(gf_exadd.o)
                              C:\Andestech\AndeSight211RDS\toolchains\nds32le-elf-mculib-v3m\nds32le-elf\libc\mculib\usr\lib\libm.a(gf_dpexlog.o) (__gf_exadd)
C:\Andestech\AndeSight211RDS\toolchains\nds32le-elf-mculib-v3m\nds32le-elf\libc\mculib\usr\lib\libm.a(gf_exdiv.o)
                              C:\Andestech\AndeSight211RDS\toolchains\nds32le-elf-mculib-v3m\nds32le-elf\libc\mculib\usr\lib\libm.a(gf_dpexlog.o) (__gf_exdiv)
C:\Andestech\AndeSight211RDS\toolchains\nds32le-elf-mculib-v3m\nds32le-elf\libc\mculib\usr\lib\libm.a(gf_exmul.o)
                              C:\Andestech\AndeSight211RDS\toolchains\nds32le-elf-mculib-v3m\nds32le-elf\libc\mculib\usr\lib\libm.a(lib_a-w_log10.o) (__gf_exmul)
C:\Andestech\AndeSight211RDS\toolchains\nds32le-elf-mculib-v3m\nds32le-elf\libc\mculib\usr\lib\libm.a(gf_sigmax.o)
                              C:\Andestech\AndeSight211RDS\toolchains\nds32le-elf-mculib-v3m\nds32le-elf\libc\mculib\usr\lib\libm.a(gf_dpexlog.o) (__gf_sigmax)
C:\Andestech\AndeSight211RDS\toolchains\nds32le-elf-mculib-v3m\nds32le-elf\libc\mculib\usr\lib\libc.a(lib_a-ctype_.o)
                              components/Libraries/external/algo/\libalg.a(shell.o) (__ctype_ptr__)
C:\Andestech\AndeSight211RDS\toolchains\nds32le-elf-mculib-v3m\nds32le-elf\libc\mculib\usr\lib\libc.a(lib_a-freer.o)
                              components/Libraries/external/algo/\libalg.a(ab_malloc_hook.o) (_free_r)
C:\Andestech\AndeSight211RDS\toolchains\nds32le-elf-mculib-v3m\nds32le-elf\libc\mculib\usr\lib\libc.a(lib_a-mallocr.o)
                              components/Libraries/external/algo/\libalg.a(ab_malloc_hook.o) (_malloc_r)
C:\Andestech\AndeSight211RDS\toolchains\nds32le-elf-mculib-v3m\nds32le-elf\libc\mculib\usr\lib\libc.a(lib_a-memcmp.o)
                              components/Libraries/external/algo/\libalg.a(ab_airoha_vcmd.o) (memcmp)
C:\Andestech\AndeSight211RDS\toolchains\nds32le-elf-mculib-v3m\nds32le-elf\libc\mculib\usr\lib\libc.a(lib_a-memcpy.o)
                              /cygdrive/c/Airoha/AiroBlueSDK/AB1600_1_0_5_0/projects/Remote/output/pj/components/Libraries/hci_devices/hci_spi_1602.o (memcpy)
C:\Andestech\AndeSight211RDS\toolchains\nds32le-elf-mculib-v3m\nds32le-elf\libc\mculib\usr\lib\libc.a(lib_a-memmove.o)
                              components/Libraries/external/algo/\libalg.a(shell.o) (memmove)
C:\Andestech\AndeSight211RDS\toolchains\nds32le-elf-mculib-v3m\nds32le-elf\libc\mculib\usr\lib\libc.a(lib_a-memset.o)
                              /cygdrive/c/Airoha/AiroBlueSDK/AB1600_1_0_5_0/projects/Remote/output/pj/components/Libraries/hci_devices/hci_spi_1602.o (memset)
C:\Andestech\AndeSight211RDS\toolchains\nds32le-elf-mculib-v3m\nds32le-elf\libc\mculib\usr\lib\libc.a(lib_a-mlock.o)
                              C:\Andestech\AndeSight211RDS\toolchains\nds32le-elf-mculib-v3m\nds32le-elf\libc\mculib\usr\lib\libc.a(lib_a-freer.o) (__malloc_lock)
C:\Andestech\AndeSight211RDS\toolchains\nds32le-elf-mculib-v3m\nds32le-elf\libc\mculib\usr\lib\libc.a(lib_a-mstats.o)
                              components/Libraries/external/algo/\libalg.a(ab_malloc_hook.o) (mallinfo)
C:\Andestech\AndeSight211RDS\toolchains\nds32le-elf-mculib-v3m\nds32le-elf\libc\mculib\usr\lib\libc.a(lib_a-puts.o)
                              /cygdrive/c/Airoha/AiroBlueSDK/AB1600_1_0_5_0/projects/Remote/output/remote.o (puts)
C:\Andestech\AndeSight211RDS\toolchains\nds32le-elf-mculib-v3m\nds32le-elf\libc\mculib\usr\lib\libc.a(lib_a-sbrkr.o)
                              C:\Andestech\AndeSight211RDS\toolchains\nds32le-elf-mculib-v3m\nds32le-elf\libc\mculib\usr\lib\libc.a(lib_a-freer.o) (_sbrk_r)
C:\Andestech\AndeSight211RDS\toolchains\nds32le-elf-mculib-v3m\nds32le-elf\libc\mculib\usr\lib\libc.a(lib_a-sprintf.o)
                              components/Libraries/external/algo/\libalg.a(shell.o) (sprintf)
C:\Andestech\AndeSight211RDS\toolchains\nds32le-elf-mculib-v3m\nds32le-elf\libc\mculib\usr\lib\libc.a(lib_a-strcmp.o)
                              components/Libraries/external/algo/\libalg.a(ab_airoha_vcmd.o) (strcmp)
C:\Andestech\AndeSight211RDS\toolchains\nds32le-elf-mculib-v3m\nds32le-elf\libc\mculib\usr\lib\libc.a(lib_a-strcpy.o)
                              components/Libraries/external/algo/\libalg.a(shell.o) (strcpy)
C:\Andestech\AndeSight211RDS\toolchains\nds32le-elf-mculib-v3m\nds32le-elf\libc\mculib\usr\lib\libc.a(lib_a-strlen.o)
                              components/Libraries/external/algo/\libalg.a(ab_printf_hook.o) (strlen)
C:\Andestech\AndeSight211RDS\toolchains\nds32le-elf-mculib-v3m\nds32le-elf\libc\mculib\usr\lib\libc.a(lib_a-strncmp.o)
                              components/Libraries/external/algo/\libalg.a(shell.o) (strncmp)
C:\Andestech\AndeSight211RDS\toolchains\nds32le-elf-mculib-v3m\nds32le-elf\libc\mculib\usr\lib\libc.a(lib_a-vprintf.o)
                              components/Libraries/external/algo/\libalg.a(ab_printf_hook.o) (vprintf)
C:\Andestech\AndeSight211RDS\toolchains\nds32le-elf-mculib-v3m\nds32le-elf\libc\mculib\usr\lib\libc.a(lib_a-vsprintf.o)
                              components/Libraries/external/algo/\libalg.a(ab_printf_hook.o) (vsprintf)
C:\Andestech\AndeSight211RDS\toolchains\nds32le-elf-mculib-v3m\nds32le-elf\libc\mculib\usr\lib\libc.a(do_printf.o)
                              C:\Andestech\AndeSight211RDS\toolchains\nds32le-elf-mculib-v3m\nds32le-elf\libc\mculib\usr\lib\libc.a(lib_a-vprintf.o) (do_printf)
C:\Andestech\AndeSight211RDS\toolchains\nds32le-elf-mculib-v3m\nds32le-elf\libc\mculib\usr\lib\libc.a(xint2dec.o)
                              C:\Andestech\AndeSight211RDS\toolchains\nds32le-elf-mculib-v3m\nds32le-elf\libc\mculib\usr\lib\libc.a(lib_a-vprintf.o) (double2dec)
C:\Andestech\AndeSight211RDS\toolchains\nds32le-elf-mculib-v3m\nds32le-elf\libc\mculib\usr\lib\libc.a(lib_a-data-errno.o)
                              C:\Andestech\AndeSight211RDS\toolchains\nds32le-elf-mculib-v3m\nds32le-elf\libc\mculib\usr\lib\libc.a(lib_a-mallocr.o) (_NDS32_REENT__errno)
C:\Andestech\AndeSight211RDS\toolchains\nds32le-elf-mculib-v3m\nds32le-elf\libc\mculib\usr\lib\libc.a(lib_a-data-stdio.o)
                              C:\Andestech\AndeSight211RDS\toolchains\nds32le-elf-mculib-v3m\nds32le-elf\libc\mculib\usr\lib\libc.a(lib_a-mstats.o) (_NDS32_REENT__stderr)
C:\Andestech\AndeSight211RDS\toolchains\nds32le-elf-mculib-v3m\nds32le-elf\libc\mculib\usr\lib\libc.a(lib_a-fiprintf.o)
                              C:\Andestech\AndeSight211RDS\toolchains\nds32le-elf-mculib-v3m\nds32le-elf\libc\mculib\usr\lib\libc.a(lib_a-mstats.o) (fiprintf)
C:\Andestech\AndeSight211RDS\toolchains\nds32le-elf-mculib-v3m\nds32le-elf\libc\mculib\usr\lib\libc.a(lib_a-mallinfor.o)
                              C:\Andestech\AndeSight211RDS\toolchains\nds32le-elf-mculib-v3m\nds32le-elf\libc\mculib\usr\lib\libc.a(lib_a-mstats.o) (_mallinfo_r)
C:\Andestech\AndeSight211RDS\toolchains\nds32le-elf-mculib-v3m\nds32le-elf\libc\mculib\usr\lib\libc.a(lib_a-malloptr.o)
                              C:\Andestech\AndeSight211RDS\toolchains\nds32le-elf-mculib-v3m\nds32le-elf\libc\mculib\usr\lib\libc.a(lib_a-mstats.o) (_mallopt_r)
C:\Andestech\AndeSight211RDS\toolchains\nds32le-elf-mculib-v3m\nds32le-elf\libc\mculib\usr\lib\libc.a(lib_a-mallstatsr.o)
                              C:\Andestech\AndeSight211RDS\toolchains\nds32le-elf-mculib-v3m\nds32le-elf\libc\mculib\usr\lib\libc.a(lib_a-mstats.o) (_malloc_stats_r)
C:\Andestech\AndeSight211RDS\toolchains\nds32le-elf-mculib-v3m\nds32le-elf\libc\mculib\usr\lib\libc.a(lib_a-reent_errno.o)
                              C:\Andestech\AndeSight211RDS\toolchains\nds32le-elf-mculib-v3m\nds32le-elf\libc\mculib\usr\lib\libc.a(lib_a-sbrkr.o) (errno)
C:\Andestech\AndeSight211RDS\toolchains\nds32le-elf-mculib-v3m\nds32le-elf\libc\mculib\usr\lib\libc.a(lib_a-vfiprintf.o)
                              C:\Andestech\AndeSight211RDS\toolchains\nds32le-elf-mculib-v3m\nds32le-elf\libc\mculib\usr\lib\libc.a(lib_a-fiprintf.o) (_vfiprintf_r)
C:\Andestech\AndeSight211RDS\toolchains\nds32le-elf-mculib-v3m\nds32le-elf\libc\mculib\usr\lib\libc.a(lib_a-wsetup.o)
                              C:\Andestech\AndeSight211RDS\toolchains\nds32le-elf-mculib-v3m\nds32le-elf\libc\mculib\usr\lib\libc.a(lib_a-vfiprintf.o) (__swsetup_r)
C:\Andestech\AndeSight211RDS\toolchains\nds32le-elf-mculib-v3m\nds32le-elf\libc\mculib\usr\lib\libc.a(lib_a-data-findfp.o)
                              C:\Andestech\AndeSight211RDS\toolchains\nds32le-elf-mculib-v3m\nds32le-elf\libc\mculib\usr\lib\libc.a(lib_a-vfiprintf.o) (_NDS32_REENT___sdidinit)
C:\Andestech\AndeSight211RDS\toolchains\nds32le-elf-mculib-v3m\nds32le-elf\libc\mculib\usr\lib\libc.a(lib_a-fflush.o)
                              C:\Andestech\AndeSight211RDS\toolchains\nds32le-elf-mculib-v3m\nds32le-elf\libc\mculib\usr\lib\libc.a(lib_a-vfiprintf.o) (_fflush_r)
C:\Andestech\AndeSight211RDS\toolchains\nds32le-elf-mculib-v3m\nds32le-elf\libc\mculib\usr\lib\libc.a(lib_a-findfp.o)
                              C:\Andestech\AndeSight211RDS\toolchains\nds32le-elf-mculib-v3m\nds32le-elf\libc\mculib\usr\lib\libc.a(lib_a-vfiprintf.o) (__sinit)
C:\Andestech\AndeSight211RDS\toolchains\nds32le-elf-mculib-v3m\nds32le-elf\libc\mculib\usr\lib\libc.a(lib_a-fputwc.o)
                              C:\Andestech\AndeSight211RDS\toolchains\nds32le-elf-mculib-v3m\nds32le-elf\libc\mculib\usr\lib\libc.a(lib_a-vfiprintf.o) (_fputwc_r)
C:\Andestech\AndeSight211RDS\toolchains\nds32le-elf-mculib-v3m\nds32le-elf\libc\mculib\usr\lib\libc.a(lib_a-fvwrite.o)
                              C:\Andestech\AndeSight211RDS\toolchains\nds32le-elf-mculib-v3m\nds32le-elf\libc\mculib\usr\lib\libc.a(lib_a-vfiprintf.o) (__sfvwrite_r)
C:\Andestech\AndeSight211RDS\toolchains\nds32le-elf-mculib-v3m\nds32le-elf\libc\mculib\usr\lib\libc.a(lib_a-fwalk.o)
                              C:\Andestech\AndeSight211RDS\toolchains\nds32le-elf-mculib-v3m\nds32le-elf\libc\mculib\usr\lib\libc.a(lib_a-fflush.o) (_fwalk_reent)
C:\Andestech\AndeSight211RDS\toolchains\nds32le-elf-mculib-v3m\nds32le-elf\libc\mculib\usr\lib\libc.a(lib_a-locale.o)
                              C:\Andestech\AndeSight211RDS\toolchains\nds32le-elf-mculib-v3m\nds32le-elf\libc\mculib\usr\lib\libc.a(lib_a-fputwc.o) (__mb_cur_max)
C:\Andestech\AndeSight211RDS\toolchains\nds32le-elf-mculib-v3m\nds32le-elf\libc\mculib\usr\lib\libc.a(lib_a-makebuf.o)
                              C:\Andestech\AndeSight211RDS\toolchains\nds32le-elf-mculib-v3m\nds32le-elf\libc\mculib\usr\lib\libc.a(lib_a-wsetup.o) (__smakebuf_r)
C:\Andestech\AndeSight211RDS\toolchains\nds32le-elf-mculib-v3m\nds32le-elf\libc\mculib\usr\lib\libc.a(lib_a-memchr.o)
                              C:\Andestech\AndeSight211RDS\toolchains\nds32le-elf-mculib-v3m\nds32le-elf\libc\mculib\usr\lib\libc.a(lib_a-vfiprintf.o) (memchr)
C:\Andestech\AndeSight211RDS\toolchains\nds32le-elf-mculib-v3m\nds32le-elf\libc\mculib\usr\lib\libc.a(lib_a-reallocr.o)
                              C:\Andestech\AndeSight211RDS\toolchains\nds32le-elf-mculib-v3m\nds32le-elf\libc\mculib\usr\lib\libc.a(lib_a-fvwrite.o) (_realloc_r)
C:\Andestech\AndeSight211RDS\toolchains\nds32le-elf-mculib-v3m\nds32le-elf\libc\mculib\usr\lib\libc.a(lib_a-stdio.o)
                              C:\Andestech\AndeSight211RDS\toolchains\nds32le-elf-mculib-v3m\nds32le-elf\libc\mculib\usr\lib\libc.a(lib_a-findfp.o) (__sclose)
C:\Andestech\AndeSight211RDS\toolchains\nds32le-elf-mculib-v3m\nds32le-elf\libc\mculib\usr\lib\libc.a(lib_a-wbuf.o)
                              C:\Andestech\AndeSight211RDS\toolchains\nds32le-elf-mculib-v3m\nds32le-elf\libc\mculib\usr\lib\libc.a(lib_a-fputwc.o) (__swbuf_r)
C:\Andestech\AndeSight211RDS\toolchains\nds32le-elf-mculib-v3m\nds32le-elf\libc\mculib\usr\lib\libc.a(lib_a-wcrtomb.o)
                              C:\Andestech\AndeSight211RDS\toolchains\nds32le-elf-mculib-v3m\nds32le-elf\libc\mculib\usr\lib\libc.a(lib_a-fputwc.o) (_wcrtomb_r)
C:\Andestech\AndeSight211RDS\toolchains\nds32le-elf-mculib-v3m\nds32le-elf\libc\mculib\usr\lib\libc.a(lib_a-wctomb_r.o)
                              C:\Andestech\AndeSight211RDS\toolchains\nds32le-elf-mculib-v3m\nds32le-elf\libc\mculib\usr\lib\libc.a(lib_a-wcrtomb.o) (__wctomb)
C:\Andestech\AndeSight211RDS\toolchains\nds32le-elf-mculib-v3m\nds32le-elf\libc\mculib\usr\lib\libc.a(lib_a-writer.o)
                              C:\Andestech\AndeSight211RDS\toolchains\nds32le-elf-mculib-v3m\nds32le-elf\libc\mculib\usr\lib\libc.a(lib_a-stdio.o) (_write_r)
C:\Andestech\AndeSight211RDS\toolchains\nds32le-elf-mculib-v3m\nds32le-elf\libc\mculib\usr\lib\libc.a(lib_a-closer.o)
                              C:\Andestech\AndeSight211RDS\toolchains\nds32le-elf-mculib-v3m\nds32le-elf\libc\mculib\usr\lib\libc.a(lib_a-stdio.o) (_close_r)
C:\Andestech\AndeSight211RDS\toolchains\nds32le-elf-mculib-v3m\nds32le-elf\libc\mculib\usr\lib\libc.a(lib_a-fclose.o)
                              C:\Andestech\AndeSight211RDS\toolchains\nds32le-elf-mculib-v3m\nds32le-elf\libc\mculib\usr\lib\libc.a(lib_a-findfp.o) (fclose)
C:\Andestech\AndeSight211RDS\toolchains\nds32le-elf-mculib-v3m\nds32le-elf\libc\mculib\usr\lib\libc.a(lib_a-fstatr.o)
                              C:\Andestech\AndeSight211RDS\toolchains\nds32le-elf-mculib-v3m\nds32le-elf\libc\mculib\usr\lib\libc.a(lib_a-makebuf.o) (_fstat_r)
C:\Andestech\AndeSight211RDS\toolchains\nds32le-elf-mculib-v3m\nds32le-elf\libc\mculib\usr\lib\libc.a(lib_a-isattyr.o)
                              C:\Andestech\AndeSight211RDS\toolchains\nds32le-elf-mculib-v3m\nds32le-elf\libc\mculib\usr\lib\libc.a(lib_a-makebuf.o) (_isatty_r)
C:\Andestech\AndeSight211RDS\toolchains\nds32le-elf-mculib-v3m\nds32le-elf\libc\mculib\usr\lib\libc.a(lib_a-lseekr.o)
                              C:\Andestech\AndeSight211RDS\toolchains\nds32le-elf-mculib-v3m\nds32le-elf\libc\mculib\usr\lib\libc.a(lib_a-stdio.o) (_lseek_r)
C:\Andestech\AndeSight211RDS\toolchains\nds32le-elf-mculib-v3m\nds32le-elf\libc\mculib\usr\lib\libc.a(lib_a-readr.o)
                              C:\Andestech\AndeSight211RDS\toolchains\nds32le-elf-mculib-v3m\nds32le-elf\libc\mculib\usr\lib\libc.a(lib_a-stdio.o) (_read_r)
C:\Andestech\AndeSight211RDS\toolchains\nds32le-elf-mculib-v3m\lib\gcc\nds32le-elf\4.4.4\mculib\libgcc.a(_sf_to_df.o)
                              /cygdrive/c/Airoha/AiroBlueSDK/AB1600_1_0_5_0/projects/Remote/output/remote_microphone.o (__extendsfdf2)
C:\Andestech\AndeSight211RDS\toolchains\nds32le-elf-mculib-v3m\lib\gcc\nds32le-elf\4.4.4\mculib\libgcc.a(_mul_df.o)
                              /cygdrive/c/Airoha/AiroBlueSDK/AB1600_1_0_5_0/projects/Remote/output/remote_microphone.o (__muldf3)
C:\Andestech\AndeSight211RDS\toolchains\nds32le-elf-mculib-v3m\lib\gcc\nds32le-elf\4.4.4\mculib\libgcc.a(_compare_df.o)
                              /cygdrive/c/Airoha/AiroBlueSDK/AB1600_1_0_5_0/projects/Remote/output/remote_microphone.o (__ltdf2)
C:\Andestech\AndeSight211RDS\toolchains\nds32le-elf-mculib-v3m\lib\gcc\nds32le-elf\4.4.4\mculib\libgcc.a(_fixunsdfsi.o)
                              /cygdrive/c/Airoha/AiroBlueSDK/AB1600_1_0_5_0/projects/Remote/output/remote_microphone.o (__fixunsdfsi)
C:\Andestech\AndeSight211RDS\toolchains\nds32le-elf-mculib-v3m\lib\gcc\nds32le-elf\4.4.4\mculib\libgcc.a(_muldi3.o)
                              C:\Andestech\AndeSight211RDS\toolchains\nds32le-elf-mculib-v3m\nds32le-elf\libc\mculib\usr\lib\libm.a(gf_dpexlog.o) (__muldi3)
C:\Andestech\AndeSight211RDS\toolchains\nds32le-elf-mculib-v3m\lib\gcc\nds32le-elf\4.4.4\mculib\libgcc.a(_lshrdi3.o)
                              C:\Andestech\AndeSight211RDS\toolchains\nds32le-elf-mculib-v3m\nds32le-elf\libc\mculib\usr\lib\libc.a(xint2dec.o) (__lshrdi3)
C:\Andestech\AndeSight211RDS\toolchains\nds32le-elf-mculib-v3m\lib\gcc\nds32le-elf\4.4.4\mculib\libgcc.a(_ashldi3.o)
                              C:\Andestech\AndeSight211RDS\toolchains\nds32le-elf-mculib-v3m\nds32le-elf\libc\mculib\usr\lib\libc.a(xint2dec.o) (__ashldi3)
C:\Andestech\AndeSight211RDS\toolchains\nds32le-elf-mculib-v3m\lib\gcc\nds32le-elf\4.4.4\mculib\libgcc.a(_udivdi3.o)
                              C:\Andestech\AndeSight211RDS\toolchains\nds32le-elf-mculib-v3m\nds32le-elf\libc\mculib\usr\lib\libc.a(lib_a-vfiprintf.o) (__udivdi3)
C:\Andestech\AndeSight211RDS\toolchains\nds32le-elf-mculib-v3m\lib\gcc\nds32le-elf\4.4.4\mculib\libgcc.a(_umoddi3.o)
                              C:\Andestech\AndeSight211RDS\toolchains\nds32le-elf-mculib-v3m\nds32le-elf\libc\mculib\usr\lib\libc.a(lib_a-vfiprintf.o) (__umoddi3)
C:\Andestech\AndeSight211RDS\toolchains\nds32le-elf-mculib-v3m\lib\gcc\nds32le-elf\4.4.4\mculib\libgcc.a(_udivmoddi4.o)
                              C:\Andestech\AndeSight211RDS\toolchains\nds32le-elf-mculib-v3m\lib\gcc\nds32le-elf\4.4.4\mculib\libgcc.a(_udivdi3.o) (__udivmoddi4)
C:\Andestech\AndeSight211RDS\toolchains\nds32le-elf-mculib-v3m\lib\gcc\nds32le-elf\4.4.4\mculib\libgcc.a(_mul_sf.o)
                              /cygdrive/c/Airoha/AiroBlueSDK/AB1600_1_0_5_0/projects/Remote/output/remote_microphone.o (__mulsf3)
C:\Andestech\AndeSight211RDS\toolchains\nds32le-elf-mculib-v3m\lib\gcc\nds32le-elf\4.4.4\mculib\libgcc.a(_div_sf.o)
                              /cygdrive/c/Airoha/AiroBlueSDK/AB1600_1_0_5_0/projects/Remote/output/remote_microphone.o (__divsf3)
C:\Andestech\AndeSight211RDS\toolchains\nds32le-elf-mculib-v3m\lib\gcc\nds32le-elf\4.4.4\mculib\libgcc.a(_floatunsisf.o)
                              /cygdrive/c/Airoha/AiroBlueSDK/AB1600_1_0_5_0/projects/Remote/output/remote_microphone.o (__floatunsisf)
C:\Andestech\AndeSight211RDS\toolchains\nds32le-elf-mculib-v3m\lib\gcc\nds32le-elf\4.4.4\mculib\libgcc.a(_floatunsidf.o)
                              /cygdrive/c/Airoha/AiroBlueSDK/AB1600_1_0_5_0/projects/Remote/output/remote_microphone.o (__floatunsidf)
C:\Andestech\AndeSight211RDS\toolchains\nds32le-elf-mculib-v3m\lib\gcc\nds32le-elf\4.4.4\mculib\libgcc.a(clz.o)
                              C:\Andestech\AndeSight211RDS\toolchains\nds32le-elf-mculib-v3m\nds32le-elf\libc\mculib\usr\lib\libm.a(lib_a-w_log10.o) (countLeadingZeros32)

Allocating common symbols
Common symbol       size              file

_NDS32_REENT_(short, float)
                    0x138             C:\Andestech\AndeSight211RDS\toolchains\nds32le-elf-mculib-v3m\nds32le-elf\libc\mculib\usr\lib\libc.a(lib_a-data-stdio.o)
mouse_enable_request
                    0x1               /cygdrive/c/Airoha/AiroBlueSDK/AB1600_1_0_5_0/projects/Remote/output/remote_mouse.o
att_transaction_mask
                    0x2               components/BT/release/\libbtcore.a(ble_att.o)
errno               0x4               C:\Andestech\AndeSight211RDS\toolchains\nds32le-elf-mculib-v3m\nds32le-elf\libc\mculib\usr\lib\libc.a(lib_a-reent_errno.o)
gATT_HeadPWQ        0x40              components/BT/release/\libbtcore.a(ble_att.o)
ble_conn_handle     0x2               /cygdrive/c/Airoha/AiroBlueSDK/AB1600_1_0_5_0/projects/Remote/output/remote.o
lData               0xc               /cygdrive/c/Airoha/AiroBlueSDK/AB1600_1_0_5_0/projects/Remote/output/remote_mouse.o
mLastQ              0x10              components/Libraries/external/AML/\libAML.a(RollCompFullDynamic3D.o)
gatt_evt_size       0x2               components/BT/release/\libbtcore.a(ble_gatt_client.o)
mouse_disable_request
                    0x1               /cygdrive/c/Airoha/AiroBlueSDK/AB1600_1_0_5_0/projects/Remote/output/remote_mouse.o
RC_hids_report4     0x1               /cygdrive/c/Airoha/AiroBlueSDK/AB1600_1_0_5_0/projects/Remote/output/remote_gatt.o
mouse_10ms_time_out
                    0x1               /cygdrive/c/Airoha/AiroBlueSDK/AB1600_1_0_5_0/projects/Remote/output/remote_mouse.o
boot                0xc               /cygdrive/c/Airoha/AiroBlueSDK/AB1600_1_0_5_0/projects/Remote/output/remote.o
lSensorSamples      0xe               /cygdrive/c/Airoha/AiroBlueSDK/AB1600_1_0_5_0/projects/Remote/output/remote_mouse.o
gATT_ctl            0x68              components/BT/release/\libbtcore.a(ble_att.o)
RC_hids_report3     0x3               /cygdrive/c/Airoha/AiroBlueSDK/AB1600_1_0_5_0/projects/Remote/output/remote_gatt.o
gatt_evt            0x4               components/BT/release/\libbtcore.a(ble_gatt_client.o)
ppara               0x4               components/BT/release/\libbtcore.a(ble_gatt_client.o)
RC_hids_report2     0x14              /cygdrive/c/Airoha/AiroBlueSDK/AB1600_1_0_5_0/projects/Remote/output/remote_gatt.o
mAxHyster           0x1               components/Libraries/external/AML/\libAML.a(RollCompFullDynamic3D.o)
RC_hids_report1     0x3               /cygdrive/c/Airoha/AiroBlueSDK/AB1600_1_0_5_0/projects/Remote/output/remote_gatt.o
mLastGx             0x2               components/Libraries/external/AML/\libAML.a(RollCompFullDynamic3D.o)
report2_handle      0x2               /cygdrive/c/Airoha/AiroBlueSDK/AB1600_1_0_5_0/projects/Remote/output/remote_gatt.o
l2_ch               0x80              components/BT/release/\libbtcore.a(ble_l2cap.o)
mBwAxStruct         0x8               components/Libraries/external/AML/\libAML.a(RollCompFullDynamic3D.o)
idx                 0x2               /cygdrive/c/Airoha/AiroBlueSDK/AB1600_1_0_5_0/projects/Remote/output/spl/components/Libraries/external/ADPCM/g726_enc_32.o
ble_current_peer    0x7               /cygdrive/c/Airoha/AiroBlueSDK/AB1600_1_0_5_0/projects/Remote/output/remote.o
mLastGy             0x2               components/Libraries/external/AML/\libAML.a(RollCompFullDynamic3D.o)
mGyrSFactor         0x2               components/Libraries/external/AML/\libAML.a(RollCompFullDynamic3D.o)
addr                0x6               components/BT/release/\libbtcore.a(sm_hal.o)
report3_handle      0x2               /cygdrive/c/Airoha/AiroBlueSDK/AB1600_1_0_5_0/projects/Remote/output/remote_gatt.o
previndex           0x2               /cygdrive/c/Airoha/AiroBlueSDK/AB1600_1_0_5_0/projects/Remote/output/spl/components/Libraries/external/ima_adpcm/ima_enc.o
mAccStruct          0x6               components/Libraries/external/AML/\libAML.a(RollCompFullDynamic3D.o)
RC_hids_cp          0x1               /cygdrive/c/Airoha/AiroBlueSDK/AB1600_1_0_5_0/projects/Remote/output/remote_gatt.o
mAngle              0x4               components/Libraries/external/AML/\libAML.a(RollCompFullDynamic3D.o)
mLastGz             0x2               components/Libraries/external/AML/\libAML.a(RollCompFullDynamic3D.o)
filt_state          0xa0              /cygdrive/c/Airoha/AiroBlueSDK/AB1600_1_0_5_0/projects/Remote/output/spl/components/Libraries/external/ADPCM/g726_enc_32.o
mAccSFactor         0x2               components/Libraries/external/AML/\libAML.a(RollCompFullDynamic3D.o)
report4_handle      0x2               /cygdrive/c/Airoha/AiroBlueSDK/AB1600_1_0_5_0/projects/Remote/output/remote_gatt.o
ble_bonded_peer     0x7               /cygdrive/c/Airoha/AiroBlueSDK/AB1600_1_0_5_0/projects/Remote/output/remote.o
mLastAccStruct      0x6               components/Libraries/external/AML/\libAML.a(RollCompFullDynamic3D.o)
att_transaction_mask_TO
                    0x2               components/BT/release/\libbtcore.a(ble_att.o)
report1_handle      0x2               /cygdrive/c/Airoha/AiroBlueSDK/AB1600_1_0_5_0/projects/Remote/output/remote_gatt.o
gAttClient          0x8               components/BT/release/\libbtcore.a(ble_att.o)
gSM_ctl             0x2               components/BT/release/\libbtcore.a(sm.o)
ble_slave_latency   0x2               /cygdrive/c/Airoha/AiroBlueSDK/AB1600_1_0_5_0/projects/Remote/output/remote.o
RC_adpcm_codecsel   0x1               /cygdrive/c/Airoha/AiroBlueSDK/AB1600_1_0_5_0/projects/Remote/output/remote_gatt.o
mouse_motion_detected
                    0x1               /cygdrive/c/Airoha/AiroBlueSDK/AB1600_1_0_5_0/projects/Remote/output/remote_mouse.o
prevsample          0x2               /cygdrive/c/Airoha/AiroBlueSDK/AB1600_1_0_5_0/projects/Remote/output/spl/components/Libraries/external/ima_adpcm/ima_enc.o
mGyrMaxThreshold    0x2               components/Libraries/external/AML/\libAML.a(RollCompFullDynamic3D.o)
gATT_Server         0x4               components/BT/release/\libbtcore.a(ble_att.o)
ATT_SDK_SERVER_SIZE
                    0x2               components/BT/release/\libbtcore.a(ble_att.o)
gSMPairingData      0x40              components/BT/release/\libbtcore.a(sm.o)
recon_addr          0x6               /cygdrive/c/Airoha/AiroBlueSDK/AB1600_1_0_5_0/projects/Remote/output/remote_gatt.o
randAddr            0xc               components/BT/release/\libbtcore.a(sm_hal.o)
gATT_TailPWQ        0x40              components/BT/release/\libbtcore.a(ble_att.o)
mStableAxHysStruct  0x4               components/Libraries/external/AML/\libAML.a(RollCompFullDynamic3D.o)
ACCO                0x6               /cygdrive/c/Airoha/AiroBlueSDK/AB1600_1_0_5_0/projects/Remote/output/remote_mouse.o
IsWakeGpioProcess   0x1               /cygdrive/c/Airoha/AiroBlueSDK/AB1600_1_0_5_0/projects/Remote/output/remote_gpio.o

Discarded input sections

 .text          0x00000000        0x0 /cygdrive/c/Airoha/AiroBlueSDK/AB1600_1_0_5_0/projects/Remote/output/pj/components/Device/AB1600/cfg_sector.o
 .data          0x00000000        0x0 /cygdrive/c/Airoha/AiroBlueSDK/AB1600_1_0_5_0/projects/Remote/output/pj/components/Device/AB1600/cfg_sector.o
 .bss           0x00000000        0x0 /cygdrive/c/Airoha/AiroBlueSDK/AB1600_1_0_5_0/projects/Remote/output/pj/components/Device/AB1600/cfg_sector.o
 .text          0x00000000        0x0 /cygdrive/c/Airoha/AiroBlueSDK/AB1600_1_0_5_0/projects/Remote/output/pj/components/Libraries/hci_devices/hci_spi_1602.o
 .data          0x00000000        0x0 /cygdrive/c/Airoha/AiroBlueSDK/AB1600_1_0_5_0/projects/Remote/output/pj/components/Libraries/hci_devices/hci_spi_1602.o
 .bss           0x00000000        0x0 /cygdrive/c/Airoha/AiroBlueSDK/AB1600_1_0_5_0/projects/Remote/output/pj/components/Libraries/hci_devices/hci_spi_1602.o
 .text          0x00000000        0x0 /cygdrive/c/Airoha/AiroBlueSDK/AB1600_1_0_5_0/projects/Remote/output/pj/components/BT/release/bt_patch/1602_patching.o
 .data          0x00000000        0x0 /cygdrive/c/Airoha/AiroBlueSDK/AB1600_1_0_5_0/projects/Remote/output/pj/components/BT/release/bt_patch/1602_patching.o
 .bss           0x00000000        0x0 /cygdrive/c/Airoha/AiroBlueSDK/AB1600_1_0_5_0/projects/Remote/output/pj/components/BT/release/bt_patch/1602_patching.o
 .text          0x00000000        0x0 /cygdrive/c/Airoha/AiroBlueSDK/AB1600_1_0_5_0/projects/Remote/output/main.o
 .text          0x00000000        0x0 /cygdrive/c/Airoha/AiroBlueSDK/AB1600_1_0_5_0/projects/Remote/output/remote.o
 .data          0x00000000        0x0 /cygdrive/c/Airoha/AiroBlueSDK/AB1600_1_0_5_0/projects/Remote/output/remote.o
 .text.remote_mic_dbg_init
                0x00000000        0x0 /cygdrive/c/Airoha/AiroBlueSDK/AB1600_1_0_5_0/projects/Remote/output/remote.o
 .text.remote_usage_dependent_init
                0x00000000        0x0 /cygdrive/c/Airoha/AiroBlueSDK/AB1600_1_0_5_0/projects/Remote/output/remote.o
 .text.remote_check_is_device_bonded
                0x00000000        0x0 /cygdrive/c/Airoha/AiroBlueSDK/AB1600_1_0_5_0/projects/Remote/output/remote.o
 .text          0x00000000        0x0 /cygdrive/c/Airoha/AiroBlueSDK/AB1600_1_0_5_0/projects/Remote/output/remote_button.o
 .text          0x00000000        0x0 /cygdrive/c/Airoha/AiroBlueSDK/AB1600_1_0_5_0/projects/Remote/output/remote_mouse.o
 .text.remote_switch_mouse_sensitivity
                0x00000000        0x0 /cygdrive/c/Airoha/AiroBlueSDK/AB1600_1_0_5_0/projects/Remote/output/remote_mouse.o
 .sdata_h       0x00000000        0x0 /cygdrive/c/Airoha/AiroBlueSDK/AB1600_1_0_5_0/projects/Remote/output/remote_mouse.o
 .sdata_b       0x00000000        0x0 /cygdrive/c/Airoha/AiroBlueSDK/AB1600_1_0_5_0/projects/Remote/output/remote_mouse.o
 .text          0x00000000        0x0 /cygdrive/c/Airoha/AiroBlueSDK/AB1600_1_0_5_0/projects/Remote/output/remote_microphone.o
 .data          0x00000000        0x0 /cygdrive/c/Airoha/AiroBlueSDK/AB1600_1_0_5_0/projects/Remote/output/remote_microphone.o
 .text.mic_hw_dbg_port_enable
                0x00000000        0x0 /cygdrive/c/Airoha/AiroBlueSDK/AB1600_1_0_5_0/projects/Remote/output/remote_microphone.o
 .text._remote_mic_raw_to_uart
                0x00000000        0x0 /cygdrive/c/Airoha/AiroBlueSDK/AB1600_1_0_5_0/projects/Remote/output/remote_microphone.o
 .text          0x00000000        0x0 /cygdrive/c/Airoha/AiroBlueSDK/AB1600_1_0_5_0/projects/Remote/output/remote_gatt.o
 .text          0x00000000        0x0 /cygdrive/c/Airoha/AiroBlueSDK/AB1600_1_0_5_0/projects/Remote/output/remote_adv.o
 .data          0x00000000        0x0 /cygdrive/c/Airoha/AiroBlueSDK/AB1600_1_0_5_0/projects/Remote/output/remote_adv.o
 .bss           0x00000000        0x0 /cygdrive/c/Airoha/AiroBlueSDK/AB1600_1_0_5_0/projects/Remote/output/remote_adv.o
 .text.remote_dir_adv
                0x00000000        0x0 /cygdrive/c/Airoha/AiroBlueSDK/AB1600_1_0_5_0/projects/Remote/output/remote_adv.o
 .text.remote_ble_dir_adv_enable_cb
                0x00000000        0x0 /cygdrive/c/Airoha/AiroBlueSDK/AB1600_1_0_5_0/projects/Remote/output/remote_adv.o
 .text._remote_stop_diradv_cb
                0x00000000        0x0 /cygdrive/c/Airoha/AiroBlueSDK/AB1600_1_0_5_0/projects/Remote/output/remote_adv.o
 .text._remote_dir_adv_TO
                0x00000000        0x0 /cygdrive/c/Airoha/AiroBlueSDK/AB1600_1_0_5_0/projects/Remote/output/remote_adv.o
 .text          0x00000000        0x0 /cygdrive/c/Airoha/AiroBlueSDK/AB1600_1_0_5_0/projects/Remote/output/remote_led.o
 .data          0x00000000        0x0 /cygdrive/c/Airoha/AiroBlueSDK/AB1600_1_0_5_0/projects/Remote/output/remote_led.o
 .text          0x00000000        0x0 /cygdrive/c/Airoha/AiroBlueSDK/AB1600_1_0_5_0/projects/Remote/output/remote_gpio.o
 .data          0x00000000        0x0 /cygdrive/c/Airoha/AiroBlueSDK/AB1600_1_0_5_0/projects/Remote/output/remote_gpio.o
 .bss           0x00000000        0x0 /cygdrive/c/Airoha/AiroBlueSDK/AB1600_1_0_5_0/projects/Remote/output/remote_gpio.o
 .text.remote_gpio_init
                0x00000000        0x0 /cygdrive/c/Airoha/AiroBlueSDK/AB1600_1_0_5_0/projects/Remote/output/remote_gpio.o
 .rodata.str1.4
                0x00000000        0x0 /cygdrive/c/Airoha/AiroBlueSDK/AB1600_1_0_5_0/projects/Remote/output/remote_gpio.o
 .text.TimerCallbackFunc
                0x00000000        0x0 /cygdrive/c/Airoha/AiroBlueSDK/AB1600_1_0_5_0/projects/Remote/output/remote_gpio.o
 .text.gpio_detect_intr
                0x00000000        0x0 /cygdrive/c/Airoha/AiroBlueSDK/AB1600_1_0_5_0/projects/Remote/output/remote_gpio.o
 .text          0x00000000        0x0 /cygdrive/c/Airoha/AiroBlueSDK/AB1600_1_0_5_0/projects/Remote/output/remote_vcmd.o
 .data          0x00000000        0x0 /cygdrive/c/Airoha/AiroBlueSDK/AB1600_1_0_5_0/projects/Remote/output/remote_vcmd.o
 .bss           0x00000000        0x0 /cygdrive/c/Airoha/AiroBlueSDK/AB1600_1_0_5_0/projects/Remote/output/remote_vcmd.o
 .data          0x00000000        0x0 /cygdrive/c/Airoha/AiroBlueSDK/AB1600_1_0_5_0/projects/Remote/output/spl/components/Libraries/external/ICM_20688_spi/mtd.o
 .bss           0x00000000        0x0 /cygdrive/c/Airoha/AiroBlueSDK/AB1600_1_0_5_0/projects/Remote/output/spl/components/Libraries/external/ADPCM/g72x.o
 .data          0x00000000        0x0 /cygdrive/c/Airoha/AiroBlueSDK/AB1600_1_0_5_0/projects/Remote/output/spl/components/Libraries/external/ima_adpcm/ima_enc.o
 .bss           0x00000000        0x0 /cygdrive/c/Airoha/AiroBlueSDK/AB1600_1_0_5_0/projects/Remote/output/spl/components/Libraries/external/ima_adpcm/ima_enc.o
 .text          0x00000000        0x0 components/BT/release/hci_protocol_1602.o
 .data          0x00000000        0x0 components/BT/release/hci_protocol_1602.o
 .data          0x00000000        0x0 components/Libraries/external/AML/\libAML.a(AIR_MOTION_Lib.o)
 .data          0x00000000        0x0 components/Libraries/external/AML/\libAML.a(RollCompFullDynamic3D.o)
 .bss           0x00000000        0x0 components/Libraries/external/AML/\libAML.a(RollCompFullDynamic3D.o)
 .text          0x00000000        0x0 components/Libraries/external/algo/\libalg.a(ab_adc.o)
 .data          0x00000000        0x0 components/Libraries/external/algo/\libalg.a(ab_adc.o)
 .text.PowerFail_IntrHandler
                0x00000000        0x0 components/Libraries/external/algo/\libalg.a(ab_adc.o)
 .text.AB_ADC_PowerFail_Monitor
                0x00000000        0x0 components/Libraries/external/algo/\libalg.a(ab_adc.o)
 .text.AB_ADC_Get_Level
                0x00000000        0x0 components/Libraries/external/algo/\libalg.a(ab_adc.o)
 .text          0x00000000        0x0 components/Libraries/external/algo/\libalg.a(ab_clk.o)
 .data          0x00000000        0x0 components/Libraries/external/algo/\libalg.a(ab_clk.o)
 .bss           0x00000000        0x0 components/Libraries/external/algo/\libalg.a(ab_clk.o)
 .text          0x00000000        0x0 components/Libraries/external/algo/\libalg.a(ab_assert.o)
 .data          0x00000000        0x0 components/Libraries/external/algo/\libalg.a(ab_assert.o)
 .bss           0x00000000        0x0 components/Libraries/external/algo/\libalg.a(ab_assert.o)
 .text          0x00000000        0x0 components/Libraries/external/algo/\libalg.a(ab_flash.o)
 .data          0x00000000        0x0 components/Libraries/external/algo/\libalg.a(ab_flash.o)
 .bss           0x00000000        0x0 components/Libraries/external/algo/\libalg.a(ab_flash.o)
 .text.AB_Flash_UnLock
                0x00000000        0x0 components/Libraries/external/algo/\libalg.a(ab_flash.o)
 .text.AB_Flash_Lock
                0x00000000        0x0 components/Libraries/external/algo/\libalg.a(ab_flash.o)
 .text          0x00000000        0x0 components/Libraries/external/algo/\libalg.a(ab_led.o)
 .data          0x00000000        0x0 components/Libraries/external/algo/\libalg.a(ab_led.o)
 .bss           0x00000000        0x0 components/Libraries/external/algo/\libalg.a(ab_led.o)
 .text.AB_LED_follow_start
                0x00000000        0x0 components/Libraries/external/algo/\libalg.a(ab_led.o)
 .text          0x00000000        0x0 components/Libraries/external/algo/\libalg.a(ab_malloc_hook.o)
 .data          0x00000000        0x0 components/Libraries/external/algo/\libalg.a(ab_malloc_hook.o)
 .bss           0x00000000        0x0 components/Libraries/external/algo/\libalg.a(ab_malloc_hook.o)
 .text.ab_malloc_total
                0x00000000        0x0 components/Libraries/external/algo/\libalg.a(ab_malloc_hook.o)
 .text.ab_malloc_used
                0x00000000        0x0 components/Libraries/external/algo/\libalg.a(ab_malloc_hook.o)
 .text.ab_malloc_max_used
                0x00000000        0x0 components/Libraries/external/algo/\libalg.a(ab_malloc_hook.o)
 .text          0x00000000        0x0 components/Libraries/external/algo/\libalg.a(ab_printf_hook.o)
 .data          0x00000000        0x0 components/Libraries/external/algo/\libalg.a(ab_printf_hook.o)
 .bss           0x00000000        0x0 components/Libraries/external/algo/\libalg.a(ab_printf_hook.o)
 .text          0x00000000        0x0 components/Libraries/external/algo/\libalg.a(ab_pwr.o)
 .data          0x00000000        0x0 components/Libraries/external/algo/\libalg.a(ab_pwr.o)
 .text.AB_PWR_Off
                0x00000000        0x0 components/Libraries/external/algo/\libalg.a(ab_pwr.o)
 .text          0x00000000        0x0 components/Libraries/external/algo/\libalg.a(ab_queue.o)
 .data          0x00000000        0x0 components/Libraries/external/algo/\libalg.a(ab_queue.o)
 .bss           0x00000000        0x0 components/Libraries/external/algo/\libalg.a(ab_queue.o)
 .text.AB_queue_first
                0x00000000        0x0 components/Libraries/external/algo/\libalg.a(ab_queue.o)
 .text.AB_queue_next
                0x00000000        0x0 components/Libraries/external/algo/\libalg.a(ab_queue.o)
 .text.AB_queue_insert_after
                0x00000000        0x0 components/Libraries/external/algo/\libalg.a(ab_queue.o)
 .text          0x00000000        0x0 components/Libraries/external/algo/\libalg.a(ab_mp_sector.o)
 .data          0x00000000        0x0 components/Libraries/external/algo/\libalg.a(ab_mp_sector.o)
 .bss           0x00000000        0x0 components/Libraries/external/algo/\libalg.a(ab_mp_sector.o)
 .text          0x00000000        0x0 components/Libraries/external/algo/\libalg.a(ab_spi.o)
 .data          0x00000000        0x0 components/Libraries/external/algo/\libalg.a(ab_spi.o)
 .text          0x00000000        0x0 components/Libraries/external/algo/\libalg.a(bsp_generic.o)
 .data          0x00000000        0x0 components/Libraries/external/algo/\libalg.a(bsp_generic.o)
 .text.AB_BSP_init_with_console
                0x00000000        0x0 components/Libraries/external/algo/\libalg.a(bsp_generic.o)
 .text.AB_BSP_init
                0x00000000        0x0 components/Libraries/external/algo/\libalg.a(bsp_generic.o)
 .text          0x00000000        0x0 components/Libraries/external/algo/\libalg.a(ab_timer.o)
 .data          0x00000000        0x0 components/Libraries/external/algo/\libalg.a(ab_timer.o)
 .text.AB_Timer_GetTick
                0x00000000        0x0 components/Libraries/external/algo/\libalg.a(ab_timer.o)
 .text.AB_Timer_Enable
                0x00000000        0x0 components/Libraries/external/algo/\libalg.a(ab_timer.o)
 .text          0x00000000        0x0 components/Libraries/external/algo/\libalg.a(ab_uart.o)
 .data          0x00000000        0x0 components/Libraries/external/algo/\libalg.a(ab_uart.o)
 .text.AB_UART_RxRecidue
                0x00000000        0x0 components/Libraries/external/algo/\libalg.a(ab_uart.o)
 .text          0x00000000        0x0 components/Libraries/external/algo/\libalg.a(ab_airoha_vcmd.o)
 .text          0x00000000        0x0 components/Libraries/external/algo/\libalg.a(drv_adc.o)
 .data          0x00000000        0x0 components/Libraries/external/algo/\libalg.a(drv_adc.o)
 .text          0x00000000        0x0 components/Libraries/external/algo/\libalg.a(drv_clk.o)
 .data          0x00000000        0x0 components/Libraries/external/algo/\libalg.a(drv_clk.o)
 .bss           0x00000000        0x0 components/Libraries/external/algo/\libalg.a(drv_clk.o)
 .text          0x00000000        0x0 components/Libraries/external/algo/\libalg.a(drv_flash.o)
 .data          0x00000000        0x0 components/Libraries/external/algo/\libalg.a(drv_flash.o)
 .bss           0x00000000        0x0 components/Libraries/external/algo/\libalg.a(drv_flash.o)
 .text.DRV_Flash_ByteRead
                0x00000000        0x0 components/Libraries/external/algo/\libalg.a(drv_flash.o)
 .text.DRV_Flash_PageRead
                0x00000000        0x0 components/Libraries/external/algo/\libalg.a(drv_flash.o)
 .text.DRV_Flash_Protection
                0x00000000        0x0 components/Libraries/external/algo/\libalg.a(drv_flash.o)
 .text.DRV_Flash_ChipErase
                0x00000000        0x0 components/Libraries/external/algo/\libalg.a(drv_flash.o)
 .text          0x00000000        0x0 components/Libraries/external/algo/\libalg.a(drv_gpio.o)
 .data          0x00000000        0x0 components/Libraries/external/algo/\libalg.a(drv_gpio.o)
 .text.DRV_Gpio_PinValSet
                0x00000000        0x0 components/Libraries/external/algo/\libalg.a(drv_gpio.o)
 .text.DRV_Gpio_InvSet
                0x00000000        0x0 components/Libraries/external/algo/\libalg.a(drv_gpio.o)
 .text.DRV_Gpio_DirGet
                0x00000000        0x0 components/Libraries/external/algo/\libalg.a(drv_gpio.o)
 .text.DRV_Gpio_ValGet
                0x00000000        0x0 components/Libraries/external/algo/\libalg.a(drv_gpio.o)
 .text.DRV_Gpio_LatchedIntStsGet
                0x00000000        0x0 components/Libraries/external/algo/\libalg.a(drv_gpio.o)
 .text.DRV_Gpio_InvGet
                0x00000000        0x0 components/Libraries/external/algo/\libalg.a(drv_gpio.o)
 .text.DRV_Gpio_PinPullGet
                0x00000000        0x0 components/Libraries/external/algo/\libalg.a(drv_gpio.o)
 .text          0x00000000        0x0 components/Libraries/external/algo/\libalg.a(drv_odgpio.o)
 .data          0x00000000        0x0 components/Libraries/external/algo/\libalg.a(drv_odgpio.o)
 .bss           0x00000000        0x0 components/Libraries/external/algo/\libalg.a(drv_odgpio.o)
 .text.DRV_OdGpio_OeSet
                0x00000000        0x0 components/Libraries/external/algo/\libalg.a(drv_odgpio.o)
 .text.DRV_OdGpio_ValSet
                0x00000000        0x0 components/Libraries/external/algo/\libalg.a(drv_odgpio.o)
 .text.Drv_OdGpioDirGet
                0x00000000        0x0 components/Libraries/external/algo/\libalg.a(drv_odgpio.o)
 .text.DRV_OdGpio_ValGet
                0x00000000        0x0 components/Libraries/external/algo/\libalg.a(drv_odgpio.o)
 .text          0x00000000        0x0 components/Libraries/external/algo/\libalg.a(drv_keyscan.o)
 .data          0x00000000        0x0 components/Libraries/external/algo/\libalg.a(drv_keyscan.o)
 .text          0x00000000        0x0 components/Libraries/external/algo/\libalg.a(drv_led.o)
 .data          0x00000000        0x0 components/Libraries/external/algo/\libalg.a(drv_led.o)
 .bss           0x00000000        0x0 components/Libraries/external/algo/\libalg.a(drv_led.o)
 .text          0x00000000        0x0 components/Libraries/external/algo/\libalg.a(drv_mic.o)
 .data          0x00000000        0x0 components/Libraries/external/algo/\libalg.a(drv_mic.o)
 .text.DRV_Mic_DeInit
                0x00000000        0x0 components/Libraries/external/algo/\libalg.a(drv_mic.o)
 .text          0x00000000        0x0 components/Libraries/external/algo/\libalg.a(drv_odpinmux.o)
 .data          0x00000000        0x0 components/Libraries/external/algo/\libalg.a(drv_odpinmux.o)
 .bss           0x00000000        0x0 components/Libraries/external/algo/\libalg.a(drv_odpinmux.o)
 .text.DRV_OdPinMux_GrpGet
                0x00000000        0x0 components/Libraries/external/algo/\libalg.a(drv_odpinmux.o)
 .text.DRV_OdPinMux_SigGet
                0x00000000        0x0 components/Libraries/external/algo/\libalg.a(drv_odpinmux.o)
 .text          0x00000000        0x0 components/Libraries/external/algo/\libalg.a(drv_pinmux.o)
 .data          0x00000000        0x0 components/Libraries/external/algo/\libalg.a(drv_pinmux.o)
 .bss           0x00000000        0x0 components/Libraries/external/algo/\libalg.a(drv_pinmux.o)
 .text.DRV_PinMux_AioGet
                0x00000000        0x0 components/Libraries/external/algo/\libalg.a(drv_pinmux.o)
 .text.DRV_PinMux_GrpGet
                0x00000000        0x0 components/Libraries/external/algo/\libalg.a(drv_pinmux.o)
 .text.DRV_PinMux_SigGet
                0x00000000        0x0 components/Libraries/external/algo/\libalg.a(drv_pinmux.o)
 .text.DRV_PinMux_AioSet
                0x00000000        0x0 components/Libraries/external/algo/\libalg.a(drv_pinmux.o)
 .text          0x00000000        0x0 components/Libraries/external/algo/\libalg.a(drv_pwr.o)
 .data          0x00000000        0x0 components/Libraries/external/algo/\libalg.a(drv_pwr.o)
 .bss           0x00000000        0x0 components/Libraries/external/algo/\libalg.a(drv_pwr.o)
 .text.DRV_Pwr_SetRegenNoPull
                0x00000000        0x0 components/Libraries/external/algo/\libalg.a(drv_pwr.o)
 .text          0x00000000        0x0 components/Libraries/external/algo/\libalg.a(drv_spi.o)
 .data          0x00000000        0x0 components/Libraries/external/algo/\libalg.a(drv_spi.o)
 .text          0x00000000        0x0 components/Libraries/external/algo/\libalg.a(drv_timer32b0.o)
 .data          0x00000000        0x0 components/Libraries/external/algo/\libalg.a(drv_timer32b0.o)
 .text.DRV_TMR32B0_Reset
                0x00000000        0x0 components/Libraries/external/algo/\libalg.a(drv_timer32b0.o)
 .text.DRV_TMR32B0_Enable_Ext
                0x00000000        0x0 components/Libraries/external/algo/\libalg.a(drv_timer32b0.o)
 .text          0x00000000        0x0 components/Libraries/external/algo/\libalg.a(drv_uart.o)
 .data          0x00000000        0x0 components/Libraries/external/algo/\libalg.a(drv_uart.o)
 .text.DRV_Uart_Check
                0x00000000        0x0 components/Libraries/external/algo/\libalg.a(drv_uart.o)
 .text          0x00000000        0x0 components/Libraries/external/algo/\libalg.a(drv_wdt.o)
 .data          0x00000000        0x0 components/Libraries/external/algo/\libalg.a(drv_wdt.o)
 .bss           0x00000000        0x0 components/Libraries/external/algo/\libalg.a(drv_wdt.o)
 .text.DRV_WDT_LastPC
                0x00000000        0x0 components/Libraries/external/algo/\libalg.a(drv_wdt.o)
 .text          0x00000000        0x0 components/Libraries/external/algo/\libalg.a(service_battery.o)
 .data          0x00000000        0x0 components/Libraries/external/algo/\libalg.a(service_battery.o)
 .text          0x00000000        0x0 components/Libraries/external/algo/\libalg.a(service_device_firmware_update_OTA.o)
 .data          0x00000000        0x0 components/Libraries/external/algo/\libalg.a(service_device_firmware_update_OTA.o)
 .text          0x00000000        0x0 components/Libraries/external/algo/\libalg.a(service_device_information.o)
 .data          0x00000000        0x0 components/Libraries/external/algo/\libalg.a(service_device_information.o)
 .bss           0x00000000        0x0 components/Libraries/external/algo/\libalg.a(service_device_information.o)
 .text          0x00000000        0x0 components/Libraries/external/algo/\libalg.a(service_generic_access.o)
 .data          0x00000000        0x0 components/Libraries/external/algo/\libalg.a(service_generic_access.o)
 .bss           0x00000000        0x0 components/Libraries/external/algo/\libalg.a(service_generic_access.o)
 .text          0x00000000        0x0 components/Libraries/external/algo/\libalg.a(service_generic_attribute.o)
 .data          0x00000000        0x0 components/Libraries/external/algo/\libalg.a(service_generic_attribute.o)
 .text.GATT_service_changed
                0x00000000        0x0 components/Libraries/external/algo/\libalg.a(service_generic_attribute.o)
 .text          0x00000000        0x0 components/Libraries/external/algo/\libalg.a(service_human_interface_device.o)
 .data          0x00000000        0x0 components/Libraries/external/algo/\libalg.a(service_human_interface_device.o)
 .bss           0x00000000        0x0 components/Libraries/external/algo/\libalg.a(service_human_interface_device.o)
 .text          0x00000000        0x0 components/Libraries/external/algo/\libalg.a(console.o)
 .data          0x00000000        0x0 components/Libraries/external/algo/\libalg.a(console.o)
 .text.AB_console_set_mode
                0x00000000        0x0 components/Libraries/external/algo/\libalg.a(console.o)
 .text.AB_console_UserInput
                0x00000000        0x0 components/Libraries/external/algo/\libalg.a(console.o)
 .text          0x00000000        0x0 components/Libraries/external/algo/\libalg.a(shell.o)
 .data          0x00000000        0x0 components/Libraries/external/algo/\libalg.a(shell.o)
 .bss           0x00000000        0x0 components/Libraries/external/algo/\libalg.a(shell.o)
 .text          0x00000000        0x0 components/Libraries/external/algo/\libalg.a(ab_debug.o)
 .data          0x00000000        0x0 components/Libraries/external/algo/\libalg.a(ab_debug.o)
 .bss           0x00000000        0x0 components/Libraries/external/algo/\libalg.a(ab_debug.o)
 .text          0x00000000        0x0 components/Libraries/external/algo/\libalg.a(dfu.o)
 .data          0x00000000        0x0 components/Libraries/external/algo/\libalg.a(dfu.o)
 .bss           0x00000000        0x0 components/Libraries/external/algo/\libalg.a(dfu.o)
 .text          0x00000000        0x0 components/Libraries/external/algo/\libalg.a(ab_module.o)
 .data          0x00000000        0x0 components/Libraries/external/algo/\libalg.a(ab_module.o)
 .bss           0x00000000        0x0 components/Libraries/external/algo/\libalg.a(ab_module.o)
 .text.AB_module_enum_by_name_start
                0x00000000        0x0 components/Libraries/external/algo/\libalg.a(ab_module.o)
 .text.AB_module_enum_by_name_next
                0x00000000        0x0 components/Libraries/external/algo/\libalg.a(ab_module.o)
 .sdata_w       0x00000000        0x0 components/Libraries/external/algo/\libalg.a(ab_module.o)
 .text          0x00000000        0x0 components/BT/release/\libbtcore.a(hci_h4_parser.o)
 .data          0x00000000        0x0 components/BT/release/\libbtcore.a(hci_h4_parser.o)
 .text          0x00000000        0x0 components/BT/release/\libbtcore.a(bt.o)
 .data          0x00000000        0x0 components/BT/release/\libbtcore.a(bt.o)
 .text.BT_Loop  0x00000000        0x0 components/BT/release/\libbtcore.a(bt.o)
 .text.BT_Pause_Tx
                0x00000000        0x0 components/BT/release/\libbtcore.a(bt.o)
 .text.BT_InitEx
                0x00000000        0x0 components/BT/release/\libbtcore.a(bt.o)
 .text.BT_Init  0x00000000        0x0 components/BT/release/\libbtcore.a(bt.o)
 .text          0x00000000        0x0 components/BT/release/\libbtcore.a(ble_gap.o)
 .text.ble_gap_disable_latency
                0x00000000        0x0 components/BT/release/\libbtcore.a(ble_gap.o)
 .text.ble_gap_remote_version
                0x00000000        0x0 components/BT/release/\libbtcore.a(ble_gap.o)
 .text.generic_remote_ver_cb
                0x00000000        0x0 components/BT/release/\libbtcore.a(ble_gap.o)
 .text.generic_connect_cb
                0x00000000        0x0 components/BT/release/\libbtcore.a(ble_gap.o)
 .text.ble_gap_connect_cancel
                0x00000000        0x0 components/BT/release/\libbtcore.a(ble_gap.o)
 .text.ble_gap_scan_stop
                0x00000000        0x0 components/BT/release/\libbtcore.a(ble_gap.o)
 .text.ble_gap_tx_power_set
                0x00000000        0x0 components/BT/release/\libbtcore.a(ble_gap.o)
 .text.ble_gap_scan_set_parameter
                0x00000000        0x0 components/BT/release/\libbtcore.a(ble_gap.o)
 .text.ble_gap_pub_address_get
                0x00000000        0x0 components/BT/release/\libbtcore.a(ble_gap.o)
 .text.ble_gap_add_whitelist
                0x00000000        0x0 components/BT/release/\libbtcore.a(ble_gap.o)
 .text.ble_gap_scan_start
                0x00000000        0x0 components/BT/release/\libbtcore.a(ble_gap.o)
 .text.set_clear_wlst_cb
                0x00000000        0x0 components/BT/release/\libbtcore.a(ble_gap.o)
 .text.set_add_wlst_cb
                0x00000000        0x0 components/BT/release/\libbtcore.a(ble_gap.o)
 .text.set_scan_parm_cb
                0x00000000        0x0 components/BT/release/\libbtcore.a(ble_gap.o)
 .text.ble_gap_connect
                0x00000000        0x0 components/BT/release/\libbtcore.a(ble_gap.o)
 .text.ble_gap_adv_set_parameter
                0x00000000        0x0 components/BT/release/\libbtcore.a(ble_gap.o)
 .text.ble_gap_random_address_get
                0x00000000        0x0 components/BT/release/\libbtcore.a(ble_gap.o)
 .text          0x00000000        0x0 components/BT/release/\libbtcore.a(ble_gap_links.o)
 .data          0x00000000        0x0 components/BT/release/\libbtcore.a(ble_gap_links.o)
 .text.ble_gap_link_GetAttr_RemoteName
                0x00000000        0x0 components/BT/release/\libbtcore.a(ble_gap_links.o)
 .text.ble_gap_link_Is_Active
                0x00000000        0x0 components/BT/release/\libbtcore.a(ble_gap_links.o)
 .text.ble_gap_link_Is_AnyActive
                0x00000000        0x0 components/BT/release/\libbtcore.a(ble_gap_links.o)
 .text.ble_gap_link_GetActiveMask
                0x00000000        0x0 components/BT/release/\libbtcore.a(ble_gap_links.o)
 .text.ble_gap_link_GetAttr_State
                0x00000000        0x0 components/BT/release/\libbtcore.a(ble_gap_links.o)
 .text.ble_gap_link_SetAttr_Role
                0x00000000        0x0 components/BT/release/\libbtcore.a(ble_gap_links.o)
 .text.ble_gap_link_SetAttr_Handle
                0x00000000        0x0 components/BT/release/\libbtcore.a(ble_gap_links.o)
 .text.ble_gap_link_SetAttr_BdAddrType
                0x00000000        0x0 components/BT/release/\libbtcore.a(ble_gap_links.o)
 .text.ble_gap_link_SetAttr_Clear
                0x00000000        0x0 components/BT/release/\libbtcore.a(ble_gap_links.o)
 .text.ble_gap_link_SetAttr_BdAddr
                0x00000000        0x0 components/BT/release/\libbtcore.a(ble_gap_links.o)
 .text          0x00000000        0x0 components/BT/release/\libbtcore.a(ble_gap_sm.o)
 .data          0x00000000        0x0 components/BT/release/\libbtcore.a(ble_gap_sm.o)
 .bss           0x00000000        0x0 components/BT/release/\libbtcore.a(ble_gap_sm.o)
 .text.BLE_gap_sm_get_peer_ltk
                0x00000000        0x0 components/BT/release/\libbtcore.a(ble_gap_sm.o)
 .text.BLE_gap_sm_get_ltk
                0x00000000        0x0 components/BT/release/\libbtcore.a(ble_gap_sm.o)
 .text.BLE_gap_sm_send_keypress_notification_request
                0x00000000        0x0 components/BT/release/\libbtcore.a(ble_gap_sm.o)
 .text.BLE_gap_sm_OOB_response
                0x00000000        0x0 components/BT/release/\libbtcore.a(ble_gap_sm.o)
 .text.BLE_gap_sm_passkey_response
                0x00000000        0x0 components/BT/release/\libbtcore.a(ble_gap_sm.o)
 .text.BLE_gap_sm_is_device_bonded
                0x00000000        0x0 components/BT/release/\libbtcore.a(ble_gap_sm.o)
 .text.BLE_gap_sm_authenticate
                0x00000000        0x0 components/BT/release/\libbtcore.a(ble_gap_sm.o)
 .text          0x00000000        0x0 components/BT/release/\libbtcore.a(ble_l2cap.o)
 .data          0x00000000        0x0 components/BT/release/\libbtcore.a(ble_l2cap.o)
 .bss           0x00000000        0x0 components/BT/release/\libbtcore.a(ble_l2cap.o)
 .text.BLE_l2cap_cid_unregister
                0x00000000        0x0 components/BT/release/\libbtcore.a(ble_l2cap.o)
 .text.l2cap_deinit
                0x00000000        0x0 components/BT/release/\libbtcore.a(ble_l2cap.o)
 .text          0x00000000        0x0 components/BT/release/\libbtcore.a(l2cap_le_sig.o)
 .data          0x00000000        0x0 components/BT/release/\libbtcore.a(l2cap_le_sig.o)
 .bss           0x00000000        0x0 components/BT/release/\libbtcore.a(l2cap_le_sig.o)
 .text.l2cap_lesig_conn_param_update_rsp
                0x00000000        0x0 components/BT/release/\libbtcore.a(l2cap_le_sig.o)
 .text          0x00000000        0x0 components/BT/release/\libbtcore.a(ble_att.o)
 .bss           0x00000000        0x0 components/BT/release/\libbtcore.a(ble_att.o)
 .text.ATT_is_transaction_TO
                0x00000000        0x0 components/BT/release/\libbtcore.a(ble_att.o)
 .text.ATT_FindServerIndexByAddr
                0x00000000        0x0 components/BT/release/\libbtcore.a(ble_att.o)
 .text.ATT_GetCurrentMTUSize
                0x00000000        0x0 components/BT/release/\libbtcore.a(ble_att.o)
 .text.BLE_att_get_attribute_data_ptr
                0x00000000        0x0 components/BT/release/\libbtcore.a(ble_att.o)
 .text.BLE_att_set_default_mtu
                0x00000000        0x0 components/BT/release/\libbtcore.a(ble_att.o)
 .text.ATT_ChangeAttributeValueLength
                0x00000000        0x0 components/BT/release/\libbtcore.a(ble_att.o)
 .text.ATT_ChangeAttributeValueDataPtr
                0x00000000        0x0 components/BT/release/\libbtcore.a(ble_att.o)
 .text.ATT_GetAttributeValueCurrentLen
                0x00000000        0x0 components/BT/release/\libbtcore.a(ble_att.o)
 .text.BLE_att_set_attribute_data_ptr
                0x00000000        0x0 components/BT/release/\libbtcore.a(ble_att.o)
 .text          0x00000000        0x0 components/BT/release/\libbtcore.a(ble_gatt_server.o)
 .data          0x00000000        0x0 components/BT/release/\libbtcore.a(ble_gatt_server.o)
 .text.BLE_gatt_charact_indicate
                0x00000000        0x0 components/BT/release/\libbtcore.a(ble_gatt_server.o)
 .text          0x00000000        0x0 components/BT/release/\libbtcore.a(ble_gatt_client.o)
 .data          0x00000000        0x0 components/BT/release/\libbtcore.a(ble_gatt_client.o)
 .bss           0x00000000        0x0 components/BT/release/\libbtcore.a(ble_gatt_client.o)
 .text.is_gatt_procedure_ongoing
                0x00000000        0x0 components/BT/release/\libbtcore.a(ble_gatt_client.o)
 .text.ble_gatt_evt_init
                0x00000000        0x0 components/BT/release/\libbtcore.a(ble_gatt_client.o)
 .text.ble_gatt_evt_extend
                0x00000000        0x0 components/BT/release/\libbtcore.a(ble_gatt_client.o)
 .text.ble_gatt_client_send_pdu
                0x00000000        0x0 components/BT/release/\libbtcore.a(ble_gatt_client.o)
 .text.ble_gatt_client_send_prepare_write_req
                0x00000000        0x0 components/BT/release/\libbtcore.a(ble_gatt_client.o)
 .text.ble_gatt_4_12_4_write_long_char_desc
                0x00000000        0x0 components/BT/release/\libbtcore.a(ble_gatt_client.o)
 .text.ble_gatt_4_9_5_reliable_writes
                0x00000000        0x0 components/BT/release/\libbtcore.a(ble_gatt_client.o)
 .text.ble_gatt_4_9_4_write_long_char_value
                0x00000000        0x0 components/BT/release/\libbtcore.a(ble_gatt_client.o)
 .text.ble_gatt_client_send_read_blob_req
                0x00000000        0x0 components/BT/release/\libbtcore.a(ble_gatt_client.o)
 .text.ble_gatt_4_12_2_read_long_char_desc
                0x00000000        0x0 components/BT/release/\libbtcore.a(ble_gatt_client.o)
 .text.ble_gatt_4_8_3_read_long_char_value
                0x00000000        0x0 components/BT/release/\libbtcore.a(ble_gatt_client.o)
 .text.ble_gatt_client_send_read_req
                0x00000000        0x0 components/BT/release/\libbtcore.a(ble_gatt_client.o)
 .text.ble_gatt_4_12_1_read_char_desc
                0x00000000        0x0 components/BT/release/\libbtcore.a(ble_gatt_client.o)
 .text.ble_gatt_4_8_1_read_char_value
                0x00000000        0x0 components/BT/release/\libbtcore.a(ble_gatt_client.o)
 .text.ble_gatt_client_send_read_by_type_req
                0x00000000        0x0 components/BT/release/\libbtcore.a(ble_gatt_client.o)
 .text.ble_gatt_4_8_2_read_using_char_UUID
                0x00000000        0x0 components/BT/release/\libbtcore.a(ble_gatt_client.o)
 .rodata.str1.4
                0x00000000        0x0 components/BT/release/\libbtcore.a(ble_gatt_client.o)
 .text.ble_gatt_4_6_2_disc_chars_by_UUID
                0x00000000        0x0 components/BT/release/\libbtcore.a(ble_gatt_client.o)
 .text.ble_gatt_4_6_1_disc_all_chars
                0x00000000        0x0 components/BT/release/\libbtcore.a(ble_gatt_client.o)
 .text.ble_gatt_4_5_1_find_included_services
                0x00000000        0x0 components/BT/release/\libbtcore.a(ble_gatt_client.o)
 .text.ble_gatt_client_send_find_info_req
                0x00000000        0x0 components/BT/release/\libbtcore.a(ble_gatt_client.o)
 .text.ble_gatt_4_7_1_disc_all_char_descs
                0x00000000        0x0 components/BT/release/\libbtcore.a(ble_gatt_client.o)
 .text.ble_gatt_client_send_execute_write_req
                0x00000000        0x0 components/BT/release/\libbtcore.a(ble_gatt_client.o)
 .text.ble_gatt_4_9_2_signed_write_no_rsp
                0x00000000        0x0 components/BT/release/\libbtcore.a(ble_gatt_client.o)
 .text.ble_gatt_terminate_procedure
                0x00000000        0x0 components/BT/release/\libbtcore.a(ble_gatt_client.o)
 .text.ble_gatt_4_9_1_write_no_rsp
                0x00000000        0x0 components/BT/release/\libbtcore.a(ble_gatt_client.o)
 .text.ble_gatt_write_long_char_value_cb
                0x00000000        0x0 components/BT/release/\libbtcore.a(ble_gatt_client.o)
 .text.ble_gatt_write_char_value_cb
                0x00000000        0x0 components/BT/release/\libbtcore.a(ble_gatt_client.o)
 .text.ble_gatt_read_multi_char_values_cb
                0x00000000        0x0 components/BT/release/\libbtcore.a(ble_gatt_client.o)
 .text.ble_gatt_read_long_char_value_cb
                0x00000000        0x0 components/BT/release/\libbtcore.a(ble_gatt_client.o)
 .text.ble_gatt_read_using_char_UUID_cb
                0x00000000        0x0 components/BT/release/\libbtcore.a(ble_gatt_client.o)
 .text.ble_gatt_read_char_value_cb
                0x00000000        0x0 components/BT/release/\libbtcore.a(ble_gatt_client.o)
 .text.ble_gatt_disc_all_char_descs_cb
                0x00000000        0x0 components/BT/release/\libbtcore.a(ble_gatt_client.o)
 .text.ble_gatt_disc_all_chars_cb
                0x00000000        0x0 components/BT/release/\libbtcore.a(ble_gatt_client.o)
 .text.ble_gatt_find_included_services_cb
                0x00000000        0x0 components/BT/release/\libbtcore.a(ble_gatt_client.o)
 .text.ble_gatt_exchange_mtu_cb
                0x00000000        0x0 components/BT/release/\libbtcore.a(ble_gatt_client.o)
 .text.ble_gatt_reliable_writes_cb
                0x00000000        0x0 components/BT/release/\libbtcore.a(ble_gatt_client.o)
 .text.ble_gatt_disc_chars_by_UUID_cb
                0x00000000        0x0 components/BT/release/\libbtcore.a(ble_gatt_client.o)
 .text.T.119    0x00000000        0x0 components/BT/release/\libbtcore.a(ble_gatt_client.o)
 .text.ble_gatt_4_9_3_write_char_value
                0x00000000        0x0 components/BT/release/\libbtcore.a(ble_gatt_client.o)
 .text.ble_gatt_4_12_3_write_char_desc
                0x00000000        0x0 components/BT/release/\libbtcore.a(ble_gatt_client.o)
 .text.ble_gatt_4_3_1_exchange_mtu
                0x00000000        0x0 components/BT/release/\libbtcore.a(ble_gatt_client.o)
 .text.T.121    0x00000000        0x0 components/BT/release/\libbtcore.a(ble_gatt_client.o)
 .text.ble_gatt_disc_all_primary_services_cb
                0x00000000        0x0 components/BT/release/\libbtcore.a(ble_gatt_client.o)
 .text.ble_gatt_4_4_1_disc_all_primary_services
                0x00000000        0x0 components/BT/release/\libbtcore.a(ble_gatt_client.o)
 .text.ble_gatt_4_8_4_read_multi_char_values
                0x00000000        0x0 components/BT/release/\libbtcore.a(ble_gatt_client.o)
 .text.T.123    0x00000000        0x0 components/BT/release/\libbtcore.a(ble_gatt_client.o)
 .text.ble_gatt_disc_primary_service_by_UUID_cb
                0x00000000        0x0 components/BT/release/\libbtcore.a(ble_gatt_client.o)
 .text.ble_gatt_4_4_2_disc_primary_service_by_UUID
                0x00000000        0x0 components/BT/release/\libbtcore.a(ble_gatt_client.o)
 .text          0x00000000        0x0 components/BT/release/\libbtcore.a(sm.o)
 .bss           0x00000000        0x0 components/BT/release/\libbtcore.a(sm.o)
 .text.SM_GetPeerLTK
                0x00000000        0x0 components/BT/release/\libbtcore.a(sm.o)
 .text.SM_GetLTK
                0x00000000        0x0 components/BT/release/\libbtcore.a(sm.o)
 .text.SM_SendKeypressNotification
                0x00000000        0x0 components/BT/release/\libbtcore.a(sm.o)
 .text          0x00000000        0x0 components/BT/release/\libbtcore.a(sm_cryptotool.o)
 .text.h6       0x00000000        0x0 components/BT/release/\libbtcore.a(sm_cryptotool.o)
 .text.SM_CryptoTool_StartEncryption
                0x00000000        0x0 components/BT/release/\libbtcore.a(sm_cryptotool.o)
 .text          0x00000000        0x0 components/BT/release/\libbtcore.a(sm_hal.o)
 .data          0x00000000        0x0 components/BT/release/\libbtcore.a(sm_hal.o)
 .text.sm_hal_verify_resolvable_addr
                0x00000000        0x0 components/BT/release/\libbtcore.a(sm_hal.o)
 .text.sm_hal_verify_RPA_cb
                0x00000000        0x0 components/BT/release/\libbtcore.a(sm_hal.o)
 .text.sm_hal_flash_load_data_byIndex
                0x00000000        0x0 components/BT/release/\libbtcore.a(sm_hal.o)
 .text.sm_hal_flash_dump_data
                0x00000000        0x0 components/BT/release/\libbtcore.a(sm_hal.o)
 .text.sm_hal_flash_search_byAddr
                0x00000000        0x0 components/BT/release/\libbtcore.a(sm_hal.o)
 COMMON         0x00000000        0x0 components/BT/release/\libbtcore.a(sm_hal.o)
 .text          0x00000000        0x0 components/BT/release/\libbtcore.a(sm_protocol.o)
 .data          0x00000000        0x0 components/BT/release/\libbtcore.a(sm_protocol.o)
 .text.SM_Protocol_PairingKeypressNotify
                0x00000000        0x0 components/BT/release/\libbtcore.a(sm_protocol.o)
 .text.SM_Protocol_PairingRequest
                0x00000000        0x0 components/BT/release/\libbtcore.a(sm_protocol.o)
 .text.SM_Protocol_SecurityRequest
                0x00000000        0x0 components/BT/release/\libbtcore.a(sm_protocol.o)
 .text          0x00000000        0x0 components/BT/release/\libbtcore.a(sm_slave.o)
 .bss           0x00000000        0x0 components/BT/release/\libbtcore.a(sm_slave.o)
 .text.SM_Slave_OOBInputRsp
                0x00000000        0x0 components/BT/release/\libbtcore.a(sm_slave.o)
 .text.SM_Slave_PasskeyInputRsp
                0x00000000        0x0 components/BT/release/\libbtcore.a(sm_slave.o)
 .text.SM_Slave_SendSecurityRequest
                0x00000000        0x0 components/BT/release/\libbtcore.a(sm_slave.o)
 .text          0x00000000        0x0 components/BT/release/\libbtcore.a(sm_master.o)
 .bss           0x00000000        0x0 components/BT/release/\libbtcore.a(sm_master.o)
 .text.SM_Master_OOBInputRsp
                0x00000000        0x0 components/BT/release/\libbtcore.a(sm_master.o)
 .text.SM_Master_PasskeyInputRsp
                0x00000000        0x0 components/BT/release/\libbtcore.a(sm_master.o)
 .text.SM_Master_SendPairingRequest
                0x00000000        0x0 components/BT/release/\libbtcore.a(sm_master.o)
 .text          0x00000000        0x0 components/BT/release/\libbtcore.a(Drv_Trng.o)
 .data          0x00000000        0x0 components/BT/release/\libbtcore.a(Drv_Trng.o)
 .bss           0x00000000        0x0 components/BT/release/\libbtcore.a(Drv_Trng.o)
 .text          0x00000000        0x0 components/BT/release/\libbtcore.a(Drv_MMITimer.o)
 .data          0x00000000        0x0 components/BT/release/\libbtcore.a(Drv_MMITimer.o)
 .text          0x00000000        0x0 components/BT/release/\libbtcore.a(Ab_MMITimer.o)
 .data          0x00000000        0x0 components/BT/release/\libbtcore.a(Ab_MMITimer.o)
 .text          0x00000000        0x0 components/BT/release/\libbtcore.a(Drv_1602.o)
 .data          0x00000000        0x0 components/BT/release/\libbtcore.a(Drv_1602.o)
 .text          0x00000000        0x0 components/BT/release/\libbtcore.a(encrypt.o)
 .data          0x00000000        0x0 components/BT/release/\libbtcore.a(encrypt.o)
 .bss           0x00000000        0x0 components/BT/release/\libbtcore.a(encrypt.o)
 .text          0x00000000        0x0 components/BT/release/\libbtcore.a(hci.o)
 .data          0x00000000        0x0 components/BT/release/\libbtcore.a(hci.o)
 .bss           0x00000000        0x0 components/BT/release/\libbtcore.a(hci.o)
 .text          0x00000000        0x0 components/BT/release/\libbtcore.a(hci_cmd_evt_dat.o)
 .data          0x00000000        0x0 components/BT/release/\libbtcore.a(hci_cmd_evt_dat.o)
 .text.hci_pause_acl
                0x00000000        0x0 components/BT/release/\libbtcore.a(hci_cmd_evt_dat.o)
 .text          0x00000000        0x0 components/BT/release/\libbtcore.a(sm_common.o)
 .data          0x00000000        0x0 components/BT/release/\libbtcore.a(sm_common.o)
 .bss           0x00000000        0x0 components/BT/release/\libbtcore.a(sm_common.o)
 .text          0x00000000        0x0 output/\lib1600.a(ab_log.o)
 .data          0x00000000        0x0 output/\lib1600.a(ab_log.o)
 .text.AB_Log_HciStatusStr
                0x00000000        0x0 output/\lib1600.a(ab_log.o)
 .data          0x00000000        0x0 C:\Andestech\AndeSight211RDS\toolchains\nds32le-elf-mculib-v3m\nds32le-elf\libc\mculib\usr\lib\libm.a(lib_a-w_log10.o)
 .bss           0x00000000        0x0 C:\Andestech\AndeSight211RDS\toolchains\nds32le-elf-mculib-v3m\nds32le-elf\libc\mculib\usr\lib\libm.a(lib_a-w_log10.o)
 .bss           0x00000000        0x0 C:\Andestech\AndeSight211RDS\toolchains\nds32le-elf-mculib-v3m\nds32le-elf\libc\mculib\usr\lib\libm.a(gf_dpexlog.o)
 .data          0x00000000        0x0 C:\Andestech\AndeSight211RDS\toolchains\nds32le-elf-mculib-v3m\nds32le-elf\libc\mculib\usr\lib\libm.a(gf_exadd.o)
 .bss           0x00000000        0x0 C:\Andestech\AndeSight211RDS\toolchains\nds32le-elf-mculib-v3m\nds32le-elf\libc\mculib\usr\lib\libm.a(gf_exadd.o)
 .data          0x00000000        0x0 C:\Andestech\AndeSight211RDS\toolchains\nds32le-elf-mculib-v3m\nds32le-elf\libc\mculib\usr\lib\libm.a(gf_exdiv.o)
 .bss           0x00000000        0x0 C:\Andestech\AndeSight211RDS\toolchains\nds32le-elf-mculib-v3m\nds32le-elf\libc\mculib\usr\lib\libm.a(gf_exdiv.o)
 .data          0x00000000        0x0 C:\Andestech\AndeSight211RDS\toolchains\nds32le-elf-mculib-v3m\nds32le-elf\libc\mculib\usr\lib\libm.a(gf_exmul.o)
 .bss           0x00000000        0x0 C:\Andestech\AndeSight211RDS\toolchains\nds32le-elf-mculib-v3m\nds32le-elf\libc\mculib\usr\lib\libm.a(gf_exmul.o)
 .data          0x00000000        0x0 C:\Andestech\AndeSight211RDS\toolchains\nds32le-elf-mculib-v3m\nds32le-elf\libc\mculib\usr\lib\libm.a(gf_sigmax.o)
 .bss           0x00000000        0x0 C:\Andestech\AndeSight211RDS\toolchains\nds32le-elf-mculib-v3m\nds32le-elf\libc\mculib\usr\lib\libm.a(gf_sigmax.o)
 .text          0x00000000        0x0 C:\Andestech\AndeSight211RDS\toolchains\nds32le-elf-mculib-v3m\nds32le-elf\libc\mculib\usr\lib\libc.a(lib_a-ctype_.o)
 .data          0x00000000        0x0 C:\Andestech\AndeSight211RDS\toolchains\nds32le-elf-mculib-v3m\nds32le-elf\libc\mculib\usr\lib\libc.a(lib_a-ctype_.o)
 .bss           0x00000000        0x0 C:\Andestech\AndeSight211RDS\toolchains\nds32le-elf-mculib-v3m\nds32le-elf\libc\mculib\usr\lib\libc.a(lib_a-ctype_.o)
 .rodata._ctype_
                0x00000000        0x0 C:\Andestech\AndeSight211RDS\toolchains\nds32le-elf-mculib-v3m\nds32le-elf\libc\mculib\usr\lib\libc.a(lib_a-ctype_.o)
 .text          0x00000000        0x0 C:\Andestech\AndeSight211RDS\toolchains\nds32le-elf-mculib-v3m\nds32le-elf\libc\mculib\usr\lib\libc.a(lib_a-freer.o)
 .data          0x00000000        0x0 C:\Andestech\AndeSight211RDS\toolchains\nds32le-elf-mculib-v3m\nds32le-elf\libc\mculib\usr\lib\libc.a(lib_a-freer.o)
 .bss           0x00000000        0x0 C:\Andestech\AndeSight211RDS\toolchains\nds32le-elf-mculib-v3m\nds32le-elf\libc\mculib\usr\lib\libc.a(lib_a-freer.o)
 .text          0x00000000        0x0 C:\Andestech\AndeSight211RDS\toolchains\nds32le-elf-mculib-v3m\nds32le-elf\libc\mculib\usr\lib\libc.a(lib_a-mallocr.o)
 .data          0x00000000        0x0 C:\Andestech\AndeSight211RDS\toolchains\nds32le-elf-mculib-v3m\nds32le-elf\libc\mculib\usr\lib\libc.a(lib_a-mallocr.o)
 .bss           0x00000000        0x0 C:\Andestech\AndeSight211RDS\toolchains\nds32le-elf-mculib-v3m\nds32le-elf\libc\mculib\usr\lib\libc.a(lib_a-mallocr.o)
 .data          0x00000000        0x0 C:\Andestech\AndeSight211RDS\toolchains\nds32le-elf-mculib-v3m\nds32le-elf\libc\mculib\usr\lib\libc.a(lib_a-memcmp.o)
 .bss           0x00000000        0x0 C:\Andestech\AndeSight211RDS\toolchains\nds32le-elf-mculib-v3m\nds32le-elf\libc\mculib\usr\lib\libc.a(lib_a-memcmp.o)
 .data          0x00000000        0x0 C:\Andestech\AndeSight211RDS\toolchains\nds32le-elf-mculib-v3m\nds32le-elf\libc\mculib\usr\lib\libc.a(lib_a-memcpy.o)
 .bss           0x00000000        0x0 C:\Andestech\AndeSight211RDS\toolchains\nds32le-elf-mculib-v3m\nds32le-elf\libc\mculib\usr\lib\libc.a(lib_a-memcpy.o)
 .data          0x00000000        0x0 C:\Andestech\AndeSight211RDS\toolchains\nds32le-elf-mculib-v3m\nds32le-elf\libc\mculib\usr\lib\libc.a(lib_a-memmove.o)
 .bss           0x00000000        0x0 C:\Andestech\AndeSight211RDS\toolchains\nds32le-elf-mculib-v3m\nds32le-elf\libc\mculib\usr\lib\libc.a(lib_a-memmove.o)
 .data          0x00000000        0x0 C:\Andestech\AndeSight211RDS\toolchains\nds32le-elf-mculib-v3m\nds32le-elf\libc\mculib\usr\lib\libc.a(lib_a-memset.o)
 .bss           0x00000000        0x0 C:\Andestech\AndeSight211RDS\toolchains\nds32le-elf-mculib-v3m\nds32le-elf\libc\mculib\usr\lib\libc.a(lib_a-memset.o)
 .text          0x00000000        0x0 C:\Andestech\AndeSight211RDS\toolchains\nds32le-elf-mculib-v3m\nds32le-elf\libc\mculib\usr\lib\libc.a(lib_a-mlock.o)
 .data          0x00000000        0x0 C:\Andestech\AndeSight211RDS\toolchains\nds32le-elf-mculib-v3m\nds32le-elf\libc\mculib\usr\lib\libc.a(lib_a-mlock.o)
 .bss           0x00000000        0x0 C:\Andestech\AndeSight211RDS\toolchains\nds32le-elf-mculib-v3m\nds32le-elf\libc\mculib\usr\lib\libc.a(lib_a-mlock.o)
 .text          0x00000000        0x0 C:\Andestech\AndeSight211RDS\toolchains\nds32le-elf-mculib-v3m\nds32le-elf\libc\mculib\usr\lib\libc.a(lib_a-mstats.o)
 .data          0x00000000        0x0 C:\Andestech\AndeSight211RDS\toolchains\nds32le-elf-mculib-v3m\nds32le-elf\libc\mculib\usr\lib\libc.a(lib_a-mstats.o)
 .bss           0x00000000        0x0 C:\Andestech\AndeSight211RDS\toolchains\nds32le-elf-mculib-v3m\nds32le-elf\libc\mculib\usr\lib\libc.a(lib_a-mstats.o)
 .rodata.str1.4
                0x00000000        0x0 C:\Andestech\AndeSight211RDS\toolchains\nds32le-elf-mculib-v3m\nds32le-elf\libc\mculib\usr\lib\libc.a(lib_a-mstats.o)
 .text._mstats_r
                0x00000000        0x0 C:\Andestech\AndeSight211RDS\toolchains\nds32le-elf-mculib-v3m\nds32le-elf\libc\mculib\usr\lib\libc.a(lib_a-mstats.o)
 .text.mstats   0x00000000        0x0 C:\Andestech\AndeSight211RDS\toolchains\nds32le-elf-mculib-v3m\nds32le-elf\libc\mculib\usr\lib\libc.a(lib_a-mstats.o)
 .text.malloc_stats
                0x00000000        0x0 C:\Andestech\AndeSight211RDS\toolchains\nds32le-elf-mculib-v3m\nds32le-elf\libc\mculib\usr\lib\libc.a(lib_a-mstats.o)
 .text.mallopt  0x00000000        0x0 C:\Andestech\AndeSight211RDS\toolchains\nds32le-elf-mculib-v3m\nds32le-elf\libc\mculib\usr\lib\libc.a(lib_a-mstats.o)
 .text          0x00000000        0x0 C:\Andestech\AndeSight211RDS\toolchains\nds32le-elf-mculib-v3m\nds32le-elf\libc\mculib\usr\lib\libc.a(lib_a-puts.o)
 .data          0x00000000        0x0 C:\Andestech\AndeSight211RDS\toolchains\nds32le-elf-mculib-v3m\nds32le-elf\libc\mculib\usr\lib\libc.a(lib_a-puts.o)
 .bss           0x00000000        0x0 C:\Andestech\AndeSight211RDS\toolchains\nds32le-elf-mculib-v3m\nds32le-elf\libc\mculib\usr\lib\libc.a(lib_a-puts.o)
 .text          0x00000000        0x0 C:\Andestech\AndeSight211RDS\toolchains\nds32le-elf-mculib-v3m\nds32le-elf\libc\mculib\usr\lib\libc.a(lib_a-sbrkr.o)
 .data          0x00000000        0x0 C:\Andestech\AndeSight211RDS\toolchains\nds32le-elf-mculib-v3m\nds32le-elf\libc\mculib\usr\lib\libc.a(lib_a-sbrkr.o)
 .bss           0x00000000        0x0 C:\Andestech\AndeSight211RDS\toolchains\nds32le-elf-mculib-v3m\nds32le-elf\libc\mculib\usr\lib\libc.a(lib_a-sbrkr.o)
 .text          0x00000000        0x0 C:\Andestech\AndeSight211RDS\toolchains\nds32le-elf-mculib-v3m\nds32le-elf\libc\mculib\usr\lib\libc.a(lib_a-sprintf.o)
 .data          0x00000000        0x0 C:\Andestech\AndeSight211RDS\toolchains\nds32le-elf-mculib-v3m\nds32le-elf\libc\mculib\usr\lib\libc.a(lib_a-sprintf.o)
 .bss           0x00000000        0x0 C:\Andestech\AndeSight211RDS\toolchains\nds32le-elf-mculib-v3m\nds32le-elf\libc\mculib\usr\lib\libc.a(lib_a-sprintf.o)
 .data          0x00000000        0x0 C:\Andestech\AndeSight211RDS\toolchains\nds32le-elf-mculib-v3m\nds32le-elf\libc\mculib\usr\lib\libc.a(lib_a-strcmp.o)
 .bss           0x00000000        0x0 C:\Andestech\AndeSight211RDS\toolchains\nds32le-elf-mculib-v3m\nds32le-elf\libc\mculib\usr\lib\libc.a(lib_a-strcmp.o)
 .data          0x00000000        0x0 C:\Andestech\AndeSight211RDS\toolchains\nds32le-elf-mculib-v3m\nds32le-elf\libc\mculib\usr\lib\libc.a(lib_a-strcpy.o)
 .bss           0x00000000        0x0 C:\Andestech\AndeSight211RDS\toolchains\nds32le-elf-mculib-v3m\nds32le-elf\libc\mculib\usr\lib\libc.a(lib_a-strcpy.o)
 .data          0x00000000        0x0 C:\Andestech\AndeSight211RDS\toolchains\nds32le-elf-mculib-v3m\nds32le-elf\libc\mculib\usr\lib\libc.a(lib_a-strlen.o)
 .bss           0x00000000        0x0 C:\Andestech\AndeSight211RDS\toolchains\nds32le-elf-mculib-v3m\nds32le-elf\libc\mculib\usr\lib\libc.a(lib_a-strlen.o)
 .data          0x00000000        0x0 C:\Andestech\AndeSight211RDS\toolchains\nds32le-elf-mculib-v3m\nds32le-elf\libc\mculib\usr\lib\libc.a(lib_a-strncmp.o)
 .bss           0x00000000        0x0 C:\Andestech\AndeSight211RDS\toolchains\nds32le-elf-mculib-v3m\nds32le-elf\libc\mculib\usr\lib\libc.a(lib_a-strncmp.o)
 .text          0x00000000        0x0 C:\Andestech\AndeSight211RDS\toolchains\nds32le-elf-mculib-v3m\nds32le-elf\libc\mculib\usr\lib\libc.a(lib_a-vprintf.o)
 .data          0x00000000        0x0 C:\Andestech\AndeSight211RDS\toolchains\nds32le-elf-mculib-v3m\nds32le-elf\libc\mculib\usr\lib\libc.a(lib_a-vprintf.o)
 .bss           0x00000000        0x0 C:\Andestech\AndeSight211RDS\toolchains\nds32le-elf-mculib-v3m\nds32le-elf\libc\mculib\usr\lib\libc.a(lib_a-vprintf.o)
 .text          0x00000000        0x0 C:\Andestech\AndeSight211RDS\toolchains\nds32le-elf-mculib-v3m\nds32le-elf\libc\mculib\usr\lib\libc.a(lib_a-vsprintf.o)
 .data          0x00000000        0x0 C:\Andestech\AndeSight211RDS\toolchains\nds32le-elf-mculib-v3m\nds32le-elf\libc\mculib\usr\lib\libc.a(lib_a-vsprintf.o)
 .bss           0x00000000        0x0 C:\Andestech\AndeSight211RDS\toolchains\nds32le-elf-mculib-v3m\nds32le-elf\libc\mculib\usr\lib\libc.a(lib_a-vsprintf.o)
 .text          0x00000000        0x0 C:\Andestech\AndeSight211RDS\toolchains\nds32le-elf-mculib-v3m\nds32le-elf\libc\mculib\usr\lib\libc.a(do_printf.o)
 .data          0x00000000        0x0 C:\Andestech\AndeSight211RDS\toolchains\nds32le-elf-mculib-v3m\nds32le-elf\libc\mculib\usr\lib\libc.a(do_printf.o)
 .bss           0x00000000        0x0 C:\Andestech\AndeSight211RDS\toolchains\nds32le-elf-mculib-v3m\nds32le-elf\libc\mculib\usr\lib\libc.a(do_printf.o)
 .text          0x00000000        0x0 C:\Andestech\AndeSight211RDS\toolchains\nds32le-elf-mculib-v3m\nds32le-elf\libc\mculib\usr\lib\libc.a(xint2dec.o)
 .data          0x00000000        0x0 C:\Andestech\AndeSight211RDS\toolchains\nds32le-elf-mculib-v3m\nds32le-elf\libc\mculib\usr\lib\libc.a(xint2dec.o)
 .bss           0x00000000        0x0 C:\Andestech\AndeSight211RDS\toolchains\nds32le-elf-mculib-v3m\nds32le-elf\libc\mculib\usr\lib\libc.a(xint2dec.o)
 .text          0x00000000        0x0 C:\Andestech\AndeSight211RDS\toolchains\nds32le-elf-mculib-v3m\nds32le-elf\libc\mculib\usr\lib\libc.a(lib_a-data-errno.o)
 .data          0x00000000        0x0 C:\Andestech\AndeSight211RDS\toolchains\nds32le-elf-mculib-v3m\nds32le-elf\libc\mculib\usr\lib\libc.a(lib_a-data-errno.o)
 .bss           0x00000000        0x0 C:\Andestech\AndeSight211RDS\toolchains\nds32le-elf-mculib-v3m\nds32le-elf\libc\mculib\usr\lib\libc.a(lib_a-data-errno.o)
 .text          0x00000000        0x0 C:\Andestech\AndeSight211RDS\toolchains\nds32le-elf-mculib-v3m\nds32le-elf\libc\mculib\usr\lib\libc.a(lib_a-data-stdio.o)
 .data          0x00000000        0x0 C:\Andestech\AndeSight211RDS\toolchains\nds32le-elf-mculib-v3m\nds32le-elf\libc\mculib\usr\lib\libc.a(lib_a-data-stdio.o)
 .bss           0x00000000        0x0 C:\Andestech\AndeSight211RDS\toolchains\nds32le-elf-mculib-v3m\nds32le-elf\libc\mculib\usr\lib\libc.a(lib_a-data-stdio.o)
 .data._NDS32_REENT__stdin
                0x00000000        0x0 C:\Andestech\AndeSight211RDS\toolchains\nds32le-elf-mculib-v3m\nds32le-elf\libc\mculib\usr\lib\libc.a(lib_a-data-stdio.o)
 .data._NDS32_REENT__stdout
                0x00000000        0x0 C:\Andestech\AndeSight211RDS\toolchains\nds32le-elf-mculib-v3m\nds32le-elf\libc\mculib\usr\lib\libc.a(lib_a-data-stdio.o)
 .data._NDS32_REENT__stderr
                0x00000000        0x0 C:\Andestech\AndeSight211RDS\toolchains\nds32le-elf-mculib-v3m\nds32le-elf\libc\mculib\usr\lib\libc.a(lib_a-data-stdio.o)
 COMMON         0x00000000        0x0 C:\Andestech\AndeSight211RDS\toolchains\nds32le-elf-mculib-v3m\nds32le-elf\libc\mculib\usr\lib\libc.a(lib_a-data-stdio.o)
 .text          0x00000000        0x0 C:\Andestech\AndeSight211RDS\toolchains\nds32le-elf-mculib-v3m\nds32le-elf\libc\mculib\usr\lib\libc.a(lib_a-fiprintf.o)
 .data          0x00000000        0x0 C:\Andestech\AndeSight211RDS\toolchains\nds32le-elf-mculib-v3m\nds32le-elf\libc\mculib\usr\lib\libc.a(lib_a-fiprintf.o)
 .bss           0x00000000        0x0 C:\Andestech\AndeSight211RDS\toolchains\nds32le-elf-mculib-v3m\nds32le-elf\libc\mculib\usr\lib\libc.a(lib_a-fiprintf.o)
 .text.fiprintf
                0x00000000        0x0 C:\Andestech\AndeSight211RDS\toolchains\nds32le-elf-mculib-v3m\nds32le-elf\libc\mculib\usr\lib\libc.a(lib_a-fiprintf.o)
 .text._fiprintf_r
                0x00000000        0x0 C:\Andestech\AndeSight211RDS\toolchains\nds32le-elf-mculib-v3m\nds32le-elf\libc\mculib\usr\lib\libc.a(lib_a-fiprintf.o)
 .text          0x00000000        0x0 C:\Andestech\AndeSight211RDS\toolchains\nds32le-elf-mculib-v3m\nds32le-elf\libc\mculib\usr\lib\libc.a(lib_a-mallinfor.o)
 .data          0x00000000        0x0 C:\Andestech\AndeSight211RDS\toolchains\nds32le-elf-mculib-v3m\nds32le-elf\libc\mculib\usr\lib\libc.a(lib_a-mallinfor.o)
 .bss           0x00000000        0x0 C:\Andestech\AndeSight211RDS\toolchains\nds32le-elf-mculib-v3m\nds32le-elf\libc\mculib\usr\lib\libc.a(lib_a-mallinfor.o)
 .text          0x00000000        0x0 C:\Andestech\AndeSight211RDS\toolchains\nds32le-elf-mculib-v3m\nds32le-elf\libc\mculib\usr\lib\libc.a(lib_a-malloptr.o)
 .data          0x00000000        0x0 C:\Andestech\AndeSight211RDS\toolchains\nds32le-elf-mculib-v3m\nds32le-elf\libc\mculib\usr\lib\libc.a(lib_a-malloptr.o)
 .bss           0x00000000        0x0 C:\Andestech\AndeSight211RDS\toolchains\nds32le-elf-mculib-v3m\nds32le-elf\libc\mculib\usr\lib\libc.a(lib_a-malloptr.o)
 .text._mallopt_r
                0x00000000        0x0 C:\Andestech\AndeSight211RDS\toolchains\nds32le-elf-mculib-v3m\nds32le-elf\libc\mculib\usr\lib\libc.a(lib_a-malloptr.o)
 .text          0x00000000        0x0 C:\Andestech\AndeSight211RDS\toolchains\nds32le-elf-mculib-v3m\nds32le-elf\libc\mculib\usr\lib\libc.a(lib_a-mallstatsr.o)
 .data          0x00000000        0x0 C:\Andestech\AndeSight211RDS\toolchains\nds32le-elf-mculib-v3m\nds32le-elf\libc\mculib\usr\lib\libc.a(lib_a-mallstatsr.o)
 .bss           0x00000000        0x0 C:\Andestech\AndeSight211RDS\toolchains\nds32le-elf-mculib-v3m\nds32le-elf\libc\mculib\usr\lib\libc.a(lib_a-mallstatsr.o)
 .rodata.str1.4
                0x00000000        0x0 C:\Andestech\AndeSight211RDS\toolchains\nds32le-elf-mculib-v3m\nds32le-elf\libc\mculib\usr\lib\libc.a(lib_a-mallstatsr.o)
 .text._malloc_stats_r
                0x00000000        0x0 C:\Andestech\AndeSight211RDS\toolchains\nds32le-elf-mculib-v3m\nds32le-elf\libc\mculib\usr\lib\libc.a(lib_a-mallstatsr.o)
 .text          0x00000000        0x0 C:\Andestech\AndeSight211RDS\toolchains\nds32le-elf-mculib-v3m\nds32le-elf\libc\mculib\usr\lib\libc.a(lib_a-reent_errno.o)
 .data          0x00000000        0x0 C:\Andestech\AndeSight211RDS\toolchains\nds32le-elf-mculib-v3m\nds32le-elf\libc\mculib\usr\lib\libc.a(lib_a-reent_errno.o)
 .bss           0x00000000        0x0 C:\Andestech\AndeSight211RDS\toolchains\nds32le-elf-mculib-v3m\nds32le-elf\libc\mculib\usr\lib\libc.a(lib_a-reent_errno.o)
 .text          0x00000000        0x0 C:\Andestech\AndeSight211RDS\toolchains\nds32le-elf-mculib-v3m\nds32le-elf\libc\mculib\usr\lib\libc.a(lib_a-vfiprintf.o)
 .data          0x00000000        0x0 C:\Andestech\AndeSight211RDS\toolchains\nds32le-elf-mculib-v3m\nds32le-elf\libc\mculib\usr\lib\libc.a(lib_a-vfiprintf.o)
 .bss           0x00000000        0x0 C:\Andestech\AndeSight211RDS\toolchains\nds32le-elf-mculib-v3m\nds32le-elf\libc\mculib\usr\lib\libc.a(lib_a-vfiprintf.o)
 .text.__sprint_r
                0x00000000        0x0 C:\Andestech\AndeSight211RDS\toolchains\nds32le-elf-mculib-v3m\nds32le-elf\libc\mculib\usr\lib\libc.a(lib_a-vfiprintf.o)
 .rodata.str1.4
                0x00000000        0x0 C:\Andestech\AndeSight211RDS\toolchains\nds32le-elf-mculib-v3m\nds32le-elf\libc\mculib\usr\lib\libc.a(lib_a-vfiprintf.o)
 .text._vfiprintf_r
                0x00000000        0x0 C:\Andestech\AndeSight211RDS\toolchains\nds32le-elf-mculib-v3m\nds32le-elf\libc\mculib\usr\lib\libc.a(lib_a-vfiprintf.o)
 .text.vfiprintf
                0x00000000        0x0 C:\Andestech\AndeSight211RDS\toolchains\nds32le-elf-mculib-v3m\nds32le-elf\libc\mculib\usr\lib\libc.a(lib_a-vfiprintf.o)
 .rodata.zeroes.3964
                0x00000000        0x0 C:\Andestech\AndeSight211RDS\toolchains\nds32le-elf-mculib-v3m\nds32le-elf\libc\mculib\usr\lib\libc.a(lib_a-vfiprintf.o)
 .rodata.blanks.3963
                0x00000000        0x0 C:\Andestech\AndeSight211RDS\toolchains\nds32le-elf-mculib-v3m\nds32le-elf\libc\mculib\usr\lib\libc.a(lib_a-vfiprintf.o)
 .text          0x00000000        0x0 C:\Andestech\AndeSight211RDS\toolchains\nds32le-elf-mculib-v3m\nds32le-elf\libc\mculib\usr\lib\libc.a(lib_a-wsetup.o)
 .data          0x00000000        0x0 C:\Andestech\AndeSight211RDS\toolchains\nds32le-elf-mculib-v3m\nds32le-elf\libc\mculib\usr\lib\libc.a(lib_a-wsetup.o)
 .bss           0x00000000        0x0 C:\Andestech\AndeSight211RDS\toolchains\nds32le-elf-mculib-v3m\nds32le-elf\libc\mculib\usr\lib\libc.a(lib_a-wsetup.o)
 .text.__swsetup_r
                0x00000000        0x0 C:\Andestech\AndeSight211RDS\toolchains\nds32le-elf-mculib-v3m\nds32le-elf\libc\mculib\usr\lib\libc.a(lib_a-wsetup.o)
 .text          0x00000000        0x0 C:\Andestech\AndeSight211RDS\toolchains\nds32le-elf-mculib-v3m\nds32le-elf\libc\mculib\usr\lib\libc.a(lib_a-data-findfp.o)
 .data          0x00000000        0x0 C:\Andestech\AndeSight211RDS\toolchains\nds32le-elf-mculib-v3m\nds32le-elf\libc\mculib\usr\lib\libc.a(lib_a-data-findfp.o)
 .bss           0x00000000        0x0 C:\Andestech\AndeSight211RDS\toolchains\nds32le-elf-mculib-v3m\nds32le-elf\libc\mculib\usr\lib\libc.a(lib_a-data-findfp.o)
 .bss._NDS32_REENT___sdidinit
                0x00000000        0x0 C:\Andestech\AndeSight211RDS\toolchains\nds32le-elf-mculib-v3m\nds32le-elf\libc\mculib\usr\lib\libc.a(lib_a-data-findfp.o)
 .bss._NDS32_REENT___cleanup
                0x00000000        0x0 C:\Andestech\AndeSight211RDS\toolchains\nds32le-elf-mculib-v3m\nds32le-elf\libc\mculib\usr\lib\libc.a(lib_a-data-findfp.o)
 .bss._NDS32_REENT___sglue
                0x00000000        0x0 C:\Andestech\AndeSight211RDS\toolchains\nds32le-elf-mculib-v3m\nds32le-elf\libc\mculib\usr\lib\libc.a(lib_a-data-findfp.o)
 .text          0x00000000        0x0 C:\Andestech\AndeSight211RDS\toolchains\nds32le-elf-mculib-v3m\nds32le-elf\libc\mculib\usr\lib\libc.a(lib_a-fflush.o)
 .data          0x00000000        0x0 C:\Andestech\AndeSight211RDS\toolchains\nds32le-elf-mculib-v3m\nds32le-elf\libc\mculib\usr\lib\libc.a(lib_a-fflush.o)
 .bss           0x00000000        0x0 C:\Andestech\AndeSight211RDS\toolchains\nds32le-elf-mculib-v3m\nds32le-elf\libc\mculib\usr\lib\libc.a(lib_a-fflush.o)
 .text._fflush_r
                0x00000000        0x0 C:\Andestech\AndeSight211RDS\toolchains\nds32le-elf-mculib-v3m\nds32le-elf\libc\mculib\usr\lib\libc.a(lib_a-fflush.o)
 .text.fflush   0x00000000        0x0 C:\Andestech\AndeSight211RDS\toolchains\nds32le-elf-mculib-v3m\nds32le-elf\libc\mculib\usr\lib\libc.a(lib_a-fflush.o)
 .text          0x00000000        0x0 C:\Andestech\AndeSight211RDS\toolchains\nds32le-elf-mculib-v3m\nds32le-elf\libc\mculib\usr\lib\libc.a(lib_a-findfp.o)
 .data          0x00000000        0x0 C:\Andestech\AndeSight211RDS\toolchains\nds32le-elf-mculib-v3m\nds32le-elf\libc\mculib\usr\lib\libc.a(lib_a-findfp.o)
 .bss           0x00000000        0x0 C:\Andestech\AndeSight211RDS\toolchains\nds32le-elf-mculib-v3m\nds32le-elf\libc\mculib\usr\lib\libc.a(lib_a-findfp.o)
 .text.__sfp_lock_acquire
                0x00000000        0x0 C:\Andestech\AndeSight211RDS\toolchains\nds32le-elf-mculib-v3m\nds32le-elf\libc\mculib\usr\lib\libc.a(lib_a-findfp.o)
 .text.__sfp_lock_release
                0x00000000        0x0 C:\Andestech\AndeSight211RDS\toolchains\nds32le-elf-mculib-v3m\nds32le-elf\libc\mculib\usr\lib\libc.a(lib_a-findfp.o)
 .text.__sinit_lock_acquire
                0x00000000        0x0 C:\Andestech\AndeSight211RDS\toolchains\nds32le-elf-mculib-v3m\nds32le-elf\libc\mculib\usr\lib\libc.a(lib_a-findfp.o)
 .text.__sinit_lock_release
                0x00000000        0x0 C:\Andestech\AndeSight211RDS\toolchains\nds32le-elf-mculib-v3m\nds32le-elf\libc\mculib\usr\lib\libc.a(lib_a-findfp.o)
 .text.__fp_lock
                0x00000000        0x0 C:\Andestech\AndeSight211RDS\toolchains\nds32le-elf-mculib-v3m\nds32le-elf\libc\mculib\usr\lib\libc.a(lib_a-findfp.o)
 .text.__fp_unlock
                0x00000000        0x0 C:\Andestech\AndeSight211RDS\toolchains\nds32le-elf-mculib-v3m\nds32le-elf\libc\mculib\usr\lib\libc.a(lib_a-findfp.o)
 .text.__fp_unlock_all
                0x00000000        0x0 C:\Andestech\AndeSight211RDS\toolchains\nds32le-elf-mculib-v3m\nds32le-elf\libc\mculib\usr\lib\libc.a(lib_a-findfp.o)
 .text.__fp_lock_all
                0x00000000        0x0 C:\Andestech\AndeSight211RDS\toolchains\nds32le-elf-mculib-v3m\nds32le-elf\libc\mculib\usr\lib\libc.a(lib_a-findfp.o)
 .text._cleanup_r
                0x00000000        0x0 C:\Andestech\AndeSight211RDS\toolchains\nds32le-elf-mculib-v3m\nds32le-elf\libc\mculib\usr\lib\libc.a(lib_a-findfp.o)
 .text._cleanup
                0x00000000        0x0 C:\Andestech\AndeSight211RDS\toolchains\nds32le-elf-mculib-v3m\nds32le-elf\libc\mculib\usr\lib\libc.a(lib_a-findfp.o)
 .text.std      0x00000000        0x0 C:\Andestech\AndeSight211RDS\toolchains\nds32le-elf-mculib-v3m\nds32le-elf\libc\mculib\usr\lib\libc.a(lib_a-findfp.o)
 .text.__sinit  0x00000000        0x0 C:\Andestech\AndeSight211RDS\toolchains\nds32le-elf-mculib-v3m\nds32le-elf\libc\mculib\usr\lib\libc.a(lib_a-findfp.o)
 .text.__sfmoreglue
                0x00000000        0x0 C:\Andestech\AndeSight211RDS\toolchains\nds32le-elf-mculib-v3m\nds32le-elf\libc\mculib\usr\lib\libc.a(lib_a-findfp.o)
 .text.__sfp    0x00000000        0x0 C:\Andestech\AndeSight211RDS\toolchains\nds32le-elf-mculib-v3m\nds32le-elf\libc\mculib\usr\lib\libc.a(lib_a-findfp.o)
 .text          0x00000000        0x0 C:\Andestech\AndeSight211RDS\toolchains\nds32le-elf-mculib-v3m\nds32le-elf\libc\mculib\usr\lib\libc.a(lib_a-fputwc.o)
 .data          0x00000000        0x0 C:\Andestech\AndeSight211RDS\toolchains\nds32le-elf-mculib-v3m\nds32le-elf\libc\mculib\usr\lib\libc.a(lib_a-fputwc.o)
 .bss           0x00000000        0x0 C:\Andestech\AndeSight211RDS\toolchains\nds32le-elf-mculib-v3m\nds32le-elf\libc\mculib\usr\lib\libc.a(lib_a-fputwc.o)
 .text._fputwc_r
                0x00000000        0x0 C:\Andestech\AndeSight211RDS\toolchains\nds32le-elf-mculib-v3m\nds32le-elf\libc\mculib\usr\lib\libc.a(lib_a-fputwc.o)
 .text.fputwc   0x00000000        0x0 C:\Andestech\AndeSight211RDS\toolchains\nds32le-elf-mculib-v3m\nds32le-elf\libc\mculib\usr\lib\libc.a(lib_a-fputwc.o)
 .text          0x00000000        0x0 C:\Andestech\AndeSight211RDS\toolchains\nds32le-elf-mculib-v3m\nds32le-elf\libc\mculib\usr\lib\libc.a(lib_a-fvwrite.o)
 .data          0x00000000        0x0 C:\Andestech\AndeSight211RDS\toolchains\nds32le-elf-mculib-v3m\nds32le-elf\libc\mculib\usr\lib\libc.a(lib_a-fvwrite.o)
 .bss           0x00000000        0x0 C:\Andestech\AndeSight211RDS\toolchains\nds32le-elf-mculib-v3m\nds32le-elf\libc\mculib\usr\lib\libc.a(lib_a-fvwrite.o)
 .text.__sfvwrite_r
                0x00000000        0x0 C:\Andestech\AndeSight211RDS\toolchains\nds32le-elf-mculib-v3m\nds32le-elf\libc\mculib\usr\lib\libc.a(lib_a-fvwrite.o)
 .text          0x00000000        0x0 C:\Andestech\AndeSight211RDS\toolchains\nds32le-elf-mculib-v3m\nds32le-elf\libc\mculib\usr\lib\libc.a(lib_a-fwalk.o)
 .data          0x00000000        0x0 C:\Andestech\AndeSight211RDS\toolchains\nds32le-elf-mculib-v3m\nds32le-elf\libc\mculib\usr\lib\libc.a(lib_a-fwalk.o)
 .bss           0x00000000        0x0 C:\Andestech\AndeSight211RDS\toolchains\nds32le-elf-mculib-v3m\nds32le-elf\libc\mculib\usr\lib\libc.a(lib_a-fwalk.o)
 .text._fwalk_reent
                0x00000000        0x0 C:\Andestech\AndeSight211RDS\toolchains\nds32le-elf-mculib-v3m\nds32le-elf\libc\mculib\usr\lib\libc.a(lib_a-fwalk.o)
 .text._fwalk   0x00000000        0x0 C:\Andestech\AndeSight211RDS\toolchains\nds32le-elf-mculib-v3m\nds32le-elf\libc\mculib\usr\lib\libc.a(lib_a-fwalk.o)
 .text          0x00000000        0x0 C:\Andestech\AndeSight211RDS\toolchains\nds32le-elf-mculib-v3m\nds32le-elf\libc\mculib\usr\lib\libc.a(lib_a-locale.o)
 .data          0x00000000        0x0 C:\Andestech\AndeSight211RDS\toolchains\nds32le-elf-mculib-v3m\nds32le-elf\libc\mculib\usr\lib\libc.a(lib_a-locale.o)
 .bss           0x00000000        0x0 C:\Andestech\AndeSight211RDS\toolchains\nds32le-elf-mculib-v3m\nds32le-elf\libc\mculib\usr\lib\libc.a(lib_a-locale.o)
 .text.__locale_charset
                0x00000000        0x0 C:\Andestech\AndeSight211RDS\toolchains\nds32le-elf-mculib-v3m\nds32le-elf\libc\mculib\usr\lib\libc.a(lib_a-locale.o)
 .text.__locale_msgcharset
                0x00000000        0x0 C:\Andestech\AndeSight211RDS\toolchains\nds32le-elf-mculib-v3m\nds32le-elf\libc\mculib\usr\lib\libc.a(lib_a-locale.o)
 .text.__locale_cjk_lang
                0x00000000        0x0 C:\Andestech\AndeSight211RDS\toolchains\nds32le-elf-mculib-v3m\nds32le-elf\libc\mculib\usr\lib\libc.a(lib_a-locale.o)
 .text._localeconv_r
                0x00000000        0x0 C:\Andestech\AndeSight211RDS\toolchains\nds32le-elf-mculib-v3m\nds32le-elf\libc\mculib\usr\lib\libc.a(lib_a-locale.o)
 .text.localeconv
                0x00000000        0x0 C:\Andestech\AndeSight211RDS\toolchains\nds32le-elf-mculib-v3m\nds32le-elf\libc\mculib\usr\lib\libc.a(lib_a-locale.o)
 .rodata.str1.4
                0x00000000        0x0 C:\Andestech\AndeSight211RDS\toolchains\nds32le-elf-mculib-v3m\nds32le-elf\libc\mculib\usr\lib\libc.a(lib_a-locale.o)
 .text._setlocale_r
                0x00000000        0x0 C:\Andestech\AndeSight211RDS\toolchains\nds32le-elf-mculib-v3m\nds32le-elf\libc\mculib\usr\lib\libc.a(lib_a-locale.o)
 .text.setlocale
                0x00000000        0x0 C:\Andestech\AndeSight211RDS\toolchains\nds32le-elf-mculib-v3m\nds32le-elf\libc\mculib\usr\lib\libc.a(lib_a-locale.o)
 .data.__mb_cur_max
                0x00000000        0x0 C:\Andestech\AndeSight211RDS\toolchains\nds32le-elf-mculib-v3m\nds32le-elf\libc\mculib\usr\lib\libc.a(lib_a-locale.o)
 .bss.__nlocale_changed
                0x00000000        0x0 C:\Andestech\AndeSight211RDS\toolchains\nds32le-elf-mculib-v3m\nds32le-elf\libc\mculib\usr\lib\libc.a(lib_a-locale.o)
 .bss.__mlocale_changed
                0x00000000        0x0 C:\Andestech\AndeSight211RDS\toolchains\nds32le-elf-mculib-v3m\nds32le-elf\libc\mculib\usr\lib\libc.a(lib_a-locale.o)
 .bss._PathLocale
                0x00000000        0x0 C:\Andestech\AndeSight211RDS\toolchains\nds32le-elf-mculib-v3m\nds32le-elf\libc\mculib\usr\lib\libc.a(lib_a-locale.o)
 .rodata.lconv  0x00000000        0x0 C:\Andestech\AndeSight211RDS\toolchains\nds32le-elf-mculib-v3m\nds32le-elf\libc\mculib\usr\lib\libc.a(lib_a-locale.o)
 .data.lc_message_charset
                0x00000000        0x0 C:\Andestech\AndeSight211RDS\toolchains\nds32le-elf-mculib-v3m\nds32le-elf\libc\mculib\usr\lib\libc.a(lib_a-locale.o)
 .data.lc_ctype_charset
                0x00000000        0x0 C:\Andestech\AndeSight211RDS\toolchains\nds32le-elf-mculib-v3m\nds32le-elf\libc\mculib\usr\lib\libc.a(lib_a-locale.o)
 .text          0x00000000        0x0 C:\Andestech\AndeSight211RDS\toolchains\nds32le-elf-mculib-v3m\nds32le-elf\libc\mculib\usr\lib\libc.a(lib_a-makebuf.o)
 .data          0x00000000        0x0 C:\Andestech\AndeSight211RDS\toolchains\nds32le-elf-mculib-v3m\nds32le-elf\libc\mculib\usr\lib\libc.a(lib_a-makebuf.o)
 .bss           0x00000000        0x0 C:\Andestech\AndeSight211RDS\toolchains\nds32le-elf-mculib-v3m\nds32le-elf\libc\mculib\usr\lib\libc.a(lib_a-makebuf.o)
 .text.__smakebuf_r
                0x00000000        0x0 C:\Andestech\AndeSight211RDS\toolchains\nds32le-elf-mculib-v3m\nds32le-elf\libc\mculib\usr\lib\libc.a(lib_a-makebuf.o)
 .text          0x00000000        0x0 C:\Andestech\AndeSight211RDS\toolchains\nds32le-elf-mculib-v3m\nds32le-elf\libc\mculib\usr\lib\libc.a(lib_a-memchr.o)
 .data          0x00000000        0x0 C:\Andestech\AndeSight211RDS\toolchains\nds32le-elf-mculib-v3m\nds32le-elf\libc\mculib\usr\lib\libc.a(lib_a-memchr.o)
 .bss           0x00000000        0x0 C:\Andestech\AndeSight211RDS\toolchains\nds32le-elf-mculib-v3m\nds32le-elf\libc\mculib\usr\lib\libc.a(lib_a-memchr.o)
 .text          0x00000000        0x0 C:\Andestech\AndeSight211RDS\toolchains\nds32le-elf-mculib-v3m\nds32le-elf\libc\mculib\usr\lib\libc.a(lib_a-reallocr.o)
 .data          0x00000000        0x0 C:\Andestech\AndeSight211RDS\toolchains\nds32le-elf-mculib-v3m\nds32le-elf\libc\mculib\usr\lib\libc.a(lib_a-reallocr.o)
 .bss           0x00000000        0x0 C:\Andestech\AndeSight211RDS\toolchains\nds32le-elf-mculib-v3m\nds32le-elf\libc\mculib\usr\lib\libc.a(lib_a-reallocr.o)
 .text._realloc_r
                0x00000000        0x0 C:\Andestech\AndeSight211RDS\toolchains\nds32le-elf-mculib-v3m\nds32le-elf\libc\mculib\usr\lib\libc.a(lib_a-reallocr.o)
 .text          0x00000000        0x0 C:\Andestech\AndeSight211RDS\toolchains\nds32le-elf-mculib-v3m\nds32le-elf\libc\mculib\usr\lib\libc.a(lib_a-stdio.o)
 .data          0x00000000        0x0 C:\Andestech\AndeSight211RDS\toolchains\nds32le-elf-mculib-v3m\nds32le-elf\libc\mculib\usr\lib\libc.a(lib_a-stdio.o)
 .bss           0x00000000        0x0 C:\Andestech\AndeSight211RDS\toolchains\nds32le-elf-mculib-v3m\nds32le-elf\libc\mculib\usr\lib\libc.a(lib_a-stdio.o)
 .text.__seofread
                0x00000000        0x0 C:\Andestech\AndeSight211RDS\toolchains\nds32le-elf-mculib-v3m\nds32le-elf\libc\mculib\usr\lib\libc.a(lib_a-stdio.o)
 .text.__sclose
                0x00000000        0x0 C:\Andestech\AndeSight211RDS\toolchains\nds32le-elf-mculib-v3m\nds32le-elf\libc\mculib\usr\lib\libc.a(lib_a-stdio.o)
 .text.__sseek  0x00000000        0x0 C:\Andestech\AndeSight211RDS\toolchains\nds32le-elf-mculib-v3m\nds32le-elf\libc\mculib\usr\lib\libc.a(lib_a-stdio.o)
 .text.__swrite
                0x00000000        0x0 C:\Andestech\AndeSight211RDS\toolchains\nds32le-elf-mculib-v3m\nds32le-elf\libc\mculib\usr\lib\libc.a(lib_a-stdio.o)
 .text.__sread  0x00000000        0x0 C:\Andestech\AndeSight211RDS\toolchains\nds32le-elf-mculib-v3m\nds32le-elf\libc\mculib\usr\lib\libc.a(lib_a-stdio.o)
 .text          0x00000000        0x0 C:\Andestech\AndeSight211RDS\toolchains\nds32le-elf-mculib-v3m\nds32le-elf\libc\mculib\usr\lib\libc.a(lib_a-wbuf.o)
 .data          0x00000000        0x0 C:\Andestech\AndeSight211RDS\toolchains\nds32le-elf-mculib-v3m\nds32le-elf\libc\mculib\usr\lib\libc.a(lib_a-wbuf.o)
 .bss           0x00000000        0x0 C:\Andestech\AndeSight211RDS\toolchains\nds32le-elf-mculib-v3m\nds32le-elf\libc\mculib\usr\lib\libc.a(lib_a-wbuf.o)
 .text.__swbuf_r
                0x00000000        0x0 C:\Andestech\AndeSight211RDS\toolchains\nds32le-elf-mculib-v3m\nds32le-elf\libc\mculib\usr\lib\libc.a(lib_a-wbuf.o)
 .text.__swbuf  0x00000000        0x0 C:\Andestech\AndeSight211RDS\toolchains\nds32le-elf-mculib-v3m\nds32le-elf\libc\mculib\usr\lib\libc.a(lib_a-wbuf.o)
 .text          0x00000000        0x0 C:\Andestech\AndeSight211RDS\toolchains\nds32le-elf-mculib-v3m\nds32le-elf\libc\mculib\usr\lib\libc.a(lib_a-wcrtomb.o)
 .data          0x00000000        0x0 C:\Andestech\AndeSight211RDS\toolchains\nds32le-elf-mculib-v3m\nds32le-elf\libc\mculib\usr\lib\libc.a(lib_a-wcrtomb.o)
 .bss           0x00000000        0x0 C:\Andestech\AndeSight211RDS\toolchains\nds32le-elf-mculib-v3m\nds32le-elf\libc\mculib\usr\lib\libc.a(lib_a-wcrtomb.o)
 .text._wcrtomb_r
                0x00000000        0x0 C:\Andestech\AndeSight211RDS\toolchains\nds32le-elf-mculib-v3m\nds32le-elf\libc\mculib\usr\lib\libc.a(lib_a-wcrtomb.o)
 .text.wcrtomb  0x00000000        0x0 C:\Andestech\AndeSight211RDS\toolchains\nds32le-elf-mculib-v3m\nds32le-elf\libc\mculib\usr\lib\libc.a(lib_a-wcrtomb.o)
 .text          0x00000000        0x0 C:\Andestech\AndeSight211RDS\toolchains\nds32le-elf-mculib-v3m\nds32le-elf\libc\mculib\usr\lib\libc.a(lib_a-wctomb_r.o)
 .data          0x00000000        0x0 C:\Andestech\AndeSight211RDS\toolchains\nds32le-elf-mculib-v3m\nds32le-elf\libc\mculib\usr\lib\libc.a(lib_a-wctomb_r.o)
 .bss           0x00000000        0x0 C:\Andestech\AndeSight211RDS\toolchains\nds32le-elf-mculib-v3m\nds32le-elf\libc\mculib\usr\lib\libc.a(lib_a-wctomb_r.o)
 .text.__ascii_wctomb
                0x00000000        0x0 C:\Andestech\AndeSight211RDS\toolchains\nds32le-elf-mculib-v3m\nds32le-elf\libc\mculib\usr\lib\libc.a(lib_a-wctomb_r.o)
 .text._wctomb_r
                0x00000000        0x0 C:\Andestech\AndeSight211RDS\toolchains\nds32le-elf-mculib-v3m\nds32le-elf\libc\mculib\usr\lib\libc.a(lib_a-wctomb_r.o)
 .data.__wctomb
                0x00000000        0x0 C:\Andestech\AndeSight211RDS\toolchains\nds32le-elf-mculib-v3m\nds32le-elf\libc\mculib\usr\lib\libc.a(lib_a-wctomb_r.o)
 .text          0x00000000        0x0 C:\Andestech\AndeSight211RDS\toolchains\nds32le-elf-mculib-v3m\nds32le-elf\libc\mculib\usr\lib\libc.a(lib_a-writer.o)
 .data          0x00000000        0x0 C:\Andestech\AndeSight211RDS\toolchains\nds32le-elf-mculib-v3m\nds32le-elf\libc\mculib\usr\lib\libc.a(lib_a-writer.o)
 .bss           0x00000000        0x0 C:\Andestech\AndeSight211RDS\toolchains\nds32le-elf-mculib-v3m\nds32le-elf\libc\mculib\usr\lib\libc.a(lib_a-writer.o)
 .text._write_r
                0x00000000        0x0 C:\Andestech\AndeSight211RDS\toolchains\nds32le-elf-mculib-v3m\nds32le-elf\libc\mculib\usr\lib\libc.a(lib_a-writer.o)
 .text          0x00000000        0x0 C:\Andestech\AndeSight211RDS\toolchains\nds32le-elf-mculib-v3m\nds32le-elf\libc\mculib\usr\lib\libc.a(lib_a-closer.o)
 .data          0x00000000        0x0 C:\Andestech\AndeSight211RDS\toolchains\nds32le-elf-mculib-v3m\nds32le-elf\libc\mculib\usr\lib\libc.a(lib_a-closer.o)
 .bss           0x00000000        0x0 C:\Andestech\AndeSight211RDS\toolchains\nds32le-elf-mculib-v3m\nds32le-elf\libc\mculib\usr\lib\libc.a(lib_a-closer.o)
 .text._close_r
                0x00000000        0x0 C:\Andestech\AndeSight211RDS\toolchains\nds32le-elf-mculib-v3m\nds32le-elf\libc\mculib\usr\lib\libc.a(lib_a-closer.o)
 .text          0x00000000        0x0 C:\Andestech\AndeSight211RDS\toolchains\nds32le-elf-mculib-v3m\nds32le-elf\libc\mculib\usr\lib\libc.a(lib_a-fclose.o)
 .data          0x00000000        0x0 C:\Andestech\AndeSight211RDS\toolchains\nds32le-elf-mculib-v3m\nds32le-elf\libc\mculib\usr\lib\libc.a(lib_a-fclose.o)
 .bss           0x00000000        0x0 C:\Andestech\AndeSight211RDS\toolchains\nds32le-elf-mculib-v3m\nds32le-elf\libc\mculib\usr\lib\libc.a(lib_a-fclose.o)
 .text._fclose_r
                0x00000000        0x0 C:\Andestech\AndeSight211RDS\toolchains\nds32le-elf-mculib-v3m\nds32le-elf\libc\mculib\usr\lib\libc.a(lib_a-fclose.o)
 .text.fclose   0x00000000        0x0 C:\Andestech\AndeSight211RDS\toolchains\nds32le-elf-mculib-v3m\nds32le-elf\libc\mculib\usr\lib\libc.a(lib_a-fclose.o)
 .text          0x00000000        0x0 C:\Andestech\AndeSight211RDS\toolchains\nds32le-elf-mculib-v3m\nds32le-elf\libc\mculib\usr\lib\libc.a(lib_a-fstatr.o)
 .data          0x00000000        0x0 C:\Andestech\AndeSight211RDS\toolchains\nds32le-elf-mculib-v3m\nds32le-elf\libc\mculib\usr\lib\libc.a(lib_a-fstatr.o)
 .bss           0x00000000        0x0 C:\Andestech\AndeSight211RDS\toolchains\nds32le-elf-mculib-v3m\nds32le-elf\libc\mculib\usr\lib\libc.a(lib_a-fstatr.o)
 .text._fstat_r
                0x00000000        0x0 C:\Andestech\AndeSight211RDS\toolchains\nds32le-elf-mculib-v3m\nds32le-elf\libc\mculib\usr\lib\libc.a(lib_a-fstatr.o)
 .text          0x00000000        0x0 C:\Andestech\AndeSight211RDS\toolchains\nds32le-elf-mculib-v3m\nds32le-elf\libc\mculib\usr\lib\libc.a(lib_a-isattyr.o)
 .data          0x00000000        0x0 C:\Andestech\AndeSight211RDS\toolchains\nds32le-elf-mculib-v3m\nds32le-elf\libc\mculib\usr\lib\libc.a(lib_a-isattyr.o)
 .bss           0x00000000        0x0 C:\Andestech\AndeSight211RDS\toolchains\nds32le-elf-mculib-v3m\nds32le-elf\libc\mculib\usr\lib\libc.a(lib_a-isattyr.o)
 .text._isatty_r
                0x00000000        0x0 C:\Andestech\AndeSight211RDS\toolchains\nds32le-elf-mculib-v3m\nds32le-elf\libc\mculib\usr\lib\libc.a(lib_a-isattyr.o)
 .text          0x00000000        0x0 C:\Andestech\AndeSight211RDS\toolchains\nds32le-elf-mculib-v3m\nds32le-elf\libc\mculib\usr\lib\libc.a(lib_a-lseekr.o)
 .data          0x00000000        0x0 C:\Andestech\AndeSight211RDS\toolchains\nds32le-elf-mculib-v3m\nds32le-elf\libc\mculib\usr\lib\libc.a(lib_a-lseekr.o)
 .bss           0x00000000        0x0 C:\Andestech\AndeSight211RDS\toolchains\nds32le-elf-mculib-v3m\nds32le-elf\libc\mculib\usr\lib\libc.a(lib_a-lseekr.o)
 .text._lseek_r
                0x00000000        0x0 C:\Andestech\AndeSight211RDS\toolchains\nds32le-elf-mculib-v3m\nds32le-elf\libc\mculib\usr\lib\libc.a(lib_a-lseekr.o)
 .text          0x00000000        0x0 C:\Andestech\AndeSight211RDS\toolchains\nds32le-elf-mculib-v3m\nds32le-elf\libc\mculib\usr\lib\libc.a(lib_a-readr.o)
 .data          0x00000000        0x0 C:\Andestech\AndeSight211RDS\toolchains\nds32le-elf-mculib-v3m\nds32le-elf\libc\mculib\usr\lib\libc.a(lib_a-readr.o)
 .bss           0x00000000        0x0 C:\Andestech\AndeSight211RDS\toolchains\nds32le-elf-mculib-v3m\nds32le-elf\libc\mculib\usr\lib\libc.a(lib_a-readr.o)
 .text._read_r  0x00000000        0x0 C:\Andestech\AndeSight211RDS\toolchains\nds32le-elf-mculib-v3m\nds32le-elf\libc\mculib\usr\lib\libc.a(lib_a-readr.o)
 .data          0x00000000        0x0 C:\Andestech\AndeSight211RDS\toolchains\nds32le-elf-mculib-v3m\lib\gcc\nds32le-elf\4.4.4\mculib\libgcc.a(_sf_to_df.o)
 .bss           0x00000000        0x0 C:\Andestech\AndeSight211RDS\toolchains\nds32le-elf-mculib-v3m\lib\gcc\nds32le-elf\4.4.4\mculib\libgcc.a(_sf_to_df.o)
 .data          0x00000000        0x0 C:\Andestech\AndeSight211RDS\toolchains\nds32le-elf-mculib-v3m\lib\gcc\nds32le-elf\4.4.4\mculib\libgcc.a(_mul_df.o)
 .bss           0x00000000        0x0 C:\Andestech\AndeSight211RDS\toolchains\nds32le-elf-mculib-v3m\lib\gcc\nds32le-elf\4.4.4\mculib\libgcc.a(_mul_df.o)
 .data          0x00000000        0x0 C:\Andestech\AndeSight211RDS\toolchains\nds32le-elf-mculib-v3m\lib\gcc\nds32le-elf\4.4.4\mculib\libgcc.a(_compare_df.o)
 .bss           0x00000000        0x0 C:\Andestech\AndeSight211RDS\toolchains\nds32le-elf-mculib-v3m\lib\gcc\nds32le-elf\4.4.4\mculib\libgcc.a(_compare_df.o)
 .data          0x00000000        0x0 C:\Andestech\AndeSight211RDS\toolchains\nds32le-elf-mculib-v3m\lib\gcc\nds32le-elf\4.4.4\mculib\libgcc.a(_fixunsdfsi.o)
 .bss           0x00000000        0x0 C:\Andestech\AndeSight211RDS\toolchains\nds32le-elf-mculib-v3m\lib\gcc\nds32le-elf\4.4.4\mculib\libgcc.a(_fixunsdfsi.o)
 .data          0x00000000        0x0 C:\Andestech\AndeSight211RDS\toolchains\nds32le-elf-mculib-v3m\lib\gcc\nds32le-elf\4.4.4\mculib\libgcc.a(_muldi3.o)
 .bss           0x00000000        0x0 C:\Andestech\AndeSight211RDS\toolchains\nds32le-elf-mculib-v3m\lib\gcc\nds32le-elf\4.4.4\mculib\libgcc.a(_muldi3.o)
 .data          0x00000000        0x0 C:\Andestech\AndeSight211RDS\toolchains\nds32le-elf-mculib-v3m\lib\gcc\nds32le-elf\4.4.4\mculib\libgcc.a(_lshrdi3.o)
 .bss           0x00000000        0x0 C:\Andestech\AndeSight211RDS\toolchains\nds32le-elf-mculib-v3m\lib\gcc\nds32le-elf\4.4.4\mculib\libgcc.a(_lshrdi3.o)
 .data          0x00000000        0x0 C:\Andestech\AndeSight211RDS\toolchains\nds32le-elf-mculib-v3m\lib\gcc\nds32le-elf\4.4.4\mculib\libgcc.a(_ashldi3.o)
 .bss           0x00000000        0x0 C:\Andestech\AndeSight211RDS\toolchains\nds32le-elf-mculib-v3m\lib\gcc\nds32le-elf\4.4.4\mculib\libgcc.a(_ashldi3.o)
 .text          0x00000000        0x0 C:\Andestech\AndeSight211RDS\toolchains\nds32le-elf-mculib-v3m\lib\gcc\nds32le-elf\4.4.4\mculib\libgcc.a(_udivdi3.o)
 .data          0x00000000        0x0 C:\Andestech\AndeSight211RDS\toolchains\nds32le-elf-mculib-v3m\lib\gcc\nds32le-elf\4.4.4\mculib\libgcc.a(_udivdi3.o)
 .bss           0x00000000        0x0 C:\Andestech\AndeSight211RDS\toolchains\nds32le-elf-mculib-v3m\lib\gcc\nds32le-elf\4.4.4\mculib\libgcc.a(_udivdi3.o)
 .text          0x00000000        0x0 C:\Andestech\AndeSight211RDS\toolchains\nds32le-elf-mculib-v3m\lib\gcc\nds32le-elf\4.4.4\mculib\libgcc.a(_umoddi3.o)
 .data          0x00000000        0x0 C:\Andestech\AndeSight211RDS\toolchains\nds32le-elf-mculib-v3m\lib\gcc\nds32le-elf\4.4.4\mculib\libgcc.a(_umoddi3.o)
 .bss           0x00000000        0x0 C:\Andestech\AndeSight211RDS\toolchains\nds32le-elf-mculib-v3m\lib\gcc\nds32le-elf\4.4.4\mculib\libgcc.a(_umoddi3.o)
 .text          0x00000000        0x0 C:\Andestech\AndeSight211RDS\toolchains\nds32le-elf-mculib-v3m\lib\gcc\nds32le-elf\4.4.4\mculib\libgcc.a(_udivmoddi4.o)
 .data          0x00000000        0x0 C:\Andestech\AndeSight211RDS\toolchains\nds32le-elf-mculib-v3m\lib\gcc\nds32le-elf\4.4.4\mculib\libgcc.a(_udivmoddi4.o)
 .bss           0x00000000        0x0 C:\Andestech\AndeSight211RDS\toolchains\nds32le-elf-mculib-v3m\lib\gcc\nds32le-elf\4.4.4\mculib\libgcc.a(_udivmoddi4.o)
 .data          0x00000000        0x0 C:\Andestech\AndeSight211RDS\toolchains\nds32le-elf-mculib-v3m\lib\gcc\nds32le-elf\4.4.4\mculib\libgcc.a(_mul_sf.o)
 .bss           0x00000000        0x0 C:\Andestech\AndeSight211RDS\toolchains\nds32le-elf-mculib-v3m\lib\gcc\nds32le-elf\4.4.4\mculib\libgcc.a(_mul_sf.o)
 .data          0x00000000        0x0 C:\Andestech\AndeSight211RDS\toolchains\nds32le-elf-mculib-v3m\lib\gcc\nds32le-elf\4.4.4\mculib\libgcc.a(_div_sf.o)
 .bss           0x00000000        0x0 C:\Andestech\AndeSight211RDS\toolchains\nds32le-elf-mculib-v3m\lib\gcc\nds32le-elf\4.4.4\mculib\libgcc.a(_div_sf.o)
 .data          0x00000000        0x0 C:\Andestech\AndeSight211RDS\toolchains\nds32le-elf-mculib-v3m\lib\gcc\nds32le-elf\4.4.4\mculib\libgcc.a(_floatunsisf.o)
 .bss           0x00000000        0x0 C:\Andestech\AndeSight211RDS\toolchains\nds32le-elf-mculib-v3m\lib\gcc\nds32le-elf\4.4.4\mculib\libgcc.a(_floatunsisf.o)
 .data          0x00000000        0x0 C:\Andestech\AndeSight211RDS\toolchains\nds32le-elf-mculib-v3m\lib\gcc\nds32le-elf\4.4.4\mculib\libgcc.a(_floatunsidf.o)
 .bss           0x00000000        0x0 C:\Andestech\AndeSight211RDS\toolchains\nds32le-elf-mculib-v3m\lib\gcc\nds32le-elf\4.4.4\mculib\libgcc.a(_floatunsidf.o)
 .text          0x00000000        0x0 C:\Andestech\AndeSight211RDS\toolchains\nds32le-elf-mculib-v3m\lib\gcc\nds32le-elf\4.4.4\mculib\libgcc.a(clz.o)
 .data          0x00000000        0x0 C:\Andestech\AndeSight211RDS\toolchains\nds32le-elf-mculib-v3m\lib\gcc\nds32le-elf\4.4.4\mculib\libgcc.a(clz.o)
 .bss           0x00000000        0x0 C:\Andestech\AndeSight211RDS\toolchains\nds32le-elf-mculib-v3m\lib\gcc\nds32le-elf\4.4.4\mculib\libgcc.a(clz.o)

Memory Configuration

Name             Origin             Length             Attributes
FLASH_DATA       0x00081000         0x0000f000         xr
FLASH_TEXT       0x00090000         0x00038000         xr
DRAM             0x00100000         0x00008000         !xr
*default*        0x00000000         0xffffffff

Linker script and memory map

LOAD /cygdrive/c/Airoha/AiroBlueSDK/AB1600_1_0_5_0/projects/Remote/output/pj/components/Device/AB1600/cfg_sector.o
LOAD /cygdrive/c/Airoha/AiroBlueSDK/AB1600_1_0_5_0/projects/Remote/output/pj/components/Libraries/hci_devices/hci_spi_1602.o
LOAD /cygdrive/c/Airoha/AiroBlueSDK/AB1600_1_0_5_0/projects/Remote/output/pj/components/BT/release/bt_patch/1602_patching.o
LOAD /cygdrive/c/Airoha/AiroBlueSDK/AB1600_1_0_5_0/projects/Remote/output/main.o
LOAD /cygdrive/c/Airoha/AiroBlueSDK/AB1600_1_0_5_0/projects/Remote/output/remote.o
LOAD /cygdrive/c/Airoha/AiroBlueSDK/AB1600_1_0_5_0/projects/Remote/output/remote_button.o
LOAD /cygdrive/c/Airoha/AiroBlueSDK/AB1600_1_0_5_0/projects/Remote/output/remote_mouse.o
LOAD /cygdrive/c/Airoha/AiroBlueSDK/AB1600_1_0_5_0/projects/Remote/output/remote_microphone.o
LOAD /cygdrive/c/Airoha/AiroBlueSDK/AB1600_1_0_5_0/projects/Remote/output/remote_gatt.o
LOAD /cygdrive/c/Airoha/AiroBlueSDK/AB1600_1_0_5_0/projects/Remote/output/remote_adv.o
LOAD /cygdrive/c/Airoha/AiroBlueSDK/AB1600_1_0_5_0/projects/Remote/output/remote_led.o
LOAD /cygdrive/c/Airoha/AiroBlueSDK/AB1600_1_0_5_0/projects/Remote/output/remote_gpio.o
LOAD /cygdrive/c/Airoha/AiroBlueSDK/AB1600_1_0_5_0/projects/Remote/output/remote_vcmd.o
LOAD /cygdrive/c/Airoha/AiroBlueSDK/AB1600_1_0_5_0/projects/Remote/output/spl/components/Libraries/external/ICM_20688_spi/mtd.o
LOAD /cygdrive/c/Airoha/AiroBlueSDK/AB1600_1_0_5_0/projects/Remote/output/spl/components/Libraries/external/ADPCM/g726_enc_32.o
LOAD /cygdrive/c/Airoha/AiroBlueSDK/AB1600_1_0_5_0/projects/Remote/output/spl/components/Libraries/external/ADPCM/g72x.o
LOAD /cygdrive/c/Airoha/AiroBlueSDK/AB1600_1_0_5_0/projects/Remote/output/spl/components/Libraries/external/ima_adpcm/ima_enc.o
LOAD components/BT/release/hci_protocol_1602.o
                0x000802a0                _ContextSwitch = 0x802a0
                0x00080060                VECTOR6 = 0x80060
                0x00210000                UART = 0x210000
                0x000807cc                CRC16_Generate = 0x807cc
                0x00201000                CMTFLASH = 0x201000
                0x00080476                AB_DFU_get_active_code_area = 0x80476
                0x00209000                FE25519 = 0x209000
                0x0021d000                ADC = 0x21d000
                0x00080800                CRC16_Generate_LongLenth = 0x80800
                0x00001000                __DFU_SECTOR_LEN = 0x1000
                0x00080240                VECTOR36 = 0x80240
                0x00080ba0                OS_Timer32B1_Init = 0x80ba0
                0x000801b0                VECTOR27 = 0x801b0
                0x00206000                WIRE3 = 0x206000
                0x000800f0                VECTOR15 = 0x800f0
                0x001000a8                AREA2_START = 0x1000a8
                0x00080888                OS_delay_us = 0x80888
                0x000800c0                VECTOR12 = 0x800c0
                0x00223000                TMR16B1 = 0x223000
                0x000801f0                VECTOR31 = 0x801f0
                0x00080160                VECTOR22 = 0x80160
                0x00211000                UART2 = 0x211000
                0x0020c000                SMARTCARD = 0x20c000
                0x00080040                VECTOR4 = 0x80040
                0x00226000                KEYSCAN = 0x226000
                0x0008032e                SysIntrHandlerCancel = 0x8032e
                0x00204000                IOMUX = 0x204000
                0x00080020                VECTOR2 = 0x80020
                0x00202000                SERIALFLASH = 0x202000
                0x000804bc                AB_DFU_check_status = 0x804bc
                0x00084000                DFU_active_area = 0x84000
                0x001000ac                AREA1_START = 0x1000ac
                0x001000b0                CRITICAL_DEPTH = 0x1000b0
                0x00080120                VECTOR18 = 0x80120
                0x0008030e                AB_SYS_WaitIClear = 0x8030e
                0x00221000                TMR32B1 = 0x221000
                0x0008095c                SYS_3WireWrite = 0x8095c
                0x0008052c                AB_SECTOR_GetCfgParameter = 0x8052c
                0x000801c0                VECTOR28 = 0x801c0
                0x00214000                I2C = 0x214000
                0x0021c000                AUDIO = 0x21c000
                0x00080220                VECTOR34 = 0x80220
                0x00080010                VECTOR1 = 0x80010
                0x000801e0                VECTOR30 = 0x801e0
                0x00080080                VECTOR8 = 0x80080
                0x00080190                VECTOR25 = 0x80190
                0x000808aa                OS_delay_ms = 0x808aa
                0x00080280                VECTOR40 = 0x80280
                0x00203000                CODEPATCH = 0x203000
                0x000800d0                VECTOR13 = 0x800d0
                0x00080070                VECTOR7 = 0x80070
                0x001000b4                SYS_CLOCK = 0x1000b4
                0x000800a0                VECTOR10 = 0x800a0
                0x000808b8                SYS_3WireRead = 0x808b8
                0x000809f6                SYS_3WireBitWrite = 0x809f6
                0x00080270                VECTOR39 = 0x80270
                0x00080140                VECTOR20 = 0x80140
                0x00080050                VECTOR5 = 0x80050
                0x00084000                __DFU_SECTOR_ADDR = 0x84000
                0x00080250                VECTOR37 = 0x80250
                0x000803fc                FlashSecretPattern = 0x803fc
                0x00205000                PMU = 0x205000
                0x00104000                _SDA_BASE_ = 0x104000
                0x00080aa2                OS_Timer32B1_Reset = 0x80aa2
                0x00080100                VECTOR16 = 0x80100
                0x00080b4e                OS_Timer32B1_Enable = 0x80b4e
                0x0008036a                SysIntrInitialise = 0x8036a
                0x00080384                SysIntrHandlerRegister = 0x80384
                0x00218000                SPI = 0x218000
                0x00107f00                __SYS_STACK_START = 0x107f00
                0x00219000                SPI2 = 0x219000
                0x00080a10                SYS_3WireBitErase = 0x80a10
                0x00220000                TMR32B0 = 0x220000
                0x00208000                SRP = 0x208000
                0x00080200                VECTOR32 = 0x80200
                0x0008055a                AB_Apply_CfgParameter = 0x8055a
                0x001000b8                gOSTimer32B1Prescale = 0x1000b8
                0x00080170                VECTOR23 = 0x80170
                0x00222000                TMR16B0 = 0x222000
                0x00080304                AB_SYS_SetWaitI = 0x80304
                0x00080130                VECTOR19 = 0x80130
                0x0008000c                VECTOR0_2 = 0x8000c
                0x00080afc                OS_Timer32B1_Disable = 0x80afc
                0x00080030                VECTOR3 = 0x80030
                0x00080090                VECTOR9 = 0x80090
                0x000801d0                VECTOR29 = 0x801d0
                0x000806ac                SysInit = 0x806ac
                0x00080230                VECTOR35 = 0x80230
                0x000801a0                VECTOR26 = 0x801a0
                0x001000bc                PSW_SAVE = 0x1000bc
                0x000800e0                VECTOR14 = 0x800e0
                0x00080008                VECTOR0_1 = 0x80008
                0x0008083a                DRV_MCU_ClearCache = 0x8083a
                0x00080440                AB_DFU_check_area_validity = 0x80440
                0x00225000                LED = 0x225000
                0x000800b0                VECTOR11 = 0x800b0
                0x0008053e                DefaultSystemHandler = 0x8053e
                0x001000c0                _memory_top_BOOT = 0x1000c0
                0x00080150                VECTOR21 = 0x80150
                0x00200000                MCU = 0x200000
                0x00080260                VECTOR38 = 0x80260
                0x00080000                VECTOR0 = 0x80000
                0x00080400                _start_up = 0x80400
                0x00080110                VECTOR17 = 0x80110
                0x00080a56                OS_Timer32B1_ReadTC = 0x80a56
                0x00080318                SysIntrHandler = 0x80318
                0x000803fc                _SECRET_PATTERN_ADDR = 0x803fc
                0x00080210                VECTOR33 = 0x80210
                0x00080180                VECTOR24 = 0x80180
                0x00224000                WDT = 0x224000
                0x00000000                __ROM_DATA_LMA = 0x0
                0x00000000                __ROM_DATA_VMA = 0x0
                0x00000000                __ROM_DATA_LEN = 0x0
                0x00000000                __ROM_BSS_START = 0x0
                0x00000000                __ROM_BSS_LEN = 0x0

.mp_sector      0x00081000     0x1000
 *(.mp_sector)
 .mp_sector     0x00081000     0x1000 /cygdrive/c/Airoha/AiroBlueSDK/AB1600_1_0_5_0/projects/Remote/output/pj/components/Device/AB1600/cfg_sector.o
                0x00081000                mp_sector

.cfg_sector     0x00082000     0x1000
 *(.cfg_sector)
 .cfg_sector    0x00082000     0x1000 /cygdrive/c/Airoha/AiroBlueSDK/AB1600_1_0_5_0/projects/Remote/output/pj/components/Device/AB1600/cfg_sector.o
                0x00082000                cfg_sector

.sm_sector      0x00083000     0x1000
 *(.sm_sector)
 .sm_sector     0x00083000     0x1000 components/BT/release/\libbtcore.a(sm_hal.o)
                0x00083000                sm_data

.dfu_sector     0x00084000     0x1000
 *(.dfu_sector)
 .dfu_sector    0x00084000     0x1000 components/Libraries/external/algo/\libalg.a(dfu.o)

.ap_sectors     0x00085000     0x1000
 *(.ap_sector)
 .ap_sector     0x00085000     0x1000 /cygdrive/c/Airoha/AiroBlueSDK/AB1600_1_0_5_0/projects/Remote/output/remote_mouse.o
                0x00085000                rc_mouse_data
                0x00081000                __FLASH_DATA_START = ADDR (.mp_sector)
                0x00081000                __MP_SECTOR_ADDR = ADDR (.mp_sector)
                0x00001000                __MP_SECTOR_LEN = SIZEOF (.mp_sector)
                0x00082000                __DIS_SECTOR_ADDR = ADDR (.cfg_sector)
                0x00001000                __DIS_SECTOR_LEN = SIZEOF (.cfg_sector)
                0x00083000                __SM_SECTOR_ADDR = ADDR (.sm_sector)
                0x00001000                __SM_SECTOR_LEN = SIZEOF (.sm_sector)
                0x00084000                __DFU_SECTOR_ADDR = ADDR (.dfu_sector)
                0x00001000                __DFU_SECTOR_LEN = SIZEOF (.dfu_sector)
                0x00085000                __AP_SECTOR_ADDR = ADDR (.ap_sectors)
                0x00001000                __AP_SECTOR_LEN = SIZEOF (.ap_sectors)
                0x00086000                __FLASH_DATA_END = (ADDR (.ap_sectors) + SIZEOF (.ap_sectors))

.run_time       0x00090000       0x30
 *(.dfu_mark)
 .dfu_mark      0x00090000       0x20 /cygdrive/c/Airoha/AiroBlueSDK/AB1600_1_0_5_0/projects/Remote/output/pj/components/Device/AB1600/cfg_sector.o
                0x00090000                tag
 *(.module_start)
 .module_start  0x00090020        0x4 components/Libraries/external/algo/\libalg.a(ab_module.o)
                0x00090020                head
 *(.module)
 .module        0x00090024        0x4 /cygdrive/c/Airoha/AiroBlueSDK/AB1600_1_0_5_0/projects/Remote/output/pj/components/Libraries/hci_devices/hci_spi_1602.o
                0x00090024                phci_builtin_ab1602
 .module        0x00090028        0x4 components/BT/release/hci_protocol_1602.o
                0x00090028                phci_h4_ab1602
 *(.module_end)
 .module_end    0x0009002c        0x4 components/Libraries/external/algo/\libalg.a(ab_module.o)
                0x0009002c                end

.text           0x00090030    0x165a4
 *(.text)
 .text          0x00090030      0x478 /cygdrive/c/Airoha/AiroBlueSDK/AB1600_1_0_5_0/projects/Remote/output/spl/components/Libraries/external/ICM_20688_spi/mtd.o
                0x0009003c                mtd_set_power
                0x000900b0                mtd_SensorOff
                0x000903fc                mtd_SensorOn
                0x00090080                mtd_RegWrite
                0x000900d8                mtd_IOinit
                0x00090138                mtd_is_interrupt_issued
                0x0009017c                mtd_exit_WOM_mode
                0x00090298                mtd_enter_WOM_mode
                0x00090048                mtd_RegRead
 .text          0x000904a8      0x320 /cygdrive/c/Airoha/AiroBlueSDK/AB1600_1_0_5_0/projects/Remote/output/spl/components/Libraries/external/ADPCM/g726_enc_32.o
                0x0009062c                adpcm_encode_proc
                0x00090684                adpcm_encode_proc_halfrate
                0x000904d8                g726_32_encoder
                0x000904a8                adpcm_encode_init
 .text          0x000907c8     0x14c0 /cygdrive/c/Airoha/AiroBlueSDK/AB1600_1_0_5_0/projects/Remote/output/spl/components/Libraries/external/ADPCM/g72x.o
                0x00090984                reconstruct
                0x00090828                step_size
                0x000907c8                g726_init_state
                0x000912c4                predictor_zero
                0x00091a1c                predictor_pole
                0x0009085c                quantize
                0x000909c0                update
 .text          0x00091c88      0x678 /cygdrive/c/Airoha/AiroBlueSDK/AB1600_1_0_5_0/projects/Remote/output/spl/components/Libraries/external/ima_adpcm/ima_enc.o
                0x00091fc8                ima_adpcm_encode_proc_halfrate
                0x00091c88                ima_adpcm_encode_init
                0x00091cac                ima_32_encoder
                0x00091da0                ima_adpcm_encode_proc
 .text          0x00092300      0xa00 components/Libraries/external/AML/\libAML.a(AIR_MOTION_Lib.o)
                0x0009258a                AIR_MOTION_ProcessDelta
                0x00092394                AIR_MOTION_ResetSwipeRecognition
                0x000923aa                AIR_MOTION_Init
 .text          0x00092d00      0x722 components/Libraries/external/AML/\libAML.a(RollCompFullDynamic3D.o)
                0x00092e78                ProcessRollCompensation
                0x00092d5e                StabilityModule
 .text          0x00093422      0x12c C:\Andestech\AndeSight211RDS\toolchains\nds32le-elf-mculib-v3m\nds32le-elf\libc\mculib\usr\lib\libm.a(lib_a-w_log10.o)
                0x00093422                __gf_dplog10
                0x00093422                log10
 .text          0x0009354e      0x208 C:\Andestech\AndeSight211RDS\toolchains\nds32le-elf-mculib-v3m\nds32le-elf\libc\mculib\usr\lib\libm.a(gf_dpexlog.o)
                0x0009354e                __gf_dpexlog
 .text          0x00093756       0x9e C:\Andestech\AndeSight211RDS\toolchains\nds32le-elf-mculib-v3m\nds32le-elf\libc\mculib\usr\lib\libm.a(gf_exadd.o)
                0x00093756                __gf_exadd
 .text          0x000937f4      0x1e2 C:\Andestech\AndeSight211RDS\toolchains\nds32le-elf-mculib-v3m\nds32le-elf\libc\mculib\usr\lib\libm.a(gf_exdiv.o)
                0x000937f4                __gf_exdiv
 .text          0x000939d6       0xca C:\Andestech\AndeSight211RDS\toolchains\nds32le-elf-mculib-v3m\nds32le-elf\libc\mculib\usr\lib\libm.a(gf_exmul.o)
                0x000939d6                __gf_exmul
 .text          0x00093aa0       0xe8 C:\Andestech\AndeSight211RDS\toolchains\nds32le-elf-mculib-v3m\nds32le-elf\libc\mculib\usr\lib\libm.a(gf_sigmax.o)
                0x00093aa0                __gf_sigmax
 *fill*         0x00093b88        0x0 00
 .text          0x00093b88       0x18 C:\Andestech\AndeSight211RDS\toolchains\nds32le-elf-mculib-v3m\nds32le-elf\libc\mculib\usr\lib\libc.a(lib_a-memcmp.o)
                0x00093b88                memcmp
 .text          0x00093ba0       0x14 C:\Andestech\AndeSight211RDS\toolchains\nds32le-elf-mculib-v3m\nds32le-elf\libc\mculib\usr\lib\libc.a(lib_a-memcpy.o)
                0x00093ba0                memcpy
 .text          0x00093bb4       0x2c C:\Andestech\AndeSight211RDS\toolchains\nds32le-elf-mculib-v3m\nds32le-elf\libc\mculib\usr\lib\libc.a(lib_a-memmove.o)
                0x00093bb4                memmove
 .text          0x00093be0       0x10 C:\Andestech\AndeSight211RDS\toolchains\nds32le-elf-mculib-v3m\nds32le-elf\libc\mculib\usr\lib\libc.a(lib_a-memset.o)
                0x00093be0                memset
 .text          0x00093bf0       0x50 C:\Andestech\AndeSight211RDS\toolchains\nds32le-elf-mculib-v3m\nds32le-elf\libc\mculib\usr\lib\libc.a(lib_a-strcmp.o)
                0x00093bf0                strcmp
 .text          0x00093c40       0x10 C:\Andestech\AndeSight211RDS\toolchains\nds32le-elf-mculib-v3m\nds32le-elf\libc\mculib\usr\lib\libc.a(lib_a-strcpy.o)
                0x00093c40                strcpy
 .text          0x00093c50        0xc C:\Andestech\AndeSight211RDS\toolchains\nds32le-elf-mculib-v3m\nds32le-elf\libc\mculib\usr\lib\libc.a(lib_a-strlen.o)
                0x00093c50                strlen
 .text          0x00093c5c       0x18 C:\Andestech\AndeSight211RDS\toolchains\nds32le-elf-mculib-v3m\nds32le-elf\libc\mculib\usr\lib\libc.a(lib_a-strncmp.o)
                0x00093c5c                strncmp
 .text          0x00093c74       0x62 C:\Andestech\AndeSight211RDS\toolchains\nds32le-elf-mculib-v3m\lib\gcc\nds32le-elf\4.4.4\mculib\libgcc.a(_sf_to_df.o)
                0x00093c74                __gf_fptodp
                0x00093c74                __extendsfdf2
                0x00093c74                __float32_to_float64
                0x00093c74                __aeabi_f2d
 .text          0x00093cd6      0x2b2 C:\Andestech\AndeSight211RDS\toolchains\nds32le-elf-mculib-v3m\lib\gcc\nds32le-elf\4.4.4\mculib\libgcc.a(_mul_df.o)
                0x00093cd6                __gf_dpmul
                0x00093cd6                __float64_mul
                0x00093cd6                __muldf3
 .text          0x00093f88       0xd6 C:\Andestech\AndeSight211RDS\toolchains\nds32le-elf-mculib-v3m\lib\gcc\nds32le-elf\4.4.4\mculib\libgcc.a(_compare_df.o)
                0x00093f88                __cmpdf2
                0x00093f88                __eqdf2
                0x00093f8c                __gtdf2
                0x00093f88                __ltdf2
                0x00093f88                __ledf2
                0x00093f88                __gf_dpcmp
                0x00093f88                __nedf2
                0x00093f8c                __gedf2
 .text          0x0009405e       0x5a C:\Andestech\AndeSight211RDS\toolchains\nds32le-elf-mculib-v3m\lib\gcc\nds32le-elf\4.4.4\mculib\libgcc.a(_fixunsdfsi.o)
                0x0009405e                __gf_dptoul
                0x0009405e                __fixunsdfsi
                0x0009405e                __aeabi_d2uiz
                0x0009405e                __float64_to_uint32
 *fill*         0x000940b8        0x0 00
 .text          0x000940b8       0x54 C:\Andestech\AndeSight211RDS\toolchains\nds32le-elf-mculib-v3m\lib\gcc\nds32le-elf\4.4.4\mculib\libgcc.a(_muldi3.o)
                0x000940b8                __muldi3
 .text          0x0009410c       0x2c C:\Andestech\AndeSight211RDS\toolchains\nds32le-elf-mculib-v3m\lib\gcc\nds32le-elf\4.4.4\mculib\libgcc.a(_lshrdi3.o)
                0x0009410c                __lshrdi3
 .text          0x00094138       0x2c C:\Andestech\AndeSight211RDS\toolchains\nds32le-elf-mculib-v3m\lib\gcc\nds32le-elf\4.4.4\mculib\libgcc.a(_ashldi3.o)
                0x00094138                __ashldi3
 .text          0x00094164      0x158 C:\Andestech\AndeSight211RDS\toolchains\nds32le-elf-mculib-v3m\lib\gcc\nds32le-elf\4.4.4\mculib\libgcc.a(_mul_sf.o)
                0x00094164                __gf_fpmul
                0x00094164                __float32_mul
                0x00094164                __mulsf3
 .text          0x000942bc      0x178 C:\Andestech\AndeSight211RDS\toolchains\nds32le-elf-mculib-v3m\lib\gcc\nds32le-elf\4.4.4\mculib\libgcc.a(_div_sf.o)
                0x000942bc                __divsf3
                0x000942bc                __float32_div
                0x000942bc                __gf_fpdiv
 .text          0x00094434       0x48 C:\Andestech\AndeSight211RDS\toolchains\nds32le-elf-mculib-v3m\lib\gcc\nds32le-elf\4.4.4\mculib\libgcc.a(_floatunsisf.o)
                0x00094434                __gf_ultofp
                0x00094434                __uint32_to_float32
                0x00094434                __aeabi_ui2f
                0x00094434                __floatunsisf
 .text          0x0009447c       0x4c C:\Andestech\AndeSight211RDS\toolchains\nds32le-elf-mculib-v3m\lib\gcc\nds32le-elf\4.4.4\mculib\libgcc.a(_floatunsidf.o)
                0x0009447c                __uint32_to_float64
                0x0009447c                __aeabi_ui2d
                0x0009447c                __floatunsidf
                0x0009447c                __gf_ultodp
 *(.text.*)
 .text.hci_spi1602_check_data
                0x000944c8       0x2c /cygdrive/c/Airoha/AiroBlueSDK/AB1600_1_0_5_0/projects/Remote/output/pj/components/Libraries/hci_devices/hci_spi_1602.o
 .text.hci_spi1602_read_data
                0x000944f4       0x46 /cygdrive/c/Airoha/AiroBlueSDK/AB1600_1_0_5_0/projects/Remote/output/pj/components/Libraries/hci_devices/hci_spi_1602.o
 .text.read_trxlen_compl_int
                0x0009453a       0xdc /cygdrive/c/Airoha/AiroBlueSDK/AB1600_1_0_5_0/projects/Remote/output/pj/components/Libraries/hci_devices/hci_spi_1602.o
 .text.send_tx_compl_int
                0x00094616        0xe /cygdrive/c/Airoha/AiroBlueSDK/AB1600_1_0_5_0/projects/Remote/output/pj/components/Libraries/hci_devices/hci_spi_1602.o
 .text.read_rx_compl_int
                0x00094624       0x2a /cygdrive/c/Airoha/AiroBlueSDK/AB1600_1_0_5_0/projects/Remote/output/pj/components/Libraries/hci_devices/hci_spi_1602.o
 .text.data_ready_int
                0x0009464e        0xe /cygdrive/c/Airoha/AiroBlueSDK/AB1600_1_0_5_0/projects/Remote/output/pj/components/Libraries/hci_devices/hci_spi_1602.o
 .text.hci_spi1602_send_data
                0x0009465c       0x90 /cygdrive/c/Airoha/AiroBlueSDK/AB1600_1_0_5_0/projects/Remote/output/pj/components/Libraries/hci_devices/hci_spi_1602.o
 .text.hci_spi1602_deinit
                0x000946ec       0x20 /cygdrive/c/Airoha/AiroBlueSDK/AB1600_1_0_5_0/projects/Remote/output/pj/components/Libraries/hci_devices/hci_spi_1602.o
 .text.hci_spi1602_init
                0x0009470c       0x58 /cygdrive/c/Airoha/AiroBlueSDK/AB1600_1_0_5_0/projects/Remote/output/pj/components/Libraries/hci_devices/hci_spi_1602.o
 .text.cpu_exception
                0x00094764       0x14 /cygdrive/c/Airoha/AiroBlueSDK/AB1600_1_0_5_0/projects/Remote/output/main.o
 .text.main     0x00094778       0xa4 /cygdrive/c/Airoha/AiroBlueSDK/AB1600_1_0_5_0/projects/Remote/output/main.o
                0x00094778                main
 .text._remote_enable_deep_sleep
                0x0009481c        0xa /cygdrive/c/Airoha/AiroBlueSDK/AB1600_1_0_5_0/projects/Remote/output/remote.o
                0x0009481c                _remote_enable_deep_sleep
 .text.remote_vbat_batlv_convert
                0x00094826       0x70 /cygdrive/c/Airoha/AiroBlueSDK/AB1600_1_0_5_0/projects/Remote/output/remote.o
                0x00094826                remote_vbat_batlv_convert
 .text.remote_mp_init
                0x00094896       0x14 /cygdrive/c/Airoha/AiroBlueSDK/AB1600_1_0_5_0/projects/Remote/output/remote.o
                0x00094896                remote_mp_init
 .text.remote_init_before_BT
                0x000948aa       0x12 /cygdrive/c/Airoha/AiroBlueSDK/AB1600_1_0_5_0/projects/Remote/output/remote.o
                0x000948aa                remote_init_before_BT
 .text.remote_io_init
                0x000948bc       0x12 /cygdrive/c/Airoha/AiroBlueSDK/AB1600_1_0_5_0/projects/Remote/output/remote.o
                0x000948bc                remote_io_init
 .text.remote_reset_deep_sleep_timer
                0x000948ce       0x1a /cygdrive/c/Airoha/AiroBlueSDK/AB1600_1_0_5_0/projects/Remote/output/remote.o
                0x000948ce                remote_reset_deep_sleep_timer
 .text.remote_timer_init
                0x000948e8       0x20 /cygdrive/c/Airoha/AiroBlueSDK/AB1600_1_0_5_0/projects/Remote/output/remote.o
                0x000948e8                remote_timer_init
 .text.remote_check_boot_reason
                0x00094908       0xac /cygdrive/c/Airoha/AiroBlueSDK/AB1600_1_0_5_0/projects/Remote/output/remote.o
                0x00094908                remote_check_boot_reason
 .text.remote_forbid_function_by_battery
                0x000949b4       0x56 /cygdrive/c/Airoha/AiroBlueSDK/AB1600_1_0_5_0/projects/Remote/output/remote.o
                0x000949b4                remote_forbid_function_by_battery
 .text._remote_check_battery_level
                0x00094a0a       0xe8 /cygdrive/c/Airoha/AiroBlueSDK/AB1600_1_0_5_0/projects/Remote/output/remote.o
                0x00094a0a                _remote_check_battery_level
 .text.remote_batlv_init
                0x00094af2        0xa /cygdrive/c/Airoha/AiroBlueSDK/AB1600_1_0_5_0/projects/Remote/output/remote.o
                0x00094af2                remote_batlv_init
 .text.remote_init
                0x00094afc       0x28 /cygdrive/c/Airoha/AiroBlueSDK/AB1600_1_0_5_0/projects/Remote/output/remote.o
                0x00094afc                remote_init
 .text._remote_sleep_routine
                0x00094b24       0x10 /cygdrive/c/Airoha/AiroBlueSDK/AB1600_1_0_5_0/projects/Remote/output/remote.o
                0x00094b24                _remote_sleep_routine
 .text._remote_deep_sleep_routine
                0x00094b34      0x112 /cygdrive/c/Airoha/AiroBlueSDK/AB1600_1_0_5_0/projects/Remote/output/remote.o
                0x00094b34                _remote_deep_sleep_routine
 .text._remote_soft_reset_routine
                0x00094c46       0x5e /cygdrive/c/Airoha/AiroBlueSDK/AB1600_1_0_5_0/projects/Remote/output/remote.o
                0x00094c46                _remote_soft_reset_routine
 .text.remote_check_power_flag
                0x00094ca4       0x22 /cygdrive/c/Airoha/AiroBlueSDK/AB1600_1_0_5_0/projects/Remote/output/remote.o
                0x00094ca4                remote_check_power_flag
 .text.remote_ble_set_pub_addr_cb
                0x00094cc6       0x48 /cygdrive/c/Airoha/AiroBlueSDK/AB1600_1_0_5_0/projects/Remote/output/remote.o
 .text.remote_update_connection_interval
                0x00094d0e       0x64 /cygdrive/c/Airoha/AiroBlueSDK/AB1600_1_0_5_0/projects/Remote/output/remote.o
 .text.remote_check_conn_param
                0x00094d72       0x66 /cygdrive/c/Airoha/AiroBlueSDK/AB1600_1_0_5_0/projects/Remote/output/remote.o
 .text.remote_ble_adv_scan_cb
                0x00094dd8       0x32 /cygdrive/c/Airoha/AiroBlueSDK/AB1600_1_0_5_0/projects/Remote/output/remote.o
                0x00094dd8                remote_ble_adv_scan_cb
 .text.remote_check_bt_bonding
                0x00094e0a       0x30 /cygdrive/c/Airoha/AiroBlueSDK/AB1600_1_0_5_0/projects/Remote/output/remote.o
                0x00094e0a                remote_check_bt_bonding
 .text.remote_BtActivated
                0x00094e3a       0x36 /cygdrive/c/Airoha/AiroBlueSDK/AB1600_1_0_5_0/projects/Remote/output/remote.o
                0x00094e3a                remote_BtActivated
 .text.remote_CheckBleState
                0x00094e70       0x1c /cygdrive/c/Airoha/AiroBlueSDK/AB1600_1_0_5_0/projects/Remote/output/remote.o
                0x00094e70                remote_CheckBleState
 .text.remote_mainloop
                0x00094e8c       0x2a /cygdrive/c/Airoha/AiroBlueSDK/AB1600_1_0_5_0/projects/Remote/output/remote.o
                0x00094e8c                remote_mainloop
 .text.remote_bt_evt_hdl
                0x00094eb6      0x406 /cygdrive/c/Airoha/AiroBlueSDK/AB1600_1_0_5_0/projects/Remote/output/remote.o
                0x00094eb6                remote_bt_evt_hdl
 .text.keyIntrHandler
                0x000952bc       0xf2 /cygdrive/c/Airoha/AiroBlueSDK/AB1600_1_0_5_0/projects/Remote/output/remote_button.o
                0x000952bc                keyIntrHandler
 .text.remote_button_drop_all
                0x000953ae       0x16 /cygdrive/c/Airoha/AiroBlueSDK/AB1600_1_0_5_0/projects/Remote/output/remote_button.o
                0x000953ae                remote_button_drop_all
 .text.remote_keyscan_column_interrupt_disable
                0x000953c4       0x2e /cygdrive/c/Airoha/AiroBlueSDK/AB1600_1_0_5_0/projects/Remote/output/remote_button.o
                0x000953c4                remote_keyscan_column_interrupt_disable
 .text.remote_keyscan_column_interrupt_enable
                0x000953f2       0x2e /cygdrive/c/Airoha/AiroBlueSDK/AB1600_1_0_5_0/projects/Remote/output/remote_button.o
                0x000953f2                remote_keyscan_column_interrupt_enable
 .text.remote_CheckComboKey
                0x00095420       0x6e /cygdrive/c/Airoha/AiroBlueSDK/AB1600_1_0_5_0/projects/Remote/output/remote_button.o
                0x00095420                remote_CheckComboKey
 .text.remote_mouse_combo3_cb
                0x0009548e       0x16 /cygdrive/c/Airoha/AiroBlueSDK/AB1600_1_0_5_0/projects/Remote/output/remote_button.o
                0x0009548e                remote_mouse_combo3_cb
 .text.remote_mouse_combo2_cb
                0x000954a4       0x1c /cygdrive/c/Airoha/AiroBlueSDK/AB1600_1_0_5_0/projects/Remote/output/remote_button.o
                0x000954a4                remote_mouse_combo2_cb
 .text.remote_num_key_pressed
                0x000954c0       0x28 /cygdrive/c/Airoha/AiroBlueSDK/AB1600_1_0_5_0/projects/Remote/output/remote_button.o
                0x000954c0                remote_num_key_pressed
 .text._remote_SendKey
                0x000954e8       0x2a /cygdrive/c/Airoha/AiroBlueSDK/AB1600_1_0_5_0/projects/Remote/output/remote_button.o
                0x000954e8                _remote_SendKey
 .text.remote_ok_key_pressed
                0x00095512       0x20 /cygdrive/c/Airoha/AiroBlueSDK/AB1600_1_0_5_0/projects/Remote/output/remote_button.o
                0x00095512                remote_ok_key_pressed
 .text.remote_menu_key_pressed
                0x00095532        0xc /cygdrive/c/Airoha/AiroBlueSDK/AB1600_1_0_5_0/projects/Remote/output/remote_button.o
                0x00095532                remote_menu_key_pressed
 .text._remote_ProcessSingleKey
                0x0009553e       0xa6 /cygdrive/c/Airoha/AiroBlueSDK/AB1600_1_0_5_0/projects/Remote/output/remote_button.o
                0x0009553e                _remote_ProcessSingleKey
 .text.remote_CheckSingleKey
                0x000955e4       0x74 /cygdrive/c/Airoha/AiroBlueSDK/AB1600_1_0_5_0/projects/Remote/output/remote_button.o
                0x000955e4                remote_CheckSingleKey
 .text.remote_powerkey_pressed
                0x00095658       0x3a /cygdrive/c/Airoha/AiroBlueSDK/AB1600_1_0_5_0/projects/Remote/output/remote_button.o
                0x00095658                remote_powerkey_pressed
 .text.remote_InitialCheckPowerKey
                0x00095692       0x1e /cygdrive/c/Airoha/AiroBlueSDK/AB1600_1_0_5_0/projects/Remote/output/remote_button.o
                0x00095692                remote_InitialCheckPowerKey
 .text.remote_button_init
                0x000956b0       0x90 /cygdrive/c/Airoha/AiroBlueSDK/AB1600_1_0_5_0/projects/Remote/output/remote_button.o
                0x000956b0                remote_button_init
 .text.remote_mouse_10ms_interrupt
                0x00095740        0xa /cygdrive/c/Airoha/AiroBlueSDK/AB1600_1_0_5_0/projects/Remote/output/remote_mouse.o
                0x00095740                remote_mouse_10ms_interrupt
 .text._remote_mouse_motion_data_bias
                0x0009574a       0x1a /cygdrive/c/Airoha/AiroBlueSDK/AB1600_1_0_5_0/projects/Remote/output/remote_mouse.o
                0x0009574a                _remote_mouse_motion_data_bias
 .text.remote_mouse_request_to_enable
                0x00095764        0xa /cygdrive/c/Airoha/AiroBlueSDK/AB1600_1_0_5_0/projects/Remote/output/remote_mouse.o
                0x00095764                remote_mouse_request_to_enable
 .text.remote_mouse_request_to_disable
                0x0009576e        0xa /cygdrive/c/Airoha/AiroBlueSDK/AB1600_1_0_5_0/projects/Remote/output/remote_mouse.o
                0x0009576e                remote_mouse_request_to_disable
 .text.remote_mouse_key_pressed
                0x00095778       0x1c /cygdrive/c/Airoha/AiroBlueSDK/AB1600_1_0_5_0/projects/Remote/output/remote_mouse.o
                0x00095778                remote_mouse_key_pressed
 .text.remote_mouse_sensor_disable
                0x00095794       0x36 /cygdrive/c/Airoha/AiroBlueSDK/AB1600_1_0_5_0/projects/Remote/output/remote_mouse.o
                0x00095794                remote_mouse_sensor_disable
 .text.remote_mouse_sensor_enable
                0x000957ca       0x18 /cygdrive/c/Airoha/AiroBlueSDK/AB1600_1_0_5_0/projects/Remote/output/remote_mouse.o
                0x000957ca                remote_mouse_sensor_enable
 .text.remote_check_mouse_continue
                0x000957e2       0x24 /cygdrive/c/Airoha/AiroBlueSDK/AB1600_1_0_5_0/projects/Remote/output/remote_mouse.o
                0x000957e2                remote_check_mouse_continue
 .text.remote_self_disable
                0x00095806       0x14 /cygdrive/c/Airoha/AiroBlueSDK/AB1600_1_0_5_0/projects/Remote/output/remote_mouse.o
                0x00095806                remote_self_disable
 .text._remote_g_sensor_interrupt
                0x0009581a       0x4c /cygdrive/c/Airoha/AiroBlueSDK/AB1600_1_0_5_0/projects/Remote/output/remote_mouse.o
                0x0009581a                _remote_g_sensor_interrupt
 .text._remote_mouse_process_motion_data
                0x00095866       0xb6 /cygdrive/c/Airoha/AiroBlueSDK/AB1600_1_0_5_0/projects/Remote/output/remote_mouse.o
 .text._remote_mouse_vcmd_calibration
                0x0009591c       0xec /cygdrive/c/Airoha/AiroBlueSDK/AB1600_1_0_5_0/projects/Remote/output/remote_mouse.o
                0x0009591c                _remote_mouse_vcmd_calibration
 .text._remote_reset_mouse_data_in_flash
                0x00095a08       0x3a /cygdrive/c/Airoha/AiroBlueSDK/AB1600_1_0_5_0/projects/Remote/output/remote_mouse.o
                0x00095a08                _remote_reset_mouse_data_in_flash
 .text._remote_save_mouse_data_to_flash
                0x00095a42      0x104 /cygdrive/c/Airoha/AiroBlueSDK/AB1600_1_0_5_0/projects/Remote/output/remote_mouse.o
                0x00095a42                _remote_save_mouse_data_to_flash
 .text._remote_mouse_calibration
                0x00095b46      0x110 /cygdrive/c/Airoha/AiroBlueSDK/AB1600_1_0_5_0/projects/Remote/output/remote_mouse.o
                0x00095b46                _remote_mouse_calibration
 .text.remote_mouse_calibration_key_pressed
                0x00095c56       0x48 /cygdrive/c/Airoha/AiroBlueSDK/AB1600_1_0_5_0/projects/Remote/output/remote_mouse.o
                0x00095c56                remote_mouse_calibration_key_pressed
 .text.remote_gesture_key_pressed
                0x00095c9e       0x14 /cygdrive/c/Airoha/AiroBlueSDK/AB1600_1_0_5_0/projects/Remote/output/remote_mouse.o
                0x00095c9e                remote_gesture_key_pressed
 .text.remote_check_motion
                0x00095cb2       0x9c /cygdrive/c/Airoha/AiroBlueSDK/AB1600_1_0_5_0/projects/Remote/output/remote_mouse.o
                0x00095cb2                remote_check_motion
 .text.remote_check_mouse_timer
                0x00095d4e      0x174 /cygdrive/c/Airoha/AiroBlueSDK/AB1600_1_0_5_0/projects/Remote/output/remote_mouse.o
                0x00095d4e                remote_check_mouse_timer
 .text.remote_check_mouse_state_change_request
                0x00095ec2      0x17e /cygdrive/c/Airoha/AiroBlueSDK/AB1600_1_0_5_0/projects/Remote/output/remote_mouse.o
                0x00095ec2                remote_check_mouse_state_change_request
 .text._remote_mouse_standby
                0x00096040       0x1e /cygdrive/c/Airoha/AiroBlueSDK/AB1600_1_0_5_0/projects/Remote/output/remote_mouse.o
 .text.remote_mouse_wake_on_motion_init
                0x0009605e       0x5c /cygdrive/c/Airoha/AiroBlueSDK/AB1600_1_0_5_0/projects/Remote/output/remote_mouse.o
                0x0009605e                remote_mouse_wake_on_motion_init
 .text._remote_mouse_init
                0x000960ba       0xf6 /cygdrive/c/Airoha/AiroBlueSDK/AB1600_1_0_5_0/projects/Remote/output/remote_mouse.o
 .text.mic_intrHandler
                0x000961b0       0x3c /cygdrive/c/Airoha/AiroBlueSDK/AB1600_1_0_5_0/projects/Remote/output/remote_microphone.o
                0x000961b0                mic_intrHandler
 .text._remote_mic_self_timeout
                0x000961ec        0xa /cygdrive/c/Airoha/AiroBlueSDK/AB1600_1_0_5_0/projects/Remote/output/remote_microphone.o
                0x000961ec                _remote_mic_self_timeout
 .text.remote_check_if_codec_supproted
                0x000961f6        0x6 /cygdrive/c/Airoha/AiroBlueSDK/AB1600_1_0_5_0/projects/Remote/output/remote_microphone.o
                0x000961f6                remote_check_if_codec_supproted
 .text.remote_mic_key_pressed
                0x000961fc       0x46 /cygdrive/c/Airoha/AiroBlueSDK/AB1600_1_0_5_0/projects/Remote/output/remote_microphone.o
                0x000961fc                remote_mic_key_pressed
 .text._remote_mic_deinit
                0x00096242       0x2a /cygdrive/c/Airoha/AiroBlueSDK/AB1600_1_0_5_0/projects/Remote/output/remote_microphone.o
                0x00096242                _remote_mic_deinit
 .text._remote_mic_init
                0x0009626c      0x13e /cygdrive/c/Airoha/AiroBlueSDK/AB1600_1_0_5_0/projects/Remote/output/remote_microphone.o
                0x0009626c                _remote_mic_init
 .text.remote_codecsel_cb
                0x000963aa       0xbc /cygdrive/c/Airoha/AiroBlueSDK/AB1600_1_0_5_0/projects/Remote/output/remote_microphone.o
                0x000963aa                remote_codecsel_cb
 .text._remote_voice_active_detection
                0x00096466       0xc2 /cygdrive/c/Airoha/AiroBlueSDK/AB1600_1_0_5_0/projects/Remote/output/remote_microphone.o
                0x00096466                _remote_voice_active_detection
 .text.remote_mic_local_disable
                0x00096528       0x9e /cygdrive/c/Airoha/AiroBlueSDK/AB1600_1_0_5_0/projects/Remote/output/remote_microphone.o
                0x00096528                remote_mic_local_disable
 .text._remote_mic_enabled
                0x000965c6      0x1a4 /cygdrive/c/Airoha/AiroBlueSDK/AB1600_1_0_5_0/projects/Remote/output/remote_microphone.o
                0x000965c6                _remote_mic_enabled
 .text._remote_mic_standBy
                0x0009676a      0x156 /cygdrive/c/Airoha/AiroBlueSDK/AB1600_1_0_5_0/projects/Remote/output/remote_microphone.o
                0x0009676a                _remote_mic_standBy
 .text.remote_send_hid_report
                0x000968c0       0x2c /cygdrive/c/Airoha/AiroBlueSDK/AB1600_1_0_5_0/projects/Remote/output/remote_gatt.o
                0x000968c0                remote_send_hid_report
 .text._remote_airoha_init
                0x000968ec      0x144 /cygdrive/c/Airoha/AiroBlueSDK/AB1600_1_0_5_0/projects/Remote/output/remote_gatt.o
                0x000968ec                _remote_airoha_init
 .text._remote_ota_init
                0x00096a30       0x16 /cygdrive/c/Airoha/AiroBlueSDK/AB1600_1_0_5_0/projects/Remote/output/remote_gatt.o
                0x00096a30                _remote_ota_init
 .text._remote_ota_cb
                0x00096a46       0x3a /cygdrive/c/Airoha/AiroBlueSDK/AB1600_1_0_5_0/projects/Remote/output/remote_gatt.o
                0x00096a46                _remote_ota_cb
 .text._remote_hid_init
                0x00096a80       0xcc /cygdrive/c/Airoha/AiroBlueSDK/AB1600_1_0_5_0/projects/Remote/output/remote_gatt.o
                0x00096a80                _remote_hid_init
 .text._remote_bas_init
                0x00096b4c        0xa /cygdrive/c/Airoha/AiroBlueSDK/AB1600_1_0_5_0/projects/Remote/output/remote_gatt.o
                0x00096b4c                _remote_bas_init
 .text._remote_dis_init
                0x00096b56       0x3e /cygdrive/c/Airoha/AiroBlueSDK/AB1600_1_0_5_0/projects/Remote/output/remote_gatt.o
                0x00096b56                _remote_dis_init
 .text._remote_gatt_init
                0x00096b94        0xa /cygdrive/c/Airoha/AiroBlueSDK/AB1600_1_0_5_0/projects/Remote/output/remote_gatt.o
                0x00096b94                _remote_gatt_init
 .text._remote_gap_init
                0x00096b9e       0x66 /cygdrive/c/Airoha/AiroBlueSDK/AB1600_1_0_5_0/projects/Remote/output/remote_gatt.o
                0x00096b9e                _remote_gap_init
 .text.remote_service_init
                0x00096c04       0x20 /cygdrive/c/Airoha/AiroBlueSDK/AB1600_1_0_5_0/projects/Remote/output/remote_gatt.o
                0x00096c04                remote_service_init
 .text._RC_recon_addr_cb
                0x00096c24       0x14 /cygdrive/c/Airoha/AiroBlueSDK/AB1600_1_0_5_0/projects/Remote/output/remote_gatt.o
                0x00096c24                _RC_recon_addr_cb
 .text._RC_device_name_cb
                0x00096c38       0x14 /cygdrive/c/Airoha/AiroBlueSDK/AB1600_1_0_5_0/projects/Remote/output/remote_gatt.o
                0x00096c38                _RC_device_name_cb
 .text.remote_set_adv_control_timer
                0x00096c4c       0x1c /cygdrive/c/Airoha/AiroBlueSDK/AB1600_1_0_5_0/projects/Remote/output/remote_adv.o
 .text.remote_ble_adv_enable_cb
                0x00096c68       0x26 /cygdrive/c/Airoha/AiroBlueSDK/AB1600_1_0_5_0/projects/Remote/output/remote_adv.o
 .text._remote_stop_woble_cb
                0x00096c8e       0x26 /cygdrive/c/Airoha/AiroBlueSDK/AB1600_1_0_5_0/projects/Remote/output/remote_adv.o
 .text.remote_ble_set_no_scan_adv_param_and_enable
                0x00096cb4       0x30 /cygdrive/c/Airoha/AiroBlueSDK/AB1600_1_0_5_0/projects/Remote/output/remote_adv.o
 .text.remote_ble_set_adv_param_and_enable
                0x00096ce4       0x30 /cygdrive/c/Airoha/AiroBlueSDK/AB1600_1_0_5_0/projects/Remote/output/remote_adv.o
 .text._remote_switch_to_woble_state_cb
                0x00096d14       0x16 /cygdrive/c/Airoha/AiroBlueSDK/AB1600_1_0_5_0/projects/Remote/output/remote_adv.o
 .text.remote_bonded_undir_adv
                0x00096d2a       0x5a /cygdrive/c/Airoha/AiroBlueSDK/AB1600_1_0_5_0/projects/Remote/output/remote_adv.o
                0x00096d2a                remote_bonded_undir_adv
 .text.remote_normal_undir_adv
                0x00096d84       0x5a /cygdrive/c/Airoha/AiroBlueSDK/AB1600_1_0_5_0/projects/Remote/output/remote_adv.o
                0x00096d84                remote_normal_undir_adv
 .text.remote_wake_up_over_ble_adv
                0x00096dde       0x6e /cygdrive/c/Airoha/AiroBlueSDK/AB1600_1_0_5_0/projects/Remote/output/remote_adv.o
                0x00096dde                remote_wake_up_over_ble_adv
 .text._remote_normal_undir_adv_TO
                0x00096e4c       0x30 /cygdrive/c/Airoha/AiroBlueSDK/AB1600_1_0_5_0/projects/Remote/output/remote_adv.o
                0x00096e4c                _remote_normal_undir_adv_TO
 .text.remote_switch_to_woble_adv
                0x00096e7c       0x1c /cygdrive/c/Airoha/AiroBlueSDK/AB1600_1_0_5_0/projects/Remote/output/remote_adv.o
                0x00096e7c                remote_switch_to_woble_adv
 .text._remote_woble_TO
                0x00096e98       0x36 /cygdrive/c/Airoha/AiroBlueSDK/AB1600_1_0_5_0/projects/Remote/output/remote_adv.o
                0x00096e98                _remote_woble_TO
 .text._remote_bonded_undir_adv_TO
                0x00096ece       0x34 /cygdrive/c/Airoha/AiroBlueSDK/AB1600_1_0_5_0/projects/Remote/output/remote_adv.o
                0x00096ece                _remote_bonded_undir_adv_TO
 .text.remote_led_rc_function_state_clear
                0x00096f02       0x14 /cygdrive/c/Airoha/AiroBlueSDK/AB1600_1_0_5_0/projects/Remote/output/remote_led.o
                0x00096f02                remote_led_rc_function_state_clear
 .text.remote_led_change_brightness_by_bat_lvl
                0x00096f16       0x48 /cygdrive/c/Airoha/AiroBlueSDK/AB1600_1_0_5_0/projects/Remote/output/remote_led.o
                0x00096f16                remote_led_change_brightness_by_bat_lvl
 .text.remote_led_advertising
                0x00096f5e       0x42 /cygdrive/c/Airoha/AiroBlueSDK/AB1600_1_0_5_0/projects/Remote/output/remote_led.o
                0x00096f5e                remote_led_advertising
 .text.remote_led_state_change
                0x00096fa0       0xbe /cygdrive/c/Airoha/AiroBlueSDK/AB1600_1_0_5_0/projects/Remote/output/remote_led.o
                0x00096fa0                remote_led_state_change
 .text.remote_led_rc_function_disable
                0x0009705e       0x18 /cygdrive/c/Airoha/AiroBlueSDK/AB1600_1_0_5_0/projects/Remote/output/remote_led.o
                0x0009705e                remote_led_rc_function_disable
 .text.remote_led_rc_function_enable
                0x00097076       0x18 /cygdrive/c/Airoha/AiroBlueSDK/AB1600_1_0_5_0/projects/Remote/output/remote_led.o
                0x00097076                remote_led_rc_function_enable
 .text.remote_led_deinit
                0x0009708e       0x16 /cygdrive/c/Airoha/AiroBlueSDK/AB1600_1_0_5_0/projects/Remote/output/remote_led.o
                0x0009708e                remote_led_deinit
 .text.remote_led_init
                0x000970a4       0x64 /cygdrive/c/Airoha/AiroBlueSDK/AB1600_1_0_5_0/projects/Remote/output/remote_led.o
                0x000970a4                remote_led_init
 .text.remote_mouse_vcmd_calibrate_isr
                0x00097108        0xe /cygdrive/c/Airoha/AiroBlueSDK/AB1600_1_0_5_0/projects/Remote/output/remote_vcmd.o
                0x00097108                remote_mouse_vcmd_calibrate_isr
 .text.REMOTE_vcmd_response
                0x00097116       0x50 /cygdrive/c/Airoha/AiroBlueSDK/AB1600_1_0_5_0/projects/Remote/output/remote_vcmd.o
                0x00097116                REMOTE_vcmd_response
 .text.REMOTE_vcmd_handle
                0x00097166       0x66 /cygdrive/c/Airoha/AiroBlueSDK/AB1600_1_0_5_0/projects/Remote/output/remote_vcmd.o
                0x00097166                REMOTE_vcmd_handle
 .text.remote_mouse_vcmd_calibrate_in_loop
                0x000971cc       0x3a /cygdrive/c/Airoha/AiroBlueSDK/AB1600_1_0_5_0/projects/Remote/output/remote_vcmd.o
                0x000971cc                remote_mouse_vcmd_calibrate_in_loop
 .text.chip_1602_is_vcmd_complete_event
                0x00097206       0x50 components/BT/release/hci_protocol_1602.o
 .text.chip_1602_is_boot_complete_event
                0x00097256       0x76 components/BT/release/hci_protocol_1602.o
 .text.chip_1602_init
                0x000972cc       0x32 components/BT/release/hci_protocol_1602.o
 .text.hci_1602_lens_ind_cb
                0x000972fe       0x16 components/BT/release/hci_protocol_1602.o
 .text.chip_1602_send_acl_data
                0x00097314       0xbc components/BT/release/hci_protocol_1602.o
 .text.make_command_complete_ex
                0x000973d0       0x74 components/BT/release/hci_protocol_1602.o
 .text.make_command_complete
                0x00097444       0x10 components/BT/release/hci_protocol_1602.o
 .text.chip_1602_check_chip_cmd_permission
                0x00097454       0x36 components/BT/release/hci_protocol_1602.o
                0x00097454                chip_1602_check_chip_cmd_permission
 .text.chip_1602_send_hci_command
                0x0009748a      0x18e components/BT/release/hci_protocol_1602.o
 .text.chip_1602_init_adopt_mp
                0x00097618      0x150 components/BT/release/hci_protocol_1602.o
 .text.chip_1602_init_config
                0x00097768      0x17e components/BT/release/hci_protocol_1602.o
 .text.chip_1602_init_sw_reset
                0x000978e6       0xca components/BT/release/hci_protocol_1602.o
 .text.chip_1602_init_patching
                0x000979b0      0x216 components/BT/release/hci_protocol_1602.o
 .text.hci_rx_recv
                0x00097bc6      0x1be components/BT/release/hci_protocol_1602.o
 .text.hci_1602_read_cfm_cb
                0x00097d84       0x4e components/BT/release/hci_protocol_1602.o
 .text.AB_ADC_Init
                0x00097dd2       0x6a components/Libraries/external/algo/\libalg.a(ab_adc.o)
                0x00097dd2                AB_ADC_Init
 .text.AB_ADC_Get_Voltage
                0x00097e3c       0x2a components/Libraries/external/algo/\libalg.a(ab_adc.o)
                0x00097e3c                AB_ADC_Get_Voltage
 .text.AB_CLK_Switch
                0x00097e66       0xec components/Libraries/external/algo/\libalg.a(ab_clk.o)
                0x00097e66                AB_CLK_Switch
 .text.assert_ab_callback_verbose
                0x00097f52       0x20 components/Libraries/external/algo/\libalg.a(ab_assert.o)
                0x00097f52                assert_ab_callback_verbose
 .text.assert_ab_callback
                0x00097f72       0x1e components/Libraries/external/algo/\libalg.a(ab_assert.o)
                0x00097f72                assert_ab_callback
 .text.AB_Flash_ByteProgram
                0x00097f90       0x2c components/Libraries/external/algo/\libalg.a(ab_flash.o)
                0x00097f90                AB_Flash_ByteProgram
 .text.AB_Flash_SectorErase
                0x00097fbc       0x26 components/Libraries/external/algo/\libalg.a(ab_flash.o)
                0x00097fbc                AB_Flash_SectorErase
 .text.AB_LED_set_brightness
                0x00097fe2        0xc components/Libraries/external/algo/\libalg.a(ab_led.o)
                0x00097fe2                AB_LED_set_brightness
 .text.AB_LED_stop
                0x00097fee        0x8 components/Libraries/external/algo/\libalg.a(ab_led.o)
                0x00097fee                AB_LED_stop
 .text.AB_LED_set_rawdata
                0x00097ff6       0xb0 components/Libraries/external/algo/\libalg.a(ab_led.o)
                0x00097ff6                AB_LED_set_rawdata
 .text.AB_LED_set_breath
                0x000980a6       0x2a components/Libraries/external/algo/\libalg.a(ab_led.o)
                0x000980a6                AB_LED_set_breath
 .text.AB_LED_set_blink
                0x000980d0       0x30 components/Libraries/external/algo/\libalg.a(ab_led.o)
                0x000980d0                AB_LED_set_blink
 .text.AB_LED_set_on
                0x00098100       0x1e components/Libraries/external/algo/\libalg.a(ab_led.o)
                0x00098100                AB_LED_set_on
 .text.AB_LED_start
                0x0009811e       0x12 components/Libraries/external/algo/\libalg.a(ab_led.o)
                0x0009811e                AB_LED_start
 .text.AB_LED_deinit
                0x00098130       0x12 components/Libraries/external/algo/\libalg.a(ab_led.o)
                0x00098130                AB_LED_deinit
 .text.AB_LED_init
                0x00098142       0x38 components/Libraries/external/algo/\libalg.a(ab_led.o)
                0x00098142                AB_LED_init
 .text._sbrk    0x0009817a       0x22 components/Libraries/external/algo/\libalg.a(ab_malloc_hook.o)
                0x0009817a                _sbrk
 .text.free     0x0009819c       0x5a components/Libraries/external/algo/\libalg.a(ab_malloc_hook.o)
                0x0009819c                free
 .text.ab_malloc_info_printf
                0x000981f6       0x98 components/Libraries/external/algo/\libalg.a(ab_malloc_hook.o)
                0x000981f6                ab_malloc_info_printf
 .text.malloc   0x0009828e       0x78 components/Libraries/external/algo/\libalg.a(ab_malloc_hook.o)
                0x0009828e                malloc
 .text.Ab_printf_init
                0x00098306        0x8 components/Libraries/external/algo/\libalg.a(ab_printf_hook.o)
                0x00098306                Ab_printf_init
 .text.printf   0x0009830e       0x68 components/Libraries/external/algo/\libalg.a(ab_printf_hook.o)
                0x0009830e                printf
 .text.nds_write
                0x00098376       0x18 components/Libraries/external/algo/\libalg.a(ab_printf_hook.o)
                0x00098376                nds_write
 .text.Ab_printf_blocking
                0x0009838e       0x92 components/Libraries/external/algo/\libalg.a(ab_printf_hook.o)
                0x0009838e                Ab_printf_blocking
 .text.putchar  0x00098420       0x1e components/Libraries/external/algo/\libalg.a(ab_printf_hook.o)
                0x00098420                putchar
 .text.AB_PWR_GetWakeLock
                0x0009843e       0x28 components/Libraries/external/algo/\libalg.a(ab_pwr.o)
                0x0009843e                AB_PWR_GetWakeLock
 .text.AB_PWR_WakeLocked
                0x00098466       0x12 components/Libraries/external/algo/\libalg.a(ab_pwr.o)
                0x00098466                AB_PWR_WakeLocked
 .text.AB_PWR_WakeUnlocked
                0x00098478       0x14 components/Libraries/external/algo/\libalg.a(ab_pwr.o)
                0x00098478                AB_PWR_WakeUnlocked
 .text.AB_PWR_ReturnWakeLock
                0x0009848c       0x16 components/Libraries/external/algo/\libalg.a(ab_pwr.o)
                0x0009848c                AB_PWR_ReturnWakeLock
 .text.AB_PWR_Stanby
                0x000984a2        0x8 components/Libraries/external/algo/\libalg.a(ab_pwr.o)
                0x000984a2                AB_PWR_Stanby
 .text.AB_PWR_Rst
                0x000984aa        0xa components/Libraries/external/algo/\libalg.a(ab_pwr.o)
                0x000984aa                AB_PWR_Rst
 .text.AB_PWR_Sleep
                0x000984b4       0x78 components/Libraries/external/algo/\libalg.a(ab_pwr.o)
                0x000984b4                AB_PWR_Sleep
 .text.AB_queue_push
                0x0009852c       0x34 components/Libraries/external/algo/\libalg.a(ab_queue.o)
                0x0009852c                AB_queue_push
 .text.AB_queue_push_front
                0x00098560       0x34 components/Libraries/external/algo/\libalg.a(ab_queue.o)
                0x00098560                AB_queue_push_front
 .text.AB_queue_pop
                0x00098594       0x1a components/Libraries/external/algo/\libalg.a(ab_queue.o)
                0x00098594                AB_queue_pop
 .text.AB_queue_count
                0x000985ae       0x18 components/Libraries/external/algo/\libalg.a(ab_queue.o)
                0x000985ae                AB_queue_count
 .text.AB_queue_entry_free
                0x000985c6       0x1a components/Libraries/external/algo/\libalg.a(ab_queue.o)
                0x000985c6                AB_queue_entry_free
 .text.AB_queue_free
                0x000985e0       0x1a components/Libraries/external/algo/\libalg.a(ab_queue.o)
                0x000985e0                AB_queue_free
 .text.AB_queue_entry_alloc
                0x000985fa       0x18 components/Libraries/external/algo/\libalg.a(ab_queue.o)
                0x000985fa                AB_queue_entry_alloc
 .text.AB_queue_alloc
                0x00098612       0x1e components/Libraries/external/algo/\libalg.a(ab_queue.o)
                0x00098612                AB_queue_alloc
 .text.AB_SECTOR_GetMpParameter
                0x00098630      0x158 components/Libraries/external/algo/\libalg.a(ab_mp_sector.o)
                0x00098630                AB_SECTOR_GetMpParameter
 .text.alloc_spi_tran_entry
                0x00098788       0x52 components/Libraries/external/algo/\libalg.a(ab_spi.o)
 .text.AB_SPI_WriteAndRead
                0x000987da       0x5e components/Libraries/external/algo/\libalg.a(ab_spi.o)
                0x000987da                AB_SPI_WriteAndRead
 .text.AB_SPI_WriteThenRead
                0x00098838       0x6a components/Libraries/external/algo/\libalg.a(ab_spi.o)
                0x00098838                AB_SPI_WriteThenRead
 .text.AB_SPI_Close
                0x000988a2       0x2c components/Libraries/external/algo/\libalg.a(ab_spi.o)
                0x000988a2                AB_SPI_Close
 .text.AB_SPI_Open
                0x000988ce       0x5a components/Libraries/external/algo/\libalg.a(ab_spi.o)
                0x000988ce                AB_SPI_Open
 .text.Spi_drv_complete_cb
                0x00098928       0x62 components/Libraries/external/algo/\libalg.a(ab_spi.o)
 .text.AB_BSP_initEx
                0x0009898a      0x1e0 components/Libraries/external/algo/\libalg.a(bsp_generic.o)
                0x0009898a                AB_BSP_initEx
 .text.uart1_rx_ind
                0x00098b6a       0x50 components/Libraries/external/algo/\libalg.a(bsp_generic.o)
 .text.uart2_rx_ind
                0x00098bba       0x58 components/Libraries/external/algo/\libalg.a(bsp_generic.o)
 .text.bsp_mp_uart_tx
                0x00098c12       0x12 components/Libraries/external/algo/\libalg.a(bsp_generic.o)
 .text.bsp_console_uart_tx
                0x00098c24       0x12 components/Libraries/external/algo/\libalg.a(bsp_generic.o)
 .text.bsp_bt_event_hanlder
                0x00098c36       0x3e components/Libraries/external/algo/\libalg.a(bsp_generic.o)
 .text.timer32_cb
                0x00098c74       0xf6 components/Libraries/external/algo/\libalg.a(ab_timer.o)
 .text.AB_Timer_AlertUnset
                0x00098d6a       0xb2 components/Libraries/external/algo/\libalg.a(ab_timer.o)
                0x00098d6a                AB_Timer_AlertUnset
 .text.AB_Timer_AlertSet
                0x00098e1c      0x106 components/Libraries/external/algo/\libalg.a(ab_timer.o)
                0x00098e1c                AB_Timer_AlertSet
 .text.AB_Timer_Disable
                0x00098f22       0x58 components/Libraries/external/algo/\libalg.a(ab_timer.o)
                0x00098f22                AB_Timer_Disable
 .text.AB_Timer_Enable_Ext
                0x00098f7a       0x1e components/Libraries/external/algo/\libalg.a(ab_timer.o)
                0x00098f7a                AB_Timer_Enable_Ext
 .text.AB_UART_SetBaud
                0x00098f98        0x8 components/Libraries/external/algo/\libalg.a(ab_uart.o)
                0x00098f98                AB_UART_SetBaud
 .text.AB_UART_Read
                0x00098fa0       0x38 components/Libraries/external/algo/\libalg.a(ab_uart.o)
                0x00098fa0                AB_UART_Read
 .text.AB_UART_Write
                0x00098fd8       0x62 components/Libraries/external/algo/\libalg.a(ab_uart.o)
                0x00098fd8                AB_UART_Write
 .text.AB_UART_Close
                0x0009903a       0x1c components/Libraries/external/algo/\libalg.a(ab_uart.o)
                0x0009903a                AB_UART_Close
 .text.AB_UART_Flush
                0x00099056        0xe components/Libraries/external/algo/\libalg.a(ab_uart.o)
                0x00099056                AB_UART_Flush
 .text.AB_UART_Open
                0x00099064       0x86 components/Libraries/external/algo/\libalg.a(ab_uart.o)
                0x00099064                AB_UART_Open
 .text.driver_tx_complete
                0x000990ea       0x30 components/Libraries/external/algo/\libalg.a(ab_uart.o)
 .text.Send2MP  0x0009911a        0xe components/Libraries/external/algo/\libalg.a(ab_airoha_vcmd.o)
 .text.dev_1602_lens_ind_cb
                0x00099128       0x16 components/Libraries/external/algo/\libalg.a(ab_airoha_vcmd.o)
 .text.ab_airoha_vcmd_Bdie_reset_enable
                0x0009913e        0xa components/Libraries/external/algo/\libalg.a(ab_airoha_vcmd.o)
                0x0009913e                ab_airoha_vcmd_Bdie_reset_enable
 .text.ab_airoha_vcmd_extend_reg
                0x00099148        0x8 components/Libraries/external/algo/\libalg.a(ab_airoha_vcmd.o)
                0x00099148                ab_airoha_vcmd_extend_reg
 .text.ab_airoha_vcmd_mp_ongoing
                0x00099150       0x18 components/Libraries/external/algo/\libalg.a(ab_airoha_vcmd.o)
                0x00099150                ab_airoha_vcmd_mp_ongoing
 .text.ab_airoha_vcmd_compl_encode
                0x00099168       0x2a components/Libraries/external/algo/\libalg.a(ab_airoha_vcmd.o)
 .text.ab_airoha_send_1byte_vcmd_compl
                0x00099192       0x22 components/Libraries/external/algo/\libalg.a(ab_airoha_vcmd.o)
 .text.ISPSwitchArea
                0x000991b4       0x22 components/Libraries/external/algo/\libalg.a(ab_airoha_vcmd.o)
 .text._HC_HciRejectVCmdHdlr
                0x000991d6       0x10 components/Libraries/external/algo/\libalg.a(ab_airoha_vcmd.o)
 .text.ab_airoha_vcmd34_compl_encode
                0x000991e6       0x20 components/Libraries/external/algo/\libalg.a(ab_airoha_vcmd.o)
 .text.ISPWriteData
                0x00099206       0x7c components/Libraries/external/algo/\libalg.a(ab_airoha_vcmd.o)
 .text.ab_airoha_send_nbyte_vcmd_compl
                0x00099282       0x3a components/Libraries/external/algo/\libalg.a(ab_airoha_vcmd.o)
 .text.ISPGetDeviceStatusVCmdHdlr
                0x000992bc       0x98 components/Libraries/external/algo/\libalg.a(ab_airoha_vcmd.o)
 .text.ab_airoha_send_nbyte_vcmd34_compl
                0x00099354       0x3a components/Libraries/external/algo/\libalg.a(ab_airoha_vcmd.o)
 .text.FlashReadCSRVCmdHdlr
                0x0009938e       0x58 components/Libraries/external/algo/\libalg.a(ab_airoha_vcmd.o)
 .text.ab_airoha_vcmd_dispatch
                0x000993e6      0x13c components/Libraries/external/algo/\libalg.a(ab_airoha_vcmd.o)
                0x000993e6                ab_airoha_vcmd_dispatch
 .text.HC_HciLabTestWrThreeWiredVCmdHdlr
                0x00099522       0x20 components/Libraries/external/algo/\libalg.a(ab_airoha_vcmd.o)
 .text.FlashReadThreeWireVCmdHdlr
                0x00099542       0x22 components/Libraries/external/algo/\libalg.a(ab_airoha_vcmd.o)
 .text.HC_HciLabTestRdThreeWiredVCmdHdlr
                0x00099564       0x22 components/Libraries/external/algo/\libalg.a(ab_airoha_vcmd.o)
 .text.mount_1602
                0x00099586       0x46 components/Libraries/external/algo/\libalg.a(ab_airoha_vcmd.o)
 .text.HC_HciLabTestBDieCommandModeVCmdHdlr
                0x000995cc       0x4c components/Libraries/external/algo/\libalg.a(ab_airoha_vcmd.o)
 .text.ab_airoha_vcmd_enable
                0x00099618       0x38 components/Libraries/external/algo/\libalg.a(ab_airoha_vcmd.o)
                0x00099618                ab_airoha_vcmd_enable
 .text.ab_airoha_vcmd_uart_hci_mode_enable
                0x00099650       0x34 components/Libraries/external/algo/\libalg.a(ab_airoha_vcmd.o)
                0x00099650                ab_airoha_vcmd_uart_hci_mode_enable
 .text.dev_1602_read_cfm_cb
                0x00099684       0x34 components/Libraries/external/algo/\libalg.a(ab_airoha_vcmd.o)
 .text.T.37     0x000996b8       0x24 components/Libraries/external/algo/\libalg.a(ab_airoha_vcmd.o)
 .text.FlashWriteThreeWireVCmdHdlr
                0x000996dc       0x22 components/Libraries/external/algo/\libalg.a(ab_airoha_vcmd.o)
 .text.FlashWriteCSRVCmdHdlr
                0x000996fe       0x58 components/Libraries/external/algo/\libalg.a(ab_airoha_vcmd.o)
 .text.DRV_ADC_Calibration
                0x00099756       0x5e components/Libraries/external/algo/\libalg.a(drv_adc.o)
                0x00099756                DRV_ADC_Calibration
 .text.DRV_ADC_Read
                0x000997b4       0xa8 components/Libraries/external/algo/\libalg.a(drv_adc.o)
                0x000997b4                DRV_ADC_Read
 .text.DRV_CLK_SysSel
                0x0009985c       0x58 components/Libraries/external/algo/\libalg.a(drv_clk.o)
                0x0009985c                DRV_CLK_SysSel
 .text.DRV_CLK_16MSel
                0x000998b4       0x1c components/Libraries/external/algo/\libalg.a(drv_clk.o)
                0x000998b4                DRV_CLK_16MSel
 .text.DRV_CLK_32KSel
                0x000998d0       0x20 components/Libraries/external/algo/\libalg.a(drv_clk.o)
                0x000998d0                DRV_CLK_32KSel
 .text.DRV_CLK_PLLEn
                0x000998f0       0x34 components/Libraries/external/algo/\libalg.a(drv_clk.o)
                0x000998f0                DRV_CLK_PLLEn
 .text.DRV_CLK_En
                0x00099924       0xa4 components/Libraries/external/algo/\libalg.a(drv_clk.o)
                0x00099924                DRV_CLK_En
 .text.DRV_CLK_Calibration
                0x000999c8       0xe2 components/Libraries/external/algo/\libalg.a(drv_clk.o)
                0x000999c8                DRV_CLK_Calibration
 .text.DRV_CLK_TMR0Sel
                0x00099aaa       0x30 components/Libraries/external/algo/\libalg.a(drv_clk.o)
                0x00099aaa                DRV_CLK_TMR0Sel
 .text.SERIALFLASH_SetPatternAndStart
                0x00099ada       0x1e components/Libraries/external/algo/\libalg.a(drv_flash.o)
 .text._MXIC_WB_Flash_WaitForReady
                0x00099af8       0x50 components/Libraries/external/algo/\libalg.a(drv_flash.o)
 .text.DRV_Flash_ByteProgram
                0x00099b48      0x104 components/Libraries/external/algo/\libalg.a(drv_flash.o)
                0x00099b48                DRV_Flash_ByteProgram
 .text.DRV_Flash_PageProgram
                0x00099c4c      0x1ac components/Libraries/external/algo/\libalg.a(drv_flash.o)
                0x00099c4c                DRV_Flash_PageProgram
 .text.Drv_Flash_BlockSectorErase
                0x00099df8       0x72 components/Libraries/external/algo/\libalg.a(drv_flash.o)
 .text.DRV_Flash_Block_64KB_Erase
                0x00099e6a        0xa components/Libraries/external/algo/\libalg.a(drv_flash.o)
                0x00099e6a                DRV_Flash_Block_64KB_Erase
 .text.DRV_Flash_Block_32KB_Erase
                0x00099e74        0xa components/Libraries/external/algo/\libalg.a(drv_flash.o)
                0x00099e74                DRV_Flash_Block_32KB_Erase
 .text.DRV_Flash_SectorErase
                0x00099e7e        0xa components/Libraries/external/algo/\libalg.a(drv_flash.o)
                0x00099e7e                DRV_Flash_SectorErase
 .text.DRV_Gpio_IntrHandler
                0x00099e88       0x38 components/Libraries/external/algo/\libalg.a(drv_gpio.o)
 .text.DRV_Gpio_IntDis
                0x00099ec0       0x24 components/Libraries/external/algo/\libalg.a(drv_gpio.o)
                0x00099ec0                DRV_Gpio_IntDis
 .text.DRV_Gpio_DirSet
                0x00099ee4       0x22 components/Libraries/external/algo/\libalg.a(drv_gpio.o)
                0x00099ee4                DRV_Gpio_DirSet
 .text.DRV_Gpio_ValSet
                0x00099f06       0x22 components/Libraries/external/algo/\libalg.a(drv_gpio.o)
                0x00099f06                DRV_Gpio_ValSet
 .text.DRV_Gpio_PinValGet
                0x00099f28       0x1a components/Libraries/external/algo/\libalg.a(drv_gpio.o)
                0x00099f28                DRV_Gpio_PinValGet
 .text.DRV_Gpio_PinLatchedIntStsGet
                0x00099f42       0x24 components/Libraries/external/algo/\libalg.a(drv_gpio.o)
                0x00099f42                DRV_Gpio_PinLatchedIntStsGet
 .text.DRV_Gpio_PullSet
                0x00099f66       0x62 components/Libraries/external/algo/\libalg.a(drv_gpio.o)
                0x00099f66                DRV_Gpio_PullSet
 .text.DRV_Gpio_WakeDis
                0x00099fc8       0x2a components/Libraries/external/algo/\libalg.a(drv_gpio.o)
                0x00099fc8                DRV_Gpio_WakeDis
 .text.DRV_Gpio_DebEn
                0x00099ff2       0x36 components/Libraries/external/algo/\libalg.a(drv_gpio.o)
                0x00099ff2                DRV_Gpio_DebEn
 .text.DRV_Gpio_IntEn
                0x0009a028       0x36 components/Libraries/external/algo/\libalg.a(drv_gpio.o)
                0x0009a028                DRV_Gpio_IntEn
 .text.DRV_Gpio_IntReg
                0x0009a05e       0x66 components/Libraries/external/algo/\libalg.a(drv_gpio.o)
                0x0009a05e                DRV_Gpio_IntReg
 .text.DRV_OdGpio_IeSet
                0x0009a0c4       0x1e components/Libraries/external/algo/\libalg.a(drv_odgpio.o)
                0x0009a0c4                DRV_OdGpio_IeSet
 .text.DRV_KeyScan_Dis
                0x0009a0e2       0x20 components/Libraries/external/algo/\libalg.a(drv_keyscan.o)
                0x0009a0e2                DRV_KeyScan_Dis
 .text.DRV_KeyScan_En
                0x0009a102       0x2e components/Libraries/external/algo/\libalg.a(drv_keyscan.o)
                0x0009a102                DRV_KeyScan_En
 .text.KeyScanIsr
                0x0009a130       0x74 components/Libraries/external/algo/\libalg.a(drv_keyscan.o)
 .text.DRV_KeyScan_Init
                0x0009a1a4       0xee components/Libraries/external/algo/\libalg.a(drv_keyscan.o)
                0x0009a1a4                DRV_KeyScan_Init
 .text.DRV_Led_Set
                0x0009a292      0x174 components/Libraries/external/algo/\libalg.a(drv_led.o)
                0x0009a292                DRV_Led_Set
 .text.DRV_Led_Start
                0x0009a406       0x18 components/Libraries/external/algo/\libalg.a(drv_led.o)
                0x0009a406                DRV_Led_Start
 .text.DRV_Led_StartFollow
                0x0009a41e       0x42 components/Libraries/external/algo/\libalg.a(drv_led.o)
                0x0009a41e                DRV_Led_StartFollow
 .text.DRV_Led_Stop
                0x0009a460       0x22 components/Libraries/external/algo/\libalg.a(drv_led.o)
                0x0009a460                DRV_Led_Stop
 .text.MIC_IntHandler
                0x0009a482       0x40 components/Libraries/external/algo/\libalg.a(drv_mic.o)
                0x0009a482                MIC_IntHandler
 .text.DRV_Mic_Disable
                0x0009a4c2       0x42 components/Libraries/external/algo/\libalg.a(drv_mic.o)
                0x0009a4c2                DRV_Mic_Disable
 .text.DRV_Mic_Enable
                0x0009a504       0x36 components/Libraries/external/algo/\libalg.a(drv_mic.o)
                0x0009a504                DRV_Mic_Enable
 .text.DRV_Mic_Init
                0x0009a53a       0xb2 components/Libraries/external/algo/\libalg.a(drv_mic.o)
                0x0009a53a                DRV_Mic_Init
 .text.DRV_OdPinMux_GrpSet
                0x0009a5ec       0x50 components/Libraries/external/algo/\libalg.a(drv_odpinmux.o)
                0x0009a5ec                DRV_OdPinMux_GrpSet
 .text.DRV_OdPinMux_SigSet
                0x0009a63c       0x3a components/Libraries/external/algo/\libalg.a(drv_odpinmux.o)
                0x0009a63c                DRV_OdPinMux_SigSet
 .text.set_aio  0x0009a676       0x66 components/Libraries/external/algo/\libalg.a(drv_pinmux.o)
 .text.DRV_PinMux_GrpSet
                0x0009a6dc      0x134 components/Libraries/external/algo/\libalg.a(drv_pinmux.o)
                0x0009a6dc                DRV_PinMux_GrpSet
 .text.DRV_PinMux_SigSet
                0x0009a810       0x8e components/Libraries/external/algo/\libalg.a(drv_pinmux.o)
                0x0009a810                DRV_PinMux_SigSet
 .text.DRV_Pwr_EnterMode
                0x0009a89e       0x7c components/Libraries/external/algo/\libalg.a(drv_pwr.o)
                0x0009a89e                DRV_Pwr_EnterMode
 .text.DRV_Pwr_BootFrom
                0x0009a91a       0xce components/Libraries/external/algo/\libalg.a(drv_pwr.o)
                0x0009a91a                DRV_Pwr_BootFrom
 .text.SPI1_InterruptHandler
                0x0009a9e8       0x40 components/Libraries/external/algo/\libalg.a(drv_spi.o)
 .text.SPI2_InterruptHandler
                0x0009aa28       0x40 components/Libraries/external/algo/\libalg.a(drv_spi.o)
 .text.DRV_SPI_Deinit
                0x0009aa68       0x20 components/Libraries/external/algo/\libalg.a(drv_spi.o)
                0x0009aa68                DRV_SPI_Deinit
 .text.DRV_SPI_ClkRefresh
                0x0009aa88       0xa2 components/Libraries/external/algo/\libalg.a(drv_spi.o)
                0x0009aa88                DRV_SPI_ClkRefresh
 .text.DRV_SPI_WriteRead
                0x0009ab2a       0xa0 components/Libraries/external/algo/\libalg.a(drv_spi.o)
                0x0009ab2a                DRV_SPI_WriteRead
 .text.DRV_SPI_IsReady
                0x0009abca       0x10 components/Libraries/external/algo/\libalg.a(drv_spi.o)
                0x0009abca                DRV_SPI_IsReady
 .text.DRV_SPI_ChangeDuplex
                0x0009abda       0x28 components/Libraries/external/algo/\libalg.a(drv_spi.o)
                0x0009abda                DRV_SPI_ChangeDuplex
 .text.DRV_SPI_Int
                0x0009ac02       0x60 components/Libraries/external/algo/\libalg.a(drv_spi.o)
                0x0009ac02                DRV_SPI_Int
 .text.DRV_SPI_Init
                0x0009ac62      0x184 components/Libraries/external/algo/\libalg.a(drv_spi.o)
                0x0009ac62                DRV_SPI_Init
 .text.Timer32B0InterruptHandler
                0x0009ade6       0xde components/Libraries/external/algo/\libalg.a(drv_timer32b0.o)
 .text.DRV_TMR32B0_Disable
                0x0009aec4       0x18 components/Libraries/external/algo/\libalg.a(drv_timer32b0.o)
                0x0009aec4                DRV_TMR32B0_Disable
 .text.DRV_TMR32B0_TickGet
                0x0009aedc        0xc components/Libraries/external/algo/\libalg.a(drv_timer32b0.o)
                0x0009aedc                DRV_TMR32B0_TickGet
 .text.DRV_TMR32B0_NotifyEnable
                0x0009aee8       0xb0 components/Libraries/external/algo/\libalg.a(drv_timer32b0.o)
                0x0009aee8                DRV_TMR32B0_NotifyEnable
 .text.DRV_TMR32B0_NotifyDisable
                0x0009af98       0x86 components/Libraries/external/algo/\libalg.a(drv_timer32b0.o)
                0x0009af98                DRV_TMR32B0_NotifyDisable
 .text.DRV_TMR32B0_Enable
                0x0009b01e       0x2c components/Libraries/external/algo/\libalg.a(drv_timer32b0.o)
                0x0009b01e                DRV_TMR32B0_Enable
 .text.DRV_Uart_SetBaud
                0x0009b04a       0xc6 components/Libraries/external/algo/\libalg.a(drv_uart.o)
                0x0009b04a                DRV_Uart_SetBaud
 .text.DRV_Uart_Recidue
                0x0009b110       0x1a components/Libraries/external/algo/\libalg.a(drv_uart.o)
                0x0009b110                DRV_Uart_Recidue
 .text.DRV_Uart_IsIdle
                0x0009b12a       0x2e components/Libraries/external/algo/\libalg.a(drv_uart.o)
                0x0009b12a                DRV_Uart_IsIdle
 .text.DRV_Uart_IntDis
                0x0009b158       0x34 components/Libraries/external/algo/\libalg.a(drv_uart.o)
                0x0009b158                DRV_Uart_IntDis
 .text.DRV_Uart_IntEn
                0x0009b18c       0x30 components/Libraries/external/algo/\libalg.a(drv_uart.o)
                0x0009b18c                DRV_Uart_IntEn
 .text.DRV_Uart_Flush
                0x0009b1bc      0x11a components/Libraries/external/algo/\libalg.a(drv_uart.o)
                0x0009b1bc                DRV_Uart_Flush
 .text.DRV_Uart_Write
                0x0009b2d6       0xdc components/Libraries/external/algo/\libalg.a(drv_uart.o)
                0x0009b2d6                DRV_Uart_Write
 .text.DRV_Uart_Read
                0x0009b3b2      0x104 components/Libraries/external/algo/\libalg.a(drv_uart.o)
                0x0009b3b2                DRV_Uart_Read
 .text.DRV_Uart_Drop
                0x0009b4b6      0x106 components/Libraries/external/algo/\libalg.a(drv_uart.o)
                0x0009b4b6                DRV_Uart_Drop
 .text.UART2_RxDmaHandler
                0x0009b5bc       0x6e components/Libraries/external/algo/\libalg.a(drv_uart.o)
 .text.UART2InterruptHandler
                0x0009b62a       0x64 components/Libraries/external/algo/\libalg.a(drv_uart.o)
 .text.UART_RxDmaHandler
                0x0009b68e       0xc8 components/Libraries/external/algo/\libalg.a(drv_uart.o)
 .text.UARTInterruptHandler
                0x0009b756       0x62 components/Libraries/external/algo/\libalg.a(drv_uart.o)
 .text.DRV_Uart_Deinit
                0x0009b7b8       0x70 components/Libraries/external/algo/\libalg.a(drv_uart.o)
                0x0009b7b8                DRV_Uart_Deinit
 .text.DRV_Uart_Init
                0x0009b828      0x1d0 components/Libraries/external/algo/\libalg.a(drv_uart.o)
                0x0009b828                DRV_Uart_Init
 .text.DRV_WDT_Disable
                0x0009b9f8       0x2a components/Libraries/external/algo/\libalg.a(drv_wdt.o)
                0x0009b9f8                DRV_WDT_Disable
 .text.DRV_WDT_Kick
                0x0009ba22       0x1c components/Libraries/external/algo/\libalg.a(drv_wdt.o)
                0x0009ba22                DRV_WDT_Kick
 .text.DRV_WDT_Enable
                0x0009ba3e       0x62 components/Libraries/external/algo/\libalg.a(drv_wdt.o)
                0x0009ba3e                DRV_WDT_Enable
 .text.wdt_int  0x0009baa0        0xc components/Libraries/external/algo/\libalg.a(drv_wdt.o)
 .text.BAS_update_battery_level
                0x0009baac       0x1e components/Libraries/external/algo/\libalg.a(service_battery.o)
                0x0009baac                BAS_update_battery_level
 .text.BAS_init
                0x0009baca       0xb0 components/Libraries/external/algo/\libalg.a(service_battery.o)
                0x0009baca                BAS_init
 .text.OTA_change_permission
                0x0009bb7a       0x16 components/Libraries/external/algo/\libalg.a(service_device_firmware_update_OTA.o)
                0x0009bb7a                OTA_change_permission
 .text.OTA_init
                0x0009bb90       0xaa components/Libraries/external/algo/\libalg.a(service_device_firmware_update_OTA.o)
                0x0009bb90                OTA_init
 .text._OTA_read_bootcode_ver
                0x0009bc3a       0x48 components/Libraries/external/algo/\libalg.a(service_device_firmware_update_OTA.o)
                0x0009bc3a                _OTA_read_bootcode_ver
 .text._OTA_change_area
                0x0009bc82       0x42 components/Libraries/external/algo/\libalg.a(service_device_firmware_update_OTA.o)
                0x0009bc82                _OTA_change_area
 .text._OTA_write_flash
                0x0009bcc4      0x110 components/Libraries/external/algo/\libalg.a(service_device_firmware_update_OTA.o)
                0x0009bcc4                _OTA_write_flash
 .text._OTA_erase_flash
                0x0009bdd4       0xb0 components/Libraries/external/algo/\libalg.a(service_device_firmware_update_OTA.o)
                0x0009bdd4                _OTA_erase_flash
 .text._OTA_read_status_ex
                0x0009be84       0xc0 components/Libraries/external/algo/\libalg.a(service_device_firmware_update_OTA.o)
                0x0009be84                _OTA_read_status_ex
 .text._OTA_read_status
                0x0009bf44       0xbc components/Libraries/external/algo/\libalg.a(service_device_firmware_update_OTA.o)
                0x0009bf44                _OTA_read_status
 .text._OTA_command_CB
                0x0009c000       0x7a components/Libraries/external/algo/\libalg.a(service_device_firmware_update_OTA.o)
                0x0009c000                _OTA_command_CB
 .text._dis_add_char
                0x0009c07a       0x4e components/Libraries/external/algo/\libalg.a(service_device_information.o)
 .text.DIS_init
                0x0009c0c8       0x9e components/Libraries/external/algo/\libalg.a(service_device_information.o)
                0x0009c0c8                DIS_init
 .text.GAS_support_privacy_feature
                0x0009c166       0x82 components/Libraries/external/algo/\libalg.a(service_generic_access.o)
                0x0009c166                GAS_support_privacy_feature
 .text.GAS_init
                0x0009c1e8      0x128 components/Libraries/external/algo/\libalg.a(service_generic_access.o)
                0x0009c1e8                GAS_init
 .text.GATT_init
                0x0009c310       0x9a components/Libraries/external/algo/\libalg.a(service_generic_attribute.o)
                0x0009c310                GATT_init
 .text.HIDS_add_report
                0x0009c3aa       0xd8 components/Libraries/external/algo/\libalg.a(service_human_interface_device.o)
                0x0009c3aa                HIDS_add_report
 .text.HIDS_init
                0x0009c482      0x146 components/Libraries/external/algo/\libalg.a(service_human_interface_device.o)
                0x0009c482                HIDS_init
 .text.AB_console_handle
                0x0009c5c8       0x24 components/Libraries/external/algo/\libalg.a(console.o)
                0x0009c5c8                AB_console_handle
 .text.AB_console_init
                0x0009c5ec       0x70 components/Libraries/external/algo/\libalg.a(console.o)
                0x0009c5ec                AB_console_init
 .text.shell_parse_line
                0x0009c65c       0x8a components/Libraries/external/algo/\libalg.a(shell.o)
 .text.shell_history_save
                0x0009c6e6       0x42 components/Libraries/external/algo/\libalg.a(shell.o)
 .text.shell_find_cmd
                0x0009c728       0x4a components/Libraries/external/algo/\libalg.a(shell.o)
 .text.shell_printf
                0x0009c772       0x2e components/Libraries/external/algo/\libalg.a(shell.o)
 .text.shell_history_search
                0x0009c7a0       0xe0 components/Libraries/external/algo/\libalg.a(shell.o)
 .text.shell_show_title
                0x0009c880      0x3a8 components/Libraries/external/algo/\libalg.a(shell.o)
 .text.AB_shell_main_loop
                0x0009cc28      0x692 components/Libraries/external/algo/\libalg.a(shell.o)
                0x0009cc28                AB_shell_main_loop
 .text.AB_shell_main_title
                0x0009d2ba       0x38 components/Libraries/external/algo/\libalg.a(shell.o)
                0x0009d2ba                AB_shell_main_title
 .text.exceptf  0x0009d2f2        0xe components/Libraries/external/algo/\libalg.a(ab_debug.o)
 .text.AB_Debug_CpuExceptionMonitor
                0x0009d300       0x78 components/Libraries/external/algo/\libalg.a(ab_debug.o)
                0x0009d300                AB_Debug_CpuExceptionMonitor
 .text.exception8
                0x0009d378       0x14 components/Libraries/external/algo/\libalg.a(ab_debug.o)
 .text.exception7
                0x0009d38c       0x14 components/Libraries/external/algo/\libalg.a(ab_debug.o)
 .text.exception6
                0x0009d3a0       0x14 components/Libraries/external/algo/\libalg.a(ab_debug.o)
 .text.exception5
                0x0009d3b4       0x14 components/Libraries/external/algo/\libalg.a(ab_debug.o)
 .text.exception4
                0x0009d3c8       0x14 components/Libraries/external/algo/\libalg.a(ab_debug.o)
 .text.exception3
                0x0009d3dc       0x14 components/Libraries/external/algo/\libalg.a(ab_debug.o)
 .text.exception2
                0x0009d3f0       0x14 components/Libraries/external/algo/\libalg.a(ab_debug.o)
 .text.exception1
                0x0009d404       0x14 components/Libraries/external/algo/\libalg.a(ab_debug.o)
 .text.AB_DFU_set_active_code_area
                0x0009d418       0xda components/Libraries/external/algo/\libalg.a(dfu.o)
                0x0009d418                AB_DFU_set_active_code_area
 .text.AB_DFU_write_flash
                0x0009d4f2       0x16 components/Libraries/external/algo/\libalg.a(dfu.o)
                0x0009d4f2                AB_DFU_write_flash
 .text.AB_DFU_erase_flash
                0x0009d508       0x2c components/Libraries/external/algo/\libalg.a(dfu.o)
                0x0009d508                AB_DFU_erase_flash
 .text.ab_modue_enum
                0x0009d534       0x1e components/Libraries/external/algo/\libalg.a(ab_module.o)
 .text.AB_module_count
                0x0009d552       0x40 components/Libraries/external/algo/\libalg.a(ab_module.o)
                0x0009d552                AB_module_count
 .text.AB_module_get
                0x0009d592       0x24 components/Libraries/external/algo/\libalg.a(ab_module.o)
                0x0009d592                AB_module_get
 .text.hci_h4_decode
                0x0009d5b6      0x172 components/BT/release/\libbtcore.a(hci_h4_parser.o)
                0x0009d5b6                hci_h4_decode
 .text.hci_h4_encode_dat
                0x0009d728       0x42 components/BT/release/\libbtcore.a(hci_h4_parser.o)
                0x0009d728                hci_h4_encode_dat
 .text.hci_h4_encode_cmd
                0x0009d76a       0x3c components/BT/release/\libbtcore.a(hci_h4_parser.o)
                0x0009d76a                hci_h4_encode_cmd
 .text.bt_infom_ap
                0x0009d7a6        0xc components/BT/release/\libbtcore.a(bt.o)
                0x0009d7a6                bt_infom_ap
 .text.BT_Log_Enable
                0x0009d7b2        0xa components/BT/release/\libbtcore.a(bt.o)
                0x0009d7b2                BT_Log_Enable
 .text.BT_Pending_TxCnt
                0x0009d7bc        0x8 components/BT/release/\libbtcore.a(bt.o)
                0x0009d7bc                BT_Pending_TxCnt
 .text.BT_InitEx2
                0x0009d7c4      0x174 components/BT/release/\libbtcore.a(bt.o)
                0x0009d7c4                BT_InitEx2
 .text.hci_init_done
                0x0009d938       0x2e components/BT/release/\libbtcore.a(bt.o)
 .text.bt_init_read_buf_size
                0x0009d966       0x90 components/BT/release/\libbtcore.a(bt.o)
 .text.ble_gap_disconnect
                0x0009d9f6       0x28 components/BT/release/\libbtcore.a(ble_gap.o)
                0x0009d9f6                ble_gap_disconnect
 .text.generic_status_complete_cb
                0x0009da1e       0x24 components/BT/release/\libbtcore.a(ble_gap.o)
 .text.generic_encrypt_cb
                0x0009da42       0x16 components/BT/release/\libbtcore.a(ble_gap.o)
 .text.generic_conn_update_cb
                0x0009da58       0x16 components/BT/release/\libbtcore.a(ble_gap.o)
 .text.generic_disconnect_cb
                0x0009da6e       0x16 components/BT/release/\libbtcore.a(ble_gap.o)
 .text.ble_gap_init
                0x0009da84       0x3a components/BT/release/\libbtcore.a(ble_gap.o)
                0x0009da84                ble_gap_init
 .text.ble_gap_adv_stop
                0x0009dabe       0x24 components/BT/release/\libbtcore.a(ble_gap.o)
                0x0009dabe                ble_gap_adv_stop
 .text.set_adv_parm_cb
                0x0009dae2       0x2c components/BT/release/\libbtcore.a(ble_gap.o)
 .text.gap_init_cb
                0x0009db0e       0x44 components/BT/release/\libbtcore.a(ble_gap.o)
 .text.generic_complete_cb
                0x0009db52       0xb8 components/BT/release/\libbtcore.a(ble_gap.o)
 .text.ble_gap_start_encrypt
                0x0009dc0a       0x2c components/BT/release/\libbtcore.a(ble_gap.o)
                0x0009dc0a                ble_gap_start_encrypt
 .text.ble_gap_address_set
                0x0009dc36       0x92 components/BT/release/\libbtcore.a(ble_gap.o)
                0x0009dc36                ble_gap_address_set
 .text.ble_gap_conn_param_update
                0x0009dcc8       0x8c components/BT/release/\libbtcore.a(ble_gap.o)
                0x0009dcc8                ble_gap_conn_param_update
 .text.ble_gap_adv_start
                0x0009dd54       0xc8 components/BT/release/\libbtcore.a(ble_gap.o)
                0x0009dd54                ble_gap_adv_start
 .text.ble_gap_scan_data_set
                0x0009de1c       0x40 components/BT/release/\libbtcore.a(ble_gap.o)
                0x0009de1c                ble_gap_scan_data_set
 .text.ble_gap_adv_data_set
                0x0009de5c       0x40 components/BT/release/\libbtcore.a(ble_gap.o)
                0x0009de5c                ble_gap_adv_data_set
 .text.ble_gap_event_handler
                0x0009de9c      0x228 components/BT/release/\libbtcore.a(ble_gap.o)
                0x0009de9c                ble_gap_event_handler
 .text.ble_gap_link_GetAttr_OwnerType
                0x0009e0c4       0x16 components/BT/release/\libbtcore.a(ble_gap_links.o)
                0x0009e0c4                ble_gap_link_GetAttr_OwnerType
 .text.ble_gap_link_GetAttr_OwnerAddr
                0x0009e0da       0x1e components/BT/release/\libbtcore.a(ble_gap_links.o)
                0x0009e0da                ble_gap_link_GetAttr_OwnerAddr
 .text.ble_gap_link_GetAttr_Handle
                0x0009e0f8       0x26 components/BT/release/\libbtcore.a(ble_gap_links.o)
                0x0009e0f8                ble_gap_link_GetAttr_Handle
 .text.ble_gap_link_GetIdx_ByHandle
                0x0009e11e       0x30 components/BT/release/\libbtcore.a(ble_gap_links.o)
                0x0009e11e                ble_gap_link_GetIdx_ByHandle
 .text.ble_gap_link_GetAttr_BdAddr
                0x0009e14e       0x14 components/BT/release/\libbtcore.a(ble_gap_links.o)
                0x0009e14e                ble_gap_link_GetAttr_BdAddr
 .text.ble_gap_link_GetAttr_BdAddrType
                0x0009e162       0x14 components/BT/release/\libbtcore.a(ble_gap_links.o)
                0x0009e162                ble_gap_link_GetAttr_BdAddrType
 .text.ble_gap_link_GetIdx_Empty
                0x0009e176       0x1e components/BT/release/\libbtcore.a(ble_gap_links.o)
                0x0009e176                ble_gap_link_GetIdx_Empty
 .text.ble_gap_link_SetAttr_Auth
                0x0009e194       0x16 components/BT/release/\libbtcore.a(ble_gap_links.o)
                0x0009e194                ble_gap_link_SetAttr_Auth
 .text.ble_gap_link_GetAttr_Auth
                0x0009e1aa       0x16 components/BT/release/\libbtcore.a(ble_gap_links.o)
                0x0009e1aa                ble_gap_link_GetAttr_Auth
 .text.ble_gap_link_SetAttr_Enc
                0x0009e1c0       0x16 components/BT/release/\libbtcore.a(ble_gap_links.o)
                0x0009e1c0                ble_gap_link_SetAttr_Enc
 .text.ble_gap_link_GetAttr_Enc
                0x0009e1d6       0x16 components/BT/release/\libbtcore.a(ble_gap_links.o)
                0x0009e1d6                ble_gap_link_GetAttr_Enc
 .text.ble_gap_link_SetAttr_State
                0x0009e1ec       0x16 components/BT/release/\libbtcore.a(ble_gap_links.o)
                0x0009e1ec                ble_gap_link_SetAttr_State
 .text.ble_gap_link_Del
                0x0009e202       0x1e components/BT/release/\libbtcore.a(ble_gap_links.o)
                0x0009e202                ble_gap_link_Del
 .text.ble_gap_link_Add
                0x0009e220       0x1c components/BT/release/\libbtcore.a(ble_gap_links.o)
                0x0009e220                ble_gap_link_Add
 .text.ble_gap_link_GetAttr_Role
                0x0009e23c       0x14 components/BT/release/\libbtcore.a(ble_gap_links.o)
                0x0009e23c                ble_gap_link_GetAttr_Role
 .text.ble_gap_link_SetAttr_Data
                0x0009e250       0x28 components/BT/release/\libbtcore.a(ble_gap_links.o)
                0x0009e250                ble_gap_link_SetAttr_Data
 .text.ble_gap_link_GetAttr_Data
                0x0009e278       0x30 components/BT/release/\libbtcore.a(ble_gap_links.o)
                0x0009e278                ble_gap_link_GetAttr_Data
 .text.ble_gap_link_GetIdx_ByBdAddr
                0x0009e2a8       0x30 components/BT/release/\libbtcore.a(ble_gap_links.o)
                0x0009e2a8                ble_gap_link_GetIdx_ByBdAddr
 .text.ble_gap_link_Add_Ex
                0x0009e2d8       0x68 components/BT/release/\libbtcore.a(ble_gap_links.o)
                0x0009e2d8                ble_gap_link_Add_Ex
 .text.ble_gap_link_Is_ValidAddr
                0x0009e340       0x12 components/BT/release/\libbtcore.a(ble_gap_links.o)
                0x0009e340                ble_gap_link_Is_ValidAddr
 .text.BLE_gap_sm_init
                0x0009e352        0x8 components/BT/release/\libbtcore.a(ble_gap_sm.o)
                0x0009e352                BLE_gap_sm_init
 .text.BLE_gap_sm_get_last_paired_device
                0x0009e35a        0x8 components/BT/release/\libbtcore.a(ble_gap_sm.o)
                0x0009e35a                BLE_gap_sm_get_last_paired_device
 .text.BLE_gap_sm_delete_paired_record
                0x0009e362        0xa components/BT/release/\libbtcore.a(ble_gap_sm.o)
                0x0009e362                BLE_gap_sm_delete_paired_record
 .text.BLE_gap_sm_set_security_param
                0x0009e36c       0x38 components/BT/release/\libbtcore.a(ble_gap_sm.o)
                0x0009e36c                BLE_gap_sm_set_security_param
 .text.BLE_gap_sm_disconnected
                0x0009e3a4        0xe components/BT/release/\libbtcore.a(ble_gap_sm.o)
                0x0009e3a4                BLE_gap_sm_disconnected
 .text.BLE_gap_sm_set_link_auth
                0x0009e3b2       0x3e components/BT/release/\libbtcore.a(ble_gap_sm.o)
                0x0009e3b2                BLE_gap_sm_set_link_auth
 .text.BLE_gap_sm_encryption_change
                0x0009e3f0       0x4e components/BT/release/\libbtcore.a(ble_gap_sm.o)
                0x0009e3f0                BLE_gap_sm_encryption_change
 .text.BLE_gap_sm_ltk_request
                0x0009e43e       0x1c components/BT/release/\libbtcore.a(ble_gap_sm.o)
                0x0009e43e                BLE_gap_sm_ltk_request
 .text.BLE_gap_sm_gen_dhkey_complete
                0x0009e45a        0x8 components/BT/release/\libbtcore.a(ble_gap_sm.o)
                0x0009e45a                BLE_gap_sm_gen_dhkey_complete
 .text.BLE_gap_sm_read_public_key_complete
                0x0009e462        0x8 components/BT/release/\libbtcore.a(ble_gap_sm.o)
                0x0009e462                BLE_gap_sm_read_public_key_complete
 .text.l2cap_find_cidcb
                0x0009e46a       0x28 components/BT/release/\libbtcore.a(ble_l2cap.o)
 .text.l2cap_notify
                0x0009e492       0x30 components/BT/release/\libbtcore.a(ble_l2cap.o)
                0x0009e492                l2cap_notify
 .text.l2cap_pdu_dispatch
                0x0009e4c2       0x24 components/BT/release/\libbtcore.a(ble_l2cap.o)
                0x0009e4c2                l2cap_pdu_dispatch
 .text.BLE_l2cap_cid_register
                0x0009e4e6       0x16 components/BT/release/\libbtcore.a(ble_l2cap.o)
                0x0009e4e6                BLE_l2cap_cid_register
 .text.l2cap_init
                0x0009e4fc       0x12 components/BT/release/\libbtcore.a(ble_l2cap.o)
                0x0009e4fc                l2cap_init
 .text.l2cap_hci_fragment
                0x0009e50e       0x4e components/BT/release/\libbtcore.a(ble_l2cap.o)
                0x0009e50e                l2cap_hci_fragment
 .text.l2cap_hci_recombine
                0x0009e55c      0x1d4 components/BT/release/\libbtcore.a(ble_l2cap.o)
                0x0009e55c                l2cap_hci_recombine
 .text.l2cap_lesig_error_rsp
                0x0009e730       0x32 components/BT/release/\libbtcore.a(l2cap_le_sig.o)
                0x0009e730                l2cap_lesig_error_rsp
 .text.l2cap_lesig_conn_param_update_req
                0x0009e762       0x2c components/BT/release/\libbtcore.a(l2cap_le_sig.o)
                0x0009e762                l2cap_lesig_conn_param_update_req
 .text.l2cap_lesig_init
                0x0009e78e       0x12 components/BT/release/\libbtcore.a(l2cap_le_sig.o)
                0x0009e78e                l2cap_lesig_init
 .text.le_sig_cid_evt_cb
                0x0009e7a0       0xa6 components/BT/release/\libbtcore.a(l2cap_le_sig.o)
                0x0009e7a0                le_sig_cid_evt_cb
 .text.ATT_UnknownPduHadler
                0x0009e846        0x4 components/BT/release/\libbtcore.a(ble_att.o)
 .text.ATT_transaction_timeout_cb
                0x0009e84a       0x1a components/BT/release/\libbtcore.a(ble_att.o)
                0x0009e84a                ATT_transaction_timeout_cb
 .text.ATT_is_in_transaction
                0x0009e864       0x10 components/BT/release/\libbtcore.a(ble_att.o)
                0x0009e864                ATT_is_in_transaction
 .text.ATT_BinarySearchIndexByHandle
                0x0009e874       0x5e components/BT/release/\libbtcore.a(ble_att.o)
 .text.ATT_CheckHandle
                0x0009e8d2       0x18 components/BT/release/\libbtcore.a(ble_att.o)
 .text.ATT_CALLBACK
                0x0009e8ea       0x32 components/BT/release/\libbtcore.a(ble_att.o)
 .text.ATT_ReturnGroupEndIndex
                0x0009e91c       0x66 components/BT/release/\libbtcore.a(ble_att.o)
 .text.ATT_SetU16LE
                0x0009e982        0xc components/BT/release/\libbtcore.a(ble_att.o)
                0x0009e982                ATT_SetU16LE
 .text.ATT_GetU16LE
                0x0009e98e       0x10 components/BT/release/\libbtcore.a(ble_att.o)
                0x0009e98e                ATT_GetU16LE
 .text.BLE_att_get_attribute_length
                0x0009e99e       0x2a components/BT/release/\libbtcore.a(ble_att.o)
                0x0009e99e                BLE_att_get_attribute_length
 .text.ATT_ConvertToUUID128
                0x0009e9c8       0x36 components/BT/release/\libbtcore.a(ble_att.o)
 .text.ATT_ReleasePWQ
                0x0009e9fe       0x2a components/BT/release/\libbtcore.a(ble_att.o)
 .text.ATT_AllocRspDataPdu
                0x0009ea28       0x28 components/BT/release/\libbtcore.a(ble_att.o)
 .text.ATT_CheckAccessPermission
                0x0009ea50       0x70 components/BT/release/\libbtcore.a(ble_att.o)
 .text.ATT_CheckWritePermission
                0x0009eac0       0x20 components/BT/release/\libbtcore.a(ble_att.o)
 .text.ATT_CheckReadPermission
                0x0009eae0       0x1e components/BT/release/\libbtcore.a(ble_att.o)
 .text.ATT_IsSameValue
                0x0009eafe        0xe components/BT/release/\libbtcore.a(ble_att.o)
 .text.BLE_att_set_attribute_length
                0x0009eb0c       0x7c components/BT/release/\libbtcore.a(ble_att.o)
                0x0009eb0c                BLE_att_set_attribute_length
 .text.ATT_end_transaction
                0x0009eb88       0x26 components/BT/release/\libbtcore.a(ble_att.o)
                0x0009eb88                ATT_end_transaction
 .text.ATT_ServerGetConfirmation
                0x0009ebae       0x26 components/BT/release/\libbtcore.a(ble_att.o)
 .text.ATT_start_transaction
                0x0009ebd4       0x34 components/BT/release/\libbtcore.a(ble_att.o)
                0x0009ebd4                ATT_start_transaction
 .text.ATT_SendPduToL2CAP
                0x0009ec08       0x12 components/BT/release/\libbtcore.a(ble_att.o)
                0x0009ec08                ATT_SendPduToL2CAP
 .text.ATT_SendErrorRsp
                0x0009ec1a       0x26 components/BT/release/\libbtcore.a(ble_att.o)
 .text.ATT_ServerGetExecuteWriteReq
                0x0009ec40       0xde components/BT/release/\libbtcore.a(ble_att.o)
 .text.ATT_ServerGetPrepareWriteReq
                0x0009ed1e       0xb2 components/BT/release/\libbtcore.a(ble_att.o)
 .text.ATT_ServerGetWriteMux
                0x0009edd0       0xf0 components/BT/release/\libbtcore.a(ble_att.o)
 .text.ATT_ServerGetReadByGroupTypeReq
                0x0009eec0      0x18c components/BT/release/\libbtcore.a(ble_att.o)
 .text.ATT_ServerGetReadMultiReq
                0x0009f04c       0xfa components/BT/release/\libbtcore.a(ble_att.o)
 .text.ATT_ServerGetReadBlobReq
                0x0009f146       0xfa components/BT/release/\libbtcore.a(ble_att.o)
 .text.ATT_ServerGetReadValueReq
                0x0009f240       0xaa components/BT/release/\libbtcore.a(ble_att.o)
 .text.ATT_ServerGetReadByTypeReq
                0x0009f2ea      0x222 components/BT/release/\libbtcore.a(ble_att.o)
 .text.ATT_ServerGetFindByTypeValueReq
                0x0009f50c      0x160 components/BT/release/\libbtcore.a(ble_att.o)
 .text.ATT_ServerGetFindInfoReq
                0x0009f66c      0x1a0 components/BT/release/\libbtcore.a(ble_att.o)
 .text.ATT_ServerGetMtuExchangeReq
                0x0009f80c       0x76 components/BT/release/\libbtcore.a(ble_att.o)
 .text.ATT_HandleValueReportMux
                0x0009f882       0xc2 components/BT/release/\libbtcore.a(ble_att.o)
                0x0009f882                ATT_HandleValueReportMux
 .text.att_init
                0x0009f944       0x3e components/BT/release/\libbtcore.a(ble_att.o)
                0x0009f944                att_init
 .text.ATT_cid_evt_cb
                0x0009f982       0xf4 components/BT/release/\libbtcore.a(ble_att.o)
                0x0009f982                ATT_cid_evt_cb
 .text._ble_cccd_common_cb
                0x0009fa76       0xe0 components/BT/release/\libbtcore.a(ble_gatt_server.o)
                0x0009fa76                _ble_cccd_common_cb
 .text._ble_gatt_charact_notify_indicate
                0x0009fb56       0x7c components/BT/release/\libbtcore.a(ble_gatt_server.o)
                0x0009fb56                _ble_gatt_charact_notify_indicate
 .text.BLE_gatt_charact_notify
                0x0009fbd2       0x5c components/BT/release/\libbtcore.a(ble_gatt_server.o)
                0x0009fbd2                BLE_gatt_charact_notify
 .text._ble_gatt_set_uuid
                0x0009fc2e       0x48 components/BT/release/\libbtcore.a(ble_gatt_server.o)
                0x0009fc2e                _ble_gatt_set_uuid
 .text._ble_gatt_new_attribute
                0x0009fc76       0xc8 components/BT/release/\libbtcore.a(ble_gatt_server.o)
                0x0009fc76                _ble_gatt_new_attribute
 .text.BLE_gatt_add_charact
                0x0009fd3e       0xfa components/BT/release/\libbtcore.a(ble_gatt_server.o)
                0x0009fd3e                BLE_gatt_add_charact
 .text.BLE_gatt_add_include
                0x0009fe38      0x102 components/BT/release/\libbtcore.a(ble_gatt_server.o)
                0x0009fe38                BLE_gatt_add_include
 .text.BLE_gatt_add_service
                0x0009ff3a       0x5e components/BT/release/\libbtcore.a(ble_gatt_server.o)
                0x0009ff3a                BLE_gatt_add_service
 .text._ble_gatt_hook_cccd_and_char
                0x0009ff98       0xb4 components/BT/release/\libbtcore.a(ble_gatt_server.o)
                0x0009ff98                _ble_gatt_hook_cccd_and_char
 .text._ble_gatt_check_cccd
                0x000a004c       0x64 components/BT/release/\libbtcore.a(ble_gatt_server.o)
                0x000a004c                _ble_gatt_check_cccd
 .text.BLE_gatt_add_descrip
                0x000a00b0       0x3c components/BT/release/\libbtcore.a(ble_gatt_server.o)
                0x000a00b0                BLE_gatt_add_descrip
 .text.ATT_Client_GetHandleValueReport
                0x000a00ec       0x8c components/BT/release/\libbtcore.a(ble_gatt_client.o)
                0x000a00ec                ATT_Client_GetHandleValueReport
 .text.SM_GetPairingMethodByRole
                0x000a0178       0x22 components/BT/release/\libbtcore.a(sm.o)
                0x000a0178                SM_GetPairingMethodByRole
 .text.SM_GetPairingMethod
                0x000a019a       0x56 components/BT/release/\libbtcore.a(sm.o)
                0x000a019a                SM_GetPairingMethod
 .text.sm_init  0x000a01f0       0x1c components/BT/release/\libbtcore.a(sm.o)
                0x000a01f0                sm_init
 .text.SM_FinishPairing
                0x000a020c       0x7c components/BT/release/\libbtcore.a(sm.o)
                0x000a020c                SM_FinishPairing
 .text.SM_PairingFailed
                0x000a0288       0x1c components/BT/release/\libbtcore.a(sm.o)
                0x000a0288                SM_PairingFailed
 .text.SM_SetKeySize
                0x000a02a4       0x3c components/BT/release/\libbtcore.a(sm.o)
                0x000a02a4                SM_SetKeySize
 .text.SM_StartKeyDistribution
                0x000a02e0       0xfc components/BT/release/\libbtcore.a(sm.o)
                0x000a02e0                SM_StartKeyDistribution
 .text.SM_WaitKeyDistribution
                0x000a03dc       0x7a components/BT/release/\libbtcore.a(sm.o)
                0x000a03dc                SM_WaitKeyDistribution
 .text.SM_LinkDisconnected
                0x000a0456       0x20 components/BT/release/\libbtcore.a(sm.o)
                0x000a0456                SM_LinkDisconnected
 .text.SM_CryptoTool_16Byte_XOR
                0x000a0476       0x1a components/BT/release/\libbtcore.a(sm_cryptotool.o)
 .text.SM_CryptoTool_LeftShiftOneBit
                0x000a0490       0x28 components/BT/release/\libbtcore.a(sm_cryptotool.o)
 .text.SM_CryptoTool_init
                0x000a04b8       0x2a components/BT/release/\libbtcore.a(sm_cryptotool.o)
                0x000a04b8                SM_CryptoTool_init
 .text.f5_finish
                0x000a04e2       0x28 components/BT/release/\libbtcore.a(sm_cryptotool.o)
                0x000a04e2                f5_finish
 .text.f5_generate_ltk_cb
                0x000a050a       0x14 components/BT/release/\libbtcore.a(sm_cryptotool.o)
 .text.cmac_finish
                0x000a051e       0x54 components/BT/release/\libbtcore.a(sm_cryptotool.o)
                0x000a051e                cmac_finish
 .text.g2_generate_cb
                0x000a0572       0x3a components/BT/release/\libbtcore.a(sm_cryptotool.o)
                0x000a0572                g2_generate_cb
 .text.ah_generate_cb
                0x000a05ac       0x34 components/BT/release/\libbtcore.a(sm_cryptotool.o)
                0x000a05ac                ah_generate_cb
 .text.SM_CryptoTool_ReadLocalP256PublicKeyComplete
                0x000a05e0       0x3c components/BT/release/\libbtcore.a(sm_cryptotool.o)
                0x000a05e0                SM_CryptoTool_ReadLocalP256PublicKeyComplete
 .text.SM_CryptoTool_AES_Cipher
                0x000a061c       0x34 components/BT/release/\libbtcore.a(sm_cryptotool.o)
 .text.cmac_generate_SubKey
                0x000a0650       0x64 components/BT/release/\libbtcore.a(sm_cryptotool.o)
                0x000a0650                cmac_generate_SubKey
 .text.cmac_1   0x000a06b4       0xb2 components/BT/release/\libbtcore.a(sm_cryptotool.o)
                0x000a06b4                cmac_1
 .text.cmac_start
                0x000a0766       0x3a components/BT/release/\libbtcore.a(sm_cryptotool.o)
                0x000a0766                cmac_start
 .text.AES_CMAC
                0x000a07a0       0x5a components/BT/release/\libbtcore.a(sm_cryptotool.o)
 .text.g2       0x000a07fa       0x76 components/BT/release/\libbtcore.a(sm_cryptotool.o)
                0x000a07fa                g2
 .text.f6       0x000a0870       0x8e components/BT/release/\libbtcore.a(sm_cryptotool.o)
                0x000a0870                f6
 .text.f5       0x000a08fe       0xb2 components/BT/release/\libbtcore.a(sm_cryptotool.o)
                0x000a08fe                f5
 .text.f5_generate_t_cb
                0x000a09b0       0x62 components/BT/release/\libbtcore.a(sm_cryptotool.o)
 .text.f5_generate_mac_key_cb
                0x000a0a12       0x52 components/BT/release/\libbtcore.a(sm_cryptotool.o)
 .text.f4       0x000a0a64       0x66 components/BT/release/\libbtcore.a(sm_cryptotool.o)
                0x000a0a64                f4
 .text.cmac_generate_SubKey_cb
                0x000a0aca       0x4e components/BT/release/\libbtcore.a(sm_cryptotool.o)
 .text.cmac_1_cb
                0x000a0b18       0x3c components/BT/release/\libbtcore.a(sm_cryptotool.o)
 .text.s1       0x000a0b54       0x5a components/BT/release/\libbtcore.a(sm_cryptotool.o)
                0x000a0b54                s1
 .text.c1_2     0x000a0bae       0x56 components/BT/release/\libbtcore.a(sm_cryptotool.o)
                0x000a0bae                c1_2
 .text.c1_1     0x000a0c04       0x56 components/BT/release/\libbtcore.a(sm_cryptotool.o)
                0x000a0c04                c1_1
 .text.ah       0x000a0c5a       0x60 components/BT/release/\libbtcore.a(sm_cryptotool.o)
                0x000a0c5a                ah
 .text.SM_CryptoTool_GenerateDHKey
                0x000a0cba       0x5a components/BT/release/\libbtcore.a(sm_cryptotool.o)
                0x000a0cba                SM_CryptoTool_GenerateDHKey
 .text.SM_CryptoTool_ReadLocalP256PublicKey
                0x000a0d14       0x66 components/BT/release/\libbtcore.a(sm_cryptotool.o)
                0x000a0d14                SM_CryptoTool_ReadLocalP256PublicKey
 .text.SM_CryptoTool_CommandStatus
                0x000a0d7a       0x48 components/BT/release/\libbtcore.a(sm_cryptotool.o)
 .text.SM_CryptoTool_GenerateDHKeyComplete
                0x000a0dc2       0x22 components/BT/release/\libbtcore.a(sm_cryptotool.o)
                0x000a0dc2                SM_CryptoTool_GenerateDHKeyComplete
 .text.SM_CryptoTool_SendLTKNegativeReply
                0x000a0de4       0x14 components/BT/release/\libbtcore.a(sm_cryptotool.o)
                0x000a0de4                SM_CryptoTool_SendLTKNegativeReply
 .text.SM_CryptoTool_SendLTKReply
                0x000a0df8       0x1e components/BT/release/\libbtcore.a(sm_cryptotool.o)
                0x000a0df8                SM_CryptoTool_SendLTKReply
 .text.sm_hal_flash_get_paired_device_count
                0x000a0e16       0x2c components/BT/release/\libbtcore.a(sm_hal.o)
                0x000a0e16                sm_hal_flash_get_paired_device_count
 .text.sm_hal_flash_get_last_paired_device
                0x000a0e42       0x4c components/BT/release/\libbtcore.a(sm_hal.o)
                0x000a0e42                sm_hal_flash_get_last_paired_device
 .text.sm_hal_flash_isDevice_bonded
                0x000a0e8e       0x74 components/BT/release/\libbtcore.a(sm_hal.o)
                0x000a0e8e                sm_hal_flash_isDevice_bonded
 .text.sm_hal_flash_delete_paired_record
                0x000a0f02       0x9c components/BT/release/\libbtcore.a(sm_hal.o)
                0x000a0f02                sm_hal_flash_delete_paired_record
 .text.sm_hal_flash_load_data
                0x000a0f9e       0x56 components/BT/release/\libbtcore.a(sm_hal.o)
                0x000a0f9e                sm_hal_flash_load_data
 .text.sm_hal_protocol_cmd_factory
                0x000a0ff4       0x10 components/BT/release/\libbtcore.a(sm_hal.o)
                0x000a0ff4                sm_hal_protocol_cmd_factory
 .text.sm_hal_flash_check_master_info
                0x000a1004      0x188 components/BT/release/\libbtcore.a(sm_hal.o)
 .text.sm_hal_flash_get_ltk
                0x000a118c       0x48 components/BT/release/\libbtcore.a(sm_hal.o)
                0x000a118c                sm_hal_flash_get_ltk
 .text.SM_hal_flash_ah_cb
                0x000a11d4       0xba components/BT/release/\libbtcore.a(sm_hal.o)
                0x000a11d4                SM_hal_flash_ah_cb
 .text.sm_hal_cryptoTool_hci_cmd_complete
                0x000a128e       0x2c components/BT/release/\libbtcore.a(sm_hal.o)
 .text.sm_hal_flash_reset_data
                0x000a12ba       0x44 components/BT/release/\libbtcore.a(sm_hal.o)
                0x000a12ba                sm_hal_flash_reset_data
 .text.sm_hal_flash_init_data
                0x000a12fe       0x18 components/BT/release/\libbtcore.a(sm_hal.o)
                0x000a12fe                sm_hal_flash_init_data
 .text.sm_hal_flash_save_data
                0x000a1316      0x252 components/BT/release/\libbtcore.a(sm_hal.o)
                0x000a1316                sm_hal_flash_save_data
 .text.sm_hal_cryptoTool_hci_send_cmd_ex
                0x000a1568       0x16 components/BT/release/\libbtcore.a(sm_hal.o)
                0x000a1568                sm_hal_cryptoTool_hci_send_cmd_ex
 .text.sm_hal_cryptoTool_hci_send_cmd
                0x000a157e       0x14 components/BT/release/\libbtcore.a(sm_hal.o)
                0x000a157e                sm_hal_cryptoTool_hci_send_cmd
 .text.sm_hal_cryptoTool_init
                0x000a1592       0x20 components/BT/release/\libbtcore.a(sm_hal.o)
                0x000a1592                sm_hal_cryptoTool_init
 .text.sm_hal_protocol_init
                0x000a15b2       0x12 components/BT/release/\libbtcore.a(sm_hal.o)
                0x000a15b2                sm_hal_protocol_init
 .text.sm_hal_init
                0x000a15c4       0x18 components/BT/release/\libbtcore.a(sm_hal.o)
                0x000a15c4                sm_hal_init
 .text.sm_hal_protocol_cid_evt_cb
                0x000a15dc       0x12 components/BT/release/\libbtcore.a(sm_hal.o)
 .text.sm_hal_protocol_send_l2cap_packet
                0x000a15ee       0x18 components/BT/release/\libbtcore.a(sm_hal.o)
                0x000a15ee                sm_hal_protocol_send_l2cap_packet
 .text.sm_hal_infom_auth_status
                0x000a1606       0x20 components/BT/release/\libbtcore.a(sm_hal.o)
                0x000a1606                sm_hal_infom_auth_status
 .text.sm_hal_infom_conn_sec_update
                0x000a1626       0x20 components/BT/release/\libbtcore.a(sm_hal.o)
                0x000a1626                sm_hal_infom_conn_sec_update
 .text.sm_hal_infom_recv_security_req
                0x000a1646       0x2e components/BT/release/\libbtcore.a(sm_hal.o)
                0x000a1646                sm_hal_infom_recv_security_req
 .text.sm_hal_infom_passkey_input_req
                0x000a1674       0x22 components/BT/release/\libbtcore.a(sm_hal.o)
                0x000a1674                sm_hal_infom_passkey_input_req
 .text.sm_hal_infom_passkey_display_req
                0x000a1696       0x26 components/BT/release/\libbtcore.a(sm_hal.o)
                0x000a1696                sm_hal_infom_passkey_display_req
 .text.sm_hal_infom_set_sec_param_req
                0x000a16bc       0x1c components/BT/release/\libbtcore.a(sm_hal.o)
                0x000a16bc                sm_hal_infom_set_sec_param_req
 .text.sm_hal_release_timer
                0x000a16d8        0xa components/BT/release/\libbtcore.a(sm_hal.o)
                0x000a16d8                sm_hal_release_timer
 .text.sm_hal_set_timer
                0x000a16e2       0x18 components/BT/release/\libbtcore.a(sm_hal.o)
                0x000a16e2                sm_hal_set_timer
 .text.sm_hal_timer_handler
                0x000a16fa       0x2c components/BT/release/\libbtcore.a(sm_hal.o)
                0x000a16fa                sm_hal_timer_handler
 .text.sm_hal_get_random_number
                0x000a1726        0xa components/BT/release/\libbtcore.a(sm_hal.o)
                0x000a1726                sm_hal_get_random_number
 .text.sm_hal_set_link_encrypted
                0x000a1730        0xc components/BT/release/\libbtcore.a(sm_hal.o)
                0x000a1730                sm_hal_set_link_encrypted
 .text.sm_hal_set_link_authenticated
                0x000a173c        0xc components/BT/release/\libbtcore.a(sm_hal.o)
                0x000a173c                sm_hal_set_link_authenticated
 .text.sm_hal_get_local_addr_Type
                0x000a1748       0x10 components/BT/release/\libbtcore.a(sm_hal.o)
                0x000a1748                sm_hal_get_local_addr_Type
 .text.sm_hal_get_local_addr
                0x000a1758       0x12 components/BT/release/\libbtcore.a(sm_hal.o)
                0x000a1758                sm_hal_get_local_addr
 .text.SM_Protocol_RegisterCallback
                0x000a176a        0xe components/BT/release/\libbtcore.a(sm_protocol.o)
                0x000a176a                SM_Protocol_RegisterCallback
 .text.SM_Protocol_L2capEventHandler
                0x000a1778       0x24 components/BT/release/\libbtcore.a(sm_protocol.o)
                0x000a1778                SM_Protocol_L2capEventHandler
 .text.SM_Protocol_PairingDHKeyCheck
                0x000a179c       0x28 components/BT/release/\libbtcore.a(sm_protocol.o)
                0x000a179c                SM_Protocol_PairingDHKeyCheck
 .text.SM_Protocol_PairingPublicKey
                0x000a17c4       0x2e components/BT/release/\libbtcore.a(sm_protocol.o)
                0x000a17c4                SM_Protocol_PairingPublicKey
 .text.SM_Protocol_SigningInfo
                0x000a17f2       0x34 components/BT/release/\libbtcore.a(sm_protocol.o)
                0x000a17f2                SM_Protocol_SigningInfo
 .text.SM_Protocol_IdentityInfo
                0x000a1826       0x34 components/BT/release/\libbtcore.a(sm_protocol.o)
                0x000a1826                SM_Protocol_IdentityInfo
 .text.SM_Protocol_MasterID
                0x000a185a       0x34 components/BT/release/\libbtcore.a(sm_protocol.o)
                0x000a185a                SM_Protocol_MasterID
 .text.SM_Protocol_EncryptionInfo
                0x000a188e       0x34 components/BT/release/\libbtcore.a(sm_protocol.o)
                0x000a188e                SM_Protocol_EncryptionInfo
 .text.SM_Protocol_PairingRandom
                0x000a18c2       0x34 components/BT/release/\libbtcore.a(sm_protocol.o)
                0x000a18c2                SM_Protocol_PairingRandom
 .text.SM_Protocol_PairingConfirm
                0x000a18f6       0x34 components/BT/release/\libbtcore.a(sm_protocol.o)
                0x000a18f6                SM_Protocol_PairingConfirm
 .text.SM_Protocol_PairingResponse
                0x000a192a       0x34 components/BT/release/\libbtcore.a(sm_protocol.o)
                0x000a192a                SM_Protocol_PairingResponse
 .text.SM_Protocol_IdentityAddressInfo
                0x000a195e       0x82 components/BT/release/\libbtcore.a(sm_protocol.o)
                0x000a195e                SM_Protocol_IdentityAddressInfo
 .text.SM_Protocol_PairingFailed
                0x000a19e0      0x130 components/BT/release/\libbtcore.a(sm_protocol.o)
                0x000a19e0                SM_Protocol_PairingFailed
 .text.SM_Slave_generate_DHKey_handler
                0x000a1b10       0x34 components/BT/release/\libbtcore.a(sm_slave.o)
 .text.SM_Slave_f5_mac_handler
                0x000a1b44       0x1e components/BT/release/\libbtcore.a(sm_slave.o)
 .text.SM_Slave_IdentityInformationHandler
                0x000a1b62       0x14 components/BT/release/\libbtcore.a(sm_slave.o)
 .text.SM_Slave_EncryptionInformationHandler
                0x000a1b76       0x14 components/BT/release/\libbtcore.a(sm_slave.o)
 .text.SM_Slave_check_Ea
                0x000a1b8a       0x90 components/BT/release/\libbtcore.a(sm_slave.o)
 .text.SM_Slave_PairingDHKeyCheckHandler
                0x000a1c1a       0x42 components/BT/release/\libbtcore.a(sm_slave.o)
 .text.SM_Slave_f6_Eb_handler
                0x000a1c5c       0x38 components/BT/release/\libbtcore.a(sm_slave.o)
 .text.SM_Slave_f5_ltk_handler
                0x000a1c94       0xb2 components/BT/release/\libbtcore.a(sm_slave.o)
 .text.SM_Slave_f6_Ea_handler
                0x000a1d46       0x40 components/BT/release/\libbtcore.a(sm_slave.o)
 .text.SM_Slave_PairingPublicKeyHandler
                0x000a1d86       0x3e components/BT/release/\libbtcore.a(sm_slave.o)
 .text.SM_Slave_read_local_public_key_handler
                0x000a1dc4       0x34 components/BT/release/\libbtcore.a(sm_slave.o)
 .text.SM_Slave_SC_Unsupported
                0x000a1df8       0x10 components/BT/release/\libbtcore.a(sm_slave.o)
 .text.SM_Slave_UnsupportedHandler
                0x000a1e08       0x10 components/BT/release/\libbtcore.a(sm_slave.o)
 .text.SM_Slave_g2_handler
                0x000a1e18       0x2c components/BT/release/\libbtcore.a(sm_slave.o)
 .text.SM_Slave_SC_rbValuePasskeyDisplay
                0x000a1e44       0x82 components/BT/release/\libbtcore.a(sm_slave.o)
 .text.SM_Slave_SC_rbValueJustWork
                0x000a1ec6       0x28 components/BT/release/\libbtcore.a(sm_slave.o)
 .text.SM_Slave_f4_JW_handler
                0x000a1eee       0x26 components/BT/release/\libbtcore.a(sm_slave.o)
 .text.SM_Slave_PairingConfirmHandler
                0x000a1f14       0x3e components/BT/release/\libbtcore.a(sm_slave.o)
 .text.SM_Slave_f5
                0x000a1f52       0x72 components/BT/release/\libbtcore.a(sm_slave.o)
 .text.SM_Slave_f4_PKE_handler
                0x000a1fc4       0xd0 components/BT/release/\libbtcore.a(sm_slave.o)
 .text.SM_Slave_TKValueOOB
                0x000a2094       0x22 components/BT/release/\libbtcore.a(sm_slave.o)
 .text.SM_Slave_TKValuePasskeyInput
                0x000a20b6       0x22 components/BT/release/\libbtcore.a(sm_slave.o)
 .text.SM_Slave_Legacy_GenConfirm
                0x000a20d8       0x78 components/BT/release/\libbtcore.a(sm_slave.o)
 .text.SM_Slave_TKValuePasskeyDisplay
                0x000a2150       0x6c components/BT/release/\libbtcore.a(sm_slave.o)
 .text.SM_Slave_TKValueJustWork
                0x000a21bc       0x16 components/BT/release/\libbtcore.a(sm_slave.o)
 .text.SM_Slave_c1_1_handler
                0x000a21d2       0x6e components/BT/release/\libbtcore.a(sm_slave.o)
 .text.SM_Slave_c1_2_handler
                0x000a2240       0x94 components/BT/release/\libbtcore.a(sm_slave.o)
 .text.SM_Slave_SigningInformationHandler
                0x000a22d4       0x26 components/BT/release/\libbtcore.a(sm_slave.o)
 .text.SM_Slave_PairingFailedHandler
                0x000a22fa       0x18 components/BT/release/\libbtcore.a(sm_slave.o)
 .text.SM_Slave_IdentityAddressInformationHandler
                0x000a2312       0x32 components/BT/release/\libbtcore.a(sm_slave.o)
 .text.SM_Slave_MasterIdentificationHandler
                0x000a2344       0x2a components/BT/release/\libbtcore.a(sm_slave.o)
 .text.SM_Slave_PairingRandomHandler
                0x000a236e       0xca components/BT/release/\libbtcore.a(sm_slave.o)
 .text.SM_Slave_PairingRequestHandler
                0x000a2438       0x68 components/BT/release/\libbtcore.a(sm_slave.o)
 .text.SM_Slave_L2capEventHandler
                0x000a24a0       0x48 components/BT/release/\libbtcore.a(sm_slave.o)
 .text.SM_Slave_Init
                0x000a24e8       0x12 components/BT/release/\libbtcore.a(sm_slave.o)
                0x000a24e8                SM_Slave_Init
 .text.SM_Slave_StartPairing
                0x000a24fa      0x126 components/BT/release/\libbtcore.a(sm_slave.o)
                0x000a24fa                SM_Slave_StartPairing
 .text.SM_Slave_EncryptionChange
                0x000a2620       0xa0 components/BT/release/\libbtcore.a(sm_slave.o)
                0x000a2620                SM_Slave_EncryptionChange
 .text.SM_Slave_get_ltk_handler
                0x000a26c0       0x3c components/BT/release/\libbtcore.a(sm_slave.o)
                0x000a26c0                SM_Slave_get_ltk_handler
 .text.SM_Slave_LTKRequestHandler
                0x000a26fc       0x4a components/BT/release/\libbtcore.a(sm_slave.o)
                0x000a26fc                SM_Slave_LTKRequestHandler
 .text.SM_Slave_s1_handler
                0x000a2746       0x44 components/BT/release/\libbtcore.a(sm_slave.o)
 .text.SM_Slave_LTKRequest
                0x000a278a       0x34 components/BT/release/\libbtcore.a(sm_slave.o)
                0x000a278a                SM_Slave_LTKRequest
 .text.SM_Master_SC_rbValueJustWork
                0x000a27be        0x4 components/BT/release/\libbtcore.a(sm_master.o)
 .text.SM_Master_f5_mac_handler
                0x000a27c2       0x1e components/BT/release/\libbtcore.a(sm_master.o)
 .text.SM_Master_IdentityInformationHandler
                0x000a27e0       0x14 components/BT/release/\libbtcore.a(sm_master.o)
 .text.SM_Master_EncryptionInformationHandler
                0x000a27f4       0x14 components/BT/release/\libbtcore.a(sm_master.o)
 .text.SM_Master_PairingDHKeyCheckHandler
                0x000a2808       0xa2 components/BT/release/\libbtcore.a(sm_master.o)
 .text.SM_Master_s1_handler
                0x000a28aa       0x4e components/BT/release/\libbtcore.a(sm_master.o)
 .text.SM_Master_f6_Eb_handler
                0x000a28f8       0x50 components/BT/release/\libbtcore.a(sm_master.o)
 .text.SM_Master_PairingPublicKeyHandler
                0x000a2948       0x3e components/BT/release/\libbtcore.a(sm_master.o)
 .text.SM_Master_generate_DHKey_handler
                0x000a2986       0x54 components/BT/release/\libbtcore.a(sm_master.o)
 .text.SM_Master_SC_Unsupported
                0x000a29da       0x10 components/BT/release/\libbtcore.a(sm_master.o)
 .text.SM_Master_UnsupportedHandler
                0x000a29ea       0x10 components/BT/release/\libbtcore.a(sm_master.o)
 .text.SM_Master_L2capEventHandler
                0x000a29fa       0x32 components/BT/release/\libbtcore.a(sm_master.o)
 .text.SM_Master_g2_handler
                0x000a2a2c       0x2c components/BT/release/\libbtcore.a(sm_master.o)
 .text.SM_Master_SC_rbValuePasskeyDisplay
                0x000a2a58       0x82 components/BT/release/\libbtcore.a(sm_master.o)
 .text.SM_Master_f5
                0x000a2ada       0x74 components/BT/release/\libbtcore.a(sm_master.o)
 .text.SM_Master_f4_PKE_handler
                0x000a2b4e       0x9c components/BT/release/\libbtcore.a(sm_master.o)
 .text.SM_Master_f5_ltk_handler
                0x000a2bea      0x11a components/BT/release/\libbtcore.a(sm_master.o)
 .text.SM_Master_f6_Ea_handler
                0x000a2d04       0x18 components/BT/release/\libbtcore.a(sm_master.o)
 .text.SM_Master_TKValueOOB
                0x000a2d1c       0x22 components/BT/release/\libbtcore.a(sm_master.o)
 .text.SM_Master_TKValuePasskeyInput
                0x000a2d3e       0x22 components/BT/release/\libbtcore.a(sm_master.o)
 .text.SM_Master_Legacy_GenConfirm
                0x000a2d60       0x78 components/BT/release/\libbtcore.a(sm_master.o)
 .text.SM_Master_TKValuePasskeyDisplay
                0x000a2dd8       0x6c components/BT/release/\libbtcore.a(sm_master.o)
 .text.SM_Master_TKValueJustWork
                0x000a2e44       0x16 components/BT/release/\libbtcore.a(sm_master.o)
 .text.SM_Master_c1_1_handler
                0x000a2e5a       0x70 components/BT/release/\libbtcore.a(sm_master.o)
 .text.SM_Master_PairingConfirmHandler
                0x000a2eca       0x5e components/BT/release/\libbtcore.a(sm_master.o)
 .text.SM_Master_c1_2_handler
                0x000a2f28       0x68 components/BT/release/\libbtcore.a(sm_master.o)
 .text.SM_Master_SecurityRequestHandler
                0x000a2f90       0x94 components/BT/release/\libbtcore.a(sm_master.o)
 .text.SM_Master_SigningInformationHandler
                0x000a3024       0x2e components/BT/release/\libbtcore.a(sm_master.o)
 .text.SM_Master_IdentityAddressInformationHandler
                0x000a3052       0x32 components/BT/release/\libbtcore.a(sm_master.o)
 .text.SM_Master_MasterIdentificationHandler
                0x000a3084       0x2a components/BT/release/\libbtcore.a(sm_master.o)
 .text.SM_Master_PairingFailedHandler
                0x000a30ae       0x18 components/BT/release/\libbtcore.a(sm_master.o)
 .text.SM_Master_PairingRandomHandler
                0x000a30c6       0x92 components/BT/release/\libbtcore.a(sm_master.o)
 .text.SM_Master_f4_JW_handler
                0x000a3158       0x58 components/BT/release/\libbtcore.a(sm_master.o)
 .text.SM_Master_PairingResponseHandler
                0x000a31b0       0x32 components/BT/release/\libbtcore.a(sm_master.o)
 .text.SM_Master_Init
                0x000a31e2       0x12 components/BT/release/\libbtcore.a(sm_master.o)
                0x000a31e2                SM_Master_Init
 .text.SM_Master_EncryptionChange
                0x000a31f4       0xa6 components/BT/release/\libbtcore.a(sm_master.o)
                0x000a31f4                SM_Master_EncryptionChange
 .text.SM_Master_StartPairing
                0x000a329a       0xba components/BT/release/\libbtcore.a(sm_master.o)
                0x000a329a                SM_Master_StartPairing
 .text.SM_Master_read_local_public_key_handler
                0x000a3354        0xe components/BT/release/\libbtcore.a(sm_master.o)
 .text.DRV_TRNG_Get
                0x000a3362       0x68 components/BT/release/\libbtcore.a(Drv_Trng.o)
                0x000a3362                DRV_TRNG_Get
 .text.PMU_IntrHandler
                0x000a33ca       0x20 components/BT/release/\libbtcore.a(Drv_MMITimer.o)
                0x000a33ca                PMU_IntrHandler
 .text.Drv_MMITimerDisable
                0x000a33ea        0xe components/BT/release/\libbtcore.a(Drv_MMITimer.o)
                0x000a33ea                Drv_MMITimerDisable
 .text.Drv_MMITimerEnable
                0x000a33f8       0x52 components/BT/release/\libbtcore.a(Drv_MMITimer.o)
                0x000a33f8                Drv_MMITimerEnable
 .text.Ab_MMITimerUnset
                0x000a344a       0x9a components/BT/release/\libbtcore.a(Ab_MMITimer.o)
                0x000a344a                Ab_MMITimerUnset
 .text.Ab_MMITimerSet
                0x000a34e4       0xc0 components/BT/release/\libbtcore.a(Ab_MMITimer.o)
                0x000a34e4                Ab_MMITimerSet
 .text.mmi_timer_isr
                0x000a35a4       0xd6 components/BT/release/\libbtcore.a(Ab_MMITimer.o)
 .text.BTDataRdyInterruptHandler
                0x000a367a       0x42 components/BT/release/\libbtcore.a(Drv_1602.o)
 .text.Drv_1602DataReady
                0x000a36bc        0xe components/BT/release/\libbtcore.a(Drv_1602.o)
                0x000a36bc                Drv_1602DataReady
 .text.Drv_1602DataReadyIntEn
                0x000a36ca       0x22 components/BT/release/\libbtcore.a(Drv_1602.o)
                0x000a36ca                Drv_1602DataReadyIntEn
 .text.Drv_1602DataReadyIntReg
                0x000a36ec       0x64 components/BT/release/\libbtcore.a(Drv_1602.o)
                0x000a36ec                Drv_1602DataReadyIntReg
 .text.Drv_1602Reset
                0x000a3750       0x22 components/BT/release/\libbtcore.a(Drv_1602.o)
                0x000a3750                Drv_1602Reset
 .text.Encrypt  0x000a3772      0x474 components/BT/release/\libbtcore.a(encrypt.o)
                0x000a3772                Encrypt
 .text.hci_log_set
                0x000a3be6        0x8 components/BT/release/\libbtcore.a(hci.o)
                0x000a3be6                hci_log_set
 .text.hci_acl_send
                0x000a3bee       0x2e components/BT/release/\libbtcore.a(hci.o)
                0x000a3bee                hci_acl_send
 .text.hci_cmd_send
                0x000a3c1c       0x2e components/BT/release/\libbtcore.a(hci.o)
                0x000a3c1c                hci_cmd_send
 .text.hci_init
                0x000a3c4a       0x8e components/BT/release/\libbtcore.a(hci.o)
                0x000a3c4a                hci_init
 .text.hci_pkt_recv
                0x000a3cd8       0x60 components/BT/release/\libbtcore.a(hci.o)
 .text.hci_dat_info_update
                0x000a3d38        0xc components/BT/release/\libbtcore.a(hci_cmd_evt_dat.o)
                0x000a3d38                hci_dat_info_update
 .text.hci_pending_acl
                0x000a3d44        0x8 components/BT/release/\libbtcore.a(hci_cmd_evt_dat.o)
                0x000a3d44                hci_pending_acl
 .text.hci_command_event
                0x000a3d4c       0x82 components/BT/release/\libbtcore.a(hci_cmd_evt_dat.o)
 .text.hci_evt_handler
                0x000a3dce       0xc2 components/BT/release/\libbtcore.a(hci_cmd_evt_dat.o)
 .text._hci_send_acl
                0x000a3e90       0x66 components/BT/release/\libbtcore.a(hci_cmd_evt_dat.o)
 .text.hci_send_cmd_ex
                0x000a3ef6       0xd6 components/BT/release/\libbtcore.a(hci_cmd_evt_dat.o)
                0x000a3ef6                hci_send_cmd_ex
 .text.hci_send_cmd
                0x000a3fcc        0xe components/BT/release/\libbtcore.a(hci_cmd_evt_dat.o)
                0x000a3fcc                hci_send_cmd
 .text.hci_send_acl
                0x000a3fda       0xaa components/BT/release/\libbtcore.a(hci_cmd_evt_dat.o)
                0x000a3fda                hci_send_acl
 .text.hci_cmd_evt_dat_init
                0x000a4084       0x3e components/BT/release/\libbtcore.a(hci_cmd_evt_dat.o)
                0x000a4084                hci_cmd_evt_dat_init
 .text.SM_Common_ValueCompare
                0x000a40c2       0x22 components/BT/release/\libbtcore.a(sm_common.o)
                0x000a40c2                SM_Common_ValueCompare
 .text.SM_Common_GetRi
                0x000a40e4       0x2c components/BT/release/\libbtcore.a(sm_common.o)
                0x000a40e4                SM_Common_GetRi
 .text.SM_Common_AllocPairingData
                0x000a4110       0x3a components/BT/release/\libbtcore.a(sm_common.o)
                0x000a4110                SM_Common_AllocPairingData
 .text.AB_Log_HciEventStr
                0x000a414a       0x1e output/\lib1600.a(ab_log.o)
                0x000a414a                AB_Log_HciEventStr
 .text.AB_Log_HciCommandStr
                0x000a4168      0xce6 output/\lib1600.a(ab_log.o)
                0x000a4168                AB_Log_HciCommandStr
 .text.AB_Log_HciEventParseStr
                0x000a4e4e       0x70 output/\lib1600.a(ab_log.o)
                0x000a4e4e                AB_Log_HciEventParseStr
 .text.HexDisplay_internal
                0x000a4ebe      0x104 output/\lib1600.a(ab_log.o)
                0x000a4ebe                HexDisplay_internal
 .text.AB_Log_EvtShow
                0x000a4fc2       0x6a output/\lib1600.a(ab_log.o)
                0x000a4fc2                AB_Log_EvtShow
 .text.AB_Log_CmdShow
                0x000a502c       0x56 output/\lib1600.a(ab_log.o)
                0x000a502c                AB_Log_CmdShow
 .text.AB_Log_HexDisplay
                0x000a5082       0x18 output/\lib1600.a(ab_log.o)
                0x000a5082                AB_Log_HexDisplay
 .text._malloc_trim_r
                0x000a509a       0xa2 C:\Andestech\AndeSight211RDS\toolchains\nds32le-elf-mculib-v3m\nds32le-elf\libc\mculib\usr\lib\libc.a(lib_a-freer.o)
                0x000a509a                _malloc_trim_r
 .text._free_r  0x000a513c      0x17a C:\Andestech\AndeSight211RDS\toolchains\nds32le-elf-mculib-v3m\nds32le-elf\libc\mculib\usr\lib\libc.a(lib_a-freer.o)
                0x000a513c                _free_r
 .text._malloc_r
                0x000a52b6      0x442 C:\Andestech\AndeSight211RDS\toolchains\nds32le-elf-mculib-v3m\nds32le-elf\libc\mculib\usr\lib\libc.a(lib_a-mallocr.o)
                0x000a52b6                _malloc_r
 .text.__malloc_lock
                0x000a56f8        0x4 C:\Andestech\AndeSight211RDS\toolchains\nds32le-elf-mculib-v3m\nds32le-elf\libc\mculib\usr\lib\libc.a(lib_a-mlock.o)
                0x000a56f8                __malloc_lock
 .text.__malloc_unlock
                0x000a56fc        0x4 C:\Andestech\AndeSight211RDS\toolchains\nds32le-elf-mculib-v3m\nds32le-elf\libc\mculib\usr\lib\libc.a(lib_a-mlock.o)
                0x000a56fc                __malloc_unlock
 .text.mallinfo
                0x000a5700        0xe C:\Andestech\AndeSight211RDS\toolchains\nds32le-elf-mculib-v3m\nds32le-elf\libc\mculib\usr\lib\libc.a(lib_a-mstats.o)
                0x000a5700                mallinfo
 .text.puts     0x000a570e       0x46 C:\Andestech\AndeSight211RDS\toolchains\nds32le-elf-mculib-v3m\nds32le-elf\libc\mculib\usr\lib\libc.a(lib_a-puts.o)
                0x000a570e                puts
 .text._sbrk_r  0x000a5754       0x20 C:\Andestech\AndeSight211RDS\toolchains\nds32le-elf-mculib-v3m\nds32le-elf\libc\mculib\usr\lib\libc.a(lib_a-sbrkr.o)
                0x000a5754                _sbrk_r
 .text.sprintf  0x000a5774       0x18 C:\Andestech\AndeSight211RDS\toolchains\nds32le-elf-mculib-v3m\nds32le-elf\libc\mculib\usr\lib\libc.a(lib_a-sprintf.o)
                0x000a5774                sprintf
 .text.vprintf  0x000a578c       0x40 C:\Andestech\AndeSight211RDS\toolchains\nds32le-elf-mculib-v3m\nds32le-elf\libc\mculib\usr\lib\libc.a(lib_a-vprintf.o)
                0x000a578c                vprintf
 .text.vprintf_help
                0x000a57cc       0x24 C:\Andestech\AndeSight211RDS\toolchains\nds32le-elf-mculib-v3m\nds32le-elf\libc\mculib\usr\lib\libc.a(lib_a-vprintf.o)
 .text.vsprintf_help
                0x000a57f0        0xe C:\Andestech\AndeSight211RDS\toolchains\nds32le-elf-mculib-v3m\nds32le-elf\libc\mculib\usr\lib\libc.a(lib_a-vsprintf.o)
 .text.vsprintf
                0x000a57fe       0x26 C:\Andestech\AndeSight211RDS\toolchains\nds32le-elf-mculib-v3m\nds32le-elf\libc\mculib\usr\lib\libc.a(lib_a-vsprintf.o)
                0x000a57fe                vsprintf
 .text.do_printf
                0x000a5824      0x5a6 C:\Andestech\AndeSight211RDS\toolchains\nds32le-elf-mculib-v3m\nds32le-elf\libc\mculib\usr\lib\libc.a(do_printf.o)
                0x000a5824                do_printf
 .text.sep_int  0x000a5dca       0x20 C:\Andestech\AndeSight211RDS\toolchains\nds32le-elf-mculib-v3m\nds32le-elf\libc\mculib\usr\lib\libc.a(xint2dec.o)
 .text.sep_frac
                0x000a5dea       0x3c C:\Andestech\AndeSight211RDS\toolchains\nds32le-elf-mculib-v3m\nds32le-elf\libc\mculib\usr\lib\libc.a(xint2dec.o)
 .text.fill_0   0x000a5e26       0x16 C:\Andestech\AndeSight211RDS\toolchains\nds32le-elf-mculib-v3m\nds32le-elf\libc\mculib\usr\lib\libc.a(xint2dec.o)
 .text.double2dec
                0x000a5e3c      0x6e2 C:\Andestech\AndeSight211RDS\toolchains\nds32le-elf-mculib-v3m\nds32le-elf\libc\mculib\usr\lib\libc.a(xint2dec.o)
                0x000a5e3c                double2dec
 .text.__malloc_update_mallinfo
                0x000a651e       0x50 C:\Andestech\AndeSight211RDS\toolchains\nds32le-elf-mculib-v3m\nds32le-elf\libc\mculib\usr\lib\libc.a(lib_a-mallinfor.o)
                0x000a651e                __malloc_update_mallinfo
 .text._mallinfo_r
                0x000a656e       0x38 C:\Andestech\AndeSight211RDS\toolchains\nds32le-elf-mculib-v3m\nds32le-elf\libc\mculib\usr\lib\libc.a(lib_a-mallinfor.o)
                0x000a656e                _mallinfo_r
 .text.countLeadingZeros32
                0x000a65a6       0x28 C:\Andestech\AndeSight211RDS\toolchains\nds32le-elf-mculib-v3m\lib\gcc\nds32le-elf\4.4.4\mculib\libgcc.a(clz.o)
                0x000a65a6                countLeadingZeros32
 *(.ex9.itable)
 *fill*         0x000a65ce        0x2 00
 .ex9.itable    0x000a65d0        0x4 C:\Andestech\AndeSight211RDS\toolchains\nds32le-elf-mculib-v3m\lib\gcc\nds32le-elf\4.4.4\mculib\libgcc.a(clz.o)

.rodata         0x000a65d4     0x52a8
 *(.rodata)
 .rodata        0x000a65d4       0x20 /cygdrive/c/Airoha/AiroBlueSDK/AB1600_1_0_5_0/projects/Remote/output/pj/components/Libraries/hci_devices/hci_spi_1602.o
                0x000a65d4                hci_builtin_ab1602
 .rodata        0x000a65f4      0xa5c /cygdrive/c/Airoha/AiroBlueSDK/AB1600_1_0_5_0/projects/Remote/output/pj/components/BT/release/bt_patch/1602_patching.o
                0x000a65f4                gPatch_EdataInit
                0x000a7048                sizeof_gPatch_EdataInit
                0x000a6e94                gPatch_CsrInit
                0x000a704c                sizeof_gPatch_CsrInit
 .rodata        0x000a7050       0x14 /cygdrive/c/Airoha/AiroBlueSDK/AB1600_1_0_5_0/projects/Remote/output/remote.o
 .rodata        0x000a7064       0x20 /cygdrive/c/Airoha/AiroBlueSDK/AB1600_1_0_5_0/projects/Remote/output/remote_button.o
                0x000a7064                KEY_MATRIX
 .rodata        0x000a7084        0xc /cygdrive/c/Airoha/AiroBlueSDK/AB1600_1_0_5_0/projects/Remote/output/remote_mouse.o
                0x000a7084                gesture_table
 .rodata        0x000a7090      0x110 /cygdrive/c/Airoha/AiroBlueSDK/AB1600_1_0_5_0/projects/Remote/output/remote_gatt.o
 .rodata        0x000a71a0       0x84 /cygdrive/c/Airoha/AiroBlueSDK/AB1600_1_0_5_0/projects/Remote/output/remote_adv.o
 .rodata        0x000a7224       0x10 /cygdrive/c/Airoha/AiroBlueSDK/AB1600_1_0_5_0/projects/Remote/output/remote_vcmd.o
                0x000a722c                vcmd_handlers
                0x000a7224                vcmd_rc_handlers
 .rodata        0x000a7234       0x88 /cygdrive/c/Airoha/AiroBlueSDK/AB1600_1_0_5_0/projects/Remote/output/spl/components/Libraries/external/ADPCM/g726_enc_32.o
 .rodata        0x000a72bc       0xec /cygdrive/c/Airoha/AiroBlueSDK/AB1600_1_0_5_0/projects/Remote/output/spl/components/Libraries/external/ima_adpcm/ima_enc.o
                0x000a72f4                StepSizeTable
                0x000a72e4                IndexTable
                0x000a72bc                filt_coef
 .rodata        0x000a73a8      0x13c components/BT/release/hci_protocol_1602.o
                0x000a73f0                cvalue
                0x000a73b8                data_C52E
                0x000a73b4                data_C4AF
                0x000a73ec                data_CSR3011
                0x000a73c8                data_C4BA
                0x000a73b0                data_C4A9
                0x000a73cc                xvalue
                0x000a73a8                hci_h4_ab1602
 .rodata        0x000a74e4       0x30 components/Libraries/external/algo/\libalg.a(bsp_generic.o)
 .rodata        0x000a7514        0xc components/Libraries/external/algo/\libalg.a(ab_uart.o)
 .rodata        0x000a7520       0xb0 components/Libraries/external/algo/\libalg.a(ab_airoha_vcmd.o)
                0x000a75a4                g0x34GroupVendorCmdHdlr
                0x000a7520                gHciLabTestGroupVendorCmdHdlr
                0x000a75bc                gISPGroupVendorCmdHdlr
 .rodata        0x000a75d0        0x4 components/Libraries/external/algo/\libalg.a(drv_odpinmux.o)
                0x000a75d0                od_grp_mask
 .rodata        0x000a75d4       0x18 components/Libraries/external/algo/\libalg.a(drv_pinmux.o)
                0x000a75d4                grp_mask
 .rodata        0x000a75ec       0x6c components/Libraries/external/algo/\libalg.a(service_device_firmware_update_OTA.o)
 .rodata        0x000a7658        0x8 components/Libraries/external/algo/\libalg.a(ab_module.o)
                0x000a7658                module_entry
 .rodata        0x000a7660       0x2c components/BT/release/\libbtcore.a(bt.o)
 .rodata        0x000a768c       0x28 components/BT/release/\libbtcore.a(ble_gap.o)
                0x000a768c                gErr_0x6
 .rodata        0x000a76b4       0x10 components/BT/release/\libbtcore.a(ble_att.o)
                0x000a76b4                BT_UUID_Base
 .rodata        0x000a76c4       0x2c components/BT/release/\libbtcore.a(sm.o)
                0x000a76e0                SM_SLAVE_PAIRING_METHOD
                0x000a76c4                SM_PAIRING_METHOD_TABLE
                0x000a76e8                SM_MASTER_PAIRING_METHOD
 .rodata        0x000a76f0        0x8 components/BT/release/\libbtcore.a(sm_hal.o)
 .rodata        0x000a76f8       0x24 components/BT/release/\libbtcore.a(sm_slave.o)
 .rodata        0x000a771c       0x24 components/BT/release/\libbtcore.a(sm_master.o)
 .rodata        0x000a7740      0x1f0 output/\lib1600.a(ab_log.o)
 *(.rodata.*)
 .rodata.str1.4
                0x000a7930       0x6f /cygdrive/c/Airoha/AiroBlueSDK/AB1600_1_0_5_0/projects/Remote/output/pj/components/Libraries/hci_devices/hci_spi_1602.o
                                 0x70 (size before relaxing)
 *fill*         0x000a799f        0x1 00
 .rodata.str1.4
                0x000a79a0       0x60 /cygdrive/c/Airoha/AiroBlueSDK/AB1600_1_0_5_0/projects/Remote/output/main.o
 .rodata.str1.4
                0x000a7a00      0x94b /cygdrive/c/Airoha/AiroBlueSDK/AB1600_1_0_5_0/projects/Remote/output/remote.o
                                0x968 (size before relaxing)
 *fill*         0x000a834b        0x1 00
 .rodata.str1.4
                0x000a834c       0xcf /cygdrive/c/Airoha/AiroBlueSDK/AB1600_1_0_5_0/projects/Remote/output/remote_button.o
                                 0xd0 (size before relaxing)
 *fill*         0x000a841b        0x1 00
 .rodata.str1.4
                0x000a841c      0x35e /cygdrive/c/Airoha/AiroBlueSDK/AB1600_1_0_5_0/projects/Remote/output/remote_mouse.o
                                0x36c (size before relaxing)
 *fill*         0x000a877a        0x2 00
 .rodata.str1.4
                0x000a877c      0x1eb /cygdrive/c/Airoha/AiroBlueSDK/AB1600_1_0_5_0/projects/Remote/output/remote_microphone.o
                                0x1ec (size before relaxing)
 *fill*         0x000a8967        0x1 00
 .rodata.str1.4
                0x000a8968       0x7e /cygdrive/c/Airoha/AiroBlueSDK/AB1600_1_0_5_0/projects/Remote/output/remote_gatt.o
                                 0x80 (size before relaxing)
 *fill*         0x000a89e6        0x2 00
 .rodata.str1.4
                0x000a89e8      0x203 /cygdrive/c/Airoha/AiroBlueSDK/AB1600_1_0_5_0/projects/Remote/output/remote_adv.o
                                0x214 (size before relaxing)
 *fill*         0x000a8beb        0x1 00
 .rodata.str1.4
                0x000a8bec      0x11f /cygdrive/c/Airoha/AiroBlueSDK/AB1600_1_0_5_0/projects/Remote/output/remote_led.o
                                0x120 (size before relaxing)
 *fill*         0x000a8d0b        0x1 00
 .rodata.str1.4
                0x000a8d0c       0x81 components/BT/release/hci_protocol_1602.o
                                 0x8c (size before relaxing)
 *fill*         0x000a8d8d        0x3 00
 .rodata.str1.4
                0x000a8d90       0x26 components/Libraries/external/algo/\libalg.a(ab_adc.o)
                                 0x28 (size before relaxing)
 *fill*         0x000a8db6        0x2 00
 .rodata.str1.4
                0x000a8db8       0x61 components/Libraries/external/algo/\libalg.a(ab_assert.o)
                                 0x64 (size before relaxing)
 *fill*         0x000a8e19        0x3 00
 .rodata.str1.4
                0x000a8e1c      0x1db components/Libraries/external/algo/\libalg.a(ab_malloc_hook.o)
                                0x1dc (size before relaxing)
 *fill*         0x000a8ff7        0x1 00
 .rodata.str1.4
                0x000a8ff8        0x5 components/Libraries/external/algo/\libalg.a(ab_uart.o)
                                  0x8 (size before relaxing)
 .rodata.str1.4
                0x00000000        0x8 components/Libraries/external/algo/\libalg.a(ab_airoha_vcmd.o)
 *fill*         0x000a8ffd        0x3 00
 .rodata.str1.4
                0x000a9000       0x11 components/Libraries/external/algo/\libalg.a(drv_keyscan.o)
                                 0x14 (size before relaxing)
 *fill*         0x000a9011        0x3 00
 .rodata.str1.4
                0x000a9014       0x22 components/Libraries/external/algo/\libalg.a(drv_uart.o)
                                 0x24 (size before relaxing)
 *fill*         0x000a9036        0x2 00
 .rodata.str1.4
                0x000a9038      0x19e components/Libraries/external/algo/\libalg.a(service_device_firmware_update_OTA.o)
                                0x1a0 (size before relaxing)
 *fill*         0x000a91d6        0x2 00
 .rodata.str1.4
                0x000a91d8      0x2ec components/Libraries/external/algo/\libalg.a(shell.o)
                                0x2f8 (size before relaxing)
 .rodata.str1.4
                0x000a94c4       0x7b components/Libraries/external/algo/\libalg.a(dfu.o)
                                 0x7c (size before relaxing)
 *fill*         0x000a953f        0x1 00
 .rodata.str1.4
                0x000a9540        0x7 components/Libraries/external/algo/\libalg.a(ab_module.o)
                                  0x8 (size before relaxing)
 *fill*         0x000a9547        0x1 00
 .rodata.str1.4
                0x000a9548       0x62 components/BT/release/\libbtcore.a(hci_h4_parser.o)
                                 0x64 (size before relaxing)
 *fill*         0x000a95aa        0x2 00
 .rodata.str1.4
                0x000a95ac       0x2d components/BT/release/\libbtcore.a(bt.o)
                                 0x30 (size before relaxing)
 *fill*         0x000a95d9        0x3 00
 .rodata.str1.4
                0x000a95dc       0x28 components/BT/release/\libbtcore.a(ble_gap.o)
 .rodata.str1.4
                0x000a9604       0x2d components/BT/release/\libbtcore.a(ble_gap_sm.o)
                                 0x30 (size before relaxing)
 *fill*         0x000a9631        0x3 00
 .rodata.str1.4
                0x000a9634       0x5f components/BT/release/\libbtcore.a(ble_att.o)
                                 0x60 (size before relaxing)
 *fill*         0x000a9693        0x1 00
 .rodata.str1.4
                0x000a9694        0x7 components/BT/release/\libbtcore.a(ble_gatt_server.o)
                                  0x8 (size before relaxing)
 *fill*         0x000a969b        0x1 00
 .rodata.str1.4
                0x000a969c       0x9f components/BT/release/\libbtcore.a(sm_cryptotool.o)
                                 0xa0 (size before relaxing)
 *fill*         0x000a973b        0x1 00
 .rodata.str1.4
                0x000a973c      0x314 components/BT/release/\libbtcore.a(sm_hal.o)
                                0x390 (size before relaxing)
 .rodata.str1.4
                0x000a9a50      0x325 components/BT/release/\libbtcore.a(sm_protocol.o)
                                0x328 (size before relaxing)
 *fill*         0x000a9d75        0x3 00
 .rodata.str1.4
                0x000a9d78      0x102 components/BT/release/\libbtcore.a(sm_slave.o)
                                0x104 (size before relaxing)
 *fill*         0x000a9e7a        0x2 00
 .rodata.str1.4
                0x000a9e7c       0x8d components/BT/release/\libbtcore.a(sm_master.o)
                                 0xc4 (size before relaxing)
 .rodata.str1.4
                0x00000000       0x14 components/BT/release/\libbtcore.a(hci.o)
 *fill*         0x000a9f09        0x3 00
 .rodata.str1.4
                0x000a9f0c     0x17e0 output/\lib1600.a(ab_log.o)
                               0x17f4 (size before relaxing)
 .rodata._ctype_b
                0x000ab6ec      0x180 C:\Andestech\AndeSight211RDS\toolchains\nds32le-elf-mculib-v3m\nds32le-elf\libc\mculib\usr\lib\libc.a(lib_a-ctype_.o)
 .rodata.str1.4
                0x000ab86c       0x10 C:\Andestech\AndeSight211RDS\toolchains\nds32le-elf-mculib-v3m\nds32le-elf\libc\mculib\usr\lib\libc.a(xint2dec.o)
                0x000ab87c                text_end = .

.rela.dyn       0x00086000        0x0 load address 0x000ab87c
 .rela.cfg_sector
                0x00000000        0x0 /cygdrive/c/Airoha/AiroBlueSDK/AB1600_1_0_5_0/projects/Remote/output/pj/components/Device/AB1600/cfg_sector.o
 .rela.dfu_mark
                0x00000000        0x0 /cygdrive/c/Airoha/AiroBlueSDK/AB1600_1_0_5_0/projects/Remote/output/pj/components/Device/AB1600/cfg_sector.o
 .rela.text.hci_spi1602_check_data
                0x00000000        0x0 /cygdrive/c/Airoha/AiroBlueSDK/AB1600_1_0_5_0/projects/Remote/output/pj/components/Device/AB1600/cfg_sector.o
 .rela.text.hci_spi1602_read_data
                0x00000000        0x0 /cygdrive/c/Airoha/AiroBlueSDK/AB1600_1_0_5_0/projects/Remote/output/pj/components/Device/AB1600/cfg_sector.o
 .rela.text.read_trxlen_compl_int
                0x00000000        0x0 /cygdrive/c/Airoha/AiroBlueSDK/AB1600_1_0_5_0/projects/Remote/output/pj/components/Device/AB1600/cfg_sector.o
 .rela.text.send_tx_compl_int
                0x00000000        0x0 /cygdrive/c/Airoha/AiroBlueSDK/AB1600_1_0_5_0/projects/Remote/output/pj/components/Device/AB1600/cfg_sector.o
 .rela.text.read_rx_compl_int
                0x00000000        0x0 /cygdrive/c/Airoha/AiroBlueSDK/AB1600_1_0_5_0/projects/Remote/output/pj/components/Device/AB1600/cfg_sector.o
 .rela.text.data_ready_int
                0x00000000        0x0 /cygdrive/c/Airoha/AiroBlueSDK/AB1600_1_0_5_0/projects/Remote/output/pj/components/Device/AB1600/cfg_sector.o
 .rela.text.hci_spi1602_send_data
                0x00000000        0x0 /cygdrive/c/Airoha/AiroBlueSDK/AB1600_1_0_5_0/projects/Remote/output/pj/components/Device/AB1600/cfg_sector.o
 .rela.text.hci_spi1602_deinit
                0x00000000        0x0 /cygdrive/c/Airoha/AiroBlueSDK/AB1600_1_0_5_0/projects/Remote/output/pj/components/Device/AB1600/cfg_sector.o
 .rela.text.hci_spi1602_init
                0x00000000        0x0 /cygdrive/c/Airoha/AiroBlueSDK/AB1600_1_0_5_0/projects/Remote/output/pj/components/Device/AB1600/cfg_sector.o
 .rela.data     0x00000000        0x0 /cygdrive/c/Airoha/AiroBlueSDK/AB1600_1_0_5_0/projects/Remote/output/pj/components/Device/AB1600/cfg_sector.o
 .rela.text.cpu_exception
                0x00000000        0x0 /cygdrive/c/Airoha/AiroBlueSDK/AB1600_1_0_5_0/projects/Remote/output/pj/components/Device/AB1600/cfg_sector.o
 .rela.text.main
                0x00000000        0x0 /cygdrive/c/Airoha/AiroBlueSDK/AB1600_1_0_5_0/projects/Remote/output/pj/components/Device/AB1600/cfg_sector.o
 .rela.text.remote_mp_init
                0x00000000        0x0 /cygdrive/c/Airoha/AiroBlueSDK/AB1600_1_0_5_0/projects/Remote/output/pj/components/Device/AB1600/cfg_sector.o
 .rela.text.remote_init_before_BT
                0x00000000        0x0 /cygdrive/c/Airoha/AiroBlueSDK/AB1600_1_0_5_0/projects/Remote/output/pj/components/Device/AB1600/cfg_sector.o
 .rela.text.remote_io_init
                0x00000000        0x0 /cygdrive/c/Airoha/AiroBlueSDK/AB1600_1_0_5_0/projects/Remote/output/pj/components/Device/AB1600/cfg_sector.o
 .rela.text.remote_reset_deep_sleep_timer
                0x00000000        0x0 /cygdrive/c/Airoha/AiroBlueSDK/AB1600_1_0_5_0/projects/Remote/output/pj/components/Device/AB1600/cfg_sector.o
 .rela.text.remote_timer_init
                0x00000000        0x0 /cygdrive/c/Airoha/AiroBlueSDK/AB1600_1_0_5_0/projects/Remote/output/pj/components/Device/AB1600/cfg_sector.o
 .rela.text.remote_check_boot_reason
                0x00000000        0x0 /cygdrive/c/Airoha/AiroBlueSDK/AB1600_1_0_5_0/projects/Remote/output/pj/components/Device/AB1600/cfg_sector.o
 .rela.text.remote_forbid_function_by_battery
                0x00000000        0x0 /cygdrive/c/Airoha/AiroBlueSDK/AB1600_1_0_5_0/projects/Remote/output/pj/components/Device/AB1600/cfg_sector.o
 .rela.text._remote_check_battery_level
                0x00000000        0x0 /cygdrive/c/Airoha/AiroBlueSDK/AB1600_1_0_5_0/projects/Remote/output/pj/components/Device/AB1600/cfg_sector.o
 .rela.text.remote_init
                0x00000000        0x0 /cygdrive/c/Airoha/AiroBlueSDK/AB1600_1_0_5_0/projects/Remote/output/pj/components/Device/AB1600/cfg_sector.o
 .rela.text._remote_sleep_routine
                0x00000000        0x0 /cygdrive/c/Airoha/AiroBlueSDK/AB1600_1_0_5_0/projects/Remote/output/pj/components/Device/AB1600/cfg_sector.o
 .rela.text._remote_deep_sleep_routine
                0x00000000        0x0 /cygdrive/c/Airoha/AiroBlueSDK/AB1600_1_0_5_0/projects/Remote/output/pj/components/Device/AB1600/cfg_sector.o
 .rela.text._remote_soft_reset_routine
                0x00000000        0x0 /cygdrive/c/Airoha/AiroBlueSDK/AB1600_1_0_5_0/projects/Remote/output/pj/components/Device/AB1600/cfg_sector.o
 .rela.text.remote_ble_set_pub_addr_cb
                0x00000000        0x0 /cygdrive/c/Airoha/AiroBlueSDK/AB1600_1_0_5_0/projects/Remote/output/pj/components/Device/AB1600/cfg_sector.o
 .rela.text.remote_update_connection_interval
                0x00000000        0x0 /cygdrive/c/Airoha/AiroBlueSDK/AB1600_1_0_5_0/projects/Remote/output/pj/components/Device/AB1600/cfg_sector.o
 .rela.text.remote_check_conn_param
                0x00000000        0x0 /cygdrive/c/Airoha/AiroBlueSDK/AB1600_1_0_5_0/projects/Remote/output/pj/components/Device/AB1600/cfg_sector.o
 .rela.text.remote_ble_adv_scan_cb
                0x00000000        0x0 /cygdrive/c/Airoha/AiroBlueSDK/AB1600_1_0_5_0/projects/Remote/output/pj/components/Device/AB1600/cfg_sector.o
 .rela.text.remote_check_bt_bonding
                0x00000000        0x0 /cygdrive/c/Airoha/AiroBlueSDK/AB1600_1_0_5_0/projects/Remote/output/pj/components/Device/AB1600/cfg_sector.o
 .rela.text.remote_BtActivated
                0x00000000        0x0 /cygdrive/c/Airoha/AiroBlueSDK/AB1600_1_0_5_0/projects/Remote/output/pj/components/Device/AB1600/cfg_sector.o
 .rela.text.remote_CheckBleState
                0x00000000        0x0 /cygdrive/c/Airoha/AiroBlueSDK/AB1600_1_0_5_0/projects/Remote/output/pj/components/Device/AB1600/cfg_sector.o
 .rela.text.remote_mainloop
                0x00000000        0x0 /cygdrive/c/Airoha/AiroBlueSDK/AB1600_1_0_5_0/projects/Remote/output/pj/components/Device/AB1600/cfg_sector.o
 .rela.text.remote_bt_evt_hdl
                0x00000000        0x0 /cygdrive/c/Airoha/AiroBlueSDK/AB1600_1_0_5_0/projects/Remote/output/pj/components/Device/AB1600/cfg_sector.o
 .rela.text.remote_check_is_device_bonded
                0x00000000        0x0 /cygdrive/c/Airoha/AiroBlueSDK/AB1600_1_0_5_0/projects/Remote/output/pj/components/Device/AB1600/cfg_sector.o
 .rela.text.remote_keyscan_column_interrupt_disable
                0x00000000        0x0 /cygdrive/c/Airoha/AiroBlueSDK/AB1600_1_0_5_0/projects/Remote/output/pj/components/Device/AB1600/cfg_sector.o
 .rela.text.remote_keyscan_column_interrupt_enable
                0x00000000        0x0 /cygdrive/c/Airoha/AiroBlueSDK/AB1600_1_0_5_0/projects/Remote/output/pj/components/Device/AB1600/cfg_sector.o
 .rela.text.remote_CheckComboKey
                0x00000000        0x0 /cygdrive/c/Airoha/AiroBlueSDK/AB1600_1_0_5_0/projects/Remote/output/pj/components/Device/AB1600/cfg_sector.o
 .rela.text.remote_mouse_combo3_cb
                0x00000000        0x0 /cygdrive/c/Airoha/AiroBlueSDK/AB1600_1_0_5_0/projects/Remote/output/pj/components/Device/AB1600/cfg_sector.o
 .rela.text.remote_mouse_combo2_cb
                0x00000000        0x0 /cygdrive/c/Airoha/AiroBlueSDK/AB1600_1_0_5_0/projects/Remote/output/pj/components/Device/AB1600/cfg_sector.o
 .rela.text.remote_num_key_pressed
                0x00000000        0x0 /cygdrive/c/Airoha/AiroBlueSDK/AB1600_1_0_5_0/projects/Remote/output/pj/components/Device/AB1600/cfg_sector.o
 .rela.text._remote_SendKey
                0x00000000        0x0 /cygdrive/c/Airoha/AiroBlueSDK/AB1600_1_0_5_0/projects/Remote/output/pj/components/Device/AB1600/cfg_sector.o
 .rela.text.remote_ok_key_pressed
                0x00000000        0x0 /cygdrive/c/Airoha/AiroBlueSDK/AB1600_1_0_5_0/projects/Remote/output/pj/components/Device/AB1600/cfg_sector.o
 .rela.text._remote_ProcessSingleKey
                0x00000000        0x0 /cygdrive/c/Airoha/AiroBlueSDK/AB1600_1_0_5_0/projects/Remote/output/pj/components/Device/AB1600/cfg_sector.o
 .rela.text.remote_CheckSingleKey
                0x00000000        0x0 /cygdrive/c/Airoha/AiroBlueSDK/AB1600_1_0_5_0/projects/Remote/output/pj/components/Device/AB1600/cfg_sector.o
 .rela.text.remote_powerkey_pressed
                0x00000000        0x0 /cygdrive/c/Airoha/AiroBlueSDK/AB1600_1_0_5_0/projects/Remote/output/pj/components/Device/AB1600/cfg_sector.o
 .rela.text.remote_InitialCheckPowerKey
                0x00000000        0x0 /cygdrive/c/Airoha/AiroBlueSDK/AB1600_1_0_5_0/projects/Remote/output/pj/components/Device/AB1600/cfg_sector.o
 .rela.text.remote_button_init
                0x00000000        0x0 /cygdrive/c/Airoha/AiroBlueSDK/AB1600_1_0_5_0/projects/Remote/output/pj/components/Device/AB1600/cfg_sector.o
 .rela.text.remote_mouse_10ms_interrupt
                0x00000000        0x0 /cygdrive/c/Airoha/AiroBlueSDK/AB1600_1_0_5_0/projects/Remote/output/pj/components/Device/AB1600/cfg_sector.o
 .rela.text._remote_mouse_motion_data_bias
                0x00000000        0x0 /cygdrive/c/Airoha/AiroBlueSDK/AB1600_1_0_5_0/projects/Remote/output/pj/components/Device/AB1600/cfg_sector.o
 .rela.text.remote_mouse_request_to_enable
                0x00000000        0x0 /cygdrive/c/Airoha/AiroBlueSDK/AB1600_1_0_5_0/projects/Remote/output/pj/components/Device/AB1600/cfg_sector.o
 .rela.text.remote_mouse_request_to_disable
                0x00000000        0x0 /cygdrive/c/Airoha/AiroBlueSDK/AB1600_1_0_5_0/projects/Remote/output/pj/components/Device/AB1600/cfg_sector.o
 .rela.text.remote_switch_mouse_sensitivity
                0x00000000        0x0 /cygdrive/c/Airoha/AiroBlueSDK/AB1600_1_0_5_0/projects/Remote/output/pj/components/Device/AB1600/cfg_sector.o
 .rela.text.remote_mouse_sensor_disable
                0x00000000        0x0 /cygdrive/c/Airoha/AiroBlueSDK/AB1600_1_0_5_0/projects/Remote/output/pj/components/Device/AB1600/cfg_sector.o
 .rela.text.remote_mouse_sensor_enable
                0x00000000        0x0 /cygdrive/c/Airoha/AiroBlueSDK/AB1600_1_0_5_0/projects/Remote/output/pj/components/Device/AB1600/cfg_sector.o
 .rela.text.remote_check_mouse_continue
                0x00000000        0x0 /cygdrive/c/Airoha/AiroBlueSDK/AB1600_1_0_5_0/projects/Remote/output/pj/components/Device/AB1600/cfg_sector.o
 .rela.text.remote_self_disable
                0x00000000        0x0 /cygdrive/c/Airoha/AiroBlueSDK/AB1600_1_0_5_0/projects/Remote/output/pj/components/Device/AB1600/cfg_sector.o
 .rela.text._remote_g_sensor_interrupt
                0x00000000        0x0 /cygdrive/c/Airoha/AiroBlueSDK/AB1600_1_0_5_0/projects/Remote/output/pj/components/Device/AB1600/cfg_sector.o
 .rela.text._remote_mouse_process_motion_data
                0x00000000        0x0 /cygdrive/c/Airoha/AiroBlueSDK/AB1600_1_0_5_0/projects/Remote/output/pj/components/Device/AB1600/cfg_sector.o
 .rela.text._remote_mouse_vcmd_calibration
                0x00000000        0x0 /cygdrive/c/Airoha/AiroBlueSDK/AB1600_1_0_5_0/projects/Remote/output/pj/components/Device/AB1600/cfg_sector.o
 .rela.text._remote_reset_mouse_data_in_flash
                0x00000000        0x0 /cygdrive/c/Airoha/AiroBlueSDK/AB1600_1_0_5_0/projects/Remote/output/pj/components/Device/AB1600/cfg_sector.o
 .rela.text._remote_save_mouse_data_to_flash
                0x00000000        0x0 /cygdrive/c/Airoha/AiroBlueSDK/AB1600_1_0_5_0/projects/Remote/output/pj/components/Device/AB1600/cfg_sector.o
 .rela.text._remote_mouse_calibration
                0x00000000        0x0 /cygdrive/c/Airoha/AiroBlueSDK/AB1600_1_0_5_0/projects/Remote/output/pj/components/Device/AB1600/cfg_sector.o
 .rela.text.remote_mouse_calibration_key_pressed
                0x00000000        0x0 /cygdrive/c/Airoha/AiroBlueSDK/AB1600_1_0_5_0/projects/Remote/output/pj/components/Device/AB1600/cfg_sector.o
 .rela.text.remote_gesture_key_pressed
                0x00000000        0x0 /cygdrive/c/Airoha/AiroBlueSDK/AB1600_1_0_5_0/projects/Remote/output/pj/components/Device/AB1600/cfg_sector.o
 .rela.text.remote_check_motion
                0x00000000        0x0 /cygdrive/c/Airoha/AiroBlueSDK/AB1600_1_0_5_0/projects/Remote/output/pj/components/Device/AB1600/cfg_sector.o
 .rela.text.remote_check_mouse_timer
                0x00000000        0x0 /cygdrive/c/Airoha/AiroBlueSDK/AB1600_1_0_5_0/projects/Remote/output/pj/components/Device/AB1600/cfg_sector.o
 .rela.text.remote_check_mouse_state_change_request
                0x00000000        0x0 /cygdrive/c/Airoha/AiroBlueSDK/AB1600_1_0_5_0/projects/Remote/output/pj/components/Device/AB1600/cfg_sector.o
 .rela.text._remote_mouse_standby
                0x00000000        0x0 /cygdrive/c/Airoha/AiroBlueSDK/AB1600_1_0_5_0/projects/Remote/output/pj/components/Device/AB1600/cfg_sector.o
 .rela.text.remote_mouse_wake_on_motion_init
                0x00000000        0x0 /cygdrive/c/Airoha/AiroBlueSDK/AB1600_1_0_5_0/projects/Remote/output/pj/components/Device/AB1600/cfg_sector.o
 .rela.text._remote_mouse_init
                0x00000000        0x0 /cygdrive/c/Airoha/AiroBlueSDK/AB1600_1_0_5_0/projects/Remote/output/pj/components/Device/AB1600/cfg_sector.o
 .rela.text.remote_mic_key_pressed
                0x00000000        0x0 /cygdrive/c/Airoha/AiroBlueSDK/AB1600_1_0_5_0/projects/Remote/output/pj/components/Device/AB1600/cfg_sector.o
 .rela.text._remote_mic_deinit
                0x00000000        0x0 /cygdrive/c/Airoha/AiroBlueSDK/AB1600_1_0_5_0/projects/Remote/output/pj/components/Device/AB1600/cfg_sector.o
 .rela.text._remote_mic_init
                0x00000000        0x0 /cygdrive/c/Airoha/AiroBlueSDK/AB1600_1_0_5_0/projects/Remote/output/pj/components/Device/AB1600/cfg_sector.o
 .rela.text.remote_codecsel_cb
                0x00000000        0x0 /cygdrive/c/Airoha/AiroBlueSDK/AB1600_1_0_5_0/projects/Remote/output/pj/components/Device/AB1600/cfg_sector.o
 .rela.text._remote_voice_active_detection
                0x00000000        0x0 /cygdrive/c/Airoha/AiroBlueSDK/AB1600_1_0_5_0/projects/Remote/output/pj/components/Device/AB1600/cfg_sector.o
 .rela.text.remote_mic_local_disable
                0x00000000        0x0 /cygdrive/c/Airoha/AiroBlueSDK/AB1600_1_0_5_0/projects/Remote/output/pj/components/Device/AB1600/cfg_sector.o
 .rela.text._remote_mic_enabled
                0x00000000        0x0 /cygdrive/c/Airoha/AiroBlueSDK/AB1600_1_0_5_0/projects/Remote/output/pj/components/Device/AB1600/cfg_sector.o
 .rela.text._remote_mic_standBy
                0x00000000        0x0 /cygdrive/c/Airoha/AiroBlueSDK/AB1600_1_0_5_0/projects/Remote/output/pj/components/Device/AB1600/cfg_sector.o
 .rela.text.remote_send_hid_report
                0x00000000        0x0 /cygdrive/c/Airoha/AiroBlueSDK/AB1600_1_0_5_0/projects/Remote/output/pj/components/Device/AB1600/cfg_sector.o
 .rela.text._remote_airoha_init
                0x00000000        0x0 /cygdrive/c/Airoha/AiroBlueSDK/AB1600_1_0_5_0/projects/Remote/output/pj/components/Device/AB1600/cfg_sector.o
 .rela.text._remote_ota_init
                0x00000000        0x0 /cygdrive/c/Airoha/AiroBlueSDK/AB1600_1_0_5_0/projects/Remote/output/pj/components/Device/AB1600/cfg_sector.o
 .rela.text._remote_ota_cb
                0x00000000        0x0 /cygdrive/c/Airoha/AiroBlueSDK/AB1600_1_0_5_0/projects/Remote/output/pj/components/Device/AB1600/cfg_sector.o
 .rela.text._remote_hid_init
                0x00000000        0x0 /cygdrive/c/Airoha/AiroBlueSDK/AB1600_1_0_5_0/projects/Remote/output/pj/components/Device/AB1600/cfg_sector.o
 .rela.text._remote_bas_init
                0x00000000        0x0 /cygdrive/c/Airoha/AiroBlueSDK/AB1600_1_0_5_0/projects/Remote/output/pj/components/Device/AB1600/cfg_sector.o
 .rela.rodata   0x00000000        0x0 /cygdrive/c/Airoha/AiroBlueSDK/AB1600_1_0_5_0/projects/Remote/output/pj/components/Device/AB1600/cfg_sector.o
 .rela.text._remote_dis_init
                0x00000000        0x0 /cygdrive/c/Airoha/AiroBlueSDK/AB1600_1_0_5_0/projects/Remote/output/pj/components/Device/AB1600/cfg_sector.o
 .rela.text._remote_gatt_init
                0x00000000        0x0 /cygdrive/c/Airoha/AiroBlueSDK/AB1600_1_0_5_0/projects/Remote/output/pj/components/Device/AB1600/cfg_sector.o
 .rela.text._remote_gap_init
                0x00000000        0x0 /cygdrive/c/Airoha/AiroBlueSDK/AB1600_1_0_5_0/projects/Remote/output/pj/components/Device/AB1600/cfg_sector.o
 .rela.text._RC_recon_addr_cb
                0x00000000        0x0 /cygdrive/c/Airoha/AiroBlueSDK/AB1600_1_0_5_0/projects/Remote/output/pj/components/Device/AB1600/cfg_sector.o
 .rela.text._RC_device_name_cb
                0x00000000        0x0 /cygdrive/c/Airoha/AiroBlueSDK/AB1600_1_0_5_0/projects/Remote/output/pj/components/Device/AB1600/cfg_sector.o
 .rela.text.remote_set_adv_control_timer
                0x00000000        0x0 /cygdrive/c/Airoha/AiroBlueSDK/AB1600_1_0_5_0/projects/Remote/output/pj/components/Device/AB1600/cfg_sector.o
 .rela.text.remote_dir_adv
                0x00000000        0x0 /cygdrive/c/Airoha/AiroBlueSDK/AB1600_1_0_5_0/projects/Remote/output/pj/components/Device/AB1600/cfg_sector.o
 .rela.text.remote_ble_dir_adv_enable_cb
                0x00000000        0x0 /cygdrive/c/Airoha/AiroBlueSDK/AB1600_1_0_5_0/projects/Remote/output/pj/components/Device/AB1600/cfg_sector.o
 .rela.text.remote_ble_adv_enable_cb
                0x00000000        0x0 /cygdrive/c/Airoha/AiroBlueSDK/AB1600_1_0_5_0/projects/Remote/output/pj/components/Device/AB1600/cfg_sector.o
 .rela.text._remote_stop_woble_cb
                0x00000000        0x0 /cygdrive/c/Airoha/AiroBlueSDK/AB1600_1_0_5_0/projects/Remote/output/pj/components/Device/AB1600/cfg_sector.o
 .rela.text.remote_ble_set_no_scan_adv_param_and_enable
                0x00000000        0x0 /cygdrive/c/Airoha/AiroBlueSDK/AB1600_1_0_5_0/projects/Remote/output/pj/components/Device/AB1600/cfg_sector.o
 .rela.text.remote_ble_set_adv_param_and_enable
                0x00000000        0x0 /cygdrive/c/Airoha/AiroBlueSDK/AB1600_1_0_5_0/projects/Remote/output/pj/components/Device/AB1600/cfg_sector.o
 .rela.text._remote_switch_to_woble_state_cb
                0x00000000        0x0 /cygdrive/c/Airoha/AiroBlueSDK/AB1600_1_0_5_0/projects/Remote/output/pj/components/Device/AB1600/cfg_sector.o
 .rela.text.remote_bonded_undir_adv
                0x00000000        0x0 /cygdrive/c/Airoha/AiroBlueSDK/AB1600_1_0_5_0/projects/Remote/output/pj/components/Device/AB1600/cfg_sector.o
 .rela.text._remote_stop_diradv_cb
                0x00000000        0x0 /cygdrive/c/Airoha/AiroBlueSDK/AB1600_1_0_5_0/projects/Remote/output/pj/components/Device/AB1600/cfg_sector.o
 .rela.text.remote_normal_undir_adv
                0x00000000        0x0 /cygdrive/c/Airoha/AiroBlueSDK/AB1600_1_0_5_0/projects/Remote/output/pj/components/Device/AB1600/cfg_sector.o
 .rela.text.remote_wake_up_over_ble_adv
                0x00000000        0x0 /cygdrive/c/Airoha/AiroBlueSDK/AB1600_1_0_5_0/projects/Remote/output/pj/components/Device/AB1600/cfg_sector.o
 .rela.text._remote_normal_undir_adv_TO
                0x00000000        0x0 /cygdrive/c/Airoha/AiroBlueSDK/AB1600_1_0_5_0/projects/Remote/output/pj/components/Device/AB1600/cfg_sector.o
 .rela.text.remote_switch_to_woble_adv
                0x00000000        0x0 /cygdrive/c/Airoha/AiroBlueSDK/AB1600_1_0_5_0/projects/Remote/output/pj/components/Device/AB1600/cfg_sector.o
 .rela.text._remote_dir_adv_TO
                0x00000000        0x0 /cygdrive/c/Airoha/AiroBlueSDK/AB1600_1_0_5_0/projects/Remote/output/pj/components/Device/AB1600/cfg_sector.o
 .rela.text._remote_woble_TO
                0x00000000        0x0 /cygdrive/c/Airoha/AiroBlueSDK/AB1600_1_0_5_0/projects/Remote/output/pj/components/Device/AB1600/cfg_sector.o
 .rela.text._remote_bonded_undir_adv_TO
                0x00000000        0x0 /cygdrive/c/Airoha/AiroBlueSDK/AB1600_1_0_5_0/projects/Remote/output/pj/components/Device/AB1600/cfg_sector.o
 .rela.text.remote_led_change_brightness_by_bat_lvl
                0x00000000        0x0 /cygdrive/c/Airoha/AiroBlueSDK/AB1600_1_0_5_0/projects/Remote/output/pj/components/Device/AB1600/cfg_sector.o
 .rela.text.remote_led_advertising
                0x00000000        0x0 /cygdrive/c/Airoha/AiroBlueSDK/AB1600_1_0_5_0/projects/Remote/output/pj/components/Device/AB1600/cfg_sector.o
 .rela.text.remote_led_state_change
                0x00000000        0x0 /cygdrive/c/Airoha/AiroBlueSDK/AB1600_1_0_5_0/projects/Remote/output/pj/components/Device/AB1600/cfg_sector.o
 .rela.text.remote_led_deinit
                0x00000000        0x0 /cygdrive/c/Airoha/AiroBlueSDK/AB1600_1_0_5_0/projects/Remote/output/pj/components/Device/AB1600/cfg_sector.o
 .rela.text.remote_led_init
                0x00000000        0x0 /cygdrive/c/Airoha/AiroBlueSDK/AB1600_1_0_5_0/projects/Remote/output/pj/components/Device/AB1600/cfg_sector.o
 .rela.text.remote_gpio_init
                0x00000000        0x0 /cygdrive/c/Airoha/AiroBlueSDK/AB1600_1_0_5_0/projects/Remote/output/pj/components/Device/AB1600/cfg_sector.o
 .rela.text.TimerCallbackFunc
                0x00000000        0x0 /cygdrive/c/Airoha/AiroBlueSDK/AB1600_1_0_5_0/projects/Remote/output/pj/components/Device/AB1600/cfg_sector.o
 .rela.text.gpio_detect_intr
                0x00000000        0x0 /cygdrive/c/Airoha/AiroBlueSDK/AB1600_1_0_5_0/projects/Remote/output/pj/components/Device/AB1600/cfg_sector.o
 .rela.text.REMOTE_vcmd_response
                0x00000000        0x0 /cygdrive/c/Airoha/AiroBlueSDK/AB1600_1_0_5_0/projects/Remote/output/pj/components/Device/AB1600/cfg_sector.o
 .rela.text     0x00000000        0x0 /cygdrive/c/Airoha/AiroBlueSDK/AB1600_1_0_5_0/projects/Remote/output/pj/components/Device/AB1600/cfg_sector.o
 .rela.text.chip_1602_send_acl_data
                0x00000000        0x0 /cygdrive/c/Airoha/AiroBlueSDK/AB1600_1_0_5_0/projects/Remote/output/pj/components/Device/AB1600/cfg_sector.o
 .rela.text.make_command_complete_ex
                0x00000000        0x0 /cygdrive/c/Airoha/AiroBlueSDK/AB1600_1_0_5_0/projects/Remote/output/pj/components/Device/AB1600/cfg_sector.o
 .rela.text.chip_1602_check_chip_cmd_permission
                0x00000000        0x0 /cygdrive/c/Airoha/AiroBlueSDK/AB1600_1_0_5_0/projects/Remote/output/pj/components/Device/AB1600/cfg_sector.o
 .rela.text.chip_1602_send_hci_command
                0x00000000        0x0 /cygdrive/c/Airoha/AiroBlueSDK/AB1600_1_0_5_0/projects/Remote/output/pj/components/Device/AB1600/cfg_sector.o
 .rela.text.chip_1602_init_adopt_mp
                0x00000000        0x0 /cygdrive/c/Airoha/AiroBlueSDK/AB1600_1_0_5_0/projects/Remote/output/pj/components/Device/AB1600/cfg_sector.o
 .rela.text.chip_1602_init_config
                0x00000000        0x0 /cygdrive/c/Airoha/AiroBlueSDK/AB1600_1_0_5_0/projects/Remote/output/pj/components/Device/AB1600/cfg_sector.o
 .rela.text.chip_1602_init_patching
                0x00000000        0x0 /cygdrive/c/Airoha/AiroBlueSDK/AB1600_1_0_5_0/projects/Remote/output/pj/components/Device/AB1600/cfg_sector.o
 .rela.text.hci_rx_recv
                0x00000000        0x0 /cygdrive/c/Airoha/AiroBlueSDK/AB1600_1_0_5_0/projects/Remote/output/pj/components/Device/AB1600/cfg_sector.o
 .rela.text.hci_1602_read_cfm_cb
                0x00000000        0x0 /cygdrive/c/Airoha/AiroBlueSDK/AB1600_1_0_5_0/projects/Remote/output/pj/components/Device/AB1600/cfg_sector.o
 .rela.text.PowerFail_IntrHandler
                0x00000000        0x0 /cygdrive/c/Airoha/AiroBlueSDK/AB1600_1_0_5_0/projects/Remote/output/pj/components/Device/AB1600/cfg_sector.o
 .rela.text.AB_ADC_Init
                0x00000000        0x0 /cygdrive/c/Airoha/AiroBlueSDK/AB1600_1_0_5_0/projects/Remote/output/pj/components/Device/AB1600/cfg_sector.o
 .rela.text.AB_ADC_PowerFail_Monitor
                0x00000000        0x0 /cygdrive/c/Airoha/AiroBlueSDK/AB1600_1_0_5_0/projects/Remote/output/pj/components/Device/AB1600/cfg_sector.o
 .rela.text.AB_ADC_Get_Level
                0x00000000        0x0 /cygdrive/c/Airoha/AiroBlueSDK/AB1600_1_0_5_0/projects/Remote/output/pj/components/Device/AB1600/cfg_sector.o
 .rela.text.AB_ADC_Get_Voltage
                0x00000000        0x0 /cygdrive/c/Airoha/AiroBlueSDK/AB1600_1_0_5_0/projects/Remote/output/pj/components/Device/AB1600/cfg_sector.o
 .rela.text.AB_CLK_Switch
                0x00000000        0x0 /cygdrive/c/Airoha/AiroBlueSDK/AB1600_1_0_5_0/projects/Remote/output/pj/components/Device/AB1600/cfg_sector.o
 .rela.text.assert_ab_callback_verbose
                0x00000000        0x0 /cygdrive/c/Airoha/AiroBlueSDK/AB1600_1_0_5_0/projects/Remote/output/pj/components/Device/AB1600/cfg_sector.o
 .rela.text.assert_ab_callback
                0x00000000        0x0 /cygdrive/c/Airoha/AiroBlueSDK/AB1600_1_0_5_0/projects/Remote/output/pj/components/Device/AB1600/cfg_sector.o
 .rela.text.AB_Flash_UnLock
                0x00000000        0x0 /cygdrive/c/Airoha/AiroBlueSDK/AB1600_1_0_5_0/projects/Remote/output/pj/components/Device/AB1600/cfg_sector.o
 .rela.text.AB_Flash_Lock
                0x00000000        0x0 /cygdrive/c/Airoha/AiroBlueSDK/AB1600_1_0_5_0/projects/Remote/output/pj/components/Device/AB1600/cfg_sector.o
 .rela.text.AB_Flash_ByteProgram
                0x00000000        0x0 /cygdrive/c/Airoha/AiroBlueSDK/AB1600_1_0_5_0/projects/Remote/output/pj/components/Device/AB1600/cfg_sector.o
 .rela.text.AB_Flash_SectorErase
                0x00000000        0x0 /cygdrive/c/Airoha/AiroBlueSDK/AB1600_1_0_5_0/projects/Remote/output/pj/components/Device/AB1600/cfg_sector.o
 .rela.text.AB_LED_stop
                0x00000000        0x0 /cygdrive/c/Airoha/AiroBlueSDK/AB1600_1_0_5_0/projects/Remote/output/pj/components/Device/AB1600/cfg_sector.o
 .rela.text.AB_LED_set_rawdata
                0x00000000        0x0 /cygdrive/c/Airoha/AiroBlueSDK/AB1600_1_0_5_0/projects/Remote/output/pj/components/Device/AB1600/cfg_sector.o
 .rela.text.AB_LED_start
                0x00000000        0x0 /cygdrive/c/Airoha/AiroBlueSDK/AB1600_1_0_5_0/projects/Remote/output/pj/components/Device/AB1600/cfg_sector.o
 .rela.text.AB_LED_follow_start
                0x00000000        0x0 /cygdrive/c/Airoha/AiroBlueSDK/AB1600_1_0_5_0/projects/Remote/output/pj/components/Device/AB1600/cfg_sector.o
 .rela.text.AB_LED_deinit
                0x00000000        0x0 /cygdrive/c/Airoha/AiroBlueSDK/AB1600_1_0_5_0/projects/Remote/output/pj/components/Device/AB1600/cfg_sector.o
 .rela.text.AB_LED_init
                0x00000000        0x0 /cygdrive/c/Airoha/AiroBlueSDK/AB1600_1_0_5_0/projects/Remote/output/pj/components/Device/AB1600/cfg_sector.o
 .rela.text._sbrk
                0x00000000        0x0 /cygdrive/c/Airoha/AiroBlueSDK/AB1600_1_0_5_0/projects/Remote/output/pj/components/Device/AB1600/cfg_sector.o
 .rela.text.ab_malloc_total
                0x00000000        0x0 /cygdrive/c/Airoha/AiroBlueSDK/AB1600_1_0_5_0/projects/Remote/output/pj/components/Device/AB1600/cfg_sector.o
 .rela.text.free
                0x00000000        0x0 /cygdrive/c/Airoha/AiroBlueSDK/AB1600_1_0_5_0/projects/Remote/output/pj/components/Device/AB1600/cfg_sector.o
 .rela.text.ab_malloc_info_printf
                0x00000000        0x0 /cygdrive/c/Airoha/AiroBlueSDK/AB1600_1_0_5_0/projects/Remote/output/pj/components/Device/AB1600/cfg_sector.o
 .rela.text.malloc
                0x00000000        0x0 /cygdrive/c/Airoha/AiroBlueSDK/AB1600_1_0_5_0/projects/Remote/output/pj/components/Device/AB1600/cfg_sector.o
 .rela.text.ab_malloc_used
                0x00000000        0x0 /cygdrive/c/Airoha/AiroBlueSDK/AB1600_1_0_5_0/projects/Remote/output/pj/components/Device/AB1600/cfg_sector.o
 .rela.text.ab_malloc_max_used
                0x00000000        0x0 /cygdrive/c/Airoha/AiroBlueSDK/AB1600_1_0_5_0/projects/Remote/output/pj/components/Device/AB1600/cfg_sector.o
 .rela.sdata_w  0x00000000        0x0 /cygdrive/c/Airoha/AiroBlueSDK/AB1600_1_0_5_0/projects/Remote/output/pj/components/Device/AB1600/cfg_sector.o
 .rela.text.printf
                0x00000000        0x0 /cygdrive/c/Airoha/AiroBlueSDK/AB1600_1_0_5_0/projects/Remote/output/pj/components/Device/AB1600/cfg_sector.o
 .rela.text.nds_write
                0x00000000        0x0 /cygdrive/c/Airoha/AiroBlueSDK/AB1600_1_0_5_0/projects/Remote/output/pj/components/Device/AB1600/cfg_sector.o
 .rela.text.Ab_printf_blocking
                0x00000000        0x0 /cygdrive/c/Airoha/AiroBlueSDK/AB1600_1_0_5_0/projects/Remote/output/pj/components/Device/AB1600/cfg_sector.o
 .rela.text.putchar
                0x00000000        0x0 /cygdrive/c/Airoha/AiroBlueSDK/AB1600_1_0_5_0/projects/Remote/output/pj/components/Device/AB1600/cfg_sector.o
 .rela.text.AB_PWR_Off
                0x00000000        0x0 /cygdrive/c/Airoha/AiroBlueSDK/AB1600_1_0_5_0/projects/Remote/output/pj/components/Device/AB1600/cfg_sector.o
 .rela.text.AB_PWR_Rst
                0x00000000        0x0 /cygdrive/c/Airoha/AiroBlueSDK/AB1600_1_0_5_0/projects/Remote/output/pj/components/Device/AB1600/cfg_sector.o
 .rela.text.AB_PWR_Sleep
                0x00000000        0x0 /cygdrive/c/Airoha/AiroBlueSDK/AB1600_1_0_5_0/projects/Remote/output/pj/components/Device/AB1600/cfg_sector.o
 .rela.text.AB_SECTOR_GetMpParameter
                0x00000000        0x0 /cygdrive/c/Airoha/AiroBlueSDK/AB1600_1_0_5_0/projects/Remote/output/pj/components/Device/AB1600/cfg_sector.o
 .rela.text.alloc_spi_tran_entry
                0x00000000        0x0 /cygdrive/c/Airoha/AiroBlueSDK/AB1600_1_0_5_0/projects/Remote/output/pj/components/Device/AB1600/cfg_sector.o
 .rela.text.AB_SPI_WriteAndRead
                0x00000000        0x0 /cygdrive/c/Airoha/AiroBlueSDK/AB1600_1_0_5_0/projects/Remote/output/pj/components/Device/AB1600/cfg_sector.o
 .rela.text.AB_SPI_WriteThenRead
                0x00000000        0x0 /cygdrive/c/Airoha/AiroBlueSDK/AB1600_1_0_5_0/projects/Remote/output/pj/components/Device/AB1600/cfg_sector.o
 .rela.text.AB_SPI_Close
                0x00000000        0x0 /cygdrive/c/Airoha/AiroBlueSDK/AB1600_1_0_5_0/projects/Remote/output/pj/components/Device/AB1600/cfg_sector.o
 .rela.text.AB_SPI_Open
                0x00000000        0x0 /cygdrive/c/Airoha/AiroBlueSDK/AB1600_1_0_5_0/projects/Remote/output/pj/components/Device/AB1600/cfg_sector.o
 .rela.text.Spi_drv_complete_cb
                0x00000000        0x0 /cygdrive/c/Airoha/AiroBlueSDK/AB1600_1_0_5_0/projects/Remote/output/pj/components/Device/AB1600/cfg_sector.o
 .rela.text.AB_BSP_init_with_console
                0x00000000        0x0 /cygdrive/c/Airoha/AiroBlueSDK/AB1600_1_0_5_0/projects/Remote/output/pj/components/Device/AB1600/cfg_sector.o
 .rela.text.AB_BSP_init
                0x00000000        0x0 /cygdrive/c/Airoha/AiroBlueSDK/AB1600_1_0_5_0/projects/Remote/output/pj/components/Device/AB1600/cfg_sector.o
 .rela.text.AB_BSP_initEx
                0x00000000        0x0 /cygdrive/c/Airoha/AiroBlueSDK/AB1600_1_0_5_0/projects/Remote/output/pj/components/Device/AB1600/cfg_sector.o
 .rela.text.uart1_rx_ind
                0x00000000        0x0 /cygdrive/c/Airoha/AiroBlueSDK/AB1600_1_0_5_0/projects/Remote/output/pj/components/Device/AB1600/cfg_sector.o
 .rela.text.uart2_rx_ind
                0x00000000        0x0 /cygdrive/c/Airoha/AiroBlueSDK/AB1600_1_0_5_0/projects/Remote/output/pj/components/Device/AB1600/cfg_sector.o
 .rela.text.bsp_mp_uart_tx
                0x00000000        0x0 /cygdrive/c/Airoha/AiroBlueSDK/AB1600_1_0_5_0/projects/Remote/output/pj/components/Device/AB1600/cfg_sector.o
 .rela.text.bsp_console_uart_tx
                0x00000000        0x0 /cygdrive/c/Airoha/AiroBlueSDK/AB1600_1_0_5_0/projects/Remote/output/pj/components/Device/AB1600/cfg_sector.o
 .rela.text.bsp_bt_event_hanlder
                0x00000000        0x0 /cygdrive/c/Airoha/AiroBlueSDK/AB1600_1_0_5_0/projects/Remote/output/pj/components/Device/AB1600/cfg_sector.o
 .rela.text.timer32_cb
                0x00000000        0x0 /cygdrive/c/Airoha/AiroBlueSDK/AB1600_1_0_5_0/projects/Remote/output/pj/components/Device/AB1600/cfg_sector.o
 .rela.text.AB_Timer_AlertUnset
                0x00000000        0x0 /cygdrive/c/Airoha/AiroBlueSDK/AB1600_1_0_5_0/projects/Remote/output/pj/components/Device/AB1600/cfg_sector.o
 .rela.text.AB_Timer_AlertSet
                0x00000000        0x0 /cygdrive/c/Airoha/AiroBlueSDK/AB1600_1_0_5_0/projects/Remote/output/pj/components/Device/AB1600/cfg_sector.o
 .rela.text.AB_Timer_Disable
                0x00000000        0x0 /cygdrive/c/Airoha/AiroBlueSDK/AB1600_1_0_5_0/projects/Remote/output/pj/components/Device/AB1600/cfg_sector.o
 .rela.text.AB_Timer_GetTick
                0x00000000        0x0 /cygdrive/c/Airoha/AiroBlueSDK/AB1600_1_0_5_0/projects/Remote/output/pj/components/Device/AB1600/cfg_sector.o
 .rela.text.AB_Timer_Enable_Ext
                0x00000000        0x0 /cygdrive/c/Airoha/AiroBlueSDK/AB1600_1_0_5_0/projects/Remote/output/pj/components/Device/AB1600/cfg_sector.o
 .rela.text.AB_Timer_Enable
                0x00000000        0x0 /cygdrive/c/Airoha/AiroBlueSDK/AB1600_1_0_5_0/projects/Remote/output/pj/components/Device/AB1600/cfg_sector.o
 .rela.text.AB_UART_SetBaud
                0x00000000        0x0 /cygdrive/c/Airoha/AiroBlueSDK/AB1600_1_0_5_0/projects/Remote/output/pj/components/Device/AB1600/cfg_sector.o
 .rela.text.AB_UART_RxRecidue
                0x00000000        0x0 /cygdrive/c/Airoha/AiroBlueSDK/AB1600_1_0_5_0/projects/Remote/output/pj/components/Device/AB1600/cfg_sector.o
 .rela.text.AB_UART_Read
                0x00000000        0x0 /cygdrive/c/Airoha/AiroBlueSDK/AB1600_1_0_5_0/projects/Remote/output/pj/components/Device/AB1600/cfg_sector.o
 .rela.text.AB_UART_Write
                0x00000000        0x0 /cygdrive/c/Airoha/AiroBlueSDK/AB1600_1_0_5_0/projects/Remote/output/pj/components/Device/AB1600/cfg_sector.o
 .rela.text.AB_UART_Close
                0x00000000        0x0 /cygdrive/c/Airoha/AiroBlueSDK/AB1600_1_0_5_0/projects/Remote/output/pj/components/Device/AB1600/cfg_sector.o
 .rela.text.AB_UART_Flush
                0x00000000        0x0 /cygdrive/c/Airoha/AiroBlueSDK/AB1600_1_0_5_0/projects/Remote/output/pj/components/Device/AB1600/cfg_sector.o
 .rela.text.AB_UART_Open
                0x00000000        0x0 /cygdrive/c/Airoha/AiroBlueSDK/AB1600_1_0_5_0/projects/Remote/output/pj/components/Device/AB1600/cfg_sector.o
 .rela.text.driver_tx_complete
                0x00000000        0x0 /cygdrive/c/Airoha/AiroBlueSDK/AB1600_1_0_5_0/projects/Remote/output/pj/components/Device/AB1600/cfg_sector.o
 .rela.text.ab_airoha_vcmd_compl_encode
                0x00000000        0x0 /cygdrive/c/Airoha/AiroBlueSDK/AB1600_1_0_5_0/projects/Remote/output/pj/components/Device/AB1600/cfg_sector.o
 .rela.text.ISPSwitchArea
                0x00000000        0x0 /cygdrive/c/Airoha/AiroBlueSDK/AB1600_1_0_5_0/projects/Remote/output/pj/components/Device/AB1600/cfg_sector.o
 .rela.text.ab_airoha_vcmd34_compl_encode
                0x00000000        0x0 /cygdrive/c/Airoha/AiroBlueSDK/AB1600_1_0_5_0/projects/Remote/output/pj/components/Device/AB1600/cfg_sector.o
 .rela.text.ISPWriteData
                0x00000000        0x0 /cygdrive/c/Airoha/AiroBlueSDK/AB1600_1_0_5_0/projects/Remote/output/pj/components/Device/AB1600/cfg_sector.o
 .rela.text.ISPGetDeviceStatusVCmdHdlr
                0x00000000        0x0 /cygdrive/c/Airoha/AiroBlueSDK/AB1600_1_0_5_0/projects/Remote/output/pj/components/Device/AB1600/cfg_sector.o
 .rela.text.HC_HciLabTestWrThreeWiredVCmdHdlr
                0x00000000        0x0 /cygdrive/c/Airoha/AiroBlueSDK/AB1600_1_0_5_0/projects/Remote/output/pj/components/Device/AB1600/cfg_sector.o
 .rela.text.FlashReadThreeWireVCmdHdlr
                0x00000000        0x0 /cygdrive/c/Airoha/AiroBlueSDK/AB1600_1_0_5_0/projects/Remote/output/pj/components/Device/AB1600/cfg_sector.o
 .rela.text.HC_HciLabTestRdThreeWiredVCmdHdlr
                0x00000000        0x0 /cygdrive/c/Airoha/AiroBlueSDK/AB1600_1_0_5_0/projects/Remote/output/pj/components/Device/AB1600/cfg_sector.o
 .rela.text.mount_1602
                0x00000000        0x0 /cygdrive/c/Airoha/AiroBlueSDK/AB1600_1_0_5_0/projects/Remote/output/pj/components/Device/AB1600/cfg_sector.o
 .rela.text.dev_1602_read_cfm_cb
                0x00000000        0x0 /cygdrive/c/Airoha/AiroBlueSDK/AB1600_1_0_5_0/projects/Remote/output/pj/components/Device/AB1600/cfg_sector.o
 .rela.text.FlashWriteThreeWireVCmdHdlr
                0x00000000        0x0 /cygdrive/c/Airoha/AiroBlueSDK/AB1600_1_0_5_0/projects/Remote/output/pj/components/Device/AB1600/cfg_sector.o
 .rela.text.DRV_ADC_Calibration
                0x00000000        0x0 /cygdrive/c/Airoha/AiroBlueSDK/AB1600_1_0_5_0/projects/Remote/output/pj/components/Device/AB1600/cfg_sector.o
 .rela.text.DRV_ADC_Read
                0x00000000        0x0 /cygdrive/c/Airoha/AiroBlueSDK/AB1600_1_0_5_0/projects/Remote/output/pj/components/Device/AB1600/cfg_sector.o
 .rela.text.DRV_CLK_SysSel
                0x00000000        0x0 /cygdrive/c/Airoha/AiroBlueSDK/AB1600_1_0_5_0/projects/Remote/output/pj/components/Device/AB1600/cfg_sector.o
 .rela.text.DRV_CLK_16MSel
                0x00000000        0x0 /cygdrive/c/Airoha/AiroBlueSDK/AB1600_1_0_5_0/projects/Remote/output/pj/components/Device/AB1600/cfg_sector.o
 .rela.text.DRV_CLK_32KSel
                0x00000000        0x0 /cygdrive/c/Airoha/AiroBlueSDK/AB1600_1_0_5_0/projects/Remote/output/pj/components/Device/AB1600/cfg_sector.o
 .rela.text.DRV_CLK_PLLEn
                0x00000000        0x0 /cygdrive/c/Airoha/AiroBlueSDK/AB1600_1_0_5_0/projects/Remote/output/pj/components/Device/AB1600/cfg_sector.o
 .rela.text.DRV_CLK_En
                0x00000000        0x0 /cygdrive/c/Airoha/AiroBlueSDK/AB1600_1_0_5_0/projects/Remote/output/pj/components/Device/AB1600/cfg_sector.o
 .rela.text.DRV_CLK_Calibration
                0x00000000        0x0 /cygdrive/c/Airoha/AiroBlueSDK/AB1600_1_0_5_0/projects/Remote/output/pj/components/Device/AB1600/cfg_sector.o
 .rela.text.DRV_CLK_TMR0Sel
                0x00000000        0x0 /cygdrive/c/Airoha/AiroBlueSDK/AB1600_1_0_5_0/projects/Remote/output/pj/components/Device/AB1600/cfg_sector.o
 .rela.text.SERIALFLASH_SetPatternAndStart
                0x00000000        0x0 /cygdrive/c/Airoha/AiroBlueSDK/AB1600_1_0_5_0/projects/Remote/output/pj/components/Device/AB1600/cfg_sector.o
 .rela.text._MXIC_WB_Flash_WaitForReady
                0x00000000        0x0 /cygdrive/c/Airoha/AiroBlueSDK/AB1600_1_0_5_0/projects/Remote/output/pj/components/Device/AB1600/cfg_sector.o
 .rela.text.DRV_Flash_ByteRead
                0x00000000        0x0 /cygdrive/c/Airoha/AiroBlueSDK/AB1600_1_0_5_0/projects/Remote/output/pj/components/Device/AB1600/cfg_sector.o
 .rela.text.DRV_Flash_ByteProgram
                0x00000000        0x0 /cygdrive/c/Airoha/AiroBlueSDK/AB1600_1_0_5_0/projects/Remote/output/pj/components/Device/AB1600/cfg_sector.o
 .rela.text.DRV_Flash_PageRead
                0x00000000        0x0 /cygdrive/c/Airoha/AiroBlueSDK/AB1600_1_0_5_0/projects/Remote/output/pj/components/Device/AB1600/cfg_sector.o
 .rela.text.DRV_Flash_PageProgram
                0x00000000        0x0 /cygdrive/c/Airoha/AiroBlueSDK/AB1600_1_0_5_0/projects/Remote/output/pj/components/Device/AB1600/cfg_sector.o
 .rela.text.DRV_Flash_Protection
                0x00000000        0x0 /cygdrive/c/Airoha/AiroBlueSDK/AB1600_1_0_5_0/projects/Remote/output/pj/components/Device/AB1600/cfg_sector.o
 .rela.text.Drv_Flash_BlockSectorErase
                0x00000000        0x0 /cygdrive/c/Airoha/AiroBlueSDK/AB1600_1_0_5_0/projects/Remote/output/pj/components/Device/AB1600/cfg_sector.o
 .rela.text.DRV_Flash_ChipErase
                0x00000000        0x0 /cygdrive/c/Airoha/AiroBlueSDK/AB1600_1_0_5_0/projects/Remote/output/pj/components/Device/AB1600/cfg_sector.o
 .rela.text.DRV_Gpio_IntrHandler
                0x00000000        0x0 /cygdrive/c/Airoha/AiroBlueSDK/AB1600_1_0_5_0/projects/Remote/output/pj/components/Device/AB1600/cfg_sector.o
 .rela.text.DRV_Gpio_IntDis
                0x00000000        0x0 /cygdrive/c/Airoha/AiroBlueSDK/AB1600_1_0_5_0/projects/Remote/output/pj/components/Device/AB1600/cfg_sector.o
 .rela.text.DRV_Gpio_DirSet
                0x00000000        0x0 /cygdrive/c/Airoha/AiroBlueSDK/AB1600_1_0_5_0/projects/Remote/output/pj/components/Device/AB1600/cfg_sector.o
 .rela.text.DRV_Gpio_ValSet
                0x00000000        0x0 /cygdrive/c/Airoha/AiroBlueSDK/AB1600_1_0_5_0/projects/Remote/output/pj/components/Device/AB1600/cfg_sector.o
 .rela.text.DRV_Gpio_PinValSet
                0x00000000        0x0 /cygdrive/c/Airoha/AiroBlueSDK/AB1600_1_0_5_0/projects/Remote/output/pj/components/Device/AB1600/cfg_sector.o
 .rela.text.DRV_Gpio_InvSet
                0x00000000        0x0 /cygdrive/c/Airoha/AiroBlueSDK/AB1600_1_0_5_0/projects/Remote/output/pj/components/Device/AB1600/cfg_sector.o
 .rela.text.DRV_Gpio_DirGet
                0x00000000        0x0 /cygdrive/c/Airoha/AiroBlueSDK/AB1600_1_0_5_0/projects/Remote/output/pj/components/Device/AB1600/cfg_sector.o
 .rela.text.DRV_Gpio_ValGet
                0x00000000        0x0 /cygdrive/c/Airoha/AiroBlueSDK/AB1600_1_0_5_0/projects/Remote/output/pj/components/Device/AB1600/cfg_sector.o
 .rela.text.DRV_Gpio_PinValGet
                0x00000000        0x0 /cygdrive/c/Airoha/AiroBlueSDK/AB1600_1_0_5_0/projects/Remote/output/pj/components/Device/AB1600/cfg_sector.o
 .rela.text.DRV_Gpio_LatchedIntStsGet
                0x00000000        0x0 /cygdrive/c/Airoha/AiroBlueSDK/AB1600_1_0_5_0/projects/Remote/output/pj/components/Device/AB1600/cfg_sector.o
 .rela.text.DRV_Gpio_PinLatchedIntStsGet
                0x00000000        0x0 /cygdrive/c/Airoha/AiroBlueSDK/AB1600_1_0_5_0/projects/Remote/output/pj/components/Device/AB1600/cfg_sector.o
 .rela.text.DRV_Gpio_InvGet
                0x00000000        0x0 /cygdrive/c/Airoha/AiroBlueSDK/AB1600_1_0_5_0/projects/Remote/output/pj/components/Device/AB1600/cfg_sector.o
 .rela.text.DRV_Gpio_PinPullGet
                0x00000000        0x0 /cygdrive/c/Airoha/AiroBlueSDK/AB1600_1_0_5_0/projects/Remote/output/pj/components/Device/AB1600/cfg_sector.o
 .rela.text.DRV_Gpio_PullSet
                0x00000000        0x0 /cygdrive/c/Airoha/AiroBlueSDK/AB1600_1_0_5_0/projects/Remote/output/pj/components/Device/AB1600/cfg_sector.o
 .rela.text.DRV_Gpio_WakeDis
                0x00000000        0x0 /cygdrive/c/Airoha/AiroBlueSDK/AB1600_1_0_5_0/projects/Remote/output/pj/components/Device/AB1600/cfg_sector.o
 .rela.text.DRV_Gpio_DebEn
                0x00000000        0x0 /cygdrive/c/Airoha/AiroBlueSDK/AB1600_1_0_5_0/projects/Remote/output/pj/components/Device/AB1600/cfg_sector.o
 .rela.text.DRV_Gpio_IntEn
                0x00000000        0x0 /cygdrive/c/Airoha/AiroBlueSDK/AB1600_1_0_5_0/projects/Remote/output/pj/components/Device/AB1600/cfg_sector.o
 .rela.text.DRV_Gpio_IntReg
                0x00000000        0x0 /cygdrive/c/Airoha/AiroBlueSDK/AB1600_1_0_5_0/projects/Remote/output/pj/components/Device/AB1600/cfg_sector.o
 .rela.text.DRV_OdGpio_OeSet
                0x00000000        0x0 /cygdrive/c/Airoha/AiroBlueSDK/AB1600_1_0_5_0/projects/Remote/output/pj/components/Device/AB1600/cfg_sector.o
 .rela.text.DRV_OdGpio_ValSet
                0x00000000        0x0 /cygdrive/c/Airoha/AiroBlueSDK/AB1600_1_0_5_0/projects/Remote/output/pj/components/Device/AB1600/cfg_sector.o
 .rela.text.Drv_OdGpioDirGet
                0x00000000        0x0 /cygdrive/c/Airoha/AiroBlueSDK/AB1600_1_0_5_0/projects/Remote/output/pj/components/Device/AB1600/cfg_sector.o
 .rela.text.DRV_OdGpio_ValGet
                0x00000000        0x0 /cygdrive/c/Airoha/AiroBlueSDK/AB1600_1_0_5_0/projects/Remote/output/pj/components/Device/AB1600/cfg_sector.o
 .rela.text.DRV_OdGpio_IeSet
                0x00000000        0x0 /cygdrive/c/Airoha/AiroBlueSDK/AB1600_1_0_5_0/projects/Remote/output/pj/components/Device/AB1600/cfg_sector.o
 .rela.text.DRV_KeyScan_Dis
                0x00000000        0x0 /cygdrive/c/Airoha/AiroBlueSDK/AB1600_1_0_5_0/projects/Remote/output/pj/components/Device/AB1600/cfg_sector.o
 .rela.text.DRV_KeyScan_En
                0x00000000        0x0 /cygdrive/c/Airoha/AiroBlueSDK/AB1600_1_0_5_0/projects/Remote/output/pj/components/Device/AB1600/cfg_sector.o
 .rela.text.KeyScanIsr
                0x00000000        0x0 /cygdrive/c/Airoha/AiroBlueSDK/AB1600_1_0_5_0/projects/Remote/output/pj/components/Device/AB1600/cfg_sector.o
 .rela.text.DRV_KeyScan_Init
                0x00000000        0x0 /cygdrive/c/Airoha/AiroBlueSDK/AB1600_1_0_5_0/projects/Remote/output/pj/components/Device/AB1600/cfg_sector.o
 .rela.text.DRV_Led_Set
                0x00000000        0x0 /cygdrive/c/Airoha/AiroBlueSDK/AB1600_1_0_5_0/projects/Remote/output/pj/components/Device/AB1600/cfg_sector.o
 .rela.text.DRV_Led_Start
                0x00000000        0x0 /cygdrive/c/Airoha/AiroBlueSDK/AB1600_1_0_5_0/projects/Remote/output/pj/components/Device/AB1600/cfg_sector.o
 .rela.text.DRV_Led_StartFollow
                0x00000000        0x0 /cygdrive/c/Airoha/AiroBlueSDK/AB1600_1_0_5_0/projects/Remote/output/pj/components/Device/AB1600/cfg_sector.o
 .rela.text.DRV_Led_Stop
                0x00000000        0x0 /cygdrive/c/Airoha/AiroBlueSDK/AB1600_1_0_5_0/projects/Remote/output/pj/components/Device/AB1600/cfg_sector.o
 .rela.text.MIC_IntHandler
                0x00000000        0x0 /cygdrive/c/Airoha/AiroBlueSDK/AB1600_1_0_5_0/projects/Remote/output/pj/components/Device/AB1600/cfg_sector.o
 .rela.text.DRV_Mic_DeInit
                0x00000000        0x0 /cygdrive/c/Airoha/AiroBlueSDK/AB1600_1_0_5_0/projects/Remote/output/pj/components/Device/AB1600/cfg_sector.o
 .rela.text.DRV_Mic_Disable
                0x00000000        0x0 /cygdrive/c/Airoha/AiroBlueSDK/AB1600_1_0_5_0/projects/Remote/output/pj/components/Device/AB1600/cfg_sector.o
 .rela.text.DRV_Mic_Enable
                0x00000000        0x0 /cygdrive/c/Airoha/AiroBlueSDK/AB1600_1_0_5_0/projects/Remote/output/pj/components/Device/AB1600/cfg_sector.o
 .rela.text.DRV_Mic_Init
                0x00000000        0x0 /cygdrive/c/Airoha/AiroBlueSDK/AB1600_1_0_5_0/projects/Remote/output/pj/components/Device/AB1600/cfg_sector.o
 .rela.text.DRV_OdPinMux_GrpSet
                0x00000000        0x0 /cygdrive/c/Airoha/AiroBlueSDK/AB1600_1_0_5_0/projects/Remote/output/pj/components/Device/AB1600/cfg_sector.o
 .rela.text.DRV_OdPinMux_SigSet
                0x00000000        0x0 /cygdrive/c/Airoha/AiroBlueSDK/AB1600_1_0_5_0/projects/Remote/output/pj/components/Device/AB1600/cfg_sector.o
 .rela.text.DRV_OdPinMux_GrpGet
                0x00000000        0x0 /cygdrive/c/Airoha/AiroBlueSDK/AB1600_1_0_5_0/projects/Remote/output/pj/components/Device/AB1600/cfg_sector.o
 .rela.text.DRV_OdPinMux_SigGet
                0x00000000        0x0 /cygdrive/c/Airoha/AiroBlueSDK/AB1600_1_0_5_0/projects/Remote/output/pj/components/Device/AB1600/cfg_sector.o
 .rela.text.DRV_PinMux_AioGet
                0x00000000        0x0 /cygdrive/c/Airoha/AiroBlueSDK/AB1600_1_0_5_0/projects/Remote/output/pj/components/Device/AB1600/cfg_sector.o
 .rela.text.DRV_PinMux_GrpGet
                0x00000000        0x0 /cygdrive/c/Airoha/AiroBlueSDK/AB1600_1_0_5_0/projects/Remote/output/pj/components/Device/AB1600/cfg_sector.o
 .rela.text.DRV_PinMux_SigGet
                0x00000000        0x0 /cygdrive/c/Airoha/AiroBlueSDK/AB1600_1_0_5_0/projects/Remote/output/pj/components/Device/AB1600/cfg_sector.o
 .rela.text.set_aio
                0x00000000        0x0 /cygdrive/c/Airoha/AiroBlueSDK/AB1600_1_0_5_0/projects/Remote/output/pj/components/Device/AB1600/cfg_sector.o
 .rela.text.DRV_PinMux_GrpSet
                0x00000000        0x0 /cygdrive/c/Airoha/AiroBlueSDK/AB1600_1_0_5_0/projects/Remote/output/pj/components/Device/AB1600/cfg_sector.o
 .rela.text.DRV_PinMux_SigSet
                0x00000000        0x0 /cygdrive/c/Airoha/AiroBlueSDK/AB1600_1_0_5_0/projects/Remote/output/pj/components/Device/AB1600/cfg_sector.o
 .rela.text.DRV_Pwr_SetRegenNoPull
                0x00000000        0x0 /cygdrive/c/Airoha/AiroBlueSDK/AB1600_1_0_5_0/projects/Remote/output/pj/components/Device/AB1600/cfg_sector.o
 .rela.text.DRV_Pwr_EnterMode
                0x00000000        0x0 /cygdrive/c/Airoha/AiroBlueSDK/AB1600_1_0_5_0/projects/Remote/output/pj/components/Device/AB1600/cfg_sector.o
 .rela.text.DRV_Pwr_BootFrom
                0x00000000        0x0 /cygdrive/c/Airoha/AiroBlueSDK/AB1600_1_0_5_0/projects/Remote/output/pj/components/Device/AB1600/cfg_sector.o
 .rela.text.SPI1_InterruptHandler
                0x00000000        0x0 /cygdrive/c/Airoha/AiroBlueSDK/AB1600_1_0_5_0/projects/Remote/output/pj/components/Device/AB1600/cfg_sector.o
 .rela.text.SPI2_InterruptHandler
                0x00000000        0x0 /cygdrive/c/Airoha/AiroBlueSDK/AB1600_1_0_5_0/projects/Remote/output/pj/components/Device/AB1600/cfg_sector.o
 .rela.text.DRV_SPI_Deinit
                0x00000000        0x0 /cygdrive/c/Airoha/AiroBlueSDK/AB1600_1_0_5_0/projects/Remote/output/pj/components/Device/AB1600/cfg_sector.o
 .rela.text.DRV_SPI_ClkRefresh
                0x00000000        0x0 /cygdrive/c/Airoha/AiroBlueSDK/AB1600_1_0_5_0/projects/Remote/output/pj/components/Device/AB1600/cfg_sector.o
 .rela.text.DRV_SPI_WriteRead
                0x00000000        0x0 /cygdrive/c/Airoha/AiroBlueSDK/AB1600_1_0_5_0/projects/Remote/output/pj/components/Device/AB1600/cfg_sector.o
 .rela.text.DRV_SPI_ChangeDuplex
                0x00000000        0x0 /cygdrive/c/Airoha/AiroBlueSDK/AB1600_1_0_5_0/projects/Remote/output/pj/components/Device/AB1600/cfg_sector.o
 .rela.text.DRV_SPI_Init
                0x00000000        0x0 /cygdrive/c/Airoha/AiroBlueSDK/AB1600_1_0_5_0/projects/Remote/output/pj/components/Device/AB1600/cfg_sector.o
 .rela.text.Timer32B0InterruptHandler
                0x00000000        0x0 /cygdrive/c/Airoha/AiroBlueSDK/AB1600_1_0_5_0/projects/Remote/output/pj/components/Device/AB1600/cfg_sector.o
 .rela.text.DRV_TMR32B0_Disable
                0x00000000        0x0 /cygdrive/c/Airoha/AiroBlueSDK/AB1600_1_0_5_0/projects/Remote/output/pj/components/Device/AB1600/cfg_sector.o
 .rela.text.DRV_TMR32B0_Reset
                0x00000000        0x0 /cygdrive/c/Airoha/AiroBlueSDK/AB1600_1_0_5_0/projects/Remote/output/pj/components/Device/AB1600/cfg_sector.o
 .rela.text.DRV_TMR32B0_TickGet
                0x00000000        0x0 /cygdrive/c/Airoha/AiroBlueSDK/AB1600_1_0_5_0/projects/Remote/output/pj/components/Device/AB1600/cfg_sector.o
 .rela.text.DRV_TMR32B0_NotifyEnable
                0x00000000        0x0 /cygdrive/c/Airoha/AiroBlueSDK/AB1600_1_0_5_0/projects/Remote/output/pj/components/Device/AB1600/cfg_sector.o
 .rela.text.DRV_TMR32B0_NotifyDisable
                0x00000000        0x0 /cygdrive/c/Airoha/AiroBlueSDK/AB1600_1_0_5_0/projects/Remote/output/pj/components/Device/AB1600/cfg_sector.o
 .rela.text.DRV_TMR32B0_Enable_Ext
                0x00000000        0x0 /cygdrive/c/Airoha/AiroBlueSDK/AB1600_1_0_5_0/projects/Remote/output/pj/components/Device/AB1600/cfg_sector.o
 .rela.text.DRV_TMR32B0_Enable
                0x00000000        0x0 /cygdrive/c/Airoha/AiroBlueSDK/AB1600_1_0_5_0/projects/Remote/output/pj/components/Device/AB1600/cfg_sector.o
 .rela.text.DRV_Uart_SetBaud
                0x00000000        0x0 /cygdrive/c/Airoha/AiroBlueSDK/AB1600_1_0_5_0/projects/Remote/output/pj/components/Device/AB1600/cfg_sector.o
 .rela.text.DRV_Uart_IsIdle
                0x00000000        0x0 /cygdrive/c/Airoha/AiroBlueSDK/AB1600_1_0_5_0/projects/Remote/output/pj/components/Device/AB1600/cfg_sector.o
 .rela.text.DRV_Uart_Flush
                0x00000000        0x0 /cygdrive/c/Airoha/AiroBlueSDK/AB1600_1_0_5_0/projects/Remote/output/pj/components/Device/AB1600/cfg_sector.o
 .rela.text.DRV_Uart_Write
                0x00000000        0x0 /cygdrive/c/Airoha/AiroBlueSDK/AB1600_1_0_5_0/projects/Remote/output/pj/components/Device/AB1600/cfg_sector.o
 .rela.text.DRV_Uart_Read
                0x00000000        0x0 /cygdrive/c/Airoha/AiroBlueSDK/AB1600_1_0_5_0/projects/Remote/output/pj/components/Device/AB1600/cfg_sector.o
 .rela.text.DRV_Uart_Drop
                0x00000000        0x0 /cygdrive/c/Airoha/AiroBlueSDK/AB1600_1_0_5_0/projects/Remote/output/pj/components/Device/AB1600/cfg_sector.o
 .rela.text.UART2_RxDmaHandler
                0x00000000        0x0 /cygdrive/c/Airoha/AiroBlueSDK/AB1600_1_0_5_0/projects/Remote/output/pj/components/Device/AB1600/cfg_sector.o
 .rela.text.UART2InterruptHandler
                0x00000000        0x0 /cygdrive/c/Airoha/AiroBlueSDK/AB1600_1_0_5_0/projects/Remote/output/pj/components/Device/AB1600/cfg_sector.o
 .rela.text.UART_RxDmaHandler
                0x00000000        0x0 /cygdrive/c/Airoha/AiroBlueSDK/AB1600_1_0_5_0/projects/Remote/output/pj/components/Device/AB1600/cfg_sector.o
 .rela.text.UARTInterruptHandler
                0x00000000        0x0 /cygdrive/c/Airoha/AiroBlueSDK/AB1600_1_0_5_0/projects/Remote/output/pj/components/Device/AB1600/cfg_sector.o
 .rela.text.DRV_Uart_Deinit
                0x00000000        0x0 /cygdrive/c/Airoha/AiroBlueSDK/AB1600_1_0_5_0/projects/Remote/output/pj/components/Device/AB1600/cfg_sector.o
 .rela.text.DRV_Uart_Init
                0x00000000        0x0 /cygdrive/c/Airoha/AiroBlueSDK/AB1600_1_0_5_0/projects/Remote/output/pj/components/Device/AB1600/cfg_sector.o
 .rela.text.DRV_WDT_Disable
                0x00000000        0x0 /cygdrive/c/Airoha/AiroBlueSDK/AB1600_1_0_5_0/projects/Remote/output/pj/components/Device/AB1600/cfg_sector.o
 .rela.text.DRV_WDT_Kick
                0x00000000        0x0 /cygdrive/c/Airoha/AiroBlueSDK/AB1600_1_0_5_0/projects/Remote/output/pj/components/Device/AB1600/cfg_sector.o
 .rela.text.DRV_WDT_LastPC
                0x00000000        0x0 /cygdrive/c/Airoha/AiroBlueSDK/AB1600_1_0_5_0/projects/Remote/output/pj/components/Device/AB1600/cfg_sector.o
 .rela.text.DRV_WDT_Enable
                0x00000000        0x0 /cygdrive/c/Airoha/AiroBlueSDK/AB1600_1_0_5_0/projects/Remote/output/pj/components/Device/AB1600/cfg_sector.o
 .rela.text.BAS_update_battery_level
                0x00000000        0x0 /cygdrive/c/Airoha/AiroBlueSDK/AB1600_1_0_5_0/projects/Remote/output/pj/components/Device/AB1600/cfg_sector.o
 .rela.text.BAS_init
                0x00000000        0x0 /cygdrive/c/Airoha/AiroBlueSDK/AB1600_1_0_5_0/projects/Remote/output/pj/components/Device/AB1600/cfg_sector.o
 .rela.text.OTA_init
                0x00000000        0x0 /cygdrive/c/Airoha/AiroBlueSDK/AB1600_1_0_5_0/projects/Remote/output/pj/components/Device/AB1600/cfg_sector.o
 .rela.text._OTA_read_bootcode_ver
                0x00000000        0x0 /cygdrive/c/Airoha/AiroBlueSDK/AB1600_1_0_5_0/projects/Remote/output/pj/components/Device/AB1600/cfg_sector.o
 .rela.text._OTA_change_area
                0x00000000        0x0 /cygdrive/c/Airoha/AiroBlueSDK/AB1600_1_0_5_0/projects/Remote/output/pj/components/Device/AB1600/cfg_sector.o
 .rela.text._OTA_write_flash
                0x00000000        0x0 /cygdrive/c/Airoha/AiroBlueSDK/AB1600_1_0_5_0/projects/Remote/output/pj/components/Device/AB1600/cfg_sector.o
 .rela.text._OTA_erase_flash
                0x00000000        0x0 /cygdrive/c/Airoha/AiroBlueSDK/AB1600_1_0_5_0/projects/Remote/output/pj/components/Device/AB1600/cfg_sector.o
 .rela.text._OTA_read_status_ex
                0x00000000        0x0 /cygdrive/c/Airoha/AiroBlueSDK/AB1600_1_0_5_0/projects/Remote/output/pj/components/Device/AB1600/cfg_sector.o
 .rela.text._OTA_read_status
                0x00000000        0x0 /cygdrive/c/Airoha/AiroBlueSDK/AB1600_1_0_5_0/projects/Remote/output/pj/components/Device/AB1600/cfg_sector.o
 .rela.text._OTA_command_CB
                0x00000000        0x0 /cygdrive/c/Airoha/AiroBlueSDK/AB1600_1_0_5_0/projects/Remote/output/pj/components/Device/AB1600/cfg_sector.o
 .rela.text._dis_add_char
                0x00000000        0x0 /cygdrive/c/Airoha/AiroBlueSDK/AB1600_1_0_5_0/projects/Remote/output/pj/components/Device/AB1600/cfg_sector.o
 .rela.text.DIS_init
                0x00000000        0x0 /cygdrive/c/Airoha/AiroBlueSDK/AB1600_1_0_5_0/projects/Remote/output/pj/components/Device/AB1600/cfg_sector.o
 .rela.text.GAS_support_privacy_feature
                0x00000000        0x0 /cygdrive/c/Airoha/AiroBlueSDK/AB1600_1_0_5_0/projects/Remote/output/pj/components/Device/AB1600/cfg_sector.o
 .rela.text.GAS_init
                0x00000000        0x0 /cygdrive/c/Airoha/AiroBlueSDK/AB1600_1_0_5_0/projects/Remote/output/pj/components/Device/AB1600/cfg_sector.o
 .rela.text.GATT_service_changed
                0x00000000        0x0 /cygdrive/c/Airoha/AiroBlueSDK/AB1600_1_0_5_0/projects/Remote/output/pj/components/Device/AB1600/cfg_sector.o
 .rela.text.GATT_init
                0x00000000        0x0 /cygdrive/c/Airoha/AiroBlueSDK/AB1600_1_0_5_0/projects/Remote/output/pj/components/Device/AB1600/cfg_sector.o
 .rela.text.HIDS_add_report
                0x00000000        0x0 /cygdrive/c/Airoha/AiroBlueSDK/AB1600_1_0_5_0/projects/Remote/output/pj/components/Device/AB1600/cfg_sector.o
 .rela.text.HIDS_init
                0x00000000        0x0 /cygdrive/c/Airoha/AiroBlueSDK/AB1600_1_0_5_0/projects/Remote/output/pj/components/Device/AB1600/cfg_sector.o
 .rela.text.AB_console_UserInput
                0x00000000        0x0 /cygdrive/c/Airoha/AiroBlueSDK/AB1600_1_0_5_0/projects/Remote/output/pj/components/Device/AB1600/cfg_sector.o
 .rela.text.AB_console_handle
                0x00000000        0x0 /cygdrive/c/Airoha/AiroBlueSDK/AB1600_1_0_5_0/projects/Remote/output/pj/components/Device/AB1600/cfg_sector.o
 .rela.text.AB_console_init
                0x00000000        0x0 /cygdrive/c/Airoha/AiroBlueSDK/AB1600_1_0_5_0/projects/Remote/output/pj/components/Device/AB1600/cfg_sector.o
 .rela.text.shell_parse_line
                0x00000000        0x0 /cygdrive/c/Airoha/AiroBlueSDK/AB1600_1_0_5_0/projects/Remote/output/pj/components/Device/AB1600/cfg_sector.o
 .rela.text.shell_history_save
                0x00000000        0x0 /cygdrive/c/Airoha/AiroBlueSDK/AB1600_1_0_5_0/projects/Remote/output/pj/components/Device/AB1600/cfg_sector.o
 .rela.text.shell_find_cmd
                0x00000000        0x0 /cygdrive/c/Airoha/AiroBlueSDK/AB1600_1_0_5_0/projects/Remote/output/pj/components/Device/AB1600/cfg_sector.o
 .rela.text.shell_printf
                0x00000000        0x0 /cygdrive/c/Airoha/AiroBlueSDK/AB1600_1_0_5_0/projects/Remote/output/pj/components/Device/AB1600/cfg_sector.o
 .rela.text.shell_history_search
                0x00000000        0x0 /cygdrive/c/Airoha/AiroBlueSDK/AB1600_1_0_5_0/projects/Remote/output/pj/components/Device/AB1600/cfg_sector.o
 .rela.text.shell_show_title
                0x00000000        0x0 /cygdrive/c/Airoha/AiroBlueSDK/AB1600_1_0_5_0/projects/Remote/output/pj/components/Device/AB1600/cfg_sector.o
 .rela.text.AB_shell_main_loop
                0x00000000        0x0 /cygdrive/c/Airoha/AiroBlueSDK/AB1600_1_0_5_0/projects/Remote/output/pj/components/Device/AB1600/cfg_sector.o
 .rela.text.AB_Debug_CpuExceptionMonitor
                0x00000000        0x0 /cygdrive/c/Airoha/AiroBlueSDK/AB1600_1_0_5_0/projects/Remote/output/pj/components/Device/AB1600/cfg_sector.o
 .rela.text.exception8
                0x00000000        0x0 /cygdrive/c/Airoha/AiroBlueSDK/AB1600_1_0_5_0/projects/Remote/output/pj/components/Device/AB1600/cfg_sector.o
 .rela.text.exception7
                0x00000000        0x0 /cygdrive/c/Airoha/AiroBlueSDK/AB1600_1_0_5_0/projects/Remote/output/pj/components/Device/AB1600/cfg_sector.o
 .rela.text.exception6
                0x00000000        0x0 /cygdrive/c/Airoha/AiroBlueSDK/AB1600_1_0_5_0/projects/Remote/output/pj/components/Device/AB1600/cfg_sector.o
 .rela.text.exception5
                0x00000000        0x0 /cygdrive/c/Airoha/AiroBlueSDK/AB1600_1_0_5_0/projects/Remote/output/pj/components/Device/AB1600/cfg_sector.o
 .rela.text.exception4
                0x00000000        0x0 /cygdrive/c/Airoha/AiroBlueSDK/AB1600_1_0_5_0/projects/Remote/output/pj/components/Device/AB1600/cfg_sector.o
 .rela.text.exception3
                0x00000000        0x0 /cygdrive/c/Airoha/AiroBlueSDK/AB1600_1_0_5_0/projects/Remote/output/pj/components/Device/AB1600/cfg_sector.o
 .rela.text.exception2
                0x00000000        0x0 /cygdrive/c/Airoha/AiroBlueSDK/AB1600_1_0_5_0/projects/Remote/output/pj/components/Device/AB1600/cfg_sector.o
 .rela.text.exception1
                0x00000000        0x0 /cygdrive/c/Airoha/AiroBlueSDK/AB1600_1_0_5_0/projects/Remote/output/pj/components/Device/AB1600/cfg_sector.o
 .rela.text.AB_DFU_set_active_code_area
                0x00000000        0x0 /cygdrive/c/Airoha/AiroBlueSDK/AB1600_1_0_5_0/projects/Remote/output/pj/components/Device/AB1600/cfg_sector.o
 .rela.text.AB_DFU_write_flash
                0x00000000        0x0 /cygdrive/c/Airoha/AiroBlueSDK/AB1600_1_0_5_0/projects/Remote/output/pj/components/Device/AB1600/cfg_sector.o
 .rela.text.AB_DFU_erase_flash
                0x00000000        0x0 /cygdrive/c/Airoha/AiroBlueSDK/AB1600_1_0_5_0/projects/Remote/output/pj/components/Device/AB1600/cfg_sector.o
 .rela.text.AB_module_enum_by_name_next
                0x00000000        0x0 /cygdrive/c/Airoha/AiroBlueSDK/AB1600_1_0_5_0/projects/Remote/output/pj/components/Device/AB1600/cfg_sector.o
 .rela.text.AB_module_count
                0x00000000        0x0 /cygdrive/c/Airoha/AiroBlueSDK/AB1600_1_0_5_0/projects/Remote/output/pj/components/Device/AB1600/cfg_sector.o
 .rela.text.hci_h4_decode
                0x00000000        0x0 /cygdrive/c/Airoha/AiroBlueSDK/AB1600_1_0_5_0/projects/Remote/output/pj/components/Device/AB1600/cfg_sector.o
 .rela.text.hci_h4_encode_dat
                0x00000000        0x0 /cygdrive/c/Airoha/AiroBlueSDK/AB1600_1_0_5_0/projects/Remote/output/pj/components/Device/AB1600/cfg_sector.o
 .rela.text.hci_h4_encode_cmd
                0x00000000        0x0 /cygdrive/c/Airoha/AiroBlueSDK/AB1600_1_0_5_0/projects/Remote/output/pj/components/Device/AB1600/cfg_sector.o
 .rela.text.BT_Log_Enable
                0x00000000        0x0 /cygdrive/c/Airoha/AiroBlueSDK/AB1600_1_0_5_0/projects/Remote/output/pj/components/Device/AB1600/cfg_sector.o
 .rela.text.BT_Pause_Tx
                0x00000000        0x0 /cygdrive/c/Airoha/AiroBlueSDK/AB1600_1_0_5_0/projects/Remote/output/pj/components/Device/AB1600/cfg_sector.o
 .rela.text.BT_Pending_TxCnt
                0x00000000        0x0 /cygdrive/c/Airoha/AiroBlueSDK/AB1600_1_0_5_0/projects/Remote/output/pj/components/Device/AB1600/cfg_sector.o
 .rela.text.BT_InitEx2
                0x00000000        0x0 /cygdrive/c/Airoha/AiroBlueSDK/AB1600_1_0_5_0/projects/Remote/output/pj/components/Device/AB1600/cfg_sector.o
 .rela.text.hci_init_done
                0x00000000        0x0 /cygdrive/c/Airoha/AiroBlueSDK/AB1600_1_0_5_0/projects/Remote/output/pj/components/Device/AB1600/cfg_sector.o
 .rela.text.bt_init_read_buf_size
                0x00000000        0x0 /cygdrive/c/Airoha/AiroBlueSDK/AB1600_1_0_5_0/projects/Remote/output/pj/components/Device/AB1600/cfg_sector.o
 .rela.text.ble_gap_disable_latency
                0x00000000        0x0 /cygdrive/c/Airoha/AiroBlueSDK/AB1600_1_0_5_0/projects/Remote/output/pj/components/Device/AB1600/cfg_sector.o
 .rela.text.ble_gap_remote_version
                0x00000000        0x0 /cygdrive/c/Airoha/AiroBlueSDK/AB1600_1_0_5_0/projects/Remote/output/pj/components/Device/AB1600/cfg_sector.o
 .rela.text.ble_gap_disconnect
                0x00000000        0x0 /cygdrive/c/Airoha/AiroBlueSDK/AB1600_1_0_5_0/projects/Remote/output/pj/components/Device/AB1600/cfg_sector.o
 .rela.text.ble_gap_init
                0x00000000        0x0 /cygdrive/c/Airoha/AiroBlueSDK/AB1600_1_0_5_0/projects/Remote/output/pj/components/Device/AB1600/cfg_sector.o
 .rela.text.ble_gap_connect_cancel
                0x00000000        0x0 /cygdrive/c/Airoha/AiroBlueSDK/AB1600_1_0_5_0/projects/Remote/output/pj/components/Device/AB1600/cfg_sector.o
 .rela.text.ble_gap_scan_stop
                0x00000000        0x0 /cygdrive/c/Airoha/AiroBlueSDK/AB1600_1_0_5_0/projects/Remote/output/pj/components/Device/AB1600/cfg_sector.o
 .rela.text.ble_gap_tx_power_set
                0x00000000        0x0 /cygdrive/c/Airoha/AiroBlueSDK/AB1600_1_0_5_0/projects/Remote/output/pj/components/Device/AB1600/cfg_sector.o
 .rela.text.ble_gap_adv_stop
                0x00000000        0x0 /cygdrive/c/Airoha/AiroBlueSDK/AB1600_1_0_5_0/projects/Remote/output/pj/components/Device/AB1600/cfg_sector.o
 .rela.text.set_adv_parm_cb
                0x00000000        0x0 /cygdrive/c/Airoha/AiroBlueSDK/AB1600_1_0_5_0/projects/Remote/output/pj/components/Device/AB1600/cfg_sector.o
 .rela.text.gap_init_cb
                0x00000000        0x0 /cygdrive/c/Airoha/AiroBlueSDK/AB1600_1_0_5_0/projects/Remote/output/pj/components/Device/AB1600/cfg_sector.o
 .rela.text.ble_gap_scan_set_parameter
                0x00000000        0x0 /cygdrive/c/Airoha/AiroBlueSDK/AB1600_1_0_5_0/projects/Remote/output/pj/components/Device/AB1600/cfg_sector.o
 .rela.text.ble_gap_start_encrypt
                0x00000000        0x0 /cygdrive/c/Airoha/AiroBlueSDK/AB1600_1_0_5_0/projects/Remote/output/pj/components/Device/AB1600/cfg_sector.o
 .rela.text.ble_gap_pub_address_get
                0x00000000        0x0 /cygdrive/c/Airoha/AiroBlueSDK/AB1600_1_0_5_0/projects/Remote/output/pj/components/Device/AB1600/cfg_sector.o
 .rela.text.ble_gap_add_whitelist
                0x00000000        0x0 /cygdrive/c/Airoha/AiroBlueSDK/AB1600_1_0_5_0/projects/Remote/output/pj/components/Device/AB1600/cfg_sector.o
 .rela.text.ble_gap_scan_start
                0x00000000        0x0 /cygdrive/c/Airoha/AiroBlueSDK/AB1600_1_0_5_0/projects/Remote/output/pj/components/Device/AB1600/cfg_sector.o
 .rela.text.ble_gap_address_set
                0x00000000        0x0 /cygdrive/c/Airoha/AiroBlueSDK/AB1600_1_0_5_0/projects/Remote/output/pj/components/Device/AB1600/cfg_sector.o
 .rela.text.set_clear_wlst_cb
                0x00000000        0x0 /cygdrive/c/Airoha/AiroBlueSDK/AB1600_1_0_5_0/projects/Remote/output/pj/components/Device/AB1600/cfg_sector.o
 .rela.text.set_add_wlst_cb
                0x00000000        0x0 /cygdrive/c/Airoha/AiroBlueSDK/AB1600_1_0_5_0/projects/Remote/output/pj/components/Device/AB1600/cfg_sector.o
 .rela.text.set_scan_parm_cb
                0x00000000        0x0 /cygdrive/c/Airoha/AiroBlueSDK/AB1600_1_0_5_0/projects/Remote/output/pj/components/Device/AB1600/cfg_sector.o
 .rela.text.ble_gap_connect
                0x00000000        0x0 /cygdrive/c/Airoha/AiroBlueSDK/AB1600_1_0_5_0/projects/Remote/output/pj/components/Device/AB1600/cfg_sector.o
 .rela.text.ble_gap_conn_param_update
                0x00000000        0x0 /cygdrive/c/Airoha/AiroBlueSDK/AB1600_1_0_5_0/projects/Remote/output/pj/components/Device/AB1600/cfg_sector.o
 .rela.text.ble_gap_adv_start
                0x00000000        0x0 /cygdrive/c/Airoha/AiroBlueSDK/AB1600_1_0_5_0/projects/Remote/output/pj/components/Device/AB1600/cfg_sector.o
 .rela.text.ble_gap_adv_set_parameter
                0x00000000        0x0 /cygdrive/c/Airoha/AiroBlueSDK/AB1600_1_0_5_0/projects/Remote/output/pj/components/Device/AB1600/cfg_sector.o
 .rela.text.ble_gap_scan_data_set
                0x00000000        0x0 /cygdrive/c/Airoha/AiroBlueSDK/AB1600_1_0_5_0/projects/Remote/output/pj/components/Device/AB1600/cfg_sector.o
 .rela.text.ble_gap_adv_data_set
                0x00000000        0x0 /cygdrive/c/Airoha/AiroBlueSDK/AB1600_1_0_5_0/projects/Remote/output/pj/components/Device/AB1600/cfg_sector.o
 .rela.text.ble_gap_random_address_get
                0x00000000        0x0 /cygdrive/c/Airoha/AiroBlueSDK/AB1600_1_0_5_0/projects/Remote/output/pj/components/Device/AB1600/cfg_sector.o
 .rela.text.ble_gap_event_handler
                0x00000000        0x0 /cygdrive/c/Airoha/AiroBlueSDK/AB1600_1_0_5_0/projects/Remote/output/pj/components/Device/AB1600/cfg_sector.o
 .rela.text.ble_gap_link_GetAttr_OwnerAddr
                0x00000000        0x0 /cygdrive/c/Airoha/AiroBlueSDK/AB1600_1_0_5_0/projects/Remote/output/pj/components/Device/AB1600/cfg_sector.o
 .rela.text.ble_gap_link_SetAttr_Clear
                0x00000000        0x0 /cygdrive/c/Airoha/AiroBlueSDK/AB1600_1_0_5_0/projects/Remote/output/pj/components/Device/AB1600/cfg_sector.o
 .rela.text.ble_gap_link_SetAttr_BdAddr
                0x00000000        0x0 /cygdrive/c/Airoha/AiroBlueSDK/AB1600_1_0_5_0/projects/Remote/output/pj/components/Device/AB1600/cfg_sector.o
 .rela.text.ble_gap_link_GetIdx_ByBdAddr
                0x00000000        0x0 /cygdrive/c/Airoha/AiroBlueSDK/AB1600_1_0_5_0/projects/Remote/output/pj/components/Device/AB1600/cfg_sector.o
 .rela.text.ble_gap_link_Add_Ex
                0x00000000        0x0 /cygdrive/c/Airoha/AiroBlueSDK/AB1600_1_0_5_0/projects/Remote/output/pj/components/Device/AB1600/cfg_sector.o
 .rela.text.BLE_gap_sm_init
                0x00000000        0x0 /cygdrive/c/Airoha/AiroBlueSDK/AB1600_1_0_5_0/projects/Remote/output/pj/components/Device/AB1600/cfg_sector.o
 .rela.text.BLE_gap_sm_get_peer_ltk
                0x00000000        0x0 /cygdrive/c/Airoha/AiroBlueSDK/AB1600_1_0_5_0/projects/Remote/output/pj/components/Device/AB1600/cfg_sector.o
 .rela.text.BLE_gap_sm_get_ltk
                0x00000000        0x0 /cygdrive/c/Airoha/AiroBlueSDK/AB1600_1_0_5_0/projects/Remote/output/pj/components/Device/AB1600/cfg_sector.o
 .rela.text.BLE_gap_sm_send_keypress_notification_request
                0x00000000        0x0 /cygdrive/c/Airoha/AiroBlueSDK/AB1600_1_0_5_0/projects/Remote/output/pj/components/Device/AB1600/cfg_sector.o
 .rela.text.BLE_gap_sm_OOB_response
                0x00000000        0x0 /cygdrive/c/Airoha/AiroBlueSDK/AB1600_1_0_5_0/projects/Remote/output/pj/components/Device/AB1600/cfg_sector.o
 .rela.text.BLE_gap_sm_passkey_response
                0x00000000        0x0 /cygdrive/c/Airoha/AiroBlueSDK/AB1600_1_0_5_0/projects/Remote/output/pj/components/Device/AB1600/cfg_sector.o
 .rela.text.BLE_gap_sm_get_last_paired_device
                0x00000000        0x0 /cygdrive/c/Airoha/AiroBlueSDK/AB1600_1_0_5_0/projects/Remote/output/pj/components/Device/AB1600/cfg_sector.o
 .rela.text.BLE_gap_sm_is_device_bonded
                0x00000000        0x0 /cygdrive/c/Airoha/AiroBlueSDK/AB1600_1_0_5_0/projects/Remote/output/pj/components/Device/AB1600/cfg_sector.o
 .rela.text.BLE_gap_sm_delete_paired_record
                0x00000000        0x0 /cygdrive/c/Airoha/AiroBlueSDK/AB1600_1_0_5_0/projects/Remote/output/pj/components/Device/AB1600/cfg_sector.o
 .rela.text.BLE_gap_sm_set_security_param
                0x00000000        0x0 /cygdrive/c/Airoha/AiroBlueSDK/AB1600_1_0_5_0/projects/Remote/output/pj/components/Device/AB1600/cfg_sector.o
 .rela.text.BLE_gap_sm_disconnected
                0x00000000        0x0 /cygdrive/c/Airoha/AiroBlueSDK/AB1600_1_0_5_0/projects/Remote/output/pj/components/Device/AB1600/cfg_sector.o
 .rela.text.BLE_gap_sm_set_link_auth
                0x00000000        0x0 /cygdrive/c/Airoha/AiroBlueSDK/AB1600_1_0_5_0/projects/Remote/output/pj/components/Device/AB1600/cfg_sector.o
 .rela.text.BLE_gap_sm_authenticate
                0x00000000        0x0 /cygdrive/c/Airoha/AiroBlueSDK/AB1600_1_0_5_0/projects/Remote/output/pj/components/Device/AB1600/cfg_sector.o
 .rela.text.BLE_gap_sm_encryption_change
                0x00000000        0x0 /cygdrive/c/Airoha/AiroBlueSDK/AB1600_1_0_5_0/projects/Remote/output/pj/components/Device/AB1600/cfg_sector.o
 .rela.text.BLE_gap_sm_ltk_request
                0x00000000        0x0 /cygdrive/c/Airoha/AiroBlueSDK/AB1600_1_0_5_0/projects/Remote/output/pj/components/Device/AB1600/cfg_sector.o
 .rela.text.BLE_gap_sm_gen_dhkey_complete
                0x00000000        0x0 /cygdrive/c/Airoha/AiroBlueSDK/AB1600_1_0_5_0/projects/Remote/output/pj/components/Device/AB1600/cfg_sector.o
 .rela.text.BLE_gap_sm_read_public_key_complete
                0x00000000        0x0 /cygdrive/c/Airoha/AiroBlueSDK/AB1600_1_0_5_0/projects/Remote/output/pj/components/Device/AB1600/cfg_sector.o
 .rela.text.l2cap_find_cidcb
                0x00000000        0x0 /cygdrive/c/Airoha/AiroBlueSDK/AB1600_1_0_5_0/projects/Remote/output/pj/components/Device/AB1600/cfg_sector.o
 .rela.text.l2cap_notify
                0x00000000        0x0 /cygdrive/c/Airoha/AiroBlueSDK/AB1600_1_0_5_0/projects/Remote/output/pj/components/Device/AB1600/cfg_sector.o
 .rela.text.l2cap_deinit
                0x00000000        0x0 /cygdrive/c/Airoha/AiroBlueSDK/AB1600_1_0_5_0/projects/Remote/output/pj/components/Device/AB1600/cfg_sector.o
 .rela.text.l2cap_init
                0x00000000        0x0 /cygdrive/c/Airoha/AiroBlueSDK/AB1600_1_0_5_0/projects/Remote/output/pj/components/Device/AB1600/cfg_sector.o
 .rela.text.l2cap_hci_fragment
                0x00000000        0x0 /cygdrive/c/Airoha/AiroBlueSDK/AB1600_1_0_5_0/projects/Remote/output/pj/components/Device/AB1600/cfg_sector.o
 .rela.text.l2cap_hci_recombine
                0x00000000        0x0 /cygdrive/c/Airoha/AiroBlueSDK/AB1600_1_0_5_0/projects/Remote/output/pj/components/Device/AB1600/cfg_sector.o
 .rela.text.l2cap_lesig_conn_param_update_req
                0x00000000        0x0 /cygdrive/c/Airoha/AiroBlueSDK/AB1600_1_0_5_0/projects/Remote/output/pj/components/Device/AB1600/cfg_sector.o
 .rela.text.le_sig_cid_evt_cb
                0x00000000        0x0 /cygdrive/c/Airoha/AiroBlueSDK/AB1600_1_0_5_0/projects/Remote/output/pj/components/Device/AB1600/cfg_sector.o
 .rela.text.ATT_transaction_timeout_cb
                0x00000000        0x0 /cygdrive/c/Airoha/AiroBlueSDK/AB1600_1_0_5_0/projects/Remote/output/pj/components/Device/AB1600/cfg_sector.o
 .rela.text.ATT_is_transaction_TO
                0x00000000        0x0 /cygdrive/c/Airoha/AiroBlueSDK/AB1600_1_0_5_0/projects/Remote/output/pj/components/Device/AB1600/cfg_sector.o
 .rela.text.ATT_is_in_transaction
                0x00000000        0x0 /cygdrive/c/Airoha/AiroBlueSDK/AB1600_1_0_5_0/projects/Remote/output/pj/components/Device/AB1600/cfg_sector.o
 .rela.text.ATT_BinarySearchIndexByHandle
                0x00000000        0x0 /cygdrive/c/Airoha/AiroBlueSDK/AB1600_1_0_5_0/projects/Remote/output/pj/components/Device/AB1600/cfg_sector.o
 .rela.text.ATT_CheckHandle
                0x00000000        0x0 /cygdrive/c/Airoha/AiroBlueSDK/AB1600_1_0_5_0/projects/Remote/output/pj/components/Device/AB1600/cfg_sector.o
 .rela.text.ATT_CALLBACK
                0x00000000        0x0 /cygdrive/c/Airoha/AiroBlueSDK/AB1600_1_0_5_0/projects/Remote/output/pj/components/Device/AB1600/cfg_sector.o
 .rela.text.ATT_ReturnGroupEndIndex
                0x00000000        0x0 /cygdrive/c/Airoha/AiroBlueSDK/AB1600_1_0_5_0/projects/Remote/output/pj/components/Device/AB1600/cfg_sector.o
 .rela.text.ATT_FindServerIndexByAddr
                0x00000000        0x0 /cygdrive/c/Airoha/AiroBlueSDK/AB1600_1_0_5_0/projects/Remote/output/pj/components/Device/AB1600/cfg_sector.o
 .rela.text.ATT_GetCurrentMTUSize
                0x00000000        0x0 /cygdrive/c/Airoha/AiroBlueSDK/AB1600_1_0_5_0/projects/Remote/output/pj/components/Device/AB1600/cfg_sector.o
 .rela.text.BLE_att_get_attribute_length
                0x00000000        0x0 /cygdrive/c/Airoha/AiroBlueSDK/AB1600_1_0_5_0/projects/Remote/output/pj/components/Device/AB1600/cfg_sector.o
 .rela.text.BLE_att_get_attribute_data_ptr
                0x00000000        0x0 /cygdrive/c/Airoha/AiroBlueSDK/AB1600_1_0_5_0/projects/Remote/output/pj/components/Device/AB1600/cfg_sector.o
 .rela.text.ATT_ConvertToUUID128
                0x00000000        0x0 /cygdrive/c/Airoha/AiroBlueSDK/AB1600_1_0_5_0/projects/Remote/output/pj/components/Device/AB1600/cfg_sector.o
 .rela.text.ATT_ReleasePWQ
                0x00000000        0x0 /cygdrive/c/Airoha/AiroBlueSDK/AB1600_1_0_5_0/projects/Remote/output/pj/components/Device/AB1600/cfg_sector.o
 .rela.text.ATT_AllocRspDataPdu
                0x00000000        0x0 /cygdrive/c/Airoha/AiroBlueSDK/AB1600_1_0_5_0/projects/Remote/output/pj/components/Device/AB1600/cfg_sector.o
 .rela.text.ATT_ChangeAttributeValueLength
                0x00000000        0x0 /cygdrive/c/Airoha/AiroBlueSDK/AB1600_1_0_5_0/projects/Remote/output/pj/components/Device/AB1600/cfg_sector.o
 .rela.text.ATT_ChangeAttributeValueDataPtr
                0x00000000        0x0 /cygdrive/c/Airoha/AiroBlueSDK/AB1600_1_0_5_0/projects/Remote/output/pj/components/Device/AB1600/cfg_sector.o
 .rela.text.ATT_GetAttributeValueCurrentLen
                0x00000000        0x0 /cygdrive/c/Airoha/AiroBlueSDK/AB1600_1_0_5_0/projects/Remote/output/pj/components/Device/AB1600/cfg_sector.o
 .rela.text.ATT_CheckAccessPermission
                0x00000000        0x0 /cygdrive/c/Airoha/AiroBlueSDK/AB1600_1_0_5_0/projects/Remote/output/pj/components/Device/AB1600/cfg_sector.o
 .rela.text.ATT_CheckWritePermission
                0x00000000        0x0 /cygdrive/c/Airoha/AiroBlueSDK/AB1600_1_0_5_0/projects/Remote/output/pj/components/Device/AB1600/cfg_sector.o
 .rela.text.ATT_CheckReadPermission
                0x00000000        0x0 /cygdrive/c/Airoha/AiroBlueSDK/AB1600_1_0_5_0/projects/Remote/output/pj/components/Device/AB1600/cfg_sector.o
 .rela.text.ATT_IsSameValue
                0x00000000        0x0 /cygdrive/c/Airoha/AiroBlueSDK/AB1600_1_0_5_0/projects/Remote/output/pj/components/Device/AB1600/cfg_sector.o
 .rela.text.BLE_att_set_attribute_data_ptr
                0x00000000        0x0 /cygdrive/c/Airoha/AiroBlueSDK/AB1600_1_0_5_0/projects/Remote/output/pj/components/Device/AB1600/cfg_sector.o
 .rela.text.BLE_att_set_attribute_length
                0x00000000        0x0 /cygdrive/c/Airoha/AiroBlueSDK/AB1600_1_0_5_0/projects/Remote/output/pj/components/Device/AB1600/cfg_sector.o
 .rela.text.ATT_end_transaction
                0x00000000        0x0 /cygdrive/c/Airoha/AiroBlueSDK/AB1600_1_0_5_0/projects/Remote/output/pj/components/Device/AB1600/cfg_sector.o
 .rela.text.ATT_ServerGetConfirmation
                0x00000000        0x0 /cygdrive/c/Airoha/AiroBlueSDK/AB1600_1_0_5_0/projects/Remote/output/pj/components/Device/AB1600/cfg_sector.o
 .rela.text.ATT_start_transaction
                0x00000000        0x0 /cygdrive/c/Airoha/AiroBlueSDK/AB1600_1_0_5_0/projects/Remote/output/pj/components/Device/AB1600/cfg_sector.o
 .rela.text.ATT_SendPduToL2CAP
                0x00000000        0x0 /cygdrive/c/Airoha/AiroBlueSDK/AB1600_1_0_5_0/projects/Remote/output/pj/components/Device/AB1600/cfg_sector.o
 .rela.text.ATT_ServerGetExecuteWriteReq
                0x00000000        0x0 /cygdrive/c/Airoha/AiroBlueSDK/AB1600_1_0_5_0/projects/Remote/output/pj/components/Device/AB1600/cfg_sector.o
 .rela.text.ATT_ServerGetPrepareWriteReq
                0x00000000        0x0 /cygdrive/c/Airoha/AiroBlueSDK/AB1600_1_0_5_0/projects/Remote/output/pj/components/Device/AB1600/cfg_sector.o
 .rela.text.ATT_ServerGetWriteMux
                0x00000000        0x0 /cygdrive/c/Airoha/AiroBlueSDK/AB1600_1_0_5_0/projects/Remote/output/pj/components/Device/AB1600/cfg_sector.o
 .rela.text.ATT_ServerGetReadByGroupTypeReq
                0x00000000        0x0 /cygdrive/c/Airoha/AiroBlueSDK/AB1600_1_0_5_0/projects/Remote/output/pj/components/Device/AB1600/cfg_sector.o
 .rela.text.ATT_ServerGetReadMultiReq
                0x00000000        0x0 /cygdrive/c/Airoha/AiroBlueSDK/AB1600_1_0_5_0/projects/Remote/output/pj/components/Device/AB1600/cfg_sector.o
 .rela.text.ATT_ServerGetReadBlobReq
                0x00000000        0x0 /cygdrive/c/Airoha/AiroBlueSDK/AB1600_1_0_5_0/projects/Remote/output/pj/components/Device/AB1600/cfg_sector.o
 .rela.text.ATT_ServerGetReadValueReq
                0x00000000        0x0 /cygdrive/c/Airoha/AiroBlueSDK/AB1600_1_0_5_0/projects/Remote/output/pj/components/Device/AB1600/cfg_sector.o
 .rela.text.ATT_ServerGetReadByTypeReq
                0x00000000        0x0 /cygdrive/c/Airoha/AiroBlueSDK/AB1600_1_0_5_0/projects/Remote/output/pj/components/Device/AB1600/cfg_sector.o
 .rela.text.ATT_ServerGetFindByTypeValueReq
                0x00000000        0x0 /cygdrive/c/Airoha/AiroBlueSDK/AB1600_1_0_5_0/projects/Remote/output/pj/components/Device/AB1600/cfg_sector.o
 .rela.text.ATT_ServerGetFindInfoReq
                0x00000000        0x0 /cygdrive/c/Airoha/AiroBlueSDK/AB1600_1_0_5_0/projects/Remote/output/pj/components/Device/AB1600/cfg_sector.o
 .rela.text.ATT_ServerGetMtuExchangeReq
                0x00000000        0x0 /cygdrive/c/Airoha/AiroBlueSDK/AB1600_1_0_5_0/projects/Remote/output/pj/components/Device/AB1600/cfg_sector.o
 .rela.text.ATT_HandleValueReportMux
                0x00000000        0x0 /cygdrive/c/Airoha/AiroBlueSDK/AB1600_1_0_5_0/projects/Remote/output/pj/components/Device/AB1600/cfg_sector.o
 .rela.text.att_init
                0x00000000        0x0 /cygdrive/c/Airoha/AiroBlueSDK/AB1600_1_0_5_0/projects/Remote/output/pj/components/Device/AB1600/cfg_sector.o
 .rela.text.ATT_cid_evt_cb
                0x00000000        0x0 /cygdrive/c/Airoha/AiroBlueSDK/AB1600_1_0_5_0/projects/Remote/output/pj/components/Device/AB1600/cfg_sector.o
 .rela.text._ble_cccd_common_cb
                0x00000000        0x0 /cygdrive/c/Airoha/AiroBlueSDK/AB1600_1_0_5_0/projects/Remote/output/pj/components/Device/AB1600/cfg_sector.o
 .rela.text.BLE_gatt_charact_indicate
                0x00000000        0x0 /cygdrive/c/Airoha/AiroBlueSDK/AB1600_1_0_5_0/projects/Remote/output/pj/components/Device/AB1600/cfg_sector.o
 .rela.text.BLE_gatt_charact_notify
                0x00000000        0x0 /cygdrive/c/Airoha/AiroBlueSDK/AB1600_1_0_5_0/projects/Remote/output/pj/components/Device/AB1600/cfg_sector.o
 .rela.text._ble_gatt_set_uuid
                0x00000000        0x0 /cygdrive/c/Airoha/AiroBlueSDK/AB1600_1_0_5_0/projects/Remote/output/pj/components/Device/AB1600/cfg_sector.o
 .rela.text._ble_gatt_new_attribute
                0x00000000        0x0 /cygdrive/c/Airoha/AiroBlueSDK/AB1600_1_0_5_0/projects/Remote/output/pj/components/Device/AB1600/cfg_sector.o
 .rela.text.BLE_gatt_add_charact
                0x00000000        0x0 /cygdrive/c/Airoha/AiroBlueSDK/AB1600_1_0_5_0/projects/Remote/output/pj/components/Device/AB1600/cfg_sector.o
 .rela.text.BLE_gatt_add_include
                0x00000000        0x0 /cygdrive/c/Airoha/AiroBlueSDK/AB1600_1_0_5_0/projects/Remote/output/pj/components/Device/AB1600/cfg_sector.o
 .rela.text.BLE_gatt_add_service
                0x00000000        0x0 /cygdrive/c/Airoha/AiroBlueSDK/AB1600_1_0_5_0/projects/Remote/output/pj/components/Device/AB1600/cfg_sector.o
 .rela.text._ble_gatt_hook_cccd_and_char
                0x00000000        0x0 /cygdrive/c/Airoha/AiroBlueSDK/AB1600_1_0_5_0/projects/Remote/output/pj/components/Device/AB1600/cfg_sector.o
 .rela.text._ble_gatt_check_cccd
                0x00000000        0x0 /cygdrive/c/Airoha/AiroBlueSDK/AB1600_1_0_5_0/projects/Remote/output/pj/components/Device/AB1600/cfg_sector.o
 .rela.text.is_gatt_procedure_ongoing
                0x00000000        0x0 /cygdrive/c/Airoha/AiroBlueSDK/AB1600_1_0_5_0/projects/Remote/output/pj/components/Device/AB1600/cfg_sector.o
 .rela.text.ble_gatt_evt_init
                0x00000000        0x0 /cygdrive/c/Airoha/AiroBlueSDK/AB1600_1_0_5_0/projects/Remote/output/pj/components/Device/AB1600/cfg_sector.o
 .rela.text.ATT_Client_GetHandleValueReport
                0x00000000        0x0 /cygdrive/c/Airoha/AiroBlueSDK/AB1600_1_0_5_0/projects/Remote/output/pj/components/Device/AB1600/cfg_sector.o
 .rela.text.ble_gatt_evt_extend
                0x00000000        0x0 /cygdrive/c/Airoha/AiroBlueSDK/AB1600_1_0_5_0/projects/Remote/output/pj/components/Device/AB1600/cfg_sector.o
 .rela.text.ble_gatt_client_send_pdu
                0x00000000        0x0 /cygdrive/c/Airoha/AiroBlueSDK/AB1600_1_0_5_0/projects/Remote/output/pj/components/Device/AB1600/cfg_sector.o
 .rela.text.ble_gatt_client_send_prepare_write_req
                0x00000000        0x0 /cygdrive/c/Airoha/AiroBlueSDK/AB1600_1_0_5_0/projects/Remote/output/pj/components/Device/AB1600/cfg_sector.o
 .rela.text.ble_gatt_4_12_4_write_long_char_desc
                0x00000000        0x0 /cygdrive/c/Airoha/AiroBlueSDK/AB1600_1_0_5_0/projects/Remote/output/pj/components/Device/AB1600/cfg_sector.o
 .rela.text.ble_gatt_4_9_5_reliable_writes
                0x00000000        0x0 /cygdrive/c/Airoha/AiroBlueSDK/AB1600_1_0_5_0/projects/Remote/output/pj/components/Device/AB1600/cfg_sector.o
 .rela.text.ble_gatt_4_9_4_write_long_char_value
                0x00000000        0x0 /cygdrive/c/Airoha/AiroBlueSDK/AB1600_1_0_5_0/projects/Remote/output/pj/components/Device/AB1600/cfg_sector.o
 .rela.text.ble_gatt_4_12_2_read_long_char_desc
                0x00000000        0x0 /cygdrive/c/Airoha/AiroBlueSDK/AB1600_1_0_5_0/projects/Remote/output/pj/components/Device/AB1600/cfg_sector.o
 .rela.text.ble_gatt_4_8_3_read_long_char_value
                0x00000000        0x0 /cygdrive/c/Airoha/AiroBlueSDK/AB1600_1_0_5_0/projects/Remote/output/pj/components/Device/AB1600/cfg_sector.o
 .rela.text.ble_gatt_4_12_1_read_char_desc
                0x00000000        0x0 /cygdrive/c/Airoha/AiroBlueSDK/AB1600_1_0_5_0/projects/Remote/output/pj/components/Device/AB1600/cfg_sector.o
 .rela.text.ble_gatt_4_8_1_read_char_value
                0x00000000        0x0 /cygdrive/c/Airoha/AiroBlueSDK/AB1600_1_0_5_0/projects/Remote/output/pj/components/Device/AB1600/cfg_sector.o
 .rela.text.ble_gatt_client_send_read_by_type_req
                0x00000000        0x0 /cygdrive/c/Airoha/AiroBlueSDK/AB1600_1_0_5_0/projects/Remote/output/pj/components/Device/AB1600/cfg_sector.o
 .rela.text.ble_gatt_4_8_2_read_using_char_UUID
                0x00000000        0x0 /cygdrive/c/Airoha/AiroBlueSDK/AB1600_1_0_5_0/projects/Remote/output/pj/components/Device/AB1600/cfg_sector.o
 .rela.text.ble_gatt_4_6_2_disc_chars_by_UUID
                0x00000000        0x0 /cygdrive/c/Airoha/AiroBlueSDK/AB1600_1_0_5_0/projects/Remote/output/pj/components/Device/AB1600/cfg_sector.o
 .rela.text.ble_gatt_4_6_1_disc_all_chars
                0x00000000        0x0 /cygdrive/c/Airoha/AiroBlueSDK/AB1600_1_0_5_0/projects/Remote/output/pj/components/Device/AB1600/cfg_sector.o
 .rela.text.ble_gatt_4_5_1_find_included_services
                0x00000000        0x0 /cygdrive/c/Airoha/AiroBlueSDK/AB1600_1_0_5_0/projects/Remote/output/pj/components/Device/AB1600/cfg_sector.o
 .rela.text.ble_gatt_4_7_1_disc_all_char_descs
                0x00000000        0x0 /cygdrive/c/Airoha/AiroBlueSDK/AB1600_1_0_5_0/projects/Remote/output/pj/components/Device/AB1600/cfg_sector.o
 .rela.text.ble_gatt_4_9_2_signed_write_no_rsp
                0x00000000        0x0 /cygdrive/c/Airoha/AiroBlueSDK/AB1600_1_0_5_0/projects/Remote/output/pj/components/Device/AB1600/cfg_sector.o
 .rela.text.ble_gatt_terminate_procedure
                0x00000000        0x0 /cygdrive/c/Airoha/AiroBlueSDK/AB1600_1_0_5_0/projects/Remote/output/pj/components/Device/AB1600/cfg_sector.o
 .rela.text.ble_gatt_4_9_1_write_no_rsp
                0x00000000        0x0 /cygdrive/c/Airoha/AiroBlueSDK/AB1600_1_0_5_0/projects/Remote/output/pj/components/Device/AB1600/cfg_sector.o
 .rela.text.ble_gatt_write_long_char_value_cb
                0x00000000        0x0 /cygdrive/c/Airoha/AiroBlueSDK/AB1600_1_0_5_0/projects/Remote/output/pj/components/Device/AB1600/cfg_sector.o
 .rela.text.ble_gatt_read_multi_char_values_cb
                0x00000000        0x0 /cygdrive/c/Airoha/AiroBlueSDK/AB1600_1_0_5_0/projects/Remote/output/pj/components/Device/AB1600/cfg_sector.o
 .rela.text.ble_gatt_read_long_char_value_cb
                0x00000000        0x0 /cygdrive/c/Airoha/AiroBlueSDK/AB1600_1_0_5_0/projects/Remote/output/pj/components/Device/AB1600/cfg_sector.o
 .rela.text.ble_gatt_read_using_char_UUID_cb
                0x00000000        0x0 /cygdrive/c/Airoha/AiroBlueSDK/AB1600_1_0_5_0/projects/Remote/output/pj/components/Device/AB1600/cfg_sector.o
 .rela.text.ble_gatt_read_char_value_cb
                0x00000000        0x0 /cygdrive/c/Airoha/AiroBlueSDK/AB1600_1_0_5_0/projects/Remote/output/pj/components/Device/AB1600/cfg_sector.o
 .rela.text.ble_gatt_disc_all_char_descs_cb
                0x00000000        0x0 /cygdrive/c/Airoha/AiroBlueSDK/AB1600_1_0_5_0/projects/Remote/output/pj/components/Device/AB1600/cfg_sector.o
 .rela.text.ble_gatt_disc_all_chars_cb
                0x00000000        0x0 /cygdrive/c/Airoha/AiroBlueSDK/AB1600_1_0_5_0/projects/Remote/output/pj/components/Device/AB1600/cfg_sector.o
 .rela.text.ble_gatt_find_included_services_cb
                0x00000000        0x0 /cygdrive/c/Airoha/AiroBlueSDK/AB1600_1_0_5_0/projects/Remote/output/pj/components/Device/AB1600/cfg_sector.o
 .rela.text.ble_gatt_exchange_mtu_cb
                0x00000000        0x0 /cygdrive/c/Airoha/AiroBlueSDK/AB1600_1_0_5_0/projects/Remote/output/pj/components/Device/AB1600/cfg_sector.o
 .rela.text.ble_gatt_reliable_writes_cb
                0x00000000        0x0 /cygdrive/c/Airoha/AiroBlueSDK/AB1600_1_0_5_0/projects/Remote/output/pj/components/Device/AB1600/cfg_sector.o
 .rela.text.ble_gatt_disc_chars_by_UUID_cb
                0x00000000        0x0 /cygdrive/c/Airoha/AiroBlueSDK/AB1600_1_0_5_0/projects/Remote/output/pj/components/Device/AB1600/cfg_sector.o
 .rela.text.T.119
                0x00000000        0x0 /cygdrive/c/Airoha/AiroBlueSDK/AB1600_1_0_5_0/projects/Remote/output/pj/components/Device/AB1600/cfg_sector.o
 .rela.text.ble_gatt_4_9_3_write_char_value
                0x00000000        0x0 /cygdrive/c/Airoha/AiroBlueSDK/AB1600_1_0_5_0/projects/Remote/output/pj/components/Device/AB1600/cfg_sector.o
 .rela.text.ble_gatt_4_12_3_write_char_desc
                0x00000000        0x0 /cygdrive/c/Airoha/AiroBlueSDK/AB1600_1_0_5_0/projects/Remote/output/pj/components/Device/AB1600/cfg_sector.o
 .rela.text.ble_gatt_4_3_1_exchange_mtu
                0x00000000        0x0 /cygdrive/c/Airoha/AiroBlueSDK/AB1600_1_0_5_0/projects/Remote/output/pj/components/Device/AB1600/cfg_sector.o
 .rela.text.ble_gatt_disc_all_primary_services_cb
                0x00000000        0x0 /cygdrive/c/Airoha/AiroBlueSDK/AB1600_1_0_5_0/projects/Remote/output/pj/components/Device/AB1600/cfg_sector.o
 .rela.text.ble_gatt_4_4_1_disc_all_primary_services
                0x00000000        0x0 /cygdrive/c/Airoha/AiroBlueSDK/AB1600_1_0_5_0/projects/Remote/output/pj/components/Device/AB1600/cfg_sector.o
 .rela.text.ble_gatt_4_8_4_read_multi_char_values
                0x00000000        0x0 /cygdrive/c/Airoha/AiroBlueSDK/AB1600_1_0_5_0/projects/Remote/output/pj/components/Device/AB1600/cfg_sector.o
 .rela.text.T.123
                0x00000000        0x0 /cygdrive/c/Airoha/AiroBlueSDK/AB1600_1_0_5_0/projects/Remote/output/pj/components/Device/AB1600/cfg_sector.o
 .rela.text.ble_gatt_disc_primary_service_by_UUID_cb
                0x00000000        0x0 /cygdrive/c/Airoha/AiroBlueSDK/AB1600_1_0_5_0/projects/Remote/output/pj/components/Device/AB1600/cfg_sector.o
 .rela.text.ble_gatt_4_4_2_disc_primary_service_by_UUID
                0x00000000        0x0 /cygdrive/c/Airoha/AiroBlueSDK/AB1600_1_0_5_0/projects/Remote/output/pj/components/Device/AB1600/cfg_sector.o
 .rela.text.sm_init
                0x00000000        0x0 /cygdrive/c/Airoha/AiroBlueSDK/AB1600_1_0_5_0/projects/Remote/output/pj/components/Device/AB1600/cfg_sector.o
 .rela.text.SM_FinishPairing
                0x00000000        0x0 /cygdrive/c/Airoha/AiroBlueSDK/AB1600_1_0_5_0/projects/Remote/output/pj/components/Device/AB1600/cfg_sector.o
 .rela.text.SM_PairingFailed
                0x00000000        0x0 /cygdrive/c/Airoha/AiroBlueSDK/AB1600_1_0_5_0/projects/Remote/output/pj/components/Device/AB1600/cfg_sector.o
 .rela.text.SM_SetKeySize
                0x00000000        0x0 /cygdrive/c/Airoha/AiroBlueSDK/AB1600_1_0_5_0/projects/Remote/output/pj/components/Device/AB1600/cfg_sector.o
 .rela.text.SM_StartKeyDistribution
                0x00000000        0x0 /cygdrive/c/Airoha/AiroBlueSDK/AB1600_1_0_5_0/projects/Remote/output/pj/components/Device/AB1600/cfg_sector.o
 .rela.text.SM_WaitKeyDistribution
                0x00000000        0x0 /cygdrive/c/Airoha/AiroBlueSDK/AB1600_1_0_5_0/projects/Remote/output/pj/components/Device/AB1600/cfg_sector.o
 .rela.text.SM_LinkDisconnected
                0x00000000        0x0 /cygdrive/c/Airoha/AiroBlueSDK/AB1600_1_0_5_0/projects/Remote/output/pj/components/Device/AB1600/cfg_sector.o
 .rela.text.SM_GetPeerLTK
                0x00000000        0x0 /cygdrive/c/Airoha/AiroBlueSDK/AB1600_1_0_5_0/projects/Remote/output/pj/components/Device/AB1600/cfg_sector.o
 .rela.text.SM_GetLTK
                0x00000000        0x0 /cygdrive/c/Airoha/AiroBlueSDK/AB1600_1_0_5_0/projects/Remote/output/pj/components/Device/AB1600/cfg_sector.o
 .rela.text.SM_SendKeypressNotification
                0x00000000        0x0 /cygdrive/c/Airoha/AiroBlueSDK/AB1600_1_0_5_0/projects/Remote/output/pj/components/Device/AB1600/cfg_sector.o
 .rela.text.SM_CryptoTool_init
                0x00000000        0x0 /cygdrive/c/Airoha/AiroBlueSDK/AB1600_1_0_5_0/projects/Remote/output/pj/components/Device/AB1600/cfg_sector.o
 .rela.text.f5_finish
                0x00000000        0x0 /cygdrive/c/Airoha/AiroBlueSDK/AB1600_1_0_5_0/projects/Remote/output/pj/components/Device/AB1600/cfg_sector.o
 .rela.text.cmac_finish
                0x00000000        0x0 /cygdrive/c/Airoha/AiroBlueSDK/AB1600_1_0_5_0/projects/Remote/output/pj/components/Device/AB1600/cfg_sector.o
 .rela.text.g2_generate_cb
                0x00000000        0x0 /cygdrive/c/Airoha/AiroBlueSDK/AB1600_1_0_5_0/projects/Remote/output/pj/components/Device/AB1600/cfg_sector.o
 .rela.text.ah_generate_cb
                0x00000000        0x0 /cygdrive/c/Airoha/AiroBlueSDK/AB1600_1_0_5_0/projects/Remote/output/pj/components/Device/AB1600/cfg_sector.o
 .rela.text.SM_CryptoTool_ReadLocalP256PublicKeyComplete
                0x00000000        0x0 /cygdrive/c/Airoha/AiroBlueSDK/AB1600_1_0_5_0/projects/Remote/output/pj/components/Device/AB1600/cfg_sector.o
 .rela.text.SM_CryptoTool_AES_Cipher
                0x00000000        0x0 /cygdrive/c/Airoha/AiroBlueSDK/AB1600_1_0_5_0/projects/Remote/output/pj/components/Device/AB1600/cfg_sector.o
 .rela.text.cmac_generate_SubKey
                0x00000000        0x0 /cygdrive/c/Airoha/AiroBlueSDK/AB1600_1_0_5_0/projects/Remote/output/pj/components/Device/AB1600/cfg_sector.o
 .rela.text.cmac_1
                0x00000000        0x0 /cygdrive/c/Airoha/AiroBlueSDK/AB1600_1_0_5_0/projects/Remote/output/pj/components/Device/AB1600/cfg_sector.o
 .rela.text.cmac_start
                0x00000000        0x0 /cygdrive/c/Airoha/AiroBlueSDK/AB1600_1_0_5_0/projects/Remote/output/pj/components/Device/AB1600/cfg_sector.o
 .rela.text.AES_CMAC
                0x00000000        0x0 /cygdrive/c/Airoha/AiroBlueSDK/AB1600_1_0_5_0/projects/Remote/output/pj/components/Device/AB1600/cfg_sector.o
 .rela.text.h6  0x00000000        0x0 /cygdrive/c/Airoha/AiroBlueSDK/AB1600_1_0_5_0/projects/Remote/output/pj/components/Device/AB1600/cfg_sector.o
 .rela.text.g2  0x00000000        0x0 /cygdrive/c/Airoha/AiroBlueSDK/AB1600_1_0_5_0/projects/Remote/output/pj/components/Device/AB1600/cfg_sector.o
 .rela.text.f6  0x00000000        0x0 /cygdrive/c/Airoha/AiroBlueSDK/AB1600_1_0_5_0/projects/Remote/output/pj/components/Device/AB1600/cfg_sector.o
 .rela.text.f5  0x00000000        0x0 /cygdrive/c/Airoha/AiroBlueSDK/AB1600_1_0_5_0/projects/Remote/output/pj/components/Device/AB1600/cfg_sector.o
 .rela.text.f5_generate_t_cb
                0x00000000        0x0 /cygdrive/c/Airoha/AiroBlueSDK/AB1600_1_0_5_0/projects/Remote/output/pj/components/Device/AB1600/cfg_sector.o
 .rela.text.f4  0x00000000        0x0 /cygdrive/c/Airoha/AiroBlueSDK/AB1600_1_0_5_0/projects/Remote/output/pj/components/Device/AB1600/cfg_sector.o
 .rela.text.s1  0x00000000        0x0 /cygdrive/c/Airoha/AiroBlueSDK/AB1600_1_0_5_0/projects/Remote/output/pj/components/Device/AB1600/cfg_sector.o
 .rela.text.c1_2
                0x00000000        0x0 /cygdrive/c/Airoha/AiroBlueSDK/AB1600_1_0_5_0/projects/Remote/output/pj/components/Device/AB1600/cfg_sector.o
 .rela.text.c1_1
                0x00000000        0x0 /cygdrive/c/Airoha/AiroBlueSDK/AB1600_1_0_5_0/projects/Remote/output/pj/components/Device/AB1600/cfg_sector.o
 .rela.text.ah  0x00000000        0x0 /cygdrive/c/Airoha/AiroBlueSDK/AB1600_1_0_5_0/projects/Remote/output/pj/components/Device/AB1600/cfg_sector.o
 .rela.text.SM_CryptoTool_GenerateDHKey
                0x00000000        0x0 /cygdrive/c/Airoha/AiroBlueSDK/AB1600_1_0_5_0/projects/Remote/output/pj/components/Device/AB1600/cfg_sector.o
 .rela.text.SM_CryptoTool_ReadLocalP256PublicKey
                0x00000000        0x0 /cygdrive/c/Airoha/AiroBlueSDK/AB1600_1_0_5_0/projects/Remote/output/pj/components/Device/AB1600/cfg_sector.o
 .rela.text.SM_CryptoTool_StartEncryption
                0x00000000        0x0 /cygdrive/c/Airoha/AiroBlueSDK/AB1600_1_0_5_0/projects/Remote/output/pj/components/Device/AB1600/cfg_sector.o
 .rela.text.SM_CryptoTool_SendLTKNegativeReply
                0x00000000        0x0 /cygdrive/c/Airoha/AiroBlueSDK/AB1600_1_0_5_0/projects/Remote/output/pj/components/Device/AB1600/cfg_sector.o
 .rela.text.SM_CryptoTool_SendLTKReply
                0x00000000        0x0 /cygdrive/c/Airoha/AiroBlueSDK/AB1600_1_0_5_0/projects/Remote/output/pj/components/Device/AB1600/cfg_sector.o
 .rela.text.sm_hal_verify_resolvable_addr
                0x00000000        0x0 /cygdrive/c/Airoha/AiroBlueSDK/AB1600_1_0_5_0/projects/Remote/output/pj/components/Device/AB1600/cfg_sector.o
 .rela.text.sm_hal_verify_RPA_cb
                0x00000000        0x0 /cygdrive/c/Airoha/AiroBlueSDK/AB1600_1_0_5_0/projects/Remote/output/pj/components/Device/AB1600/cfg_sector.o
 .rela.text.sm_hal_flash_get_last_paired_device
                0x00000000        0x0 /cygdrive/c/Airoha/AiroBlueSDK/AB1600_1_0_5_0/projects/Remote/output/pj/components/Device/AB1600/cfg_sector.o
 .rela.text.sm_hal_flash_load_data_byIndex
                0x00000000        0x0 /cygdrive/c/Airoha/AiroBlueSDK/AB1600_1_0_5_0/projects/Remote/output/pj/components/Device/AB1600/cfg_sector.o
 .rela.text.sm_hal_flash_dump_data
                0x00000000        0x0 /cygdrive/c/Airoha/AiroBlueSDK/AB1600_1_0_5_0/projects/Remote/output/pj/components/Device/AB1600/cfg_sector.o
 .rela.text.sm_hal_flash_isDevice_bonded
                0x00000000        0x0 /cygdrive/c/Airoha/AiroBlueSDK/AB1600_1_0_5_0/projects/Remote/output/pj/components/Device/AB1600/cfg_sector.o
 .rela.text.sm_hal_flash_delete_paired_record
                0x00000000        0x0 /cygdrive/c/Airoha/AiroBlueSDK/AB1600_1_0_5_0/projects/Remote/output/pj/components/Device/AB1600/cfg_sector.o
 .rela.text.sm_hal_flash_search_byAddr
                0x00000000        0x0 /cygdrive/c/Airoha/AiroBlueSDK/AB1600_1_0_5_0/projects/Remote/output/pj/components/Device/AB1600/cfg_sector.o
 .rela.text.sm_hal_flash_load_data
                0x00000000        0x0 /cygdrive/c/Airoha/AiroBlueSDK/AB1600_1_0_5_0/projects/Remote/output/pj/components/Device/AB1600/cfg_sector.o
 .rela.text.sm_hal_flash_check_master_info
                0x00000000        0x0 /cygdrive/c/Airoha/AiroBlueSDK/AB1600_1_0_5_0/projects/Remote/output/pj/components/Device/AB1600/cfg_sector.o
 .rela.text.sm_hal_flash_get_ltk
                0x00000000        0x0 /cygdrive/c/Airoha/AiroBlueSDK/AB1600_1_0_5_0/projects/Remote/output/pj/components/Device/AB1600/cfg_sector.o
 .rela.text.SM_hal_flash_ah_cb
                0x00000000        0x0 /cygdrive/c/Airoha/AiroBlueSDK/AB1600_1_0_5_0/projects/Remote/output/pj/components/Device/AB1600/cfg_sector.o
 .rela.text.sm_hal_flash_reset_data
                0x00000000        0x0 /cygdrive/c/Airoha/AiroBlueSDK/AB1600_1_0_5_0/projects/Remote/output/pj/components/Device/AB1600/cfg_sector.o
 .rela.text.sm_hal_flash_init_data
                0x00000000        0x0 /cygdrive/c/Airoha/AiroBlueSDK/AB1600_1_0_5_0/projects/Remote/output/pj/components/Device/AB1600/cfg_sector.o
 .rela.text.sm_hal_flash_save_data
                0x00000000        0x0 /cygdrive/c/Airoha/AiroBlueSDK/AB1600_1_0_5_0/projects/Remote/output/pj/components/Device/AB1600/cfg_sector.o
 .rela.text.sm_hal_cryptoTool_hci_send_cmd_ex
                0x00000000        0x0 /cygdrive/c/Airoha/AiroBlueSDK/AB1600_1_0_5_0/projects/Remote/output/pj/components/Device/AB1600/cfg_sector.o
 .rela.text.sm_hal_cryptoTool_hci_send_cmd
                0x00000000        0x0 /cygdrive/c/Airoha/AiroBlueSDK/AB1600_1_0_5_0/projects/Remote/output/pj/components/Device/AB1600/cfg_sector.o
 .rela.text.sm_hal_init
                0x00000000        0x0 /cygdrive/c/Airoha/AiroBlueSDK/AB1600_1_0_5_0/projects/Remote/output/pj/components/Device/AB1600/cfg_sector.o
 .rela.text.sm_hal_protocol_cid_evt_cb
                0x00000000        0x0 /cygdrive/c/Airoha/AiroBlueSDK/AB1600_1_0_5_0/projects/Remote/output/pj/components/Device/AB1600/cfg_sector.o
 .rela.text.sm_hal_release_timer
                0x00000000        0x0 /cygdrive/c/Airoha/AiroBlueSDK/AB1600_1_0_5_0/projects/Remote/output/pj/components/Device/AB1600/cfg_sector.o
 .rela.text.sm_hal_set_timer
                0x00000000        0x0 /cygdrive/c/Airoha/AiroBlueSDK/AB1600_1_0_5_0/projects/Remote/output/pj/components/Device/AB1600/cfg_sector.o
 .rela.text.sm_hal_timer_handler
                0x00000000        0x0 /cygdrive/c/Airoha/AiroBlueSDK/AB1600_1_0_5_0/projects/Remote/output/pj/components/Device/AB1600/cfg_sector.o
 .rela.text.sm_hal_get_random_number
                0x00000000        0x0 /cygdrive/c/Airoha/AiroBlueSDK/AB1600_1_0_5_0/projects/Remote/output/pj/components/Device/AB1600/cfg_sector.o
 .rela.text.sm_hal_get_local_addr
                0x00000000        0x0 /cygdrive/c/Airoha/AiroBlueSDK/AB1600_1_0_5_0/projects/Remote/output/pj/components/Device/AB1600/cfg_sector.o
 .rela.text.SM_Protocol_PairingDHKeyCheck
                0x00000000        0x0 /cygdrive/c/Airoha/AiroBlueSDK/AB1600_1_0_5_0/projects/Remote/output/pj/components/Device/AB1600/cfg_sector.o
 .rela.text.SM_Protocol_PairingPublicKey
                0x00000000        0x0 /cygdrive/c/Airoha/AiroBlueSDK/AB1600_1_0_5_0/projects/Remote/output/pj/components/Device/AB1600/cfg_sector.o
 .rela.text.SM_Protocol_PairingRequest
                0x00000000        0x0 /cygdrive/c/Airoha/AiroBlueSDK/AB1600_1_0_5_0/projects/Remote/output/pj/components/Device/AB1600/cfg_sector.o
 .rela.text.SM_Protocol_SecurityRequest
                0x00000000        0x0 /cygdrive/c/Airoha/AiroBlueSDK/AB1600_1_0_5_0/projects/Remote/output/pj/components/Device/AB1600/cfg_sector.o
 .rela.text.SM_Protocol_SigningInfo
                0x00000000        0x0 /cygdrive/c/Airoha/AiroBlueSDK/AB1600_1_0_5_0/projects/Remote/output/pj/components/Device/AB1600/cfg_sector.o
 .rela.text.SM_Protocol_IdentityInfo
                0x00000000        0x0 /cygdrive/c/Airoha/AiroBlueSDK/AB1600_1_0_5_0/projects/Remote/output/pj/components/Device/AB1600/cfg_sector.o
 .rela.text.SM_Protocol_MasterID
                0x00000000        0x0 /cygdrive/c/Airoha/AiroBlueSDK/AB1600_1_0_5_0/projects/Remote/output/pj/components/Device/AB1600/cfg_sector.o
 .rela.text.SM_Protocol_EncryptionInfo
                0x00000000        0x0 /cygdrive/c/Airoha/AiroBlueSDK/AB1600_1_0_5_0/projects/Remote/output/pj/components/Device/AB1600/cfg_sector.o
 .rela.text.SM_Protocol_PairingRandom
                0x00000000        0x0 /cygdrive/c/Airoha/AiroBlueSDK/AB1600_1_0_5_0/projects/Remote/output/pj/components/Device/AB1600/cfg_sector.o
 .rela.text.SM_Protocol_PairingConfirm
                0x00000000        0x0 /cygdrive/c/Airoha/AiroBlueSDK/AB1600_1_0_5_0/projects/Remote/output/pj/components/Device/AB1600/cfg_sector.o
 .rela.text.SM_Protocol_PairingResponse
                0x00000000        0x0 /cygdrive/c/Airoha/AiroBlueSDK/AB1600_1_0_5_0/projects/Remote/output/pj/components/Device/AB1600/cfg_sector.o
 .rela.text.SM_Protocol_IdentityAddressInfo
                0x00000000        0x0 /cygdrive/c/Airoha/AiroBlueSDK/AB1600_1_0_5_0/projects/Remote/output/pj/components/Device/AB1600/cfg_sector.o
 .rela.text.SM_Protocol_PairingFailed
                0x00000000        0x0 /cygdrive/c/Airoha/AiroBlueSDK/AB1600_1_0_5_0/projects/Remote/output/pj/components/Device/AB1600/cfg_sector.o
 .rela.text.SM_Slave_generate_DHKey_handler
                0x00000000        0x0 /cygdrive/c/Airoha/AiroBlueSDK/AB1600_1_0_5_0/projects/Remote/output/pj/components/Device/AB1600/cfg_sector.o
 .rela.text.SM_Slave_f5_mac_handler
                0x00000000        0x0 /cygdrive/c/Airoha/AiroBlueSDK/AB1600_1_0_5_0/projects/Remote/output/pj/components/Device/AB1600/cfg_sector.o
 .rela.text.SM_Slave_IdentityInformationHandler
                0x00000000        0x0 /cygdrive/c/Airoha/AiroBlueSDK/AB1600_1_0_5_0/projects/Remote/output/pj/components/Device/AB1600/cfg_sector.o
 .rela.text.SM_Slave_EncryptionInformationHandler
                0x00000000        0x0 /cygdrive/c/Airoha/AiroBlueSDK/AB1600_1_0_5_0/projects/Remote/output/pj/components/Device/AB1600/cfg_sector.o
 .rela.text.SM_Slave_check_Ea
                0x00000000        0x0 /cygdrive/c/Airoha/AiroBlueSDK/AB1600_1_0_5_0/projects/Remote/output/pj/components/Device/AB1600/cfg_sector.o
 .rela.text.SM_Slave_PairingDHKeyCheckHandler
                0x00000000        0x0 /cygdrive/c/Airoha/AiroBlueSDK/AB1600_1_0_5_0/projects/Remote/output/pj/components/Device/AB1600/cfg_sector.o
 .rela.text.SM_Slave_f6_Eb_handler
                0x00000000        0x0 /cygdrive/c/Airoha/AiroBlueSDK/AB1600_1_0_5_0/projects/Remote/output/pj/components/Device/AB1600/cfg_sector.o
 .rela.text.SM_Slave_f5_ltk_handler
                0x00000000        0x0 /cygdrive/c/Airoha/AiroBlueSDK/AB1600_1_0_5_0/projects/Remote/output/pj/components/Device/AB1600/cfg_sector.o
 .rela.text.SM_Slave_f6_Ea_handler
                0x00000000        0x0 /cygdrive/c/Airoha/AiroBlueSDK/AB1600_1_0_5_0/projects/Remote/output/pj/components/Device/AB1600/cfg_sector.o
 .rela.text.SM_Slave_PairingPublicKeyHandler
                0x00000000        0x0 /cygdrive/c/Airoha/AiroBlueSDK/AB1600_1_0_5_0/projects/Remote/output/pj/components/Device/AB1600/cfg_sector.o
 .rela.text.SM_Slave_read_local_public_key_handler
                0x00000000        0x0 /cygdrive/c/Airoha/AiroBlueSDK/AB1600_1_0_5_0/projects/Remote/output/pj/components/Device/AB1600/cfg_sector.o
 .rela.text.SM_Slave_SC_Unsupported
                0x00000000        0x0 /cygdrive/c/Airoha/AiroBlueSDK/AB1600_1_0_5_0/projects/Remote/output/pj/components/Device/AB1600/cfg_sector.o
 .rela.text.SM_Slave_UnsupportedHandler
                0x00000000        0x0 /cygdrive/c/Airoha/AiroBlueSDK/AB1600_1_0_5_0/projects/Remote/output/pj/components/Device/AB1600/cfg_sector.o
 .rela.text.SM_Slave_g2_handler
                0x00000000        0x0 /cygdrive/c/Airoha/AiroBlueSDK/AB1600_1_0_5_0/projects/Remote/output/pj/components/Device/AB1600/cfg_sector.o
 .rela.text.SM_Slave_SC_rbValuePasskeyDisplay
                0x00000000        0x0 /cygdrive/c/Airoha/AiroBlueSDK/AB1600_1_0_5_0/projects/Remote/output/pj/components/Device/AB1600/cfg_sector.o
 .rela.text.SM_Slave_SC_rbValueJustWork
                0x00000000        0x0 /cygdrive/c/Airoha/AiroBlueSDK/AB1600_1_0_5_0/projects/Remote/output/pj/components/Device/AB1600/cfg_sector.o
 .rela.text.SM_Slave_f4_JW_handler
                0x00000000        0x0 /cygdrive/c/Airoha/AiroBlueSDK/AB1600_1_0_5_0/projects/Remote/output/pj/components/Device/AB1600/cfg_sector.o
 .rela.text.SM_Slave_PairingConfirmHandler
                0x00000000        0x0 /cygdrive/c/Airoha/AiroBlueSDK/AB1600_1_0_5_0/projects/Remote/output/pj/components/Device/AB1600/cfg_sector.o
 .rela.text.SM_Slave_f5
                0x00000000        0x0 /cygdrive/c/Airoha/AiroBlueSDK/AB1600_1_0_5_0/projects/Remote/output/pj/components/Device/AB1600/cfg_sector.o
 .rela.text.SM_Slave_f4_PKE_handler
                0x00000000        0x0 /cygdrive/c/Airoha/AiroBlueSDK/AB1600_1_0_5_0/projects/Remote/output/pj/components/Device/AB1600/cfg_sector.o
 .rela.text.SM_Slave_TKValueOOB
                0x00000000        0x0 /cygdrive/c/Airoha/AiroBlueSDK/AB1600_1_0_5_0/projects/Remote/output/pj/components/Device/AB1600/cfg_sector.o
 .rela.text.SM_Slave_TKValuePasskeyInput
                0x00000000        0x0 /cygdrive/c/Airoha/AiroBlueSDK/AB1600_1_0_5_0/projects/Remote/output/pj/components/Device/AB1600/cfg_sector.o
 .rela.text.SM_Slave_Legacy_GenConfirm
                0x00000000        0x0 /cygdrive/c/Airoha/AiroBlueSDK/AB1600_1_0_5_0/projects/Remote/output/pj/components/Device/AB1600/cfg_sector.o
 .rela.text.SM_Slave_TKValuePasskeyDisplay
                0x00000000        0x0 /cygdrive/c/Airoha/AiroBlueSDK/AB1600_1_0_5_0/projects/Remote/output/pj/components/Device/AB1600/cfg_sector.o
 .rela.text.SM_Slave_TKValueJustWork
                0x00000000        0x0 /cygdrive/c/Airoha/AiroBlueSDK/AB1600_1_0_5_0/projects/Remote/output/pj/components/Device/AB1600/cfg_sector.o
 .rela.text.SM_Slave_OOBInputRsp
                0x00000000        0x0 /cygdrive/c/Airoha/AiroBlueSDK/AB1600_1_0_5_0/projects/Remote/output/pj/components/Device/AB1600/cfg_sector.o
 .rela.text.SM_Slave_PasskeyInputRsp
                0x00000000        0x0 /cygdrive/c/Airoha/AiroBlueSDK/AB1600_1_0_5_0/projects/Remote/output/pj/components/Device/AB1600/cfg_sector.o
 .rela.text.SM_Slave_c1_1_handler
                0x00000000        0x0 /cygdrive/c/Airoha/AiroBlueSDK/AB1600_1_0_5_0/projects/Remote/output/pj/components/Device/AB1600/cfg_sector.o
 .rela.text.SM_Slave_c1_2_handler
                0x00000000        0x0 /cygdrive/c/Airoha/AiroBlueSDK/AB1600_1_0_5_0/projects/Remote/output/pj/components/Device/AB1600/cfg_sector.o
 .rela.text.SM_Slave_SigningInformationHandler
                0x00000000        0x0 /cygdrive/c/Airoha/AiroBlueSDK/AB1600_1_0_5_0/projects/Remote/output/pj/components/Device/AB1600/cfg_sector.o
 .rela.text.SM_Slave_IdentityAddressInformationHandler
                0x00000000        0x0 /cygdrive/c/Airoha/AiroBlueSDK/AB1600_1_0_5_0/projects/Remote/output/pj/components/Device/AB1600/cfg_sector.o
 .rela.text.SM_Slave_MasterIdentificationHandler
                0x00000000        0x0 /cygdrive/c/Airoha/AiroBlueSDK/AB1600_1_0_5_0/projects/Remote/output/pj/components/Device/AB1600/cfg_sector.o
 .rela.text.SM_Slave_PairingRandomHandler
                0x00000000        0x0 /cygdrive/c/Airoha/AiroBlueSDK/AB1600_1_0_5_0/projects/Remote/output/pj/components/Device/AB1600/cfg_sector.o
 .rela.text.SM_Slave_PairingRequestHandler
                0x00000000        0x0 /cygdrive/c/Airoha/AiroBlueSDK/AB1600_1_0_5_0/projects/Remote/output/pj/components/Device/AB1600/cfg_sector.o
 .rela.text.SM_Slave_L2capEventHandler
                0x00000000        0x0 /cygdrive/c/Airoha/AiroBlueSDK/AB1600_1_0_5_0/projects/Remote/output/pj/components/Device/AB1600/cfg_sector.o
 .rela.text.SM_Slave_StartPairing
                0x00000000        0x0 /cygdrive/c/Airoha/AiroBlueSDK/AB1600_1_0_5_0/projects/Remote/output/pj/components/Device/AB1600/cfg_sector.o
 .rela.text.SM_Slave_EncryptionChange
                0x00000000        0x0 /cygdrive/c/Airoha/AiroBlueSDK/AB1600_1_0_5_0/projects/Remote/output/pj/components/Device/AB1600/cfg_sector.o
 .rela.text.SM_Slave_get_ltk_handler
                0x00000000        0x0 /cygdrive/c/Airoha/AiroBlueSDK/AB1600_1_0_5_0/projects/Remote/output/pj/components/Device/AB1600/cfg_sector.o
 .rela.text.SM_Slave_LTKRequestHandler
                0x00000000        0x0 /cygdrive/c/Airoha/AiroBlueSDK/AB1600_1_0_5_0/projects/Remote/output/pj/components/Device/AB1600/cfg_sector.o
 .rela.text.SM_Slave_s1_handler
                0x00000000        0x0 /cygdrive/c/Airoha/AiroBlueSDK/AB1600_1_0_5_0/projects/Remote/output/pj/components/Device/AB1600/cfg_sector.o
 .rela.text.SM_Slave_LTKRequest
                0x00000000        0x0 /cygdrive/c/Airoha/AiroBlueSDK/AB1600_1_0_5_0/projects/Remote/output/pj/components/Device/AB1600/cfg_sector.o
 .rela.text.SM_Slave_SendSecurityRequest
                0x00000000        0x0 /cygdrive/c/Airoha/AiroBlueSDK/AB1600_1_0_5_0/projects/Remote/output/pj/components/Device/AB1600/cfg_sector.o
 .rela.text.SM_Master_f5_mac_handler
                0x00000000        0x0 /cygdrive/c/Airoha/AiroBlueSDK/AB1600_1_0_5_0/projects/Remote/output/pj/components/Device/AB1600/cfg_sector.o
 .rela.text.SM_Master_IdentityInformationHandler
                0x00000000        0x0 /cygdrive/c/Airoha/AiroBlueSDK/AB1600_1_0_5_0/projects/Remote/output/pj/components/Device/AB1600/cfg_sector.o
 .rela.text.SM_Master_EncryptionInformationHandler
                0x00000000        0x0 /cygdrive/c/Airoha/AiroBlueSDK/AB1600_1_0_5_0/projects/Remote/output/pj/components/Device/AB1600/cfg_sector.o
 .rela.text.SM_Master_PairingDHKeyCheckHandler
                0x00000000        0x0 /cygdrive/c/Airoha/AiroBlueSDK/AB1600_1_0_5_0/projects/Remote/output/pj/components/Device/AB1600/cfg_sector.o
 .rela.text.SM_Master_s1_handler
                0x00000000        0x0 /cygdrive/c/Airoha/AiroBlueSDK/AB1600_1_0_5_0/projects/Remote/output/pj/components/Device/AB1600/cfg_sector.o
 .rela.text.SM_Master_f6_Eb_handler
                0x00000000        0x0 /cygdrive/c/Airoha/AiroBlueSDK/AB1600_1_0_5_0/projects/Remote/output/pj/components/Device/AB1600/cfg_sector.o
 .rela.text.SM_Master_PairingPublicKeyHandler
                0x00000000        0x0 /cygdrive/c/Airoha/AiroBlueSDK/AB1600_1_0_5_0/projects/Remote/output/pj/components/Device/AB1600/cfg_sector.o
 .rela.text.SM_Master_generate_DHKey_handler
                0x00000000        0x0 /cygdrive/c/Airoha/AiroBlueSDK/AB1600_1_0_5_0/projects/Remote/output/pj/components/Device/AB1600/cfg_sector.o
 .rela.text.SM_Master_SC_Unsupported
                0x00000000        0x0 /cygdrive/c/Airoha/AiroBlueSDK/AB1600_1_0_5_0/projects/Remote/output/pj/components/Device/AB1600/cfg_sector.o
 .rela.text.SM_Master_UnsupportedHandler
                0x00000000        0x0 /cygdrive/c/Airoha/AiroBlueSDK/AB1600_1_0_5_0/projects/Remote/output/pj/components/Device/AB1600/cfg_sector.o
 .rela.text.SM_Master_L2capEventHandler
                0x00000000        0x0 /cygdrive/c/Airoha/AiroBlueSDK/AB1600_1_0_5_0/projects/Remote/output/pj/components/Device/AB1600/cfg_sector.o
 .rela.text.SM_Master_g2_handler
                0x00000000        0x0 /cygdrive/c/Airoha/AiroBlueSDK/AB1600_1_0_5_0/projects/Remote/output/pj/components/Device/AB1600/cfg_sector.o
 .rela.text.SM_Master_SC_rbValuePasskeyDisplay
                0x00000000        0x0 /cygdrive/c/Airoha/AiroBlueSDK/AB1600_1_0_5_0/projects/Remote/output/pj/components/Device/AB1600/cfg_sector.o
 .rela.text.SM_Master_f5
                0x00000000        0x0 /cygdrive/c/Airoha/AiroBlueSDK/AB1600_1_0_5_0/projects/Remote/output/pj/components/Device/AB1600/cfg_sector.o
 .rela.text.SM_Master_f4_PKE_handler
                0x00000000        0x0 /cygdrive/c/Airoha/AiroBlueSDK/AB1600_1_0_5_0/projects/Remote/output/pj/components/Device/AB1600/cfg_sector.o
 .rela.text.SM_Master_f5_ltk_handler
                0x00000000        0x0 /cygdrive/c/Airoha/AiroBlueSDK/AB1600_1_0_5_0/projects/Remote/output/pj/components/Device/AB1600/cfg_sector.o
 .rela.text.SM_Master_f6_Ea_handler
                0x00000000        0x0 /cygdrive/c/Airoha/AiroBlueSDK/AB1600_1_0_5_0/projects/Remote/output/pj/components/Device/AB1600/cfg_sector.o
 .rela.text.SM_Master_TKValueOOB
                0x00000000        0x0 /cygdrive/c/Airoha/AiroBlueSDK/AB1600_1_0_5_0/projects/Remote/output/pj/components/Device/AB1600/cfg_sector.o
 .rela.text.SM_Master_TKValuePasskeyInput
                0x00000000        0x0 /cygdrive/c/Airoha/AiroBlueSDK/AB1600_1_0_5_0/projects/Remote/output/pj/components/Device/AB1600/cfg_sector.o
 .rela.text.SM_Master_Legacy_GenConfirm
                0x00000000        0x0 /cygdrive/c/Airoha/AiroBlueSDK/AB1600_1_0_5_0/projects/Remote/output/pj/components/Device/AB1600/cfg_sector.o
 .rela.text.SM_Master_TKValuePasskeyDisplay
                0x00000000        0x0 /cygdrive/c/Airoha/AiroBlueSDK/AB1600_1_0_5_0/projects/Remote/output/pj/components/Device/AB1600/cfg_sector.o
 .rela.text.SM_Master_TKValueJustWork
                0x00000000        0x0 /cygdrive/c/Airoha/AiroBlueSDK/AB1600_1_0_5_0/projects/Remote/output/pj/components/Device/AB1600/cfg_sector.o
 .rela.text.SM_Master_OOBInputRsp
                0x00000000        0x0 /cygdrive/c/Airoha/AiroBlueSDK/AB1600_1_0_5_0/projects/Remote/output/pj/components/Device/AB1600/cfg_sector.o
 .rela.text.SM_Master_PasskeyInputRsp
                0x00000000        0x0 /cygdrive/c/Airoha/AiroBlueSDK/AB1600_1_0_5_0/projects/Remote/output/pj/components/Device/AB1600/cfg_sector.o
 .rela.text.SM_Master_c1_1_handler
                0x00000000        0x0 /cygdrive/c/Airoha/AiroBlueSDK/AB1600_1_0_5_0/projects/Remote/output/pj/components/Device/AB1600/cfg_sector.o
 .rela.text.SM_Master_PairingConfirmHandler
                0x00000000        0x0 /cygdrive/c/Airoha/AiroBlueSDK/AB1600_1_0_5_0/projects/Remote/output/pj/components/Device/AB1600/cfg_sector.o
 .rela.text.SM_Master_c1_2_handler
                0x00000000        0x0 /cygdrive/c/Airoha/AiroBlueSDK/AB1600_1_0_5_0/projects/Remote/output/pj/components/Device/AB1600/cfg_sector.o
 .rela.text.SM_Master_SecurityRequestHandler
                0x00000000        0x0 /cygdrive/c/Airoha/AiroBlueSDK/AB1600_1_0_5_0/projects/Remote/output/pj/components/Device/AB1600/cfg_sector.o
 .rela.text.SM_Master_SigningInformationHandler
                0x00000000        0x0 /cygdrive/c/Airoha/AiroBlueSDK/AB1600_1_0_5_0/projects/Remote/output/pj/components/Device/AB1600/cfg_sector.o
 .rela.text.SM_Master_IdentityAddressInformationHandler
                0x00000000        0x0 /cygdrive/c/Airoha/AiroBlueSDK/AB1600_1_0_5_0/projects/Remote/output/pj/components/Device/AB1600/cfg_sector.o
 .rela.text.SM_Master_MasterIdentificationHandler
                0x00000000        0x0 /cygdrive/c/Airoha/AiroBlueSDK/AB1600_1_0_5_0/projects/Remote/output/pj/components/Device/AB1600/cfg_sector.o
 .rela.text.SM_Master_PairingRandomHandler
                0x00000000        0x0 /cygdrive/c/Airoha/AiroBlueSDK/AB1600_1_0_5_0/projects/Remote/output/pj/components/Device/AB1600/cfg_sector.o
 .rela.text.SM_Master_f4_JW_handler
                0x00000000        0x0 /cygdrive/c/Airoha/AiroBlueSDK/AB1600_1_0_5_0/projects/Remote/output/pj/components/Device/AB1600/cfg_sector.o
 .rela.text.SM_Master_PairingResponseHandler
                0x00000000        0x0 /cygdrive/c/Airoha/AiroBlueSDK/AB1600_1_0_5_0/projects/Remote/output/pj/components/Device/AB1600/cfg_sector.o
 .rela.text.SM_Master_EncryptionChange
                0x00000000        0x0 /cygdrive/c/Airoha/AiroBlueSDK/AB1600_1_0_5_0/projects/Remote/output/pj/components/Device/AB1600/cfg_sector.o
 .rela.text.SM_Master_StartPairing
                0x00000000        0x0 /cygdrive/c/Airoha/AiroBlueSDK/AB1600_1_0_5_0/projects/Remote/output/pj/components/Device/AB1600/cfg_sector.o
 .rela.text.SM_Master_SendPairingRequest
                0x00000000        0x0 /cygdrive/c/Airoha/AiroBlueSDK/AB1600_1_0_5_0/projects/Remote/output/pj/components/Device/AB1600/cfg_sector.o
 .rela.text.DRV_TRNG_Get
                0x00000000        0x0 /cygdrive/c/Airoha/AiroBlueSDK/AB1600_1_0_5_0/projects/Remote/output/pj/components/Device/AB1600/cfg_sector.o
 .rela.text.PMU_IntrHandler
                0x00000000        0x0 /cygdrive/c/Airoha/AiroBlueSDK/AB1600_1_0_5_0/projects/Remote/output/pj/components/Device/AB1600/cfg_sector.o
 .rela.text.Drv_MMITimerDisable
                0x00000000        0x0 /cygdrive/c/Airoha/AiroBlueSDK/AB1600_1_0_5_0/projects/Remote/output/pj/components/Device/AB1600/cfg_sector.o
 .rela.text.Drv_MMITimerEnable
                0x00000000        0x0 /cygdrive/c/Airoha/AiroBlueSDK/AB1600_1_0_5_0/projects/Remote/output/pj/components/Device/AB1600/cfg_sector.o
 .rela.text.Ab_MMITimerUnset
                0x00000000        0x0 /cygdrive/c/Airoha/AiroBlueSDK/AB1600_1_0_5_0/projects/Remote/output/pj/components/Device/AB1600/cfg_sector.o
 .rela.text.BTDataRdyInterruptHandler
                0x00000000        0x0 /cygdrive/c/Airoha/AiroBlueSDK/AB1600_1_0_5_0/projects/Remote/output/pj/components/Device/AB1600/cfg_sector.o
 .rela.text.Drv_1602DataReady
                0x00000000        0x0 /cygdrive/c/Airoha/AiroBlueSDK/AB1600_1_0_5_0/projects/Remote/output/pj/components/Device/AB1600/cfg_sector.o
 .rela.text.Drv_1602DataReadyIntEn
                0x00000000        0x0 /cygdrive/c/Airoha/AiroBlueSDK/AB1600_1_0_5_0/projects/Remote/output/pj/components/Device/AB1600/cfg_sector.o
 .rela.text.Drv_1602DataReadyIntReg
                0x00000000        0x0 /cygdrive/c/Airoha/AiroBlueSDK/AB1600_1_0_5_0/projects/Remote/output/pj/components/Device/AB1600/cfg_sector.o
 .rela.text.Drv_1602Reset
                0x00000000        0x0 /cygdrive/c/Airoha/AiroBlueSDK/AB1600_1_0_5_0/projects/Remote/output/pj/components/Device/AB1600/cfg_sector.o
 .rela.text.hci_acl_send
                0x00000000        0x0 /cygdrive/c/Airoha/AiroBlueSDK/AB1600_1_0_5_0/projects/Remote/output/pj/components/Device/AB1600/cfg_sector.o
 .rela.text.hci_cmd_send
                0x00000000        0x0 /cygdrive/c/Airoha/AiroBlueSDK/AB1600_1_0_5_0/projects/Remote/output/pj/components/Device/AB1600/cfg_sector.o
 .rela.text.hci_init
                0x00000000        0x0 /cygdrive/c/Airoha/AiroBlueSDK/AB1600_1_0_5_0/projects/Remote/output/pj/components/Device/AB1600/cfg_sector.o
 .rela.text.hci_pkt_recv
                0x00000000        0x0 /cygdrive/c/Airoha/AiroBlueSDK/AB1600_1_0_5_0/projects/Remote/output/pj/components/Device/AB1600/cfg_sector.o
 .rela.text._hci_send_acl
                0x00000000        0x0 /cygdrive/c/Airoha/AiroBlueSDK/AB1600_1_0_5_0/projects/Remote/output/pj/components/Device/AB1600/cfg_sector.o
 .rela.text.hci_send_cmd_ex
                0x00000000        0x0 /cygdrive/c/Airoha/AiroBlueSDK/AB1600_1_0_5_0/projects/Remote/output/pj/components/Device/AB1600/cfg_sector.o
 .rela.text.hci_send_acl
                0x00000000        0x0 /cygdrive/c/Airoha/AiroBlueSDK/AB1600_1_0_5_0/projects/Remote/output/pj/components/Device/AB1600/cfg_sector.o
 .rela.text.SM_Common_AllocPairingData
                0x00000000        0x0 /cygdrive/c/Airoha/AiroBlueSDK/AB1600_1_0_5_0/projects/Remote/output/pj/components/Device/AB1600/cfg_sector.o
 .rela.text.AB_Log_HciStatusStr
                0x00000000        0x0 /cygdrive/c/Airoha/AiroBlueSDK/AB1600_1_0_5_0/projects/Remote/output/pj/components/Device/AB1600/cfg_sector.o
 .rela.text.AB_Log_HciEventParseStr
                0x00000000        0x0 /cygdrive/c/Airoha/AiroBlueSDK/AB1600_1_0_5_0/projects/Remote/output/pj/components/Device/AB1600/cfg_sector.o
 .rela.text.HexDisplay_internal
                0x00000000        0x0 /cygdrive/c/Airoha/AiroBlueSDK/AB1600_1_0_5_0/projects/Remote/output/pj/components/Device/AB1600/cfg_sector.o
 .rela.text._malloc_trim_r
                0x00000000        0x0 /cygdrive/c/Airoha/AiroBlueSDK/AB1600_1_0_5_0/projects/Remote/output/pj/components/Device/AB1600/cfg_sector.o
 .rela.text._free_r
                0x00000000        0x0 /cygdrive/c/Airoha/AiroBlueSDK/AB1600_1_0_5_0/projects/Remote/output/pj/components/Device/AB1600/cfg_sector.o
 .rela.text._malloc_r
                0x00000000        0x0 /cygdrive/c/Airoha/AiroBlueSDK/AB1600_1_0_5_0/projects/Remote/output/pj/components/Device/AB1600/cfg_sector.o
 .rela.text._mstats_r
                0x00000000        0x0 /cygdrive/c/Airoha/AiroBlueSDK/AB1600_1_0_5_0/projects/Remote/output/pj/components/Device/AB1600/cfg_sector.o
 .rela.text.malloc_stats
                0x00000000        0x0 /cygdrive/c/Airoha/AiroBlueSDK/AB1600_1_0_5_0/projects/Remote/output/pj/components/Device/AB1600/cfg_sector.o
 .rela.text.mallopt
                0x00000000        0x0 /cygdrive/c/Airoha/AiroBlueSDK/AB1600_1_0_5_0/projects/Remote/output/pj/components/Device/AB1600/cfg_sector.o
 .rela.text.mallinfo
                0x00000000        0x0 /cygdrive/c/Airoha/AiroBlueSDK/AB1600_1_0_5_0/projects/Remote/output/pj/components/Device/AB1600/cfg_sector.o
 .rela.text._sbrk_r
                0x00000000        0x0 /cygdrive/c/Airoha/AiroBlueSDK/AB1600_1_0_5_0/projects/Remote/output/pj/components/Device/AB1600/cfg_sector.o
 .rela.text.sprintf
                0x00000000        0x0 /cygdrive/c/Airoha/AiroBlueSDK/AB1600_1_0_5_0/projects/Remote/output/pj/components/Device/AB1600/cfg_sector.o
 .rela.text.vprintf
                0x00000000        0x0 /cygdrive/c/Airoha/AiroBlueSDK/AB1600_1_0_5_0/projects/Remote/output/pj/components/Device/AB1600/cfg_sector.o
 .rela.text.vprintf_help
                0x00000000        0x0 /cygdrive/c/Airoha/AiroBlueSDK/AB1600_1_0_5_0/projects/Remote/output/pj/components/Device/AB1600/cfg_sector.o
 .rela.text.vsprintf
                0x00000000        0x0 /cygdrive/c/Airoha/AiroBlueSDK/AB1600_1_0_5_0/projects/Remote/output/pj/components/Device/AB1600/cfg_sector.o
 .rela.text.sep_frac
                0x00000000        0x0 /cygdrive/c/Airoha/AiroBlueSDK/AB1600_1_0_5_0/projects/Remote/output/pj/components/Device/AB1600/cfg_sector.o
 .rela.text.double2dec
                0x00000000        0x0 /cygdrive/c/Airoha/AiroBlueSDK/AB1600_1_0_5_0/projects/Remote/output/pj/components/Device/AB1600/cfg_sector.o
 .rela.data._NDS32_REENT__stdin
                0x00000000        0x0 /cygdrive/c/Airoha/AiroBlueSDK/AB1600_1_0_5_0/projects/Remote/output/pj/components/Device/AB1600/cfg_sector.o
 .rela.data._NDS32_REENT__stdout
                0x00000000        0x0 /cygdrive/c/Airoha/AiroBlueSDK/AB1600_1_0_5_0/projects/Remote/output/pj/components/Device/AB1600/cfg_sector.o
 .rela.data._NDS32_REENT__stderr
                0x00000000        0x0 /cygdrive/c/Airoha/AiroBlueSDK/AB1600_1_0_5_0/projects/Remote/output/pj/components/Device/AB1600/cfg_sector.o
 .rela.text.fiprintf
                0x00000000        0x0 /cygdrive/c/Airoha/AiroBlueSDK/AB1600_1_0_5_0/projects/Remote/output/pj/components/Device/AB1600/cfg_sector.o
 .rela.text._fiprintf_r
                0x00000000        0x0 /cygdrive/c/Airoha/AiroBlueSDK/AB1600_1_0_5_0/projects/Remote/output/pj/components/Device/AB1600/cfg_sector.o
 .rela.text.__sprint_r
                0x00000000        0x0 /cygdrive/c/Airoha/AiroBlueSDK/AB1600_1_0_5_0/projects/Remote/output/pj/components/Device/AB1600/cfg_sector.o
 .rela.text._vfiprintf_r
                0x00000000        0x0 /cygdrive/c/Airoha/AiroBlueSDK/AB1600_1_0_5_0/projects/Remote/output/pj/components/Device/AB1600/cfg_sector.o
 .rela.text.__swsetup_r
                0x00000000        0x0 /cygdrive/c/Airoha/AiroBlueSDK/AB1600_1_0_5_0/projects/Remote/output/pj/components/Device/AB1600/cfg_sector.o
 .rela.text._fflush_r
                0x00000000        0x0 /cygdrive/c/Airoha/AiroBlueSDK/AB1600_1_0_5_0/projects/Remote/output/pj/components/Device/AB1600/cfg_sector.o
 .rela.text.fflush
                0x00000000        0x0 /cygdrive/c/Airoha/AiroBlueSDK/AB1600_1_0_5_0/projects/Remote/output/pj/components/Device/AB1600/cfg_sector.o
 .rela.text.__fp_unlock_all
                0x00000000        0x0 /cygdrive/c/Airoha/AiroBlueSDK/AB1600_1_0_5_0/projects/Remote/output/pj/components/Device/AB1600/cfg_sector.o
 .rela.text.__fp_lock_all
                0x00000000        0x0 /cygdrive/c/Airoha/AiroBlueSDK/AB1600_1_0_5_0/projects/Remote/output/pj/components/Device/AB1600/cfg_sector.o
 .rela.text._cleanup_r
                0x00000000        0x0 /cygdrive/c/Airoha/AiroBlueSDK/AB1600_1_0_5_0/projects/Remote/output/pj/components/Device/AB1600/cfg_sector.o
 .rela.text.std
                0x00000000        0x0 /cygdrive/c/Airoha/AiroBlueSDK/AB1600_1_0_5_0/projects/Remote/output/pj/components/Device/AB1600/cfg_sector.o
 .rela.text.__sinit
                0x00000000        0x0 /cygdrive/c/Airoha/AiroBlueSDK/AB1600_1_0_5_0/projects/Remote/output/pj/components/Device/AB1600/cfg_sector.o
 .rela.text._fputwc_r
                0x00000000        0x0 /cygdrive/c/Airoha/AiroBlueSDK/AB1600_1_0_5_0/projects/Remote/output/pj/components/Device/AB1600/cfg_sector.o
 .rela.text.__sfvwrite_r
                0x00000000        0x0 /cygdrive/c/Airoha/AiroBlueSDK/AB1600_1_0_5_0/projects/Remote/output/pj/components/Device/AB1600/cfg_sector.o
 .rela.text.__smakebuf_r
                0x00000000        0x0 /cygdrive/c/Airoha/AiroBlueSDK/AB1600_1_0_5_0/projects/Remote/output/pj/components/Device/AB1600/cfg_sector.o
 .rela.text._realloc_r
                0x00000000        0x0 /cygdrive/c/Airoha/AiroBlueSDK/AB1600_1_0_5_0/projects/Remote/output/pj/components/Device/AB1600/cfg_sector.o
 .rela.text.__sclose
                0x00000000        0x0 /cygdrive/c/Airoha/AiroBlueSDK/AB1600_1_0_5_0/projects/Remote/output/pj/components/Device/AB1600/cfg_sector.o
 .rela.text.__sseek
                0x00000000        0x0 /cygdrive/c/Airoha/AiroBlueSDK/AB1600_1_0_5_0/projects/Remote/output/pj/components/Device/AB1600/cfg_sector.o
 .rela.text.__swrite
                0x00000000        0x0 /cygdrive/c/Airoha/AiroBlueSDK/AB1600_1_0_5_0/projects/Remote/output/pj/components/Device/AB1600/cfg_sector.o
 .rela.text.__sread
                0x00000000        0x0 /cygdrive/c/Airoha/AiroBlueSDK/AB1600_1_0_5_0/projects/Remote/output/pj/components/Device/AB1600/cfg_sector.o
 .rela.text.__swbuf_r
                0x00000000        0x0 /cygdrive/c/Airoha/AiroBlueSDK/AB1600_1_0_5_0/projects/Remote/output/pj/components/Device/AB1600/cfg_sector.o
 .rela.text._wcrtomb_r
                0x00000000        0x0 /cygdrive/c/Airoha/AiroBlueSDK/AB1600_1_0_5_0/projects/Remote/output/pj/components/Device/AB1600/cfg_sector.o
 .rela.text._write_r
                0x00000000        0x0 /cygdrive/c/Airoha/AiroBlueSDK/AB1600_1_0_5_0/projects/Remote/output/pj/components/Device/AB1600/cfg_sector.o
 .rela.text._close_r
                0x00000000        0x0 /cygdrive/c/Airoha/AiroBlueSDK/AB1600_1_0_5_0/projects/Remote/output/pj/components/Device/AB1600/cfg_sector.o
 .rela.text._fstat_r
                0x00000000        0x0 /cygdrive/c/Airoha/AiroBlueSDK/AB1600_1_0_5_0/projects/Remote/output/pj/components/Device/AB1600/cfg_sector.o
 .rela.text._isatty_r
                0x00000000        0x0 /cygdrive/c/Airoha/AiroBlueSDK/AB1600_1_0_5_0/projects/Remote/output/pj/components/Device/AB1600/cfg_sector.o
 .rela.text._lseek_r
                0x00000000        0x0 /cygdrive/c/Airoha/AiroBlueSDK/AB1600_1_0_5_0/projects/Remote/output/pj/components/Device/AB1600/cfg_sector.o
 .rela.text._read_r
                0x00000000        0x0 /cygdrive/c/Airoha/AiroBlueSDK/AB1600_1_0_5_0/projects/Remote/output/pj/components/Device/AB1600/cfg_sector.o
                0x00100000                . = 0x100000
                0x000000c0                _BOOT_DATA_LEN = (_memory_top_BOOT - 0x100000)

.bootData       0x00100000       0xc0
                0x000000c0                . = _BOOT_DATA_LEN
 *fill*         0x00100000       0xc0 00

.data           0x001000c0      0x848 load address 0x000ab87c
 *(.data)
 .data          0x001000c0       0x90 /cygdrive/c/Airoha/AiroBlueSDK/AB1600_1_0_5_0/projects/Remote/output/main.o
                0x001000c0                clock_parm
                0x00100120                rc_deepsleep_timeout
                0x001000c8                bt_parm
                0x001000d8                mp_parm
                0x001000fc                cpu_parm
                0x00100100                rc_bsp_init_parm
                0x001000e0                uart_parm
                0x00100148                rc_cfg
 .data          0x00100150        0x8 /cygdrive/c/Airoha/AiroBlueSDK/AB1600_1_0_5_0/projects/Remote/output/remote_button.o
                0x00100150                combo2Key
                0x00100154                combo3Key
 .data          0x00100158       0x38 /cygdrive/c/Airoha/AiroBlueSDK/AB1600_1_0_5_0/projects/Remote/output/remote_mouse.o
                0x00100158                gesture_string
                0x00100170                lInitParameters
 .data          0x00100190       0xa4 /cygdrive/c/Airoha/AiroBlueSDK/AB1600_1_0_5_0/projects/Remote/output/remote_gatt.o
                0x00100190                RC_hids_map
 .data          0x00100234       0x10 /cygdrive/c/Airoha/AiroBlueSDK/AB1600_1_0_5_0/projects/Remote/output/spl/components/Libraries/external/ADPCM/g726_enc_32.o
 .data          0x00100244       0x20 /cygdrive/c/Airoha/AiroBlueSDK/AB1600_1_0_5_0/projects/Remote/output/spl/components/Libraries/external/ADPCM/g72x.o
 .data          0x00100264        0x8 components/Libraries/external/algo/\libalg.a(ab_airoha_vcmd.o)
                0x00100264                ab1602_boot
 .data          0x0010026c       0x10 components/BT/release/\libbtcore.a(ble_gap.o)
 .data          0x0010027c       0x40 components/BT/release/\libbtcore.a(ble_att.o)
                0x0010027c                ATT_ServerHandler
 .data          0x001002bc       0x20 components/BT/release/\libbtcore.a(sm.o)
                0x001002bc                gSM_IRK
                0x001002cc                gSM_Master_IRK
 .data          0x001002dc       0x28 components/BT/release/\libbtcore.a(sm_cryptotool.o)
 .data          0x00100304       0x3c components/BT/release/\libbtcore.a(sm_slave.o)
                0x00100304                SM_event_handler_table
 .data          0x00100340       0x3c components/BT/release/\libbtcore.a(sm_master.o)
                0x00100340                SM_event_handler_table_master
 .data          0x0010037c       0xe8 C:\Andestech\AndeSight211RDS\toolchains\nds32le-elf-mculib-v3m\nds32le-elf\libc\mculib\usr\lib\libm.a(gf_dpexlog.o)
 *(.data.*)
 .data.__ctype_ptr__
                0x00100464        0x4 C:\Andestech\AndeSight211RDS\toolchains\nds32le-elf-mculib-v3m\nds32le-elf\libc\mculib\usr\lib\libc.a(lib_a-ctype_.o)
                0x00100464                __ctype_ptr__
 .data.__malloc_av_
                0x00100468      0x408 C:\Andestech\AndeSight211RDS\toolchains\nds32le-elf-mculib-v3m\nds32le-elf\libc\mculib\usr\lib\libc.a(lib_a-mallocr.o)
                0x00100468                __malloc_av_
 .data.__malloc_trim_threshold
                0x00100870        0x4 C:\Andestech\AndeSight211RDS\toolchains\nds32le-elf-mculib-v3m\nds32le-elf\libc\mculib\usr\lib\libc.a(lib_a-mallocr.o)
                0x00100870                __malloc_trim_threshold
 .data.__malloc_sbrk_base
                0x00100874        0x4 C:\Andestech\AndeSight211RDS\toolchains\nds32le-elf-mculib-v3m\nds32le-elf\libc\mculib\usr\lib\libc.a(lib_a-mallocr.o)
                0x00100874                __malloc_sbrk_base
 *(.sdata_w)
 .sdata_w       0x00100878       0x10 /cygdrive/c/Airoha/AiroBlueSDK/AB1600_1_0_5_0/projects/Remote/output/pj/components/Libraries/hci_devices/hci_spi_1602.o
                0x0010087c                data_read
                0x00100884                spi_send_waiting_queue
                0x00100880                priv
                0x00100878                status_inform
 .sdata_w       0x00100888        0xc /cygdrive/c/Airoha/AiroBlueSDK/AB1600_1_0_5_0/projects/Remote/output/remote.o
                0x00100890                remote_MP_bd_addr
                0x0010088c                remote_mic_status
                0x00100888                remote_ble_status
 .sdata_w       0x00100894        0x8 /cygdrive/c/Airoha/AiroBlueSDK/AB1600_1_0_5_0/projects/Remote/output/remote_button.o
                0x00100894                keyStatus
 .sdata_w       0x0010089c        0x4 /cygdrive/c/Airoha/AiroBlueSDK/AB1600_1_0_5_0/projects/Remote/output/remote_mouse.o
                0x0010089c                fRemote_mouse_loop
 .sdata_w       0x001008a0        0xc /cygdrive/c/Airoha/AiroBlueSDK/AB1600_1_0_5_0/projects/Remote/output/remote_microphone.o
                0x001008a0                _codec_init
                0x001008a4                _codec_encoder
                0x001008a8                fRemote_mic_loop
 .sdata_w       0x001008ac        0x4 components/Libraries/external/algo/\libalg.a(ab_malloc_hook.o)
 .sdata_w       0x001008b0        0x4 components/Libraries/external/algo/\libalg.a(ab_pwr.o)
 .sdata_w       0x001008b4        0x8 components/Libraries/external/algo/\libalg.a(bsp_generic.o)
 .sdata_w       0x001008bc        0x4 components/Libraries/external/algo/\libalg.a(ab_timer.o)
 .sdata_w       0x001008c0        0xc components/Libraries/external/algo/\libalg.a(ab_airoha_vcmd.o)
                0x001008c4                vcmd_ptr
                0x001008c8                extend_callback
                0x001008c0                vcmd_pkt
 .sdata_w       0x001008cc        0x4 components/Libraries/external/algo/\libalg.a(ab_debug.o)
                0x001008cc                exception_cb
 .sdata_w       0x001008d0        0x4 components/BT/release/\libbtcore.a(hci_h4_parser.o)
                0x001008d0                decode_pkt
 .sdata_w       0x001008d4        0x4 components/BT/release/\libbtcore.a(sm_cryptotool.o)
                0x001008d4                localPk
 .sdata_w       0x001008d8        0xc components/BT/release/\libbtcore.a(hci.o)
                0x001008d8                module
                0x001008e0                dat_recv
                0x001008dc                evt_recv
 .sdata_w       0x001008e4        0x4 components/BT/release/\libbtcore.a(hci_cmd_evt_dat.o)
                0x001008e4                event_handler
 *(.sdata_h)
 .sdata_h       0x001008e8        0x6 /cygdrive/c/Airoha/AiroBlueSDK/AB1600_1_0_5_0/projects/Remote/output/pj/components/Libraries/hci_devices/hci_spi_1602.o
                0x001008ec                cur_tx_ava
                0x001008ea                cur_rx_ongoing
                0x001008e8                cur_rx_residue
 .sdata_h       0x001008ee        0x2 /cygdrive/c/Airoha/AiroBlueSDK/AB1600_1_0_5_0/projects/Remote/output/remote.o
                0x001008ee                ble_conn_interval
 .sdata_h       0x001008f0        0x2 /cygdrive/c/Airoha/AiroBlueSDK/AB1600_1_0_5_0/projects/Remote/output/remote_microphone.o
 .sdata_h       0x001008f2        0x4 components/Libraries/external/algo/\libalg.a(ab_adc.o)
 .sdata_h       0x001008f6        0x2 components/BT/release/\libbtcore.a(ble_att.o)
                0x001008f6                ATT_DEFAULT_MTU_SIZE
 *(.sdata_b)
 .sdata_b       0x001008f8        0x1 /cygdrive/c/Airoha/AiroBlueSDK/AB1600_1_0_5_0/projects/Remote/output/remote.o
                0x001008f8                remote_vbat
 .sdata_b       0x001008f9        0x1 /cygdrive/c/Airoha/AiroBlueSDK/AB1600_1_0_5_0/projects/Remote/output/remote_button.o
                0x001008f9                kslastKey
 .sdata_b       0x001008fa        0x2 /cygdrive/c/Airoha/AiroBlueSDK/AB1600_1_0_5_0/projects/Remote/output/remote_microphone.o
                0x001008fa                mic_filter_threshold
                0x001008fb                mic_under_threshold_tolerance
 .sdata_b       0x001008fc        0x1 /cygdrive/c/Airoha/AiroBlueSDK/AB1600_1_0_5_0/projects/Remote/output/spl/components/Libraries/external/ICM_20688_spi/mtd.o
 .sdata_b       0x001008fd        0x2 components/Libraries/external/algo/\libalg.a(ab_led.o)
 .sdata_b       0x001008ff        0x1 components/Libraries/external/algo/\libalg.a(ab_printf_hook.o)
 .sdata_b       0x00100900        0x2 components/Libraries/external/algo/\libalg.a(ab_airoha_vcmd.o)
                0x00100900                vcmd_state
                0x00100901                vcmd_residue
 .sdata_b       0x00100902        0x1 components/BT/release/\libbtcore.a(bt.o)
 .sdata_b       0x00100903        0x1 components/BT/release/\libbtcore.a(ble_gap.o)
 .sdata_b       0x00100904        0x1 components/BT/release/\libbtcore.a(hci.o)
                0x00100904                log_level
 .sdata_b       0x00100905        0x1 components/BT/release/\libbtcore.a(hci_cmd_evt_dat.o)
 FILL mask 0xff
                0x00100908                . = ALIGN (0x4)
 *fill*         0x00100906        0x2 ff
                0x0001c0c4                _DFU_AREA_SIZE = ((text_end - 0x90000) + SIZEOF (.data))

.bss            0x00100908      0xdb1
 *(COMMON)
 COMMON         0x00100908        0xc /cygdrive/c/Airoha/AiroBlueSDK/AB1600_1_0_5_0/projects/Remote/output/remote.o
                0x00100908                boot
 COMMON         0x00100914       0x1a /cygdrive/c/Airoha/AiroBlueSDK/AB1600_1_0_5_0/projects/Remote/output/remote_mouse.o
                0x00100914                lData
                0x00100920                lSensorSamples
 *fill*         0x0010092e        0x2 00
 COMMON         0x00100930       0x14 /cygdrive/c/Airoha/AiroBlueSDK/AB1600_1_0_5_0/projects/Remote/output/remote_gatt.o
                0x00100930                RC_hids_report2
 COMMON         0x00100944       0xa0 /cygdrive/c/Airoha/AiroBlueSDK/AB1600_1_0_5_0/projects/Remote/output/spl/components/Libraries/external/ADPCM/g726_enc_32.o
                0x00100944                filt_state
 COMMON         0x001009e4       0x10 components/Libraries/external/AML/\libAML.a(RollCompFullDynamic3D.o)
                0x001009e4                mLastQ
 COMMON         0x001009f4       0x80 components/BT/release/\libbtcore.a(ble_l2cap.o)
                0x001009f4                l2_ch
 COMMON         0x00100a74       0xe8 components/BT/release/\libbtcore.a(ble_att.o)
                0x00100a74                gATT_HeadPWQ
                0x00100ab4                gATT_ctl
                0x00100b1c                gATT_TailPWQ
 COMMON         0x00100b5c       0x40 components/BT/release/\libbtcore.a(sm.o)
                0x00100b5c                gSMPairingData
 *(.bss)
 .bss           0x00100b9c        0x8 /cygdrive/c/Airoha/AiroBlueSDK/AB1600_1_0_5_0/projects/Remote/output/main.o
                0x00100b9c                printf_parm
                0x00100ba0                rc_ffunc
 .bss           0x00100ba4       0x10 /cygdrive/c/Airoha/AiroBlueSDK/AB1600_1_0_5_0/projects/Remote/output/remote.o
                0x00100ba4                remote_bt_inited
                0x00100ba9                remote_soft_reset_enabled
                0x00100bab                remote_link_encrypted
                0x00100ba8                remote_deepsleep_enabled
                0x00100bae                remote_vcmd_mouse_calibrating
                0x00100bac                remote_block_keycode_enabled
                0x00100ba7                remote_gesture_enabled
                0x00100bad                remote_firmware_updating
                0x00100ba5                remote_bt_bonded
                0x00100ba6                remote_mouse_enabled
                0x00100baa                remote_special_mode_enabled
                0x00100bb0                remote_sleep_disable
 .bss           0x00100bb4       0x24 /cygdrive/c/Airoha/AiroBlueSDK/AB1600_1_0_5_0/projects/Remote/output/remote_button.o
 .bss           0x00100bd8        0x2 /cygdrive/c/Airoha/AiroBlueSDK/AB1600_1_0_5_0/projects/Remote/output/remote_mouse.o
 *fill*         0x00100bda        0x2 00
 .bss           0x00100bdc       0x24 /cygdrive/c/Airoha/AiroBlueSDK/AB1600_1_0_5_0/projects/Remote/output/remote_microphone.o
 .bss           0x00100c00        0xc /cygdrive/c/Airoha/AiroBlueSDK/AB1600_1_0_5_0/projects/Remote/output/remote_gatt.o
 .bss           0x00100c0c        0x1 /cygdrive/c/Airoha/AiroBlueSDK/AB1600_1_0_5_0/projects/Remote/output/remote_led.o
 .bss           0x00100c0d        0x1 /cygdrive/c/Airoha/AiroBlueSDK/AB1600_1_0_5_0/projects/Remote/output/spl/components/Libraries/external/ICM_20688_spi/mtd.o
 *fill*         0x00100c0e        0x2 00
 .bss           0x00100c10       0x54 /cygdrive/c/Airoha/AiroBlueSDK/AB1600_1_0_5_0/projects/Remote/output/spl/components/Libraries/external/ADPCM/g726_enc_32.o
 .bss           0x00100c64       0x28 components/BT/release/hci_protocol_1602.o
 .bss           0x00100c8c      0x140 components/Libraries/external/AML/\libAML.a(AIR_MOTION_Lib.o)
 .bss           0x00100dcc        0x8 components/Libraries/external/algo/\libalg.a(ab_adc.o)
 .bss           0x00100dd4        0x4 components/Libraries/external/algo/\libalg.a(ab_pwr.o)
 .bss           0x00100dd8        0xc components/Libraries/external/algo/\libalg.a(ab_spi.o)
 .bss           0x00100de4       0x10 components/Libraries/external/algo/\libalg.a(bsp_generic.o)
 .bss           0x00100df4        0x8 components/Libraries/external/algo/\libalg.a(ab_timer.o)
 .bss           0x00100dfc        0xc components/Libraries/external/algo/\libalg.a(ab_uart.o)
 .bss           0x00100e08       0x10 components/Libraries/external/algo/\libalg.a(ab_airoha_vcmd.o)
 .bss           0x00100e18        0x1 components/Libraries/external/algo/\libalg.a(drv_adc.o)
 *fill*         0x00100e19        0x3 00
 .bss           0x00100e1c       0x78 components/Libraries/external/algo/\libalg.a(drv_gpio.o)
 .bss           0x00100e94        0x4 components/Libraries/external/algo/\libalg.a(drv_keyscan.o)
 .bss           0x00100e98       0x14 components/Libraries/external/algo/\libalg.a(drv_mic.o)
 .bss           0x00100eac       0x14 components/Libraries/external/algo/\libalg.a(drv_spi.o)
 .bss           0x00100ec0       0x34 components/Libraries/external/algo/\libalg.a(drv_timer32b0.o)
 .bss           0x00100ef4       0x44 components/Libraries/external/algo/\libalg.a(drv_uart.o)
 .bss           0x00100f38        0xc components/Libraries/external/algo/\libalg.a(service_battery.o)
 .bss           0x00100f44      0x134 components/Libraries/external/algo/\libalg.a(service_device_firmware_update_OTA.o)
 .bss           0x00101078        0xc components/Libraries/external/algo/\libalg.a(service_generic_attribute.o)
 .bss           0x00101084       0xec components/Libraries/external/algo/\libalg.a(console.o)
 .bss           0x00101170        0x8 components/BT/release/\libbtcore.a(hci_h4_parser.o)
 .bss           0x00101178        0x4 components/BT/release/\libbtcore.a(bt.o)
 .bss           0x0010117c        0x8 components/BT/release/\libbtcore.a(ble_gap.o)
 .bss           0x00101184      0x3d4 components/BT/release/\libbtcore.a(ble_gap_links.o)
 .bss           0x00101558        0xc components/BT/release/\libbtcore.a(ble_gatt_server.o)
 .bss           0x00101564       0x38 components/BT/release/\libbtcore.a(sm_cryptotool.o)
 .bss           0x0010159c        0x4 components/BT/release/\libbtcore.a(sm_hal.o)
 .bss           0x001015a0        0x8 components/BT/release/\libbtcore.a(sm_protocol.o)
 .bss           0x001015a8        0x4 components/BT/release/\libbtcore.a(Drv_MMITimer.o)
 .bss           0x001015ac        0x8 components/BT/release/\libbtcore.a(Ab_MMITimer.o)
 .bss           0x001015b4        0x8 components/BT/release/\libbtcore.a(Drv_1602.o)
 .bss           0x001015bc       0x18 components/BT/release/\libbtcore.a(hci_cmd_evt_dat.o)
 .bss           0x001015d4        0x4 output/\lib1600.a(ab_log.o)
 *(.dwbss)
 *(.bss.*)
 .bss.__malloc_top_pad
                0x001015d8        0x4 C:\Andestech\AndeSight211RDS\toolchains\nds32le-elf-mculib-v3m\nds32le-elf\libc\mculib\usr\lib\libc.a(lib_a-mallocr.o)
                0x001015d8                __malloc_top_pad
 .bss.__malloc_max_sbrked_mem
                0x001015dc        0x4 C:\Andestech\AndeSight211RDS\toolchains\nds32le-elf-mculib-v3m\nds32le-elf\libc\mculib\usr\lib\libc.a(lib_a-mallocr.o)
                0x001015dc                __malloc_max_sbrked_mem
 .bss.__malloc_max_total_mem
                0x001015e0        0x4 C:\Andestech\AndeSight211RDS\toolchains\nds32le-elf-mculib-v3m\nds32le-elf\libc\mculib\usr\lib\libc.a(lib_a-mallocr.o)
                0x001015e0                __malloc_max_total_mem
 .bss.__malloc_current_mallinfo
                0x001015e4       0x28 C:\Andestech\AndeSight211RDS\toolchains\nds32le-elf-mculib-v3m\nds32le-elf\libc\mculib\usr\lib\libc.a(lib_a-mallocr.o)
                0x001015e4                __malloc_current_mallinfo
 .bss.output_buff
                0x0010160c        0x4 C:\Andestech\AndeSight211RDS\toolchains\nds32le-elf-mculib-v3m\nds32le-elf\libc\mculib\usr\lib\libc.a(lib_a-vprintf.o)
 .bss.output_idx
                0x00101610        0x4 C:\Andestech\AndeSight211RDS\toolchains\nds32le-elf-mculib-v3m\nds32le-elf\libc\mculib\usr\lib\libc.a(lib_a-vprintf.o)
 .bss._NDS32_REENT__errno
                0x00101614        0x4 C:\Andestech\AndeSight211RDS\toolchains\nds32le-elf-mculib-v3m\nds32le-elf\libc\mculib\usr\lib\libc.a(lib_a-data-errno.o)
                0x00101614                _NDS32_REENT__errno
 *(.scommon_w)
 .scommon_w     0x00101618        0xf /cygdrive/c/Airoha/AiroBlueSDK/AB1600_1_0_5_0/projects/Remote/output/remote.o
                0x00101618                ble_current_peer
                0x00101620                ble_bonded_peer
 *fill*         0x00101627        0x1 00
 .scommon_w     0x00101628        0x6 /cygdrive/c/Airoha/AiroBlueSDK/AB1600_1_0_5_0/projects/Remote/output/remote_mouse.o
                0x00101628                ACCO
 *fill*         0x0010162e        0x2 00
 .scommon_w     0x00101630       0x16 /cygdrive/c/Airoha/AiroBlueSDK/AB1600_1_0_5_0/projects/Remote/output/remote_gatt.o
                0x00101630                RC_hids_report4
                0x00101634                RC_hids_report3
                0x00101638                RC_hids_report1
                0x0010163c                RC_hids_cp
                0x00101640                recon_addr
 .scommon_w     0x00101646        0x0 components/BT/release/hci_protocol_1602.o
 *fill*         0x00101646        0x2 00
 .scommon_w     0x00101648       0x20 components/Libraries/external/AML/\libAML.a(RollCompFullDynamic3D.o)
                0x00101648                mBwAxStruct
                0x00101650                mAccStruct
                0x00101658                mAngle
                0x0010165c                mLastAccStruct
                0x00101664                mStableAxHysStruct
 .scommon_w     0x00101668        0xc components/BT/release/\libbtcore.a(ble_att.o)
                0x00101668                gAttClient
                0x00101670                gATT_Server
 .scommon_w     0x00101674        0x8 components/BT/release/\libbtcore.a(ble_gatt_client.o)
                0x00101674                gatt_evt
                0x00101678                ppara
 .scommon_w     0x0010167c        0x2 components/BT/release/\libbtcore.a(sm.o)
                0x0010167c                gSM_ctl
 *fill*         0x0010167e        0x2 00
 .scommon_w     0x00101680        0x6 components/BT/release/\libbtcore.a(sm_hal.o)
                0x00101680                addr
 *fill*         0x00101686        0x2 00
 .scommon_w     0x00101688        0x4 C:\Andestech\AndeSight211RDS\toolchains\nds32le-elf-mculib-v3m\nds32le-elf\libc\mculib\usr\lib\libc.a(lib_a-reent_errno.o)
                0x00101688                errno
 *(.scommon_h)
 .scommon_h     0x0010168c        0x4 /cygdrive/c/Airoha/AiroBlueSDK/AB1600_1_0_5_0/projects/Remote/output/remote.o
                0x0010168c                ble_conn_handle
                0x0010168e                ble_slave_latency
 .scommon_h     0x00101690        0x8 /cygdrive/c/Airoha/AiroBlueSDK/AB1600_1_0_5_0/projects/Remote/output/remote_gatt.o
                0x00101690                report2_handle
                0x00101692                report3_handle
                0x00101694                report4_handle
                0x00101696                report1_handle
 .scommon_h     0x00101698        0x2 /cygdrive/c/Airoha/AiroBlueSDK/AB1600_1_0_5_0/projects/Remote/output/spl/components/Libraries/external/ADPCM/g726_enc_32.o
                0x00101698                idx
 .scommon_h     0x0010169a        0x4 /cygdrive/c/Airoha/AiroBlueSDK/AB1600_1_0_5_0/projects/Remote/output/spl/components/Libraries/external/ima_adpcm/ima_enc.o
                0x0010169a                previndex
                0x0010169c                prevsample
 .scommon_h     0x0010169e        0xc components/Libraries/external/AML/\libAML.a(RollCompFullDynamic3D.o)
                0x0010169e                mLastGx
                0x001016a0                mLastGy
                0x001016a2                mGyrSFactor
                0x001016a4                mLastGz
                0x001016a6                mAccSFactor
                0x001016a8                mGyrMaxThreshold
 .scommon_h     0x001016aa        0x6 components/BT/release/\libbtcore.a(ble_att.o)
                0x001016aa                att_transaction_mask
                0x001016ac                att_transaction_mask_TO
                0x001016ae                ATT_SDK_SERVER_SIZE
 .scommon_h     0x001016b0        0x2 components/BT/release/\libbtcore.a(ble_gatt_client.o)
                0x001016b0                gatt_evt_size
 *(.scommon_b)
 .scommon_b     0x001016b2        0x4 /cygdrive/c/Airoha/AiroBlueSDK/AB1600_1_0_5_0/projects/Remote/output/remote_mouse.o
                0x001016b2                mouse_enable_request
                0x001016b3                mouse_disable_request
                0x001016b4                mouse_10ms_time_out
                0x001016b5                mouse_motion_detected
 .scommon_b     0x001016b6        0x1 /cygdrive/c/Airoha/AiroBlueSDK/AB1600_1_0_5_0/projects/Remote/output/remote_gatt.o
                0x001016b6                RC_adpcm_codecsel
 .scommon_b     0x001016b7        0x1 /cygdrive/c/Airoha/AiroBlueSDK/AB1600_1_0_5_0/projects/Remote/output/remote_gpio.o
                0x001016b7                IsWakeGpioProcess
 .scommon_b     0x001016b8        0x1 components/Libraries/external/AML/\libAML.a(RollCompFullDynamic3D.o)
                0x001016b8                mAxHyster
                0x001016b9                _end = .
                0x00108000                __SYS_STACK_START = 0x108000
                0x00108000                _stack = __SYS_STACK_START
                0x000ab87c                __DATA_SEC_LMA = LOADADDR (.data)
                0x001000c0                __DATA_SEC_VMA = ADDR (.data)
                0x00000848                __DATA_SEC_LEN = SIZEOF (.data)
                0x00100908                __BSS_SEC_START = ADDR (.bss)
                0x00000db1                __BSS_SEC_LEN = SIZEOF (.bss)
                0x00200000                MCU = 0x200000
                0x00201000                CMTFLASH = 0x201000
                0x00202000                SERIALFLASH = 0x202000
                0x00203000                CODEPATCH = 0x203000
                0x00204000                IOMUX = 0x204000
                0x00205000                PMU = 0x205000
                0x00206000                WIRE3 = 0x206000
                0x00208000                SRP = 0x208000
                0x00209000                FE25519 = 0x209000
                0x0020c000                SMARTCARD = 0x20c000
                0x00210000                UART = 0x210000
                0x00211000                UART2 = 0x211000
                0x00214000                I2C = 0x214000
                0x00218000                SPI = 0x218000
                0x00219000                SPI2 = 0x219000
                0x0021c000                AUDIO = 0x21c000
                0x0021d000                ADC = 0x21d000
                0x00220000                TMR32B0 = 0x220000
                0x00221000                TMR32B1 = 0x221000
                0x00222000                TMR16B0 = 0x222000
                0x00223000                TMR16B1 = 0x223000
                0x00224000                WDT = 0x224000
                0x00225000                LED = 0x225000
                0x00226000                KEYSCAN = 0x226000
                0x00227000                MOUSE = 0x227000
                0x0021c01c                _AUDIO = 0x21c01c
LOAD components/Libraries/external/AML/\libAML.a
LOAD components/Libraries/external/opus/\libopus.a
LOAD components/Libraries/external/algo/\libalg.a
LOAD output/\lib1600.a
LOAD components/BT/release/\libbtcore.a
LOAD output/\lib1600.a
LOAD C:\Andestech\AndeSight211RDS\toolchains\nds32le-elf-mculib-v3m\nds32le-elf\libc\mculib\usr\lib\libm.a
LOAD C:\Andestech\AndeSight211RDS\toolchains\nds32le-elf-mculib-v3m\nds32le-elf\libc\mculib\usr\lib\libc.a
LOAD C:\Andestech\AndeSight211RDS\toolchains\nds32le-elf-mculib-v3m\nds32le-elf\libc\mculib\usr\lib\libg.a
LOAD C:\Andestech\AndeSight211RDS\toolchains\nds32le-elf-mculib-v3m\lib\gcc\nds32le-elf\4.4.4\mculib\libgcc.a
OUTPUT(/cygdrive/c/Airoha/AiroBlueSDK/AB1600_1_0_5_0/projects/Remote/output/remote.out elf32-nds32)

.mdebug.abi_nds32
                0x00000000        0x0
 .mdebug.abi_nds32
                0x00000000        0x0 /cygdrive/c/Airoha/AiroBlueSDK/AB1600_1_0_5_0/projects/Remote/output/pj/components/Device/AB1600/cfg_sector.o
 .mdebug.abi_nds32
                0x00000000        0x0 /cygdrive/c/Airoha/AiroBlueSDK/AB1600_1_0_5_0/projects/Remote/output/pj/components/Libraries/hci_devices/hci_spi_1602.o
 .mdebug.abi_nds32
                0x00000000        0x0 /cygdrive/c/Airoha/AiroBlueSDK/AB1600_1_0_5_0/projects/Remote/output/pj/components/BT/release/bt_patch/1602_patching.o
 .mdebug.abi_nds32
                0x00000000        0x0 /cygdrive/c/Airoha/AiroBlueSDK/AB1600_1_0_5_0/projects/Remote/output/main.o
 .mdebug.abi_nds32
                0x00000000        0x0 /cygdrive/c/Airoha/AiroBlueSDK/AB1600_1_0_5_0/projects/Remote/output/remote.o
 .mdebug.abi_nds32
                0x00000000        0x0 /cygdrive/c/Airoha/AiroBlueSDK/AB1600_1_0_5_0/projects/Remote/output/remote_button.o
 .mdebug.abi_nds32
                0x00000000        0x0 /cygdrive/c/Airoha/AiroBlueSDK/AB1600_1_0_5_0/projects/Remote/output/remote_mouse.o
 .mdebug.abi_nds32
                0x00000000        0x0 /cygdrive/c/Airoha/AiroBlueSDK/AB1600_1_0_5_0/projects/Remote/output/remote_microphone.o
 .mdebug.abi_nds32
                0x00000000        0x0 /cygdrive/c/Airoha/AiroBlueSDK/AB1600_1_0_5_0/projects/Remote/output/remote_gatt.o
 .mdebug.abi_nds32
                0x00000000        0x0 /cygdrive/c/Airoha/AiroBlueSDK/AB1600_1_0_5_0/projects/Remote/output/remote_adv.o
 .mdebug.abi_nds32
                0x00000000        0x0 /cygdrive/c/Airoha/AiroBlueSDK/AB1600_1_0_5_0/projects/Remote/output/remote_led.o
 .mdebug.abi_nds32
                0x00000000        0x0 /cygdrive/c/Airoha/AiroBlueSDK/AB1600_1_0_5_0/projects/Remote/output/remote_gpio.o
 .mdebug.abi_nds32
                0x00000000        0x0 /cygdrive/c/Airoha/AiroBlueSDK/AB1600_1_0_5_0/projects/Remote/output/remote_vcmd.o
 .mdebug.abi_nds32
                0x00000000        0x0 /cygdrive/c/Airoha/AiroBlueSDK/AB1600_1_0_5_0/projects/Remote/output/spl/components/Libraries/external/ICM_20688_spi/mtd.o
 .mdebug.abi_nds32
                0x00000000        0x0 /cygdrive/c/Airoha/AiroBlueSDK/AB1600_1_0_5_0/projects/Remote/output/spl/components/Libraries/external/ADPCM/g726_enc_32.o
 .mdebug.abi_nds32
                0x00000000        0x0 /cygdrive/c/Airoha/AiroBlueSDK/AB1600_1_0_5_0/projects/Remote/output/spl/components/Libraries/external/ADPCM/g72x.o
 .mdebug.abi_nds32
                0x00000000        0x0 /cygdrive/c/Airoha/AiroBlueSDK/AB1600_1_0_5_0/projects/Remote/output/spl/components/Libraries/external/ima_adpcm/ima_enc.o
 .mdebug.abi_nds32
                0x00000000        0x0 components/BT/release/hci_protocol_1602.o
 .mdebug.abi_nds32
                0x00000000        0x0 components/Libraries/external/AML/\libAML.a(AIR_MOTION_Lib.o)
 .mdebug.abi_nds32
                0x00000000        0x0 components/Libraries/external/AML/\libAML.a(RollCompFullDynamic3D.o)
 .mdebug.abi_nds32
                0x00000000        0x0 components/Libraries/external/algo/\libalg.a(ab_adc.o)
 .mdebug.abi_nds32
                0x00000000        0x0 components/Libraries/external/algo/\libalg.a(ab_clk.o)
 .mdebug.abi_nds32
                0x00000000        0x0 components/Libraries/external/algo/\libalg.a(ab_assert.o)
 .mdebug.abi_nds32
                0x00000000        0x0 components/Libraries/external/algo/\libalg.a(ab_flash.o)
 .mdebug.abi_nds32
                0x00000000        0x0 components/Libraries/external/algo/\libalg.a(ab_led.o)
 .mdebug.abi_nds32
                0x00000000        0x0 components/Libraries/external/algo/\libalg.a(ab_malloc_hook.o)
 .mdebug.abi_nds32
                0x00000000        0x0 components/Libraries/external/algo/\libalg.a(ab_printf_hook.o)
 .mdebug.abi_nds32
                0x00000000        0x0 components/Libraries/external/algo/\libalg.a(ab_pwr.o)
 .mdebug.abi_nds32
                0x00000000        0x0 components/Libraries/external/algo/\libalg.a(ab_queue.o)
 .mdebug.abi_nds32
                0x00000000        0x0 components/Libraries/external/algo/\libalg.a(ab_mp_sector.o)
 .mdebug.abi_nds32
                0x00000000        0x0 components/Libraries/external/algo/\libalg.a(ab_spi.o)
 .mdebug.abi_nds32
                0x00000000        0x0 components/Libraries/external/algo/\libalg.a(bsp_generic.o)
 .mdebug.abi_nds32
                0x00000000        0x0 components/Libraries/external/algo/\libalg.a(ab_timer.o)
 .mdebug.abi_nds32
                0x00000000        0x0 components/Libraries/external/algo/\libalg.a(ab_uart.o)
 .mdebug.abi_nds32
                0x00000000        0x0 components/Libraries/external/algo/\libalg.a(ab_airoha_vcmd.o)
 .mdebug.abi_nds32
                0x00000000        0x0 components/Libraries/external/algo/\libalg.a(drv_adc.o)
 .mdebug.abi_nds32
                0x00000000        0x0 components/Libraries/external/algo/\libalg.a(drv_clk.o)
 .mdebug.abi_nds32
                0x00000000        0x0 components/Libraries/external/algo/\libalg.a(drv_flash.o)
 .mdebug.abi_nds32
                0x00000000        0x0 components/Libraries/external/algo/\libalg.a(drv_gpio.o)
 .mdebug.abi_nds32
                0x00000000        0x0 components/Libraries/external/algo/\libalg.a(drv_odgpio.o)
 .mdebug.abi_nds32
                0x00000000        0x0 components/Libraries/external/algo/\libalg.a(drv_keyscan.o)
 .mdebug.abi_nds32
                0x00000000        0x0 components/Libraries/external/algo/\libalg.a(drv_led.o)
 .mdebug.abi_nds32
                0x00000000        0x0 components/Libraries/external/algo/\libalg.a(drv_mic.o)
 .mdebug.abi_nds32
                0x00000000        0x0 components/Libraries/external/algo/\libalg.a(drv_odpinmux.o)
 .mdebug.abi_nds32
                0x00000000        0x0 components/Libraries/external/algo/\libalg.a(drv_pinmux.o)
 .mdebug.abi_nds32
                0x00000000        0x0 components/Libraries/external/algo/\libalg.a(drv_pwr.o)
 .mdebug.abi_nds32
                0x00000000        0x0 components/Libraries/external/algo/\libalg.a(drv_spi.o)
 .mdebug.abi_nds32
                0x00000000        0x0 components/Libraries/external/algo/\libalg.a(drv_timer32b0.o)
 .mdebug.abi_nds32
                0x00000000        0x0 components/Libraries/external/algo/\libalg.a(drv_uart.o)
 .mdebug.abi_nds32
                0x00000000        0x0 components/Libraries/external/algo/\libalg.a(drv_wdt.o)
 .mdebug.abi_nds32
                0x00000000        0x0 components/Libraries/external/algo/\libalg.a(service_battery.o)
 .mdebug.abi_nds32
                0x00000000        0x0 components/Libraries/external/algo/\libalg.a(service_device_firmware_update_OTA.o)
 .mdebug.abi_nds32
                0x00000000        0x0 components/Libraries/external/algo/\libalg.a(service_device_information.o)
 .mdebug.abi_nds32
                0x00000000        0x0 components/Libraries/external/algo/\libalg.a(service_generic_access.o)
 .mdebug.abi_nds32
                0x00000000        0x0 components/Libraries/external/algo/\libalg.a(service_generic_attribute.o)
 .mdebug.abi_nds32
                0x00000000        0x0 components/Libraries/external/algo/\libalg.a(service_human_interface_device.o)
 .mdebug.abi_nds32
                0x00000000        0x0 components/Libraries/external/algo/\libalg.a(console.o)
 .mdebug.abi_nds32
                0x00000000        0x0 components/Libraries/external/algo/\libalg.a(shell.o)
 .mdebug.abi_nds32
                0x00000000        0x0 components/Libraries/external/algo/\libalg.a(ab_debug.o)
 .mdebug.abi_nds32
                0x00000000        0x0 components/Libraries/external/algo/\libalg.a(dfu.o)
 .mdebug.abi_nds32
                0x00000000        0x0 components/Libraries/external/algo/\libalg.a(ab_module.o)
 .mdebug.abi_nds32
                0x00000000        0x0 components/BT/release/\libbtcore.a(hci_h4_parser.o)
 .mdebug.abi_nds32
                0x00000000        0x0 components/BT/release/\libbtcore.a(bt.o)
 .mdebug.abi_nds32
                0x00000000        0x0 components/BT/release/\libbtcore.a(ble_gap.o)
 .mdebug.abi_nds32
                0x00000000        0x0 components/BT/release/\libbtcore.a(ble_gap_links.o)
 .mdebug.abi_nds32
                0x00000000        0x0 components/BT/release/\libbtcore.a(ble_gap_sm.o)
 .mdebug.abi_nds32
                0x00000000        0x0 components/BT/release/\libbtcore.a(ble_l2cap.o)
 .mdebug.abi_nds32
                0x00000000        0x0 components/BT/release/\libbtcore.a(l2cap_le_sig.o)
 .mdebug.abi_nds32
                0x00000000        0x0 components/BT/release/\libbtcore.a(ble_att.o)
 .mdebug.abi_nds32
                0x00000000        0x0 components/BT/release/\libbtcore.a(ble_gatt_server.o)
 .mdebug.abi_nds32
                0x00000000        0x0 components/BT/release/\libbtcore.a(ble_gatt_client.o)
 .mdebug.abi_nds32
                0x00000000        0x0 components/BT/release/\libbtcore.a(sm.o)
 .mdebug.abi_nds32
                0x00000000        0x0 components/BT/release/\libbtcore.a(sm_cryptotool.o)
 .mdebug.abi_nds32
                0x00000000        0x0 components/BT/release/\libbtcore.a(sm_hal.o)
 .mdebug.abi_nds32
                0x00000000        0x0 components/BT/release/\libbtcore.a(sm_protocol.o)
 .mdebug.abi_nds32
                0x00000000        0x0 components/BT/release/\libbtcore.a(sm_slave.o)
 .mdebug.abi_nds32
                0x00000000        0x0 components/BT/release/\libbtcore.a(sm_master.o)
 .mdebug.abi_nds32
                0x00000000        0x0 components/BT/release/\libbtcore.a(Drv_Trng.o)
 .mdebug.abi_nds32
                0x00000000        0x0 components/BT/release/\libbtcore.a(Drv_MMITimer.o)
 .mdebug.abi_nds32
                0x00000000        0x0 components/BT/release/\libbtcore.a(Ab_MMITimer.o)
 .mdebug.abi_nds32
                0x00000000        0x0 components/BT/release/\libbtcore.a(Drv_1602.o)
 .mdebug.abi_nds32
                0x00000000        0x0 components/BT/release/\libbtcore.a(encrypt.o)
 .mdebug.abi_nds32
                0x00000000        0x0 components/BT/release/\libbtcore.a(hci.o)
 .mdebug.abi_nds32
                0x00000000        0x0 components/BT/release/\libbtcore.a(hci_cmd_evt_dat.o)
 .mdebug.abi_nds32
                0x00000000        0x0 components/BT/release/\libbtcore.a(sm_common.o)
 .mdebug.abi_nds32
                0x00000000        0x0 output/\lib1600.a(ab_log.o)
 .mdebug.abi_nds32
                0x00000000        0x0 C:\Andestech\AndeSight211RDS\toolchains\nds32le-elf-mculib-v3m\nds32le-elf\libc\mculib\usr\lib\libc.a(lib_a-ctype_.o)
 .mdebug.abi_nds32
                0x00000000        0x0 C:\Andestech\AndeSight211RDS\toolchains\nds32le-elf-mculib-v3m\nds32le-elf\libc\mculib\usr\lib\libc.a(lib_a-freer.o)
 .mdebug.abi_nds32
                0x00000000        0x0 C:\Andestech\AndeSight211RDS\toolchains\nds32le-elf-mculib-v3m\nds32le-elf\libc\mculib\usr\lib\libc.a(lib_a-mallocr.o)
 .mdebug.abi_nds32
                0x00000000        0x0 C:\Andestech\AndeSight211RDS\toolchains\nds32le-elf-mculib-v3m\nds32le-elf\libc\mculib\usr\lib\libc.a(lib_a-mlock.o)
 .mdebug.abi_nds32
                0x00000000        0x0 C:\Andestech\AndeSight211RDS\toolchains\nds32le-elf-mculib-v3m\nds32le-elf\libc\mculib\usr\lib\libc.a(lib_a-mstats.o)
 .mdebug.abi_nds32
                0x00000000        0x0 C:\Andestech\AndeSight211RDS\toolchains\nds32le-elf-mculib-v3m\nds32le-elf\libc\mculib\usr\lib\libc.a(lib_a-puts.o)
 .mdebug.abi_nds32
                0x00000000        0x0 C:\Andestech\AndeSight211RDS\toolchains\nds32le-elf-mculib-v3m\nds32le-elf\libc\mculib\usr\lib\libc.a(lib_a-sbrkr.o)
 .mdebug.abi_nds32
                0x00000000        0x0 C:\Andestech\AndeSight211RDS\toolchains\nds32le-elf-mculib-v3m\nds32le-elf\libc\mculib\usr\lib\libc.a(lib_a-sprintf.o)
 .mdebug.abi_nds32
                0x00000000        0x0 C:\Andestech\AndeSight211RDS\toolchains\nds32le-elf-mculib-v3m\nds32le-elf\libc\mculib\usr\lib\libc.a(lib_a-vprintf.o)
 .mdebug.abi_nds32
                0x00000000        0x0 C:\Andestech\AndeSight211RDS\toolchains\nds32le-elf-mculib-v3m\nds32le-elf\libc\mculib\usr\lib\libc.a(lib_a-vsprintf.o)
 .mdebug.abi_nds32
                0x00000000        0x0 C:\Andestech\AndeSight211RDS\toolchains\nds32le-elf-mculib-v3m\nds32le-elf\libc\mculib\usr\lib\libc.a(do_printf.o)
 .mdebug.abi_nds32
                0x00000000        0x0 C:\Andestech\AndeSight211RDS\toolchains\nds32le-elf-mculib-v3m\nds32le-elf\libc\mculib\usr\lib\libc.a(xint2dec.o)
 .mdebug.abi_nds32
                0x00000000        0x0 C:\Andestech\AndeSight211RDS\toolchains\nds32le-elf-mculib-v3m\nds32le-elf\libc\mculib\usr\lib\libc.a(lib_a-data-errno.o)
 .mdebug.abi_nds32
                0x00000000        0x0 C:\Andestech\AndeSight211RDS\toolchains\nds32le-elf-mculib-v3m\nds32le-elf\libc\mculib\usr\lib\libc.a(lib_a-data-stdio.o)
 .mdebug.abi_nds32
                0x00000000        0x0 C:\Andestech\AndeSight211RDS\toolchains\nds32le-elf-mculib-v3m\nds32le-elf\libc\mculib\usr\lib\libc.a(lib_a-fiprintf.o)
 .mdebug.abi_nds32
                0x00000000        0x0 C:\Andestech\AndeSight211RDS\toolchains\nds32le-elf-mculib-v3m\nds32le-elf\libc\mculib\usr\lib\libc.a(lib_a-mallinfor.o)
 .mdebug.abi_nds32
                0x00000000        0x0 C:\Andestech\AndeSight211RDS\toolchains\nds32le-elf-mculib-v3m\nds32le-elf\libc\mculib\usr\lib\libc.a(lib_a-malloptr.o)
 .mdebug.abi_nds32
                0x00000000        0x0 C:\Andestech\AndeSight211RDS\toolchains\nds32le-elf-mculib-v3m\nds32le-elf\libc\mculib\usr\lib\libc.a(lib_a-mallstatsr.o)
 .mdebug.abi_nds32
                0x00000000        0x0 C:\Andestech\AndeSight211RDS\toolchains\nds32le-elf-mculib-v3m\nds32le-elf\libc\mculib\usr\lib\libc.a(lib_a-reent_errno.o)
 .mdebug.abi_nds32
                0x00000000        0x0 C:\Andestech\AndeSight211RDS\toolchains\nds32le-elf-mculib-v3m\nds32le-elf\libc\mculib\usr\lib\libc.a(lib_a-vfiprintf.o)
 .mdebug.abi_nds32
                0x00000000        0x0 C:\Andestech\AndeSight211RDS\toolchains\nds32le-elf-mculib-v3m\nds32le-elf\libc\mculib\usr\lib\libc.a(lib_a-wsetup.o)
 .mdebug.abi_nds32
                0x00000000        0x0 C:\Andestech\AndeSight211RDS\toolchains\nds32le-elf-mculib-v3m\nds32le-elf\libc\mculib\usr\lib\libc.a(lib_a-data-findfp.o)
 .mdebug.abi_nds32
                0x00000000        0x0 C:\Andestech\AndeSight211RDS\toolchains\nds32le-elf-mculib-v3m\nds32le-elf\libc\mculib\usr\lib\libc.a(lib_a-fflush.o)
 .mdebug.abi_nds32
                0x00000000        0x0 C:\Andestech\AndeSight211RDS\toolchains\nds32le-elf-mculib-v3m\nds32le-elf\libc\mculib\usr\lib\libc.a(lib_a-findfp.o)
 .mdebug.abi_nds32
                0x00000000        0x0 C:\Andestech\AndeSight211RDS\toolchains\nds32le-elf-mculib-v3m\nds32le-elf\libc\mculib\usr\lib\libc.a(lib_a-fputwc.o)
 .mdebug.abi_nds32
                0x00000000        0x0 C:\Andestech\AndeSight211RDS\toolchains\nds32le-elf-mculib-v3m\nds32le-elf\libc\mculib\usr\lib\libc.a(lib_a-fvwrite.o)
 .mdebug.abi_nds32
                0x00000000        0x0 C:\Andestech\AndeSight211RDS\toolchains\nds32le-elf-mculib-v3m\nds32le-elf\libc\mculib\usr\lib\libc.a(lib_a-fwalk.o)
 .mdebug.abi_nds32
                0x00000000        0x0 C:\Andestech\AndeSight211RDS\toolchains\nds32le-elf-mculib-v3m\nds32le-elf\libc\mculib\usr\lib\libc.a(lib_a-locale.o)
 .mdebug.abi_nds32
                0x00000000        0x0 C:\Andestech\AndeSight211RDS\toolchains\nds32le-elf-mculib-v3m\nds32le-elf\libc\mculib\usr\lib\libc.a(lib_a-makebuf.o)
 .mdebug.abi_nds32
                0x00000000        0x0 C:\Andestech\AndeSight211RDS\toolchains\nds32le-elf-mculib-v3m\nds32le-elf\libc\mculib\usr\lib\libc.a(lib_a-reallocr.o)
 .mdebug.abi_nds32
                0x00000000        0x0 C:\Andestech\AndeSight211RDS\toolchains\nds32le-elf-mculib-v3m\nds32le-elf\libc\mculib\usr\lib\libc.a(lib_a-stdio.o)
 .mdebug.abi_nds32
                0x00000000        0x0 C:\Andestech\AndeSight211RDS\toolchains\nds32le-elf-mculib-v3m\nds32le-elf\libc\mculib\usr\lib\libc.a(lib_a-wbuf.o)
 .mdebug.abi_nds32
                0x00000000        0x0 C:\Andestech\AndeSight211RDS\toolchains\nds32le-elf-mculib-v3m\nds32le-elf\libc\mculib\usr\lib\libc.a(lib_a-wcrtomb.o)
 .mdebug.abi_nds32
                0x00000000        0x0 C:\Andestech\AndeSight211RDS\toolchains\nds32le-elf-mculib-v3m\nds32le-elf\libc\mculib\usr\lib\libc.a(lib_a-wctomb_r.o)
 .mdebug.abi_nds32
                0x00000000        0x0 C:\Andestech\AndeSight211RDS\toolchains\nds32le-elf-mculib-v3m\nds32le-elf\libc\mculib\usr\lib\libc.a(lib_a-writer.o)
 .mdebug.abi_nds32
                0x00000000        0x0 C:\Andestech\AndeSight211RDS\toolchains\nds32le-elf-mculib-v3m\nds32le-elf\libc\mculib\usr\lib\libc.a(lib_a-closer.o)
 .mdebug.abi_nds32
                0x00000000        0x0 C:\Andestech\AndeSight211RDS\toolchains\nds32le-elf-mculib-v3m\nds32le-elf\libc\mculib\usr\lib\libc.a(lib_a-fclose.o)
 .mdebug.abi_nds32
                0x00000000        0x0 C:\Andestech\AndeSight211RDS\toolchains\nds32le-elf-mculib-v3m\nds32le-elf\libc\mculib\usr\lib\libc.a(lib_a-fstatr.o)
 .mdebug.abi_nds32
                0x00000000        0x0 C:\Andestech\AndeSight211RDS\toolchains\nds32le-elf-mculib-v3m\nds32le-elf\libc\mculib\usr\lib\libc.a(lib_a-isattyr.o)
 .mdebug.abi_nds32
                0x00000000        0x0 C:\Andestech\AndeSight211RDS\toolchains\nds32le-elf-mculib-v3m\nds32le-elf\libc\mculib\usr\lib\libc.a(lib_a-lseekr.o)
 .mdebug.abi_nds32
                0x00000000        0x0 C:\Andestech\AndeSight211RDS\toolchains\nds32le-elf-mculib-v3m\nds32le-elf\libc\mculib\usr\lib\libc.a(lib_a-readr.o)
 .mdebug.abi_nds32
                0x00000000        0x0 C:\Andestech\AndeSight211RDS\toolchains\nds32le-elf-mculib-v3m\lib\gcc\nds32le-elf\4.4.4\mculib\libgcc.a(_muldi3.o)
 .mdebug.abi_nds32
                0x00000000        0x0 C:\Andestech\AndeSight211RDS\toolchains\nds32le-elf-mculib-v3m\lib\gcc\nds32le-elf\4.4.4\mculib\libgcc.a(_lshrdi3.o)
 .mdebug.abi_nds32
                0x00000000        0x0 C:\Andestech\AndeSight211RDS\toolchains\nds32le-elf-mculib-v3m\lib\gcc\nds32le-elf\4.4.4\mculib\libgcc.a(_ashldi3.o)
 .mdebug.abi_nds32
                0x00000000        0x0 C:\Andestech\AndeSight211RDS\toolchains\nds32le-elf-mculib-v3m\lib\gcc\nds32le-elf\4.4.4\mculib\libgcc.a(clz.o)

.note.nds32     0x00000000    0x40daa
 .note.nds32    0x00000000      0x958 /cygdrive/c/Airoha/AiroBlueSDK/AB1600_1_0_5_0/projects/Remote/output/pj/components/Device/AB1600/cfg_sector.o
 .note.nds32    0x00000958      0x962 /cygdrive/c/Airoha/AiroBlueSDK/AB1600_1_0_5_0/projects/Remote/output/pj/components/Libraries/hci_devices/hci_spi_1602.o
 .note.nds32    0x000012ba      0x961 /cygdrive/c/Airoha/AiroBlueSDK/AB1600_1_0_5_0/projects/Remote/output/pj/components/BT/release/bt_patch/1602_patching.o
 .note.nds32    0x00001c1b      0x936 /cygdrive/c/Airoha/AiroBlueSDK/AB1600_1_0_5_0/projects/Remote/output/main.o
 .note.nds32    0x00002551      0x938 /cygdrive/c/Airoha/AiroBlueSDK/AB1600_1_0_5_0/projects/Remote/output/remote.o
 .note.nds32    0x00002e89      0x93f /cygdrive/c/Airoha/AiroBlueSDK/AB1600_1_0_5_0/projects/Remote/output/remote_button.o
 .note.nds32    0x000037c8      0x93e /cygdrive/c/Airoha/AiroBlueSDK/AB1600_1_0_5_0/projects/Remote/output/remote_mouse.o
 .note.nds32    0x00004106      0x943 /cygdrive/c/Airoha/AiroBlueSDK/AB1600_1_0_5_0/projects/Remote/output/remote_microphone.o
 .note.nds32    0x00004a49      0x93d /cygdrive/c/Airoha/AiroBlueSDK/AB1600_1_0_5_0/projects/Remote/output/remote_gatt.o
 .note.nds32    0x00005386      0x93c /cygdrive/c/Airoha/AiroBlueSDK/AB1600_1_0_5_0/projects/Remote/output/remote_adv.o
 .note.nds32    0x00005cc2      0x93c /cygdrive/c/Airoha/AiroBlueSDK/AB1600_1_0_5_0/projects/Remote/output/remote_led.o
 .note.nds32    0x000065fe      0x93d /cygdrive/c/Airoha/AiroBlueSDK/AB1600_1_0_5_0/projects/Remote/output/remote_gpio.o
 .note.nds32    0x00006f3b      0x93d /cygdrive/c/Airoha/AiroBlueSDK/AB1600_1_0_5_0/projects/Remote/output/remote_vcmd.o
 .note.nds32    0x00007878      0x8e3 /cygdrive/c/Airoha/AiroBlueSDK/AB1600_1_0_5_0/projects/Remote/output/spl/components/Libraries/external/ICM_20688_spi/mtd.o
 .note.nds32    0x0000815b      0x8e3 /cygdrive/c/Airoha/AiroBlueSDK/AB1600_1_0_5_0/projects/Remote/output/spl/components/Libraries/external/ADPCM/g726_enc_32.o
 .note.nds32    0x00008a3e      0x8dc /cygdrive/c/Airoha/AiroBlueSDK/AB1600_1_0_5_0/projects/Remote/output/spl/components/Libraries/external/ADPCM/g72x.o
 .note.nds32    0x0000931a      0x8e3 /cygdrive/c/Airoha/AiroBlueSDK/AB1600_1_0_5_0/projects/Remote/output/spl/components/Libraries/external/ima_adpcm/ima_enc.o
 .note.nds32    0x00009bfd      0x951 components/BT/release/hci_protocol_1602.o
 .note.nds32    0x0000a54e      0x120 components/Libraries/external/AML/\libAML.a(AIR_MOTION_Lib.o)
 .note.nds32    0x0000a66e      0x135 components/Libraries/external/AML/\libAML.a(RollCompFullDynamic3D.o)
 .note.nds32    0x0000a7a3      0x8b4 components/Libraries/external/algo/\libalg.a(ab_adc.o)
 .note.nds32    0x0000b057      0x8b4 components/Libraries/external/algo/\libalg.a(ab_clk.o)
 .note.nds32    0x0000b90b      0x8b9 components/Libraries/external/algo/\libalg.a(ab_assert.o)
 .note.nds32    0x0000c1c4      0x8b8 components/Libraries/external/algo/\libalg.a(ab_flash.o)
 .note.nds32    0x0000ca7c      0x8b4 components/Libraries/external/algo/\libalg.a(ab_led.o)
 .note.nds32    0x0000d330      0x8bf components/Libraries/external/algo/\libalg.a(ab_malloc_hook.o)
 .note.nds32    0x0000dbef      0x8bf components/Libraries/external/algo/\libalg.a(ab_printf_hook.o)
 .note.nds32    0x0000e4ae      0x8b4 components/Libraries/external/algo/\libalg.a(ab_pwr.o)
 .note.nds32    0x0000ed62      0x8b8 components/Libraries/external/algo/\libalg.a(ab_queue.o)
 .note.nds32    0x0000f61a      0x8c0 components/Libraries/external/algo/\libalg.a(ab_mp_sector.o)
 .note.nds32    0x0000feda      0x8b4 components/Libraries/external/algo/\libalg.a(ab_spi.o)
 .note.nds32    0x0001078e      0x8b9 components/Libraries/external/algo/\libalg.a(bsp_generic.o)
 .note.nds32    0x00011047      0x8b8 components/Libraries/external/algo/\libalg.a(ab_timer.o)
 .note.nds32    0x000118ff      0x8b6 components/Libraries/external/algo/\libalg.a(ab_uart.o)
 .note.nds32    0x000121b5      0x8bd components/Libraries/external/algo/\libalg.a(ab_airoha_vcmd.o)
 .note.nds32    0x00012a72      0x8b2 components/Libraries/external/algo/\libalg.a(drv_adc.o)
 .note.nds32    0x00013324      0x8b2 components/Libraries/external/algo/\libalg.a(drv_clk.o)
 .note.nds32    0x00013bd6      0x8b6 components/Libraries/external/algo/\libalg.a(drv_flash.o)
 .note.nds32    0x0001448c      0x8b4 components/Libraries/external/algo/\libalg.a(drv_gpio.o)
 .note.nds32    0x00014d40      0x8b6 components/Libraries/external/algo/\libalg.a(drv_odgpio.o)
 .note.nds32    0x000155f6      0x8ba components/Libraries/external/algo/\libalg.a(drv_keyscan.o)
 .note.nds32    0x00015eb0      0x8b2 components/Libraries/external/algo/\libalg.a(drv_led.o)
 .note.nds32    0x00016762      0x8b2 components/Libraries/external/algo/\libalg.a(drv_mic.o)
 .note.nds32    0x00017014      0x8ba components/Libraries/external/algo/\libalg.a(drv_odpinmux.o)
 .note.nds32    0x000178ce      0x8b8 components/Libraries/external/algo/\libalg.a(drv_pinmux.o)
 .note.nds32    0x00018186      0x8b2 components/Libraries/external/algo/\libalg.a(drv_pwr.o)
 .note.nds32    0x00018a38      0x8b2 components/Libraries/external/algo/\libalg.a(drv_spi.o)
 .note.nds32    0x000192ea      0x8ba components/Libraries/external/algo/\libalg.a(drv_timer32b0.o)
 .note.nds32    0x00019ba4      0x8b4 components/Libraries/external/algo/\libalg.a(drv_uart.o)
 .note.nds32    0x0001a458      0x8b2 components/Libraries/external/algo/\libalg.a(drv_wdt.o)
 .note.nds32    0x0001ad0a      0x8bd components/Libraries/external/algo/\libalg.a(service_battery.o)
 .note.nds32    0x0001b5c7      0x8d0 components/Libraries/external/algo/\libalg.a(service_device_firmware_update_OTA.o)
 .note.nds32    0x0001be97      0x8c8 components/Libraries/external/algo/\libalg.a(service_device_information.o)
 .note.nds32    0x0001c75f      0x8c4 components/Libraries/external/algo/\libalg.a(service_generic_access.o)
 .note.nds32    0x0001d023      0x8c7 components/Libraries/external/algo/\libalg.a(service_generic_attribute.o)
 .note.nds32    0x0001d8ea      0x8cc components/Libraries/external/algo/\libalg.a(service_human_interface_device.o)
 .note.nds32    0x0001e1b6      0x8b9 components/Libraries/external/algo/\libalg.a(console.o)
 .note.nds32    0x0001ea6f      0x8b7 components/Libraries/external/algo/\libalg.a(shell.o)
 .note.nds32    0x0001f326      0x8b8 components/Libraries/external/algo/\libalg.a(ab_debug.o)
 .note.nds32    0x0001fbde      0x8b1 components/Libraries/external/algo/\libalg.a(dfu.o)
 .note.nds32    0x0002048f      0x8ba components/Libraries/external/algo/\libalg.a(ab_module.o)
 .note.nds32    0x00020d49      0x948 components/BT/release/\libbtcore.a(hci_h4_parser.o)
 .note.nds32    0x00021691      0x931 components/BT/release/\libbtcore.a(bt.o)
 .note.nds32    0x00021fc2      0x935 components/BT/release/\libbtcore.a(ble_gap.o)
 .note.nds32    0x000228f7      0x93b components/BT/release/\libbtcore.a(ble_gap_links.o)
 .note.nds32    0x00023232      0x938 components/BT/release/\libbtcore.a(ble_gap_sm.o)
 .note.nds32    0x00023b6a      0x939 components/BT/release/\libbtcore.a(ble_l2cap.o)
 .note.nds32    0x000244a3      0x93c components/BT/release/\libbtcore.a(l2cap_le_sig.o)
 .note.nds32    0x00024ddf      0x935 components/BT/release/\libbtcore.a(ble_att.o)
 .note.nds32    0x00025714      0x93e components/BT/release/\libbtcore.a(ble_gatt_server.o)
 .note.nds32    0x00026052      0x93e components/BT/release/\libbtcore.a(ble_gatt_client.o)
 .note.nds32    0x00026990      0x92f components/BT/release/\libbtcore.a(sm.o)
 .note.nds32    0x000272bf      0x93a components/BT/release/\libbtcore.a(sm_cryptotool.o)
 .note.nds32    0x00027bf9      0x933 components/BT/release/\libbtcore.a(sm_hal.o)
 .note.nds32    0x0002852c      0x938 components/BT/release/\libbtcore.a(sm_protocol.o)
 .note.nds32    0x00028e64      0x935 components/BT/release/\libbtcore.a(sm_slave.o)
 .note.nds32    0x00029799      0x936 components/BT/release/\libbtcore.a(sm_master.o)
 .note.nds32    0x0002a0cf      0x93e components/BT/release/\libbtcore.a(Drv_Trng.o)
 .note.nds32    0x0002aa0d      0x942 components/BT/release/\libbtcore.a(Drv_MMITimer.o)
 .note.nds32    0x0002b34f      0x941 components/BT/release/\libbtcore.a(Ab_MMITimer.o)
 .note.nds32    0x0002bc90      0x93e components/BT/release/\libbtcore.a(Drv_1602.o)
 .note.nds32    0x0002c5ce      0x93d components/BT/release/\libbtcore.a(encrypt.o)
 .note.nds32    0x0002cf0b      0x931 components/BT/release/\libbtcore.a(hci.o)
 .note.nds32    0x0002d83c      0x93d components/BT/release/\libbtcore.a(hci_cmd_evt_dat.o)
 .note.nds32    0x0002e179      0x936 components/BT/release/\libbtcore.a(sm_common.o)
 .note.nds32    0x0002eaaf      0x8b6 output/\lib1600.a(ab_log.o)
 .note.nds32    0x0002f365       0xec C:\Andestech\AndeSight211RDS\toolchains\nds32le-elf-mculib-v3m\nds32le-elf\libc\mculib\usr\lib\libm.a(lib_a-w_log10.o)
 .note.nds32    0x0002f451       0xe9 C:\Andestech\AndeSight211RDS\toolchains\nds32le-elf-mculib-v3m\nds32le-elf\libc\mculib\usr\lib\libm.a(gf_dpexlog.o)
 .note.nds32    0x0002f53a       0xe7 C:\Andestech\AndeSight211RDS\toolchains\nds32le-elf-mculib-v3m\nds32le-elf\libc\mculib\usr\lib\libm.a(gf_exadd.o)
 .note.nds32    0x0002f621       0xe7 C:\Andestech\AndeSight211RDS\toolchains\nds32le-elf-mculib-v3m\nds32le-elf\libc\mculib\usr\lib\libm.a(gf_exdiv.o)
 .note.nds32    0x0002f708       0xe7 C:\Andestech\AndeSight211RDS\toolchains\nds32le-elf-mculib-v3m\nds32le-elf\libc\mculib\usr\lib\libm.a(gf_exmul.o)
 .note.nds32    0x0002f7ef       0xe8 C:\Andestech\AndeSight211RDS\toolchains\nds32le-elf-mculib-v3m\nds32le-elf\libc\mculib\usr\lib\libm.a(gf_sigmax.o)
 .note.nds32    0x0002f8d7      0x682 C:\Andestech\AndeSight211RDS\toolchains\nds32le-elf-mculib-v3m\nds32le-elf\libc\mculib\usr\lib\libc.a(lib_a-ctype_.o)
 .note.nds32    0x0002ff59      0x6a6 C:\Andestech\AndeSight211RDS\toolchains\nds32le-elf-mculib-v3m\nds32le-elf\libc\mculib\usr\lib\libc.a(lib_a-freer.o)
 .note.nds32    0x000305ff      0x6aa C:\Andestech\AndeSight211RDS\toolchains\nds32le-elf-mculib-v3m\nds32le-elf\libc\mculib\usr\lib\libc.a(lib_a-mallocr.o)
 .note.nds32    0x00030ca9       0xeb C:\Andestech\AndeSight211RDS\toolchains\nds32le-elf-mculib-v3m\nds32le-elf\libc\mculib\usr\lib\libc.a(lib_a-memcmp.o)
 .note.nds32    0x00030d94       0xeb C:\Andestech\AndeSight211RDS\toolchains\nds32le-elf-mculib-v3m\nds32le-elf\libc\mculib\usr\lib\libc.a(lib_a-memcpy.o)
 .note.nds32    0x00030e7f       0xec C:\Andestech\AndeSight211RDS\toolchains\nds32le-elf-mculib-v3m\nds32le-elf\libc\mculib\usr\lib\libc.a(lib_a-memmove.o)
 .note.nds32    0x00030f6b       0xeb C:\Andestech\AndeSight211RDS\toolchains\nds32le-elf-mculib-v3m\nds32le-elf\libc\mculib\usr\lib\libc.a(lib_a-memset.o)
 .note.nds32    0x00031056      0x682 C:\Andestech\AndeSight211RDS\toolchains\nds32le-elf-mculib-v3m\nds32le-elf\libc\mculib\usr\lib\libc.a(lib_a-mlock.o)
 .note.nds32    0x000316d8      0x683 C:\Andestech\AndeSight211RDS\toolchains\nds32le-elf-mculib-v3m\nds32le-elf\libc\mculib\usr\lib\libc.a(lib_a-mstats.o)
 .note.nds32    0x00031d5b       0xf6 C:\Andestech\AndeSight211RDS\toolchains\nds32le-elf-mculib-v3m\nds32le-elf\libc\mculib\usr\lib\libc.a(lib_a-puts.o)
 .note.nds32    0x00031e51      0x681 C:\Andestech\AndeSight211RDS\toolchains\nds32le-elf-mculib-v3m\nds32le-elf\libc\mculib\usr\lib\libc.a(lib_a-sbrkr.o)
 .note.nds32    0x000324d2       0xf9 C:\Andestech\AndeSight211RDS\toolchains\nds32le-elf-mculib-v3m\nds32le-elf\libc\mculib\usr\lib\libc.a(lib_a-sprintf.o)
 .note.nds32    0x000325cb       0xeb C:\Andestech\AndeSight211RDS\toolchains\nds32le-elf-mculib-v3m\nds32le-elf\libc\mculib\usr\lib\libc.a(lib_a-strcmp.o)
 .note.nds32    0x000326b6       0xeb C:\Andestech\AndeSight211RDS\toolchains\nds32le-elf-mculib-v3m\nds32le-elf\libc\mculib\usr\lib\libc.a(lib_a-strcpy.o)
 .note.nds32    0x000327a1       0xeb C:\Andestech\AndeSight211RDS\toolchains\nds32le-elf-mculib-v3m\nds32le-elf\libc\mculib\usr\lib\libc.a(lib_a-strlen.o)
 .note.nds32    0x0003288c       0xec C:\Andestech\AndeSight211RDS\toolchains\nds32le-elf-mculib-v3m\nds32le-elf\libc\mculib\usr\lib\libc.a(lib_a-strncmp.o)
 .note.nds32    0x00032978       0xf9 C:\Andestech\AndeSight211RDS\toolchains\nds32le-elf-mculib-v3m\nds32le-elf\libc\mculib\usr\lib\libc.a(lib_a-vprintf.o)
 .note.nds32    0x00032a71       0xfa C:\Andestech\AndeSight211RDS\toolchains\nds32le-elf-mculib-v3m\nds32le-elf\libc\mculib\usr\lib\libc.a(lib_a-vsprintf.o)
 .note.nds32    0x00032b6b       0xf5 C:\Andestech\AndeSight211RDS\toolchains\nds32le-elf-mculib-v3m\nds32le-elf\libc\mculib\usr\lib\libc.a(do_printf.o)
 .note.nds32    0x00032c60       0xf4 C:\Andestech\AndeSight211RDS\toolchains\nds32le-elf-mculib-v3m\nds32le-elf\libc\mculib\usr\lib\libc.a(xint2dec.o)
 .note.nds32    0x00032d54      0x686 C:\Andestech\AndeSight211RDS\toolchains\nds32le-elf-mculib-v3m\nds32le-elf\libc\mculib\usr\lib\libc.a(lib_a-data-errno.o)
 .note.nds32    0x000333da      0x686 C:\Andestech\AndeSight211RDS\toolchains\nds32le-elf-mculib-v3m\nds32le-elf\libc\mculib\usr\lib\libc.a(lib_a-data-stdio.o)
 .note.nds32    0x00033a60      0x684 C:\Andestech\AndeSight211RDS\toolchains\nds32le-elf-mculib-v3m\nds32le-elf\libc\mculib\usr\lib\libc.a(lib_a-fiprintf.o)
 .note.nds32    0x000340e4      0x6ae C:\Andestech\AndeSight211RDS\toolchains\nds32le-elf-mculib-v3m\nds32le-elf\libc\mculib\usr\lib\libc.a(lib_a-mallinfor.o)
 .note.nds32    0x00034792      0x6ac C:\Andestech\AndeSight211RDS\toolchains\nds32le-elf-mculib-v3m\nds32le-elf\libc\mculib\usr\lib\libc.a(lib_a-malloptr.o)
 .note.nds32    0x00034e3e      0x6b3 C:\Andestech\AndeSight211RDS\toolchains\nds32le-elf-mculib-v3m\nds32le-elf\libc\mculib\usr\lib\libc.a(lib_a-mallstatsr.o)
 .note.nds32    0x000354f1      0x687 C:\Andestech\AndeSight211RDS\toolchains\nds32le-elf-mculib-v3m\nds32le-elf\libc\mculib\usr\lib\libc.a(lib_a-reent_errno.o)
 .note.nds32    0x00035b78      0x6a6 C:\Andestech\AndeSight211RDS\toolchains\nds32le-elf-mculib-v3m\nds32le-elf\libc\mculib\usr\lib\libc.a(lib_a-vfiprintf.o)
 .note.nds32    0x0003621e      0x682 C:\Andestech\AndeSight211RDS\toolchains\nds32le-elf-mculib-v3m\nds32le-elf\libc\mculib\usr\lib\libc.a(lib_a-wsetup.o)
 .note.nds32    0x000368a0      0x687 C:\Andestech\AndeSight211RDS\toolchains\nds32le-elf-mculib-v3m\nds32le-elf\libc\mculib\usr\lib\libc.a(lib_a-data-findfp.o)
 .note.nds32    0x00036f27      0x682 C:\Andestech\AndeSight211RDS\toolchains\nds32le-elf-mculib-v3m\nds32le-elf\libc\mculib\usr\lib\libc.a(lib_a-fflush.o)
 .note.nds32    0x000375a9      0x682 C:\Andestech\AndeSight211RDS\toolchains\nds32le-elf-mculib-v3m\nds32le-elf\libc\mculib\usr\lib\libc.a(lib_a-findfp.o)
 .note.nds32    0x00037c2b      0x682 C:\Andestech\AndeSight211RDS\toolchains\nds32le-elf-mculib-v3m\nds32le-elf\libc\mculib\usr\lib\libc.a(lib_a-fputwc.o)
 .note.nds32    0x000382ad      0x683 C:\Andestech\AndeSight211RDS\toolchains\nds32le-elf-mculib-v3m\nds32le-elf\libc\mculib\usr\lib\libc.a(lib_a-fvwrite.o)
 .note.nds32    0x00038930      0x681 C:\Andestech\AndeSight211RDS\toolchains\nds32le-elf-mculib-v3m\nds32le-elf\libc\mculib\usr\lib\libc.a(lib_a-fwalk.o)
 .note.nds32    0x00038fb1      0x683 C:\Andestech\AndeSight211RDS\toolchains\nds32le-elf-mculib-v3m\nds32le-elf\libc\mculib\usr\lib\libc.a(lib_a-locale.o)
 .note.nds32    0x00039634      0x683 C:\Andestech\AndeSight211RDS\toolchains\nds32le-elf-mculib-v3m\nds32le-elf\libc\mculib\usr\lib\libc.a(lib_a-makebuf.o)
 .note.nds32    0x00039cb7       0xeb C:\Andestech\AndeSight211RDS\toolchains\nds32le-elf-mculib-v3m\nds32le-elf\libc\mculib\usr\lib\libc.a(lib_a-memchr.o)
 .note.nds32    0x00039da2      0x6ac C:\Andestech\AndeSight211RDS\toolchains\nds32le-elf-mculib-v3m\nds32le-elf\libc\mculib\usr\lib\libc.a(lib_a-reallocr.o)
 .note.nds32    0x0003a44e      0x681 C:\Andestech\AndeSight211RDS\toolchains\nds32le-elf-mculib-v3m\nds32le-elf\libc\mculib\usr\lib\libc.a(lib_a-stdio.o)
 .note.nds32    0x0003aacf      0x680 C:\Andestech\AndeSight211RDS\toolchains\nds32le-elf-mculib-v3m\nds32le-elf\libc\mculib\usr\lib\libc.a(lib_a-wbuf.o)
 .note.nds32    0x0003b14f      0x684 C:\Andestech\AndeSight211RDS\toolchains\nds32le-elf-mculib-v3m\nds32le-elf\libc\mculib\usr\lib\libc.a(lib_a-wcrtomb.o)
 .note.nds32    0x0003b7d3      0x685 C:\Andestech\AndeSight211RDS\toolchains\nds32le-elf-mculib-v3m\nds32le-elf\libc\mculib\usr\lib\libc.a(lib_a-wctomb_r.o)
 .note.nds32    0x0003be58      0x682 C:\Andestech\AndeSight211RDS\toolchains\nds32le-elf-mculib-v3m\nds32le-elf\libc\mculib\usr\lib\libc.a(lib_a-writer.o)
 .note.nds32    0x0003c4da      0x682 C:\Andestech\AndeSight211RDS\toolchains\nds32le-elf-mculib-v3m\nds32le-elf\libc\mculib\usr\lib\libc.a(lib_a-closer.o)
 .note.nds32    0x0003cb5c      0x682 C:\Andestech\AndeSight211RDS\toolchains\nds32le-elf-mculib-v3m\nds32le-elf\libc\mculib\usr\lib\libc.a(lib_a-fclose.o)
 .note.nds32    0x0003d1de      0x682 C:\Andestech\AndeSight211RDS\toolchains\nds32le-elf-mculib-v3m\nds32le-elf\libc\mculib\usr\lib\libc.a(lib_a-fstatr.o)
 .note.nds32    0x0003d860      0x683 C:\Andestech\AndeSight211RDS\toolchains\nds32le-elf-mculib-v3m\nds32le-elf\libc\mculib\usr\lib\libc.a(lib_a-isattyr.o)
 .note.nds32    0x0003dee3      0x682 C:\Andestech\AndeSight211RDS\toolchains\nds32le-elf-mculib-v3m\nds32le-elf\libc\mculib\usr\lib\libc.a(lib_a-lseekr.o)
 .note.nds32    0x0003e565      0x681 C:\Andestech\AndeSight211RDS\toolchains\nds32le-elf-mculib-v3m\nds32le-elf\libc\mculib\usr\lib\libc.a(lib_a-readr.o)
 .note.nds32    0x0003ebe6       0xe8 C:\Andestech\AndeSight211RDS\toolchains\nds32le-elf-mculib-v3m\lib\gcc\nds32le-elf\4.4.4\mculib\libgcc.a(_sf_to_df.o)
 .note.nds32    0x0003ecce       0xe6 C:\Andestech\AndeSight211RDS\toolchains\nds32le-elf-mculib-v3m\lib\gcc\nds32le-elf\4.4.4\mculib\libgcc.a(_mul_df.o)
 .note.nds32    0x0003edb4       0xea C:\Andestech\AndeSight211RDS\toolchains\nds32le-elf-mculib-v3m\lib\gcc\nds32le-elf\4.4.4\mculib\libgcc.a(_compare_df.o)
 .note.nds32    0x0003ee9e       0xea C:\Andestech\AndeSight211RDS\toolchains\nds32le-elf-mculib-v3m\lib\gcc\nds32le-elf\4.4.4\mculib\libgcc.a(_fixunsdfsi.o)
 .note.nds32    0x0003ef88      0x79b C:\Andestech\AndeSight211RDS\toolchains\nds32le-elf-mculib-v3m\lib\gcc\nds32le-elf\4.4.4\mculib\libgcc.a(_muldi3.o)
 .note.nds32    0x0003f723      0x79f C:\Andestech\AndeSight211RDS\toolchains\nds32le-elf-mculib-v3m\lib\gcc\nds32le-elf\4.4.4\mculib\libgcc.a(_lshrdi3.o)
 .note.nds32    0x0003fec2      0x79f C:\Andestech\AndeSight211RDS\toolchains\nds32le-elf-mculib-v3m\lib\gcc\nds32le-elf\4.4.4\mculib\libgcc.a(_ashldi3.o)
 .note.nds32    0x00040661       0xe7 C:\Andestech\AndeSight211RDS\toolchains\nds32le-elf-mculib-v3m\lib\gcc\nds32le-elf\4.4.4\mculib\libgcc.a(_udivdi3.o)
 .note.nds32    0x00040748       0xe7 C:\Andestech\AndeSight211RDS\toolchains\nds32le-elf-mculib-v3m\lib\gcc\nds32le-elf\4.4.4\mculib\libgcc.a(_umoddi3.o)
 .note.nds32    0x0004082f       0xea C:\Andestech\AndeSight211RDS\toolchains\nds32le-elf-mculib-v3m\lib\gcc\nds32le-elf\4.4.4\mculib\libgcc.a(_udivmoddi4.o)
 .note.nds32    0x00040919       0xe6 C:\Andestech\AndeSight211RDS\toolchains\nds32le-elf-mculib-v3m\lib\gcc\nds32le-elf\4.4.4\mculib\libgcc.a(_mul_sf.o)
 .note.nds32    0x000409ff       0xe6 C:\Andestech\AndeSight211RDS\toolchains\nds32le-elf-mculib-v3m\lib\gcc\nds32le-elf\4.4.4\mculib\libgcc.a(_div_sf.o)
 .note.nds32    0x00040ae5       0xeb C:\Andestech\AndeSight211RDS\toolchains\nds32le-elf-mculib-v3m\lib\gcc\nds32le-elf\4.4.4\mculib\libgcc.a(_floatunsisf.o)
 .note.nds32    0x00040bd0       0xeb C:\Andestech\AndeSight211RDS\toolchains\nds32le-elf-mculib-v3m\lib\gcc\nds32le-elf\4.4.4\mculib\libgcc.a(_floatunsidf.o)
 .note.nds32    0x00040cbb       0xef C:\Andestech\AndeSight211RDS\toolchains\nds32le-elf-mculib-v3m\lib\gcc\nds32le-elf\4.4.4\mculib\libgcc.a(clz.o)

.debug_abbrev   0x00000000     0x6655
 .debug_abbrev  0x00000000      0x170 /cygdrive/c/Airoha/AiroBlueSDK/AB1600_1_0_5_0/projects/Remote/output/pj/components/Device/AB1600/cfg_sector.o
 .debug_abbrev  0x00000170      0x1d0 /cygdrive/c/Airoha/AiroBlueSDK/AB1600_1_0_5_0/projects/Remote/output/pj/components/Libraries/hci_devices/hci_spi_1602.o
 .debug_abbrev  0x00000340       0xba /cygdrive/c/Airoha/AiroBlueSDK/AB1600_1_0_5_0/projects/Remote/output/pj/components/BT/release/bt_patch/1602_patching.o
 .debug_abbrev  0x000003fa      0x200 /cygdrive/c/Airoha/AiroBlueSDK/AB1600_1_0_5_0/projects/Remote/output/main.o
 .debug_abbrev  0x000005fa      0x3eb /cygdrive/c/Airoha/AiroBlueSDK/AB1600_1_0_5_0/projects/Remote/output/remote.o
 .debug_abbrev  0x000009e5      0x1d7 /cygdrive/c/Airoha/AiroBlueSDK/AB1600_1_0_5_0/projects/Remote/output/remote_button.o
 .debug_abbrev  0x00000bbc      0x378 /cygdrive/c/Airoha/AiroBlueSDK/AB1600_1_0_5_0/projects/Remote/output/remote_mouse.o
 .debug_abbrev  0x00000f34      0x374 /cygdrive/c/Airoha/AiroBlueSDK/AB1600_1_0_5_0/projects/Remote/output/remote_microphone.o
 .debug_abbrev  0x000012a8      0x186 /cygdrive/c/Airoha/AiroBlueSDK/AB1600_1_0_5_0/projects/Remote/output/remote_gatt.o
 .debug_abbrev  0x0000142e      0x180 /cygdrive/c/Airoha/AiroBlueSDK/AB1600_1_0_5_0/projects/Remote/output/remote_adv.o
 .debug_abbrev  0x000015ae       0xe7 /cygdrive/c/Airoha/AiroBlueSDK/AB1600_1_0_5_0/projects/Remote/output/remote_led.o
 .debug_abbrev  0x00001695       0xee /cygdrive/c/Airoha/AiroBlueSDK/AB1600_1_0_5_0/projects/Remote/output/remote_gpio.o
 .debug_abbrev  0x00001783      0x1aa /cygdrive/c/Airoha/AiroBlueSDK/AB1600_1_0_5_0/projects/Remote/output/remote_vcmd.o
 .debug_abbrev  0x0000192d      0x245 /cygdrive/c/Airoha/AiroBlueSDK/AB1600_1_0_5_0/projects/Remote/output/spl/components/Libraries/external/ICM_20688_spi/mtd.o
 .debug_abbrev  0x00001b72      0x1ee /cygdrive/c/Airoha/AiroBlueSDK/AB1600_1_0_5_0/projects/Remote/output/spl/components/Libraries/external/ADPCM/g726_enc_32.o
 .debug_abbrev  0x00001d60      0x28d /cygdrive/c/Airoha/AiroBlueSDK/AB1600_1_0_5_0/projects/Remote/output/spl/components/Libraries/external/ADPCM/g72x.o
 .debug_abbrev  0x00001fed      0x1df /cygdrive/c/Airoha/AiroBlueSDK/AB1600_1_0_5_0/projects/Remote/output/spl/components/Libraries/external/ima_adpcm/ima_enc.o
 .debug_abbrev  0x000021cc      0x1d1 components/Libraries/external/algo/\libalg.a(ab_adc.o)
 .debug_abbrev  0x0000239d       0xa5 components/Libraries/external/algo/\libalg.a(ab_clk.o)
 .debug_abbrev  0x00002442       0x9c components/Libraries/external/algo/\libalg.a(ab_assert.o)
 .debug_abbrev  0x000024de       0x9d components/Libraries/external/algo/\libalg.a(ab_flash.o)
 .debug_abbrev  0x0000257b      0x110 components/Libraries/external/algo/\libalg.a(ab_led.o)
 .debug_abbrev  0x0000268b      0x1d9 components/Libraries/external/algo/\libalg.a(ab_malloc_hook.o)
 .debug_abbrev  0x00002864      0x1a3 components/Libraries/external/algo/\libalg.a(ab_printf_hook.o)
 .debug_abbrev  0x00002a07      0x27e components/Libraries/external/algo/\libalg.a(ab_pwr.o)
 .debug_abbrev  0x00002c85      0x130 components/Libraries/external/algo/\libalg.a(ab_queue.o)
 .debug_abbrev  0x00002db5      0x112 components/Libraries/external/algo/\libalg.a(ab_mp_sector.o)
 .debug_abbrev  0x00002ec7      0x1b5 components/Libraries/external/algo/\libalg.a(ab_spi.o)
 .debug_abbrev  0x0000307c      0x27f components/Libraries/external/algo/\libalg.a(bsp_generic.o)
 .debug_abbrev  0x000032fb      0x1dc components/Libraries/external/algo/\libalg.a(ab_timer.o)
 .debug_abbrev  0x000034d7      0x2c2 components/Libraries/external/algo/\libalg.a(ab_uart.o)
 .debug_abbrev  0x00003799      0x36f components/Libraries/external/algo/\libalg.a(ab_airoha_vcmd.o)
 .debug_abbrev  0x00003b08      0x1cf components/Libraries/external/algo/\libalg.a(drv_adc.o)
 .debug_abbrev  0x00003cd7       0xb4 components/Libraries/external/algo/\libalg.a(drv_clk.o)
 .debug_abbrev  0x00003d8b      0x2bc components/Libraries/external/algo/\libalg.a(drv_flash.o)
 .debug_abbrev  0x00004047      0x20c components/Libraries/external/algo/\libalg.a(drv_gpio.o)
 .debug_abbrev  0x00004253      0x14e components/Libraries/external/algo/\libalg.a(drv_odgpio.o)
 .debug_abbrev  0x000043a1      0x1fa components/Libraries/external/algo/\libalg.a(drv_keyscan.o)
 .debug_abbrev  0x0000459b      0x1c1 components/Libraries/external/algo/\libalg.a(drv_led.o)
 .debug_abbrev  0x0000475c      0x1d2 components/Libraries/external/algo/\libalg.a(drv_mic.o)
 .debug_abbrev  0x0000492e      0x1c7 components/Libraries/external/algo/\libalg.a(drv_odpinmux.o)
 .debug_abbrev  0x00004af5      0x1ee components/Libraries/external/algo/\libalg.a(drv_pinmux.o)
 .debug_abbrev  0x00004ce3      0x187 components/Libraries/external/algo/\libalg.a(drv_pwr.o)
 .debug_abbrev  0x00004e6a      0x24a components/Libraries/external/algo/\libalg.a(drv_spi.o)
 .debug_abbrev  0x000050b4      0x1f9 components/Libraries/external/algo/\libalg.a(drv_timer32b0.o)
 .debug_abbrev  0x000052ad      0x298 components/Libraries/external/algo/\libalg.a(drv_uart.o)
 .debug_abbrev  0x00005545      0x1b5 components/Libraries/external/algo/\libalg.a(drv_wdt.o)
 .debug_abbrev  0x000056fa       0xe3 components/Libraries/external/algo/\libalg.a(service_battery.o)
 .debug_abbrev  0x000057dd      0x17f components/Libraries/external/algo/\libalg.a(service_device_firmware_update_OTA.o)
 .debug_abbrev  0x0000595c      0x107 components/Libraries/external/algo/\libalg.a(service_device_information.o)
 .debug_abbrev  0x00005a63      0x118 components/Libraries/external/algo/\libalg.a(service_generic_access.o)
 .debug_abbrev  0x00005b7b      0x10d components/Libraries/external/algo/\libalg.a(service_generic_attribute.o)
 .debug_abbrev  0x00005c88      0x11f components/Libraries/external/algo/\libalg.a(service_human_interface_device.o)
 .debug_abbrev  0x00005da7      0x14d components/Libraries/external/algo/\libalg.a(console.o)
 .debug_abbrev  0x00005ef4      0x2d7 components/Libraries/external/algo/\libalg.a(shell.o)
 .debug_abbrev  0x000061cb       0xe8 components/Libraries/external/algo/\libalg.a(ab_debug.o)
 .debug_abbrev  0x000062b3      0x127 components/Libraries/external/algo/\libalg.a(dfu.o)
 .debug_abbrev  0x000063da      0x11f components/Libraries/external/algo/\libalg.a(ab_module.o)
 .debug_abbrev  0x000064f9      0x15c output/\lib1600.a(ab_log.o)

.debug_info     0x00000000    0x24917
 .debug_info    0x00000000      0xb20 /cygdrive/c/Airoha/AiroBlueSDK/AB1600_1_0_5_0/projects/Remote/output/pj/components/Device/AB1600/cfg_sector.o
 .debug_info    0x00000b20      0x658 /cygdrive/c/Airoha/AiroBlueSDK/AB1600_1_0_5_0/projects/Remote/output/pj/components/Libraries/hci_devices/hci_spi_1602.o
 .debug_info    0x00001178      0x19e /cygdrive/c/Airoha/AiroBlueSDK/AB1600_1_0_5_0/projects/Remote/output/pj/components/BT/release/bt_patch/1602_patching.o
 .debug_info    0x00001316     0x1813 /cygdrive/c/Airoha/AiroBlueSDK/AB1600_1_0_5_0/projects/Remote/output/main.o
 .debug_info    0x00002b29     0x2a2a /cygdrive/c/Airoha/AiroBlueSDK/AB1600_1_0_5_0/projects/Remote/output/remote.o
 .debug_info    0x00005553      0x83d /cygdrive/c/Airoha/AiroBlueSDK/AB1600_1_0_5_0/projects/Remote/output/remote_button.o
 .debug_info    0x00005d90     0x13ec /cygdrive/c/Airoha/AiroBlueSDK/AB1600_1_0_5_0/projects/Remote/output/remote_mouse.o
 .debug_info    0x0000717c     0x217d /cygdrive/c/Airoha/AiroBlueSDK/AB1600_1_0_5_0/projects/Remote/output/remote_microphone.o
 .debug_info    0x000092f9      0xd6d /cygdrive/c/Airoha/AiroBlueSDK/AB1600_1_0_5_0/projects/Remote/output/remote_gatt.o
 .debug_info    0x0000a066      0x6a1 /cygdrive/c/Airoha/AiroBlueSDK/AB1600_1_0_5_0/projects/Remote/output/remote_adv.o
 .debug_info    0x0000a707      0x346 /cygdrive/c/Airoha/AiroBlueSDK/AB1600_1_0_5_0/projects/Remote/output/remote_led.o
 .debug_info    0x0000aa4d      0x1fb /cygdrive/c/Airoha/AiroBlueSDK/AB1600_1_0_5_0/projects/Remote/output/remote_gpio.o
 .debug_info    0x0000ac48      0x42d /cygdrive/c/Airoha/AiroBlueSDK/AB1600_1_0_5_0/projects/Remote/output/remote_vcmd.o
 .debug_info    0x0000b075      0x8d4 /cygdrive/c/Airoha/AiroBlueSDK/AB1600_1_0_5_0/projects/Remote/output/spl/components/Libraries/external/ICM_20688_spi/mtd.o
 .debug_info    0x0000b949      0x5f8 /cygdrive/c/Airoha/AiroBlueSDK/AB1600_1_0_5_0/projects/Remote/output/spl/components/Libraries/external/ADPCM/g726_enc_32.o
 .debug_info    0x0000bf41      0x8c6 /cygdrive/c/Airoha/AiroBlueSDK/AB1600_1_0_5_0/projects/Remote/output/spl/components/Libraries/external/ADPCM/g72x.o
 .debug_info    0x0000c807      0x5bc /cygdrive/c/Airoha/AiroBlueSDK/AB1600_1_0_5_0/projects/Remote/output/spl/components/Libraries/external/ima_adpcm/ima_enc.o
 .debug_info    0x0000cdc3      0xd38 components/Libraries/external/algo/\libalg.a(ab_adc.o)
 .debug_info    0x0000dafb      0x1a7 components/Libraries/external/algo/\libalg.a(ab_clk.o)
 .debug_info    0x0000dca2      0x121 components/Libraries/external/algo/\libalg.a(ab_assert.o)
 .debug_info    0x0000ddc3      0x170 components/Libraries/external/algo/\libalg.a(ab_flash.o)
 .debug_info    0x0000df33      0x5fa components/Libraries/external/algo/\libalg.a(ab_led.o)
 .debug_info    0x0000e52d      0x7a7 components/Libraries/external/algo/\libalg.a(ab_malloc_hook.o)
 .debug_info    0x0000ecd4      0x697 components/Libraries/external/algo/\libalg.a(ab_printf_hook.o)
 .debug_info    0x0000f36b      0xe68 components/Libraries/external/algo/\libalg.a(ab_pwr.o)
 .debug_info    0x000101d3      0x454 components/Libraries/external/algo/\libalg.a(ab_queue.o)
 .debug_info    0x00010627      0x407 components/Libraries/external/algo/\libalg.a(ab_mp_sector.o)
 .debug_info    0x00010a2e      0x5bd components/Libraries/external/algo/\libalg.a(ab_spi.o)
 .debug_info    0x00010feb     0x1db5 components/Libraries/external/algo/\libalg.a(bsp_generic.o)
 .debug_info    0x00012da0      0x7bb components/Libraries/external/algo/\libalg.a(ab_timer.o)
 .debug_info    0x0001355b      0xd5c components/Libraries/external/algo/\libalg.a(ab_uart.o)
 .debug_info    0x000142b7     0x12a7 components/Libraries/external/algo/\libalg.a(ab_airoha_vcmd.o)
 .debug_info    0x0001555e      0xa2b components/Libraries/external/algo/\libalg.a(drv_adc.o)
 .debug_info    0x00015f89      0x2de components/Libraries/external/algo/\libalg.a(drv_clk.o)
 .debug_info    0x00016267     0x1476 components/Libraries/external/algo/\libalg.a(drv_flash.o)
 .debug_info    0x000176dd     0x17c8 components/Libraries/external/algo/\libalg.a(drv_gpio.o)
 .debug_info    0x00018ea5      0xbc2 components/Libraries/external/algo/\libalg.a(drv_odgpio.o)
 .debug_info    0x00019a67      0x612 components/Libraries/external/algo/\libalg.a(drv_keyscan.o)
 .debug_info    0x0001a079      0x5fc components/Libraries/external/algo/\libalg.a(drv_led.o)
 .debug_info    0x0001a675      0xf2e components/Libraries/external/algo/\libalg.a(drv_mic.o)
 .debug_info    0x0001b5a3      0xc99 components/Libraries/external/algo/\libalg.a(drv_odpinmux.o)
 .debug_info    0x0001c23c      0xdfb components/Libraries/external/algo/\libalg.a(drv_pinmux.o)
 .debug_info    0x0001d037      0xa5c components/Libraries/external/algo/\libalg.a(drv_pwr.o)
 .debug_info    0x0001da93      0xfa5 components/Libraries/external/algo/\libalg.a(drv_spi.o)
 .debug_info    0x0001ea38      0xb1e components/Libraries/external/algo/\libalg.a(drv_timer32b0.o)
 .debug_info    0x0001f556     0x1204 components/Libraries/external/algo/\libalg.a(drv_uart.o)
 .debug_info    0x0002075a      0x595 components/Libraries/external/algo/\libalg.a(drv_wdt.o)
 .debug_info    0x00020cef      0x41a components/Libraries/external/algo/\libalg.a(service_battery.o)
 .debug_info    0x00021109      0xa01 components/Libraries/external/algo/\libalg.a(service_device_firmware_update_OTA.o)
 .debug_info    0x00021b0a      0x398 components/Libraries/external/algo/\libalg.a(service_device_information.o)
 .debug_info    0x00021ea2      0x491 components/Libraries/external/algo/\libalg.a(service_generic_access.o)
 .debug_info    0x00022333      0x45f components/Libraries/external/algo/\libalg.a(service_generic_attribute.o)
 .debug_info    0x00022792      0x5f6 components/Libraries/external/algo/\libalg.a(service_human_interface_device.o)
 .debug_info    0x00022d88      0x4d4 components/Libraries/external/algo/\libalg.a(console.o)
 .debug_info    0x0002325c      0x945 components/Libraries/external/algo/\libalg.a(shell.o)
 .debug_info    0x00023ba1      0x530 components/Libraries/external/algo/\libalg.a(ab_debug.o)
 .debug_info    0x000240d1      0x257 components/Libraries/external/algo/\libalg.a(dfu.o)
 .debug_info    0x00024328      0x226 components/Libraries/external/algo/\libalg.a(ab_module.o)
 .debug_info    0x0002454e      0x3c9 output/\lib1600.a(ab_log.o)

.debug_line     0x00000000     0xf167
 .debug_line    0x00000000       0xe3 /cygdrive/c/Airoha/AiroBlueSDK/AB1600_1_0_5_0/projects/Remote/output/pj/components/Device/AB1600/cfg_sector.o
 .debug_line    0x000000e3      0x41b /cygdrive/c/Airoha/AiroBlueSDK/AB1600_1_0_5_0/projects/Remote/output/pj/components/Libraries/hci_devices/hci_spi_1602.o
 .debug_line    0x000004fe      0x106 /cygdrive/c/Airoha/AiroBlueSDK/AB1600_1_0_5_0/projects/Remote/output/pj/components/BT/release/bt_patch/1602_patching.o
 .debug_line    0x00000604      0x3d4 /cygdrive/c/Airoha/AiroBlueSDK/AB1600_1_0_5_0/projects/Remote/output/main.o
 .debug_line    0x000009d8      0xd1f /cygdrive/c/Airoha/AiroBlueSDK/AB1600_1_0_5_0/projects/Remote/output/remote.o
 .debug_line    0x000016f7      0x616 /cygdrive/c/Airoha/AiroBlueSDK/AB1600_1_0_5_0/projects/Remote/output/remote_button.o
 .debug_line    0x00001d0d      0xc42 /cygdrive/c/Airoha/AiroBlueSDK/AB1600_1_0_5_0/projects/Remote/output/remote_mouse.o
 .debug_line    0x0000294f      0x979 /cygdrive/c/Airoha/AiroBlueSDK/AB1600_1_0_5_0/projects/Remote/output/remote_microphone.o
 .debug_line    0x000032c8      0x578 /cygdrive/c/Airoha/AiroBlueSDK/AB1600_1_0_5_0/projects/Remote/output/remote_gatt.o
 .debug_line    0x00003840      0x460 /cygdrive/c/Airoha/AiroBlueSDK/AB1600_1_0_5_0/projects/Remote/output/remote_adv.o
 .debug_line    0x00003ca0      0x346 /cygdrive/c/Airoha/AiroBlueSDK/AB1600_1_0_5_0/projects/Remote/output/remote_led.o
 .debug_line    0x00003fe6      0x29e /cygdrive/c/Airoha/AiroBlueSDK/AB1600_1_0_5_0/projects/Remote/output/remote_gpio.o
 .debug_line    0x00004284      0x2cc /cygdrive/c/Airoha/AiroBlueSDK/AB1600_1_0_5_0/projects/Remote/output/remote_vcmd.o
 .debug_line    0x00004550      0x6d9 /cygdrive/c/Airoha/AiroBlueSDK/AB1600_1_0_5_0/projects/Remote/output/spl/components/Libraries/external/ICM_20688_spi/mtd.o
 .debug_line    0x00004c29      0x32b /cygdrive/c/Airoha/AiroBlueSDK/AB1600_1_0_5_0/projects/Remote/output/spl/components/Libraries/external/ADPCM/g726_enc_32.o
 .debug_line    0x00004f54      0xadb /cygdrive/c/Airoha/AiroBlueSDK/AB1600_1_0_5_0/projects/Remote/output/spl/components/Libraries/external/ADPCM/g72x.o
 .debug_line    0x00005a2f      0x7b5 /cygdrive/c/Airoha/AiroBlueSDK/AB1600_1_0_5_0/projects/Remote/output/spl/components/Libraries/external/ima_adpcm/ima_enc.o
 .debug_line    0x000061e4      0x290 components/Libraries/external/algo/\libalg.a(ab_adc.o)
 .debug_line    0x00006474      0x1d1 components/Libraries/external/algo/\libalg.a(ab_clk.o)
 .debug_line    0x00006645       0xf5 components/Libraries/external/algo/\libalg.a(ab_assert.o)
 .debug_line    0x0000673a      0x183 components/Libraries/external/algo/\libalg.a(ab_flash.o)
 .debug_line    0x000068bd      0x3d6 components/Libraries/external/algo/\libalg.a(ab_led.o)
 .debug_line    0x00006c93      0x34c components/Libraries/external/algo/\libalg.a(ab_malloc_hook.o)
 .debug_line    0x00006fdf      0x2ba components/Libraries/external/algo/\libalg.a(ab_printf_hook.o)
 .debug_line    0x00007299      0x2f1 components/Libraries/external/algo/\libalg.a(ab_pwr.o)
 .debug_line    0x0000758a      0x2c5 components/Libraries/external/algo/\libalg.a(ab_queue.o)
 .debug_line    0x0000784f      0x176 components/Libraries/external/algo/\libalg.a(ab_mp_sector.o)
 .debug_line    0x000079c5      0x33d components/Libraries/external/algo/\libalg.a(ab_spi.o)
 .debug_line    0x00007d02      0x6bc components/Libraries/external/algo/\libalg.a(bsp_generic.o)
 .debug_line    0x000083be      0x434 components/Libraries/external/algo/\libalg.a(ab_timer.o)
 .debug_line    0x000087f2      0x304 components/Libraries/external/algo/\libalg.a(ab_uart.o)
 .debug_line    0x00008af6      0xa07 components/Libraries/external/algo/\libalg.a(ab_airoha_vcmd.o)
 .debug_line    0x000094fd      0x1d7 components/Libraries/external/algo/\libalg.a(drv_adc.o)
 .debug_line    0x000096d4      0x33e components/Libraries/external/algo/\libalg.a(drv_clk.o)
 .debug_line    0x00009a12      0x724 components/Libraries/external/algo/\libalg.a(drv_flash.o)
 .debug_line    0x0000a136      0x457 components/Libraries/external/algo/\libalg.a(drv_gpio.o)
 .debug_line    0x0000a58d      0x19e components/Libraries/external/algo/\libalg.a(drv_odgpio.o)
 .debug_line    0x0000a72b      0x25a components/Libraries/external/algo/\libalg.a(drv_keyscan.o)
 .debug_line    0x0000a985      0x266 components/Libraries/external/algo/\libalg.a(drv_led.o)
 .debug_line    0x0000abeb      0x270 components/Libraries/external/algo/\libalg.a(drv_mic.o)
 .debug_line    0x0000ae5b      0x20c components/Libraries/external/algo/\libalg.a(drv_odpinmux.o)
 .debug_line    0x0000b067      0x3a9 components/Libraries/external/algo/\libalg.a(drv_pinmux.o)
 .debug_line    0x0000b410      0x22b components/Libraries/external/algo/\libalg.a(drv_pwr.o)
 .debug_line    0x0000b63b      0x429 components/Libraries/external/algo/\libalg.a(drv_spi.o)
 .debug_line    0x0000ba64      0x3b9 components/Libraries/external/algo/\libalg.a(drv_timer32b0.o)
 .debug_line    0x0000be1d      0x786 components/Libraries/external/algo/\libalg.a(drv_uart.o)
 .debug_line    0x0000c5a3      0x1dc components/Libraries/external/algo/\libalg.a(drv_wdt.o)
 .debug_line    0x0000c77f      0x1b2 components/Libraries/external/algo/\libalg.a(service_battery.o)
 .debug_line    0x0000c931      0x559 components/Libraries/external/algo/\libalg.a(service_device_firmware_update_OTA.o)
 .debug_line    0x0000ce8a      0x225 components/Libraries/external/algo/\libalg.a(service_device_information.o)
 .debug_line    0x0000d0af      0x2c8 components/Libraries/external/algo/\libalg.a(service_generic_access.o)
 .debug_line    0x0000d377      0x1f5 components/Libraries/external/algo/\libalg.a(service_generic_attribute.o)
 .debug_line    0x0000d56c      0x34e components/Libraries/external/algo/\libalg.a(service_human_interface_device.o)
 .debug_line    0x0000d8ba      0x1e7 components/Libraries/external/algo/\libalg.a(console.o)
 .debug_line    0x0000daa1      0xa15 components/Libraries/external/algo/\libalg.a(shell.o)
 .debug_line    0x0000e4b6      0x259 components/Libraries/external/algo/\libalg.a(ab_debug.o)
 .debug_line    0x0000e70f      0x210 components/Libraries/external/algo/\libalg.a(dfu.o)
 .debug_line    0x0000e91f      0x19e components/Libraries/external/algo/\libalg.a(ab_module.o)
 .debug_line    0x0000eabd      0x6aa output/\lib1600.a(ab_log.o)

.debug_pubnames
                0x00000000     0x2c7f
 .debug_pubnames
                0x00000000       0x37 /cygdrive/c/Airoha/AiroBlueSDK/AB1600_1_0_5_0/projects/Remote/output/pj/components/Device/AB1600/cfg_sector.o
 .debug_pubnames
                0x00000037       0xba /cygdrive/c/Airoha/AiroBlueSDK/AB1600_1_0_5_0/projects/Remote/output/pj/components/Libraries/hci_devices/hci_spi_1602.o
 .debug_pubnames
                0x000000f1       0x70 /cygdrive/c/Airoha/AiroBlueSDK/AB1600_1_0_5_0/projects/Remote/output/pj/components/BT/release/bt_patch/1602_patching.o
 .debug_pubnames
                0x00000161       0xb3 /cygdrive/c/Airoha/AiroBlueSDK/AB1600_1_0_5_0/projects/Remote/output/main.o
 .debug_pubnames
                0x00000214      0x4be /cygdrive/c/Airoha/AiroBlueSDK/AB1600_1_0_5_0/projects/Remote/output/remote.o
 .debug_pubnames
                0x000006d2      0x21c /cygdrive/c/Airoha/AiroBlueSDK/AB1600_1_0_5_0/projects/Remote/output/remote_button.o
 .debug_pubnames
                0x000008ee      0x3d0 /cygdrive/c/Airoha/AiroBlueSDK/AB1600_1_0_5_0/projects/Remote/output/remote_mouse.o
 .debug_pubnames
                0x00000cbe      0x1df /cygdrive/c/Airoha/AiroBlueSDK/AB1600_1_0_5_0/projects/Remote/output/remote_microphone.o
 .debug_pubnames
                0x00000e9d      0x1fc /cygdrive/c/Airoha/AiroBlueSDK/AB1600_1_0_5_0/projects/Remote/output/remote_gatt.o
 .debug_pubnames
                0x00001099      0x108 /cygdrive/c/Airoha/AiroBlueSDK/AB1600_1_0_5_0/projects/Remote/output/remote_adv.o
 .debug_pubnames
                0x000011a1      0x10b /cygdrive/c/Airoha/AiroBlueSDK/AB1600_1_0_5_0/projects/Remote/output/remote_led.o
 .debug_pubnames
                0x000012ac       0x3d /cygdrive/c/Airoha/AiroBlueSDK/AB1600_1_0_5_0/projects/Remote/output/remote_gpio.o
 .debug_pubnames
                0x000012e9       0xb5 /cygdrive/c/Airoha/AiroBlueSDK/AB1600_1_0_5_0/projects/Remote/output/remote_vcmd.o
 .debug_pubnames
                0x0000139e       0xc0 /cygdrive/c/Airoha/AiroBlueSDK/AB1600_1_0_5_0/projects/Remote/output/spl/components/Libraries/external/ICM_20688_spi/mtd.o
 .debug_pubnames
                0x0000145e       0x88 /cygdrive/c/Airoha/AiroBlueSDK/AB1600_1_0_5_0/projects/Remote/output/spl/components/Libraries/external/ADPCM/g726_enc_32.o
 .debug_pubnames
                0x000014e6       0x82 /cygdrive/c/Airoha/AiroBlueSDK/AB1600_1_0_5_0/projects/Remote/output/spl/components/Libraries/external/ADPCM/g72x.o
 .debug_pubnames
                0x00001568       0xdf /cygdrive/c/Airoha/AiroBlueSDK/AB1600_1_0_5_0/projects/Remote/output/spl/components/Libraries/external/ima_adpcm/ima_enc.o
 .debug_pubnames
                0x00001647       0x85 components/Libraries/external/algo/\libalg.a(ab_adc.o)
 .debug_pubnames
                0x000016cc       0x24 components/Libraries/external/algo/\libalg.a(ab_clk.o)
 .debug_pubnames
                0x000016f0       0x48 components/Libraries/external/algo/\libalg.a(ab_assert.o)
 .debug_pubnames
                0x00001738       0x6a components/Libraries/external/algo/\libalg.a(ab_flash.o)
 .debug_pubnames
                0x000017a2       0xdb components/Libraries/external/algo/\libalg.a(ab_led.o)
 .debug_pubnames
                0x0000187d       0x88 components/Libraries/external/algo/\libalg.a(ab_malloc_hook.o)
 .debug_pubnames
                0x00001905       0x61 components/Libraries/external/algo/\libalg.a(ab_printf_hook.o)
 .debug_pubnames
                0x00001966       0xb2 components/Libraries/external/algo/\libalg.a(ab_pwr.o)
 .debug_pubnames
                0x00001a18       0xf5 components/Libraries/external/algo/\libalg.a(ab_queue.o)
 .debug_pubnames
                0x00001b0d       0x2f components/Libraries/external/algo/\libalg.a(ab_mp_sector.o)
 .debug_pubnames
                0x00001b3c       0x64 components/Libraries/external/algo/\libalg.a(ab_spi.o)
 .debug_pubnames
                0x00001ba0       0x51 components/Libraries/external/algo/\libalg.a(bsp_generic.o)
 .debug_pubnames
                0x00001bf1       0x96 components/Libraries/external/algo/\libalg.a(ab_timer.o)
 .debug_pubnames
                0x00001c87       0x94 components/Libraries/external/algo/\libalg.a(ab_uart.o)
 .debug_pubnames
                0x00001d1b      0x188 components/Libraries/external/algo/\libalg.a(ab_airoha_vcmd.o)
 .debug_pubnames
                0x00001ea3       0x3b components/Libraries/external/algo/\libalg.a(drv_adc.o)
 .debug_pubnames
                0x00001ede       0x98 components/Libraries/external/algo/\libalg.a(drv_clk.o)
 .debug_pubnames
                0x00001f76       0xfd components/Libraries/external/algo/\libalg.a(drv_flash.o)
 .debug_pubnames
                0x00002073      0x187 components/Libraries/external/algo/\libalg.a(drv_gpio.o)
 .debug_pubnames
                0x000021fa       0x7d components/Libraries/external/algo/\libalg.a(drv_odgpio.o)
 .debug_pubnames
                0x00002277       0x4e components/Libraries/external/algo/\libalg.a(drv_keyscan.o)
 .debug_pubnames
                0x000022c5       0x5d components/Libraries/external/algo/\libalg.a(drv_led.o)
 .debug_pubnames
                0x00002322       0x70 components/Libraries/external/algo/\libalg.a(drv_mic.o)
 .debug_pubnames
                0x00002392       0x82 components/Libraries/external/algo/\libalg.a(drv_odpinmux.o)
 .debug_pubnames
                0x00002414       0xa3 components/Libraries/external/algo/\libalg.a(drv_pinmux.o)
 .debug_pubnames
                0x000024b7       0x58 components/Libraries/external/algo/\libalg.a(drv_pwr.o)
 .debug_pubnames
                0x0000250f       0xa0 components/Libraries/external/algo/\libalg.a(drv_spi.o)
 .debug_pubnames
                0x000025af       0xc5 components/Libraries/external/algo/\libalg.a(drv_timer32b0.o)
 .debug_pubnames
                0x00002674       0xfa components/Libraries/external/algo/\libalg.a(drv_uart.o)
 .debug_pubnames
                0x0000276e       0x5d components/Libraries/external/algo/\libalg.a(drv_wdt.o)
 .debug_pubnames
                0x000027cb       0x3c components/Libraries/external/algo/\libalg.a(service_battery.o)
 .debug_pubnames
                0x00002807       0xd4 components/Libraries/external/algo/\libalg.a(service_device_firmware_update_OTA.o)
 .debug_pubnames
                0x000028db       0x1f components/Libraries/external/algo/\libalg.a(service_device_information.o)
 .debug_pubnames
                0x000028fa       0x3f components/Libraries/external/algo/\libalg.a(service_generic_access.o)
 .debug_pubnames
                0x00002939       0x39 components/Libraries/external/algo/\libalg.a(service_generic_attribute.o)
 .debug_pubnames
                0x00002972       0x34 components/Libraries/external/algo/\libalg.a(service_human_interface_device.o)
 .debug_pubnames
                0x000029a6       0x6d components/Libraries/external/algo/\libalg.a(console.o)
 .debug_pubnames
                0x00002a13       0x41 components/Libraries/external/algo/\libalg.a(shell.o)
 .debug_pubnames
                0x00002a54       0x44 components/Libraries/external/algo/\libalg.a(ab_debug.o)
 .debug_pubnames
                0x00002a98       0x74 components/Libraries/external/algo/\libalg.a(dfu.o)
 .debug_pubnames
                0x00002b0c       0xa9 components/Libraries/external/algo/\libalg.a(ab_module.o)
 .debug_pubnames
                0x00002bb5       0xca output/\lib1600.a(ab_log.o)

.debug_str      0x00000000     0xae83
 .debug_str     0x00000000      0x98f /cygdrive/c/Airoha/AiroBlueSDK/AB1600_1_0_5_0/projects/Remote/output/pj/components/Device/AB1600/cfg_sector.o
                                0xa0b (size before relaxing)
 .debug_str     0x0000098f      0x2a9 /cygdrive/c/Airoha/AiroBlueSDK/AB1600_1_0_5_0/projects/Remote/output/pj/components/Libraries/hci_devices/hci_spi_1602.o
                                0x3de (size before relaxing)
 .debug_str     0x00000c38       0x8b /cygdrive/c/Airoha/AiroBlueSDK/AB1600_1_0_5_0/projects/Remote/output/pj/components/BT/release/bt_patch/1602_patching.o
                                0x1b8 (size before relaxing)
 .debug_str     0x00000cc3      0xfc5 /cygdrive/c/Airoha/AiroBlueSDK/AB1600_1_0_5_0/projects/Remote/output/main.o
                               0x11eb (size before relaxing)
 .debug_str     0x00001c88     0x1b31 /cygdrive/c/Airoha/AiroBlueSDK/AB1600_1_0_5_0/projects/Remote/output/remote.o
                               0x2cf3 (size before relaxing)
 .debug_str     0x000037b9      0x464 /cygdrive/c/Airoha/AiroBlueSDK/AB1600_1_0_5_0/projects/Remote/output/remote_button.o
                                0x964 (size before relaxing)
 .debug_str     0x00003c1d      0x70d /cygdrive/c/Airoha/AiroBlueSDK/AB1600_1_0_5_0/projects/Remote/output/remote_mouse.o
                               0x181a (size before relaxing)
 .debug_str     0x0000432a      0x464 /cygdrive/c/Airoha/AiroBlueSDK/AB1600_1_0_5_0/projects/Remote/output/remote_microphone.o
                               0x2158 (size before relaxing)
 .debug_str     0x0000478e      0x782 /cygdrive/c/Airoha/AiroBlueSDK/AB1600_1_0_5_0/projects/Remote/output/remote_gatt.o
                                0xc78 (size before relaxing)
 .debug_str     0x00004f10      0x327 /cygdrive/c/Airoha/AiroBlueSDK/AB1600_1_0_5_0/projects/Remote/output/remote_adv.o
                                0x670 (size before relaxing)
 .debug_str     0x00005237      0x288 /cygdrive/c/Airoha/AiroBlueSDK/AB1600_1_0_5_0/projects/Remote/output/remote_led.o
                                0x4b7 (size before relaxing)
 .debug_str     0x000054bf       0xac /cygdrive/c/Airoha/AiroBlueSDK/AB1600_1_0_5_0/projects/Remote/output/remote_gpio.o
                                0x308 (size before relaxing)
 .debug_str     0x0000556b      0x172 /cygdrive/c/Airoha/AiroBlueSDK/AB1600_1_0_5_0/projects/Remote/output/remote_vcmd.o
                                0x326 (size before relaxing)
 .debug_str     0x000056dd      0x288 /cygdrive/c/Airoha/AiroBlueSDK/AB1600_1_0_5_0/projects/Remote/output/spl/components/Libraries/external/ICM_20688_spi/mtd.o
                                0x3cd (size before relaxing)
 .debug_str     0x00005965       0xd2 /cygdrive/c/Airoha/AiroBlueSDK/AB1600_1_0_5_0/projects/Remote/output/spl/components/Libraries/external/ADPCM/g726_enc_32.o
                                0x1f2 (size before relaxing)
 .debug_str     0x00005a37       0xe6 /cygdrive/c/Airoha/AiroBlueSDK/AB1600_1_0_5_0/projects/Remote/output/spl/components/Libraries/external/ADPCM/g72x.o
                                0x212 (size before relaxing)
 .debug_str     0x00005b1d       0xd6 /cygdrive/c/Airoha/AiroBlueSDK/AB1600_1_0_5_0/projects/Remote/output/spl/components/Libraries/external/ima_adpcm/ima_enc.o
                                0x1fe (size before relaxing)
 .debug_str     0x00005bf3      0x7ae components/Libraries/external/algo/\libalg.a(ab_adc.o)
                                0xa75 (size before relaxing)
 .debug_str     0x000063a1      0x122 components/Libraries/external/algo/\libalg.a(ab_clk.o)
                                0x24e (size before relaxing)
 .debug_str     0x000064c3       0x68 components/Libraries/external/algo/\libalg.a(ab_assert.o)
                                0x133 (size before relaxing)
 .debug_str     0x0000652b       0xb1 components/Libraries/external/algo/\libalg.a(ab_flash.o)
                                0x192 (size before relaxing)
 .debug_str     0x000065dc      0x249 components/Libraries/external/algo/\libalg.a(ab_led.o)
                                0x4ac (size before relaxing)
 .debug_str     0x00006825       0xec components/Libraries/external/algo/\libalg.a(ab_malloc_hook.o)
                                0xc62 (size before relaxing)
 .debug_str     0x00006911       0x97 components/Libraries/external/algo/\libalg.a(ab_printf_hook.o)
                                0xc34 (size before relaxing)
 .debug_str     0x000069a8      0x3f5 components/Libraries/external/algo/\libalg.a(ab_pwr.o)
                                0xff5 (size before relaxing)
 .debug_str     0x00006d9d      0x16a components/Libraries/external/algo/\libalg.a(ab_queue.o)
                                0x25f (size before relaxing)
 .debug_str     0x00006f07       0xa3 components/Libraries/external/algo/\libalg.a(ab_mp_sector.o)
                                0x303 (size before relaxing)
 .debug_str     0x00006faa      0x10c components/Libraries/external/algo/\libalg.a(ab_spi.o)
                                0x346 (size before relaxing)
 .debug_str     0x000070b6      0x198 components/Libraries/external/algo/\libalg.a(bsp_generic.o)
                               0x1445 (size before relaxing)
 .debug_str     0x0000724e      0x13a components/Libraries/external/algo/\libalg.a(ab_timer.o)
                                0xcd6 (size before relaxing)
 .debug_str     0x00007388      0x16c components/Libraries/external/algo/\libalg.a(ab_uart.o)
                                0x66f (size before relaxing)
 .debug_str     0x000074f4      0x625 components/Libraries/external/algo/\libalg.a(ab_airoha_vcmd.o)
                                0x9e1 (size before relaxing)
 .debug_str     0x00007b19      0x433 components/Libraries/external/algo/\libalg.a(drv_adc.o)
                                0x64b (size before relaxing)
 .debug_str     0x00007f4c      0x142 components/Libraries/external/algo/\libalg.a(drv_clk.o)
                                0x2f2 (size before relaxing)
 .debug_str     0x0000808e      0x18f components/Libraries/external/algo/\libalg.a(drv_flash.o)
                               0x14c1 (size before relaxing)
 .debug_str     0x0000821d      0x7e9 components/Libraries/external/algo/\libalg.a(drv_gpio.o)
                               0x1092 (size before relaxing)
 .debug_str     0x00008a06       0x98 components/Libraries/external/algo/\libalg.a(drv_odgpio.o)
                                0x7ad (size before relaxing)
 .debug_str     0x00008a9e      0x277 components/Libraries/external/algo/\libalg.a(drv_keyscan.o)
                                0x4f2 (size before relaxing)
 .debug_str     0x00008d15      0x217 components/Libraries/external/algo/\libalg.a(drv_led.o)
                                0x3af (size before relaxing)
 .debug_str     0x00008f2c      0x2de components/Libraries/external/algo/\libalg.a(drv_mic.o)
                                0x91b (size before relaxing)
 .debug_str     0x0000920a       0xb2 components/Libraries/external/algo/\libalg.a(drv_odpinmux.o)
                                0x820 (size before relaxing)
 .debug_str     0x000092bc       0xd6 components/Libraries/external/algo/\libalg.a(drv_pinmux.o)
                                0x8a6 (size before relaxing)
 .debug_str     0x00009392       0x65 components/Libraries/external/algo/\libalg.a(drv_pwr.o)
                                0x967 (size before relaxing)
 .debug_str     0x000093f7      0x64f components/Libraries/external/algo/\libalg.a(drv_spi.o)
                                0x872 (size before relaxing)
 .debug_str     0x00009a46      0x42f components/Libraries/external/algo/\libalg.a(drv_timer32b0.o)
                                0x5ec (size before relaxing)
 .debug_str     0x00009e75      0x29b components/Libraries/external/algo/\libalg.a(drv_uart.o)
                                0x801 (size before relaxing)
 .debug_str     0x0000a110      0x23f components/Libraries/external/algo/\libalg.a(drv_wdt.o)
                                0x37a (size before relaxing)
 .debug_str     0x0000a34f       0xb8 components/Libraries/external/algo/\libalg.a(service_battery.o)
                                0x410 (size before relaxing)
 .debug_str     0x0000a407      0x26a components/Libraries/external/algo/\libalg.a(service_device_firmware_update_OTA.o)
                                0x736 (size before relaxing)
 .debug_str     0x0000a671       0x4d components/Libraries/external/algo/\libalg.a(service_device_information.o)
                                0x3d4 (size before relaxing)
 .debug_str     0x0000a6be       0x57 components/Libraries/external/algo/\libalg.a(service_generic_access.o)
                                0x43d (size before relaxing)
 .debug_str     0x0000a715       0xd1 components/Libraries/external/algo/\libalg.a(service_generic_attribute.o)
                                0x465 (size before relaxing)
 .debug_str     0x0000a7e6       0x81 components/Libraries/external/algo/\libalg.a(service_human_interface_device.o)
                                0x4e5 (size before relaxing)
 .debug_str     0x0000a867      0x20e components/Libraries/external/algo/\libalg.a(console.o)
                                0x349 (size before relaxing)
 .debug_str     0x0000aa75      0x13b components/Libraries/external/algo/\libalg.a(shell.o)
                                0x40c (size before relaxing)
 .debug_str     0x0000abb0       0xa3 components/Libraries/external/algo/\libalg.a(ab_debug.o)
                                0xbc0 (size before relaxing)
 .debug_str     0x0000ac53       0x80 components/Libraries/external/algo/\libalg.a(dfu.o)
                                0x1d8 (size before relaxing)
 .debug_str     0x0000acd3       0xaa components/Libraries/external/algo/\libalg.a(ab_module.o)
                                0x196 (size before relaxing)
 .debug_str     0x0000ad7d      0x106 output/\lib1600.a(ab_log.o)
                                0x1eb (size before relaxing)

.comment        0x00000000      0xccb
 .comment       0x00000000       0x19 /cygdrive/c/Airoha/AiroBlueSDK/AB1600_1_0_5_0/projects/Remote/output/pj/components/Device/AB1600/cfg_sector.o
 .comment       0x00000019       0x19 /cygdrive/c/Airoha/AiroBlueSDK/AB1600_1_0_5_0/projects/Remote/output/pj/components/Libraries/hci_devices/hci_spi_1602.o
 .comment       0x00000032       0x19 /cygdrive/c/Airoha/AiroBlueSDK/AB1600_1_0_5_0/projects/Remote/output/pj/components/BT/release/bt_patch/1602_patching.o
 .comment       0x0000004b       0x19 /cygdrive/c/Airoha/AiroBlueSDK/AB1600_1_0_5_0/projects/Remote/output/main.o
 .comment       0x00000064       0x19 /cygdrive/c/Airoha/AiroBlueSDK/AB1600_1_0_5_0/projects/Remote/output/remote.o
 .comment       0x0000007d       0x19 /cygdrive/c/Airoha/AiroBlueSDK/AB1600_1_0_5_0/projects/Remote/output/remote_button.o
 .comment       0x00000096       0x19 /cygdrive/c/Airoha/AiroBlueSDK/AB1600_1_0_5_0/projects/Remote/output/remote_mouse.o
 .comment       0x000000af       0x19 /cygdrive/c/Airoha/AiroBlueSDK/AB1600_1_0_5_0/projects/Remote/output/remote_microphone.o
 .comment       0x000000c8       0x19 /cygdrive/c/Airoha/AiroBlueSDK/AB1600_1_0_5_0/projects/Remote/output/remote_gatt.o
 .comment       0x000000e1       0x19 /cygdrive/c/Airoha/AiroBlueSDK/AB1600_1_0_5_0/projects/Remote/output/remote_adv.o
 .comment       0x000000fa       0x19 /cygdrive/c/Airoha/AiroBlueSDK/AB1600_1_0_5_0/projects/Remote/output/remote_led.o
 .comment       0x00000113       0x19 /cygdrive/c/Airoha/AiroBlueSDK/AB1600_1_0_5_0/projects/Remote/output/remote_gpio.o
 .comment       0x0000012c       0x19 /cygdrive/c/Airoha/AiroBlueSDK/AB1600_1_0_5_0/projects/Remote/output/remote_vcmd.o
 .comment       0x00000145       0x19 /cygdrive/c/Airoha/AiroBlueSDK/AB1600_1_0_5_0/projects/Remote/output/spl/components/Libraries/external/ICM_20688_spi/mtd.o
 .comment       0x0000015e       0x19 /cygdrive/c/Airoha/AiroBlueSDK/AB1600_1_0_5_0/projects/Remote/output/spl/components/Libraries/external/ADPCM/g726_enc_32.o
 .comment       0x00000177       0x19 /cygdrive/c/Airoha/AiroBlueSDK/AB1600_1_0_5_0/projects/Remote/output/spl/components/Libraries/external/ADPCM/g72x.o
 .comment       0x00000190       0x19 /cygdrive/c/Airoha/AiroBlueSDK/AB1600_1_0_5_0/projects/Remote/output/spl/components/Libraries/external/ima_adpcm/ima_enc.o
 .comment       0x000001a9       0x19 components/BT/release/hci_protocol_1602.o
 .comment       0x000001c2       0x19 components/Libraries/external/AML/\libAML.a(AIR_MOTION_Lib.o)
 .comment       0x000001db       0x19 components/Libraries/external/AML/\libAML.a(RollCompFullDynamic3D.o)
 .comment       0x000001f4       0x19 components/Libraries/external/algo/\libalg.a(ab_adc.o)
 .comment       0x0000020d       0x19 components/Libraries/external/algo/\libalg.a(ab_clk.o)
 .comment       0x00000226       0x19 components/Libraries/external/algo/\libalg.a(ab_assert.o)
 .comment       0x0000023f       0x19 components/Libraries/external/algo/\libalg.a(ab_flash.o)
 .comment       0x00000258       0x19 components/Libraries/external/algo/\libalg.a(ab_led.o)
 .comment       0x00000271       0x19 components/Libraries/external/algo/\libalg.a(ab_malloc_hook.o)
 .comment       0x0000028a       0x19 components/Libraries/external/algo/\libalg.a(ab_printf_hook.o)
 .comment       0x000002a3       0x19 components/Libraries/external/algo/\libalg.a(ab_pwr.o)
 .comment       0x000002bc       0x19 components/Libraries/external/algo/\libalg.a(ab_queue.o)
 .comment       0x000002d5       0x19 components/Libraries/external/algo/\libalg.a(ab_mp_sector.o)
 .comment       0x000002ee       0x19 components/Libraries/external/algo/\libalg.a(ab_spi.o)
 .comment       0x00000307       0x19 components/Libraries/external/algo/\libalg.a(bsp_generic.o)
 .comment       0x00000320       0x19 components/Libraries/external/algo/\libalg.a(ab_timer.o)
 .comment       0x00000339       0x19 components/Libraries/external/algo/\libalg.a(ab_uart.o)
 .comment       0x00000352       0x19 components/Libraries/external/algo/\libalg.a(ab_airoha_vcmd.o)
 .comment       0x0000036b       0x19 components/Libraries/external/algo/\libalg.a(drv_adc.o)
 .comment       0x00000384       0x19 components/Libraries/external/algo/\libalg.a(drv_clk.o)
 .comment       0x0000039d       0x19 components/Libraries/external/algo/\libalg.a(drv_flash.o)
 .comment       0x000003b6       0x19 components/Libraries/external/algo/\libalg.a(drv_gpio.o)
 .comment       0x000003cf       0x19 components/Libraries/external/algo/\libalg.a(drv_odgpio.o)
 .comment       0x000003e8       0x19 components/Libraries/external/algo/\libalg.a(drv_keyscan.o)
 .comment       0x00000401       0x19 components/Libraries/external/algo/\libalg.a(drv_led.o)
 .comment       0x0000041a       0x19 components/Libraries/external/algo/\libalg.a(drv_mic.o)
 .comment       0x00000433       0x19 components/Libraries/external/algo/\libalg.a(drv_odpinmux.o)
 .comment       0x0000044c       0x19 components/Libraries/external/algo/\libalg.a(drv_pinmux.o)
 .comment       0x00000465       0x19 components/Libraries/external/algo/\libalg.a(drv_pwr.o)
 .comment       0x0000047e       0x19 components/Libraries/external/algo/\libalg.a(drv_spi.o)
 .comment       0x00000497       0x19 components/Libraries/external/algo/\libalg.a(drv_timer32b0.o)
 .comment       0x000004b0       0x19 components/Libraries/external/algo/\libalg.a(drv_uart.o)
 .comment       0x000004c9       0x19 components/Libraries/external/algo/\libalg.a(drv_wdt.o)
 .comment       0x000004e2       0x19 components/Libraries/external/algo/\libalg.a(service_battery.o)
 .comment       0x000004fb       0x19 components/Libraries/external/algo/\libalg.a(service_device_firmware_update_OTA.o)
 .comment       0x00000514       0x19 components/Libraries/external/algo/\libalg.a(service_device_information.o)
 .comment       0x0000052d       0x19 components/Libraries/external/algo/\libalg.a(service_generic_access.o)
 .comment       0x00000546       0x19 components/Libraries/external/algo/\libalg.a(service_generic_attribute.o)
 .comment       0x0000055f       0x19 components/Libraries/external/algo/\libalg.a(service_human_interface_device.o)
 .comment       0x00000578       0x19 components/Libraries/external/algo/\libalg.a(console.o)
 .comment       0x00000591       0x19 components/Libraries/external/algo/\libalg.a(shell.o)
 .comment       0x000005aa       0x19 components/Libraries/external/algo/\libalg.a(ab_debug.o)
 .comment       0x000005c3       0x19 components/Libraries/external/algo/\libalg.a(dfu.o)
 .comment       0x000005dc       0x19 components/Libraries/external/algo/\libalg.a(ab_module.o)
 .comment       0x000005f5       0x19 components/BT/release/\libbtcore.a(hci_h4_parser.o)
 .comment       0x0000060e       0x19 components/BT/release/\libbtcore.a(bt.o)
 .comment       0x00000627       0x19 components/BT/release/\libbtcore.a(ble_gap.o)
 .comment       0x00000640       0x19 components/BT/release/\libbtcore.a(ble_gap_links.o)
 .comment       0x00000659       0x19 components/BT/release/\libbtcore.a(ble_gap_sm.o)
 .comment       0x00000672       0x19 components/BT/release/\libbtcore.a(ble_l2cap.o)
 .comment       0x0000068b       0x19 components/BT/release/\libbtcore.a(l2cap_le_sig.o)
 .comment       0x000006a4       0x19 components/BT/release/\libbtcore.a(ble_att.o)
 .comment       0x000006bd       0x19 components/BT/release/\libbtcore.a(ble_gatt_server.o)
 .comment       0x000006d6       0x19 components/BT/release/\libbtcore.a(ble_gatt_client.o)
 .comment       0x000006ef       0x19 components/BT/release/\libbtcore.a(sm.o)
 .comment       0x00000708       0x19 components/BT/release/\libbtcore.a(sm_cryptotool.o)
 .comment       0x00000721       0x19 components/BT/release/\libbtcore.a(sm_hal.o)
 .comment       0x0000073a       0x19 components/BT/release/\libbtcore.a(sm_protocol.o)
 .comment       0x00000753       0x19 components/BT/release/\libbtcore.a(sm_slave.o)
 .comment       0x0000076c       0x19 components/BT/release/\libbtcore.a(sm_master.o)
 .comment       0x00000785       0x19 components/BT/release/\libbtcore.a(Drv_Trng.o)
 .comment       0x0000079e       0x19 components/BT/release/\libbtcore.a(Drv_MMITimer.o)
 .comment       0x000007b7       0x19 components/BT/release/\libbtcore.a(Ab_MMITimer.o)
 .comment       0x000007d0       0x19 components/BT/release/\libbtcore.a(Drv_1602.o)
 .comment       0x000007e9       0x19 components/BT/release/\libbtcore.a(encrypt.o)
 .comment       0x00000802       0x19 components/BT/release/\libbtcore.a(hci.o)
 .comment       0x0000081b       0x19 components/BT/release/\libbtcore.a(hci_cmd_evt_dat.o)
 .comment       0x00000834       0x19 components/BT/release/\libbtcore.a(sm_common.o)
 .comment       0x0000084d       0x19 output/\lib1600.a(ab_log.o)
 .comment       0x00000866       0x19 C:\Andestech\AndeSight211RDS\toolchains\nds32le-elf-mculib-v3m\nds32le-elf\libc\mculib\usr\lib\libc.a(lib_a-ctype_.o)
 .comment       0x0000087f       0x19 C:\Andestech\AndeSight211RDS\toolchains\nds32le-elf-mculib-v3m\nds32le-elf\libc\mculib\usr\lib\libc.a(lib_a-freer.o)
 .comment       0x00000898       0x19 C:\Andestech\AndeSight211RDS\toolchains\nds32le-elf-mculib-v3m\nds32le-elf\libc\mculib\usr\lib\libc.a(lib_a-mallocr.o)
 .comment       0x000008b1       0x19 C:\Andestech\AndeSight211RDS\toolchains\nds32le-elf-mculib-v3m\nds32le-elf\libc\mculib\usr\lib\libc.a(lib_a-mlock.o)
 .comment       0x000008ca       0x19 C:\Andestech\AndeSight211RDS\toolchains\nds32le-elf-mculib-v3m\nds32le-elf\libc\mculib\usr\lib\libc.a(lib_a-mstats.o)
 .comment       0x000008e3       0x19 C:\Andestech\AndeSight211RDS\toolchains\nds32le-elf-mculib-v3m\nds32le-elf\libc\mculib\usr\lib\libc.a(lib_a-puts.o)
 .comment       0x000008fc       0x19 C:\Andestech\AndeSight211RDS\toolchains\nds32le-elf-mculib-v3m\nds32le-elf\libc\mculib\usr\lib\libc.a(lib_a-sbrkr.o)
 .comment       0x00000915       0x19 C:\Andestech\AndeSight211RDS\toolchains\nds32le-elf-mculib-v3m\nds32le-elf\libc\mculib\usr\lib\libc.a(lib_a-sprintf.o)
 .comment       0x0000092e       0x19 C:\Andestech\AndeSight211RDS\toolchains\nds32le-elf-mculib-v3m\nds32le-elf\libc\mculib\usr\lib\libc.a(lib_a-vprintf.o)
 .comment       0x00000947       0x19 C:\Andestech\AndeSight211RDS\toolchains\nds32le-elf-mculib-v3m\nds32le-elf\libc\mculib\usr\lib\libc.a(lib_a-vsprintf.o)
 .comment       0x00000960       0x19 C:\Andestech\AndeSight211RDS\toolchains\nds32le-elf-mculib-v3m\nds32le-elf\libc\mculib\usr\lib\libc.a(do_printf.o)
 .comment       0x00000979       0x19 C:\Andestech\AndeSight211RDS\toolchains\nds32le-elf-mculib-v3m\nds32le-elf\libc\mculib\usr\lib\libc.a(xint2dec.o)
 .comment       0x00000992       0x19 C:\Andestech\AndeSight211RDS\toolchains\nds32le-elf-mculib-v3m\nds32le-elf\libc\mculib\usr\lib\libc.a(lib_a-data-errno.o)
 .comment       0x000009ab       0x19 C:\Andestech\AndeSight211RDS\toolchains\nds32le-elf-mculib-v3m\nds32le-elf\libc\mculib\usr\lib\libc.a(lib_a-data-stdio.o)
 .comment       0x000009c4       0x19 C:\Andestech\AndeSight211RDS\toolchains\nds32le-elf-mculib-v3m\nds32le-elf\libc\mculib\usr\lib\libc.a(lib_a-fiprintf.o)
 .comment       0x000009dd       0x19 C:\Andestech\AndeSight211RDS\toolchains\nds32le-elf-mculib-v3m\nds32le-elf\libc\mculib\usr\lib\libc.a(lib_a-mallinfor.o)
 .comment       0x000009f6       0x19 C:\Andestech\AndeSight211RDS\toolchains\nds32le-elf-mculib-v3m\nds32le-elf\libc\mculib\usr\lib\libc.a(lib_a-malloptr.o)
 .comment       0x00000a0f       0x19 C:\Andestech\AndeSight211RDS\toolchains\nds32le-elf-mculib-v3m\nds32le-elf\libc\mculib\usr\lib\libc.a(lib_a-mallstatsr.o)
 .comment       0x00000a28       0x19 C:\Andestech\AndeSight211RDS\toolchains\nds32le-elf-mculib-v3m\nds32le-elf\libc\mculib\usr\lib\libc.a(lib_a-reent_errno.o)
 .comment       0x00000a41       0x19 C:\Andestech\AndeSight211RDS\toolchains\nds32le-elf-mculib-v3m\nds32le-elf\libc\mculib\usr\lib\libc.a(lib_a-vfiprintf.o)
 .comment       0x00000a5a       0x19 C:\Andestech\AndeSight211RDS\toolchains\nds32le-elf-mculib-v3m\nds32le-elf\libc\mculib\usr\lib\libc.a(lib_a-wsetup.o)
 .comment       0x00000a73       0x19 C:\Andestech\AndeSight211RDS\toolchains\nds32le-elf-mculib-v3m\nds32le-elf\libc\mculib\usr\lib\libc.a(lib_a-data-findfp.o)
 .comment       0x00000a8c       0x19 C:\Andestech\AndeSight211RDS\toolchains\nds32le-elf-mculib-v3m\nds32le-elf\libc\mculib\usr\lib\libc.a(lib_a-fflush.o)
 .comment       0x00000aa5       0x19 C:\Andestech\AndeSight211RDS\toolchains\nds32le-elf-mculib-v3m\nds32le-elf\libc\mculib\usr\lib\libc.a(lib_a-findfp.o)
 .comment       0x00000abe       0x19 C:\Andestech\AndeSight211RDS\toolchains\nds32le-elf-mculib-v3m\nds32le-elf\libc\mculib\usr\lib\libc.a(lib_a-fputwc.o)
 .comment       0x00000ad7       0x19 C:\Andestech\AndeSight211RDS\toolchains\nds32le-elf-mculib-v3m\nds32le-elf\libc\mculib\usr\lib\libc.a(lib_a-fvwrite.o)
 .comment       0x00000af0       0x19 C:\Andestech\AndeSight211RDS\toolchains\nds32le-elf-mculib-v3m\nds32le-elf\libc\mculib\usr\lib\libc.a(lib_a-fwalk.o)
 .comment       0x00000b09       0x19 C:\Andestech\AndeSight211RDS\toolchains\nds32le-elf-mculib-v3m\nds32le-elf\libc\mculib\usr\lib\libc.a(lib_a-locale.o)
 .comment       0x00000b22       0x19 C:\Andestech\AndeSight211RDS\toolchains\nds32le-elf-mculib-v3m\nds32le-elf\libc\mculib\usr\lib\libc.a(lib_a-makebuf.o)
 .comment       0x00000b3b       0x19 C:\Andestech\AndeSight211RDS\toolchains\nds32le-elf-mculib-v3m\nds32le-elf\libc\mculib\usr\lib\libc.a(lib_a-reallocr.o)
 .comment       0x00000b54       0x19 C:\Andestech\AndeSight211RDS\toolchains\nds32le-elf-mculib-v3m\nds32le-elf\libc\mculib\usr\lib\libc.a(lib_a-stdio.o)
 .comment       0x00000b6d       0x19 C:\Andestech\AndeSight211RDS\toolchains\nds32le-elf-mculib-v3m\nds32le-elf\libc\mculib\usr\lib\libc.a(lib_a-wbuf.o)
 .comment       0x00000b86       0x19 C:\Andestech\AndeSight211RDS\toolchains\nds32le-elf-mculib-v3m\nds32le-elf\libc\mculib\usr\lib\libc.a(lib_a-wcrtomb.o)
 .comment       0x00000b9f       0x19 C:\Andestech\AndeSight211RDS\toolchains\nds32le-elf-mculib-v3m\nds32le-elf\libc\mculib\usr\lib\libc.a(lib_a-wctomb_r.o)
 .comment       0x00000bb8       0x19 C:\Andestech\AndeSight211RDS\toolchains\nds32le-elf-mculib-v3m\nds32le-elf\libc\mculib\usr\lib\libc.a(lib_a-writer.o)
 .comment       0x00000bd1       0x19 C:\Andestech\AndeSight211RDS\toolchains\nds32le-elf-mculib-v3m\nds32le-elf\libc\mculib\usr\lib\libc.a(lib_a-closer.o)
 .comment       0x00000bea       0x19 C:\Andestech\AndeSight211RDS\toolchains\nds32le-elf-mculib-v3m\nds32le-elf\libc\mculib\usr\lib\libc.a(lib_a-fclose.o)
 .comment       0x00000c03       0x19 C:\Andestech\AndeSight211RDS\toolchains\nds32le-elf-mculib-v3m\nds32le-elf\libc\mculib\usr\lib\libc.a(lib_a-fstatr.o)
 .comment       0x00000c1c       0x19 C:\Andestech\AndeSight211RDS\toolchains\nds32le-elf-mculib-v3m\nds32le-elf\libc\mculib\usr\lib\libc.a(lib_a-isattyr.o)
 .comment       0x00000c35       0x19 C:\Andestech\AndeSight211RDS\toolchains\nds32le-elf-mculib-v3m\nds32le-elf\libc\mculib\usr\lib\libc.a(lib_a-lseekr.o)
 .comment       0x00000c4e       0x19 C:\Andestech\AndeSight211RDS\toolchains\nds32le-elf-mculib-v3m\nds32le-elf\libc\mculib\usr\lib\libc.a(lib_a-readr.o)
 .comment       0x00000c67       0x19 C:\Andestech\AndeSight211RDS\toolchains\nds32le-elf-mculib-v3m\lib\gcc\nds32le-elf\4.4.4\mculib\libgcc.a(_muldi3.o)
 .comment       0x00000c80       0x19 C:\Andestech\AndeSight211RDS\toolchains\nds32le-elf-mculib-v3m\lib\gcc\nds32le-elf\4.4.4\mculib\libgcc.a(_lshrdi3.o)
 .comment       0x00000c99       0x19 C:\Andestech\AndeSight211RDS\toolchains\nds32le-elf-mculib-v3m\lib\gcc\nds32le-elf\4.4.4\mculib\libgcc.a(_ashldi3.o)
 .comment       0x00000cb2       0x19 C:\Andestech\AndeSight211RDS\toolchains\nds32le-elf-mculib-v3m\lib\gcc\nds32le-elf\4.4.4\mculib\libgcc.a(clz.o)

.note.nds32.ld  0x00000000      0x97a
 .note.nds32.ld
                0x00000000      0x97a /cygdrive/c/Airoha/AiroBlueSDK/AB1600_1_0_5_0/projects/Remote/output/pj/components/Device/AB1600/cfg_sector.o

.debug_frame    0x00000000     0x4610
 .debug_frame   0x00000000      0x180 /cygdrive/c/Airoha/AiroBlueSDK/AB1600_1_0_5_0/projects/Remote/output/pj/components/Libraries/hci_devices/hci_spi_1602.o
 .debug_frame   0x00000180       0x60 /cygdrive/c/Airoha/AiroBlueSDK/AB1600_1_0_5_0/projects/Remote/output/main.o
 .debug_frame   0x000001e0      0x418 /cygdrive/c/Airoha/AiroBlueSDK/AB1600_1_0_5_0/projects/Remote/output/remote.o
 .debug_frame   0x000005f8      0x26c /cygdrive/c/Airoha/AiroBlueSDK/AB1600_1_0_5_0/projects/Remote/output/remote_button.o
 .debug_frame   0x00000864      0x39c /cygdrive/c/Airoha/AiroBlueSDK/AB1600_1_0_5_0/projects/Remote/output/remote_mouse.o
 .debug_frame   0x00000c00      0x208 /cygdrive/c/Airoha/AiroBlueSDK/AB1600_1_0_5_0/projects/Remote/output/remote_microphone.o
 .debug_frame   0x00000e08      0x1dc /cygdrive/c/Airoha/AiroBlueSDK/AB1600_1_0_5_0/projects/Remote/output/remote_gatt.o
 .debug_frame   0x00000fe4      0x274 /cygdrive/c/Airoha/AiroBlueSDK/AB1600_1_0_5_0/projects/Remote/output/remote_adv.o
 .debug_frame   0x00001258      0x130 /cygdrive/c/Airoha/AiroBlueSDK/AB1600_1_0_5_0/projects/Remote/output/remote_led.o
 .debug_frame   0x00001388       0x84 /cygdrive/c/Airoha/AiroBlueSDK/AB1600_1_0_5_0/projects/Remote/output/remote_gpio.o
 .debug_frame   0x0000140c       0xbc /cygdrive/c/Airoha/AiroBlueSDK/AB1600_1_0_5_0/projects/Remote/output/remote_vcmd.o
 .debug_frame   0x000014c8      0x15c /cygdrive/c/Airoha/AiroBlueSDK/AB1600_1_0_5_0/projects/Remote/output/spl/components/Libraries/external/ICM_20688_spi/mtd.o
 .debug_frame   0x00001624      0x100 /cygdrive/c/Airoha/AiroBlueSDK/AB1600_1_0_5_0/projects/Remote/output/spl/components/Libraries/external/ADPCM/g726_enc_32.o
 .debug_frame   0x00001724       0xe8 /cygdrive/c/Airoha/AiroBlueSDK/AB1600_1_0_5_0/projects/Remote/output/spl/components/Libraries/external/ADPCM/g72x.o
 .debug_frame   0x0000180c       0xa8 /cygdrive/c/Airoha/AiroBlueSDK/AB1600_1_0_5_0/projects/Remote/output/spl/components/Libraries/external/ima_adpcm/ima_enc.o
 .debug_frame   0x000018b4       0xcc components/Libraries/external/algo/\libalg.a(ab_adc.o)
 .debug_frame   0x00001980       0x3c components/Libraries/external/algo/\libalg.a(ab_clk.o)
 .debug_frame   0x000019bc       0x58 components/Libraries/external/algo/\libalg.a(ab_assert.o)
 .debug_frame   0x00001a14       0xa0 components/Libraries/external/algo/\libalg.a(ab_flash.o)
 .debug_frame   0x00001ab4      0x194 components/Libraries/external/algo/\libalg.a(ab_led.o)
 .debug_frame   0x00001c48      0x114 components/Libraries/external/algo/\libalg.a(ab_malloc_hook.o)
 .debug_frame   0x00001d5c      0x100 components/Libraries/external/algo/\libalg.a(ab_printf_hook.o)
 .debug_frame   0x00001e5c      0x130 components/Libraries/external/algo/\libalg.a(ab_pwr.o)
 .debug_frame   0x00001f8c      0x19c components/Libraries/external/algo/\libalg.a(ab_queue.o)
 .debug_frame   0x00002128       0x3c components/Libraries/external/algo/\libalg.a(ab_mp_sector.o)
 .debug_frame   0x00002164      0x118 components/Libraries/external/algo/\libalg.a(ab_spi.o)
 .debug_frame   0x0000227c      0x15c components/Libraries/external/algo/\libalg.a(bsp_generic.o)
 .debug_frame   0x000023d8      0x12c components/Libraries/external/algo/\libalg.a(ab_timer.o)
 .debug_frame   0x00002504      0x160 components/Libraries/external/algo/\libalg.a(ab_uart.o)
 .debug_frame   0x00002664      0x438 components/Libraries/external/algo/\libalg.a(ab_airoha_vcmd.o)
 .debug_frame   0x00002a9c       0x64 components/Libraries/external/algo/\libalg.a(drv_adc.o)
 .debug_frame   0x00002b00      0x10c components/Libraries/external/algo/\libalg.a(drv_clk.o)
 .debug_frame   0x00002c0c      0x1f0 components/Libraries/external/algo/\libalg.a(drv_flash.o)
 .debug_frame   0x00002dfc      0x2bc components/Libraries/external/algo/\libalg.a(drv_gpio.o)
 .debug_frame   0x000030b8       0xc4 components/Libraries/external/algo/\libalg.a(drv_odgpio.o)
 .debug_frame   0x0000317c       0xcc components/Libraries/external/algo/\libalg.a(drv_keyscan.o)
 .debug_frame   0x00003248       0xa8 components/Libraries/external/algo/\libalg.a(drv_led.o)
 .debug_frame   0x000032f0       0xc4 components/Libraries/external/algo/\libalg.a(drv_mic.o)
 .debug_frame   0x000033b4       0xa8 components/Libraries/external/algo/\libalg.a(drv_odpinmux.o)
 .debug_frame   0x0000345c      0x130 components/Libraries/external/algo/\libalg.a(drv_pinmux.o)
 .debug_frame   0x0000358c       0x88 components/Libraries/external/algo/\libalg.a(drv_pwr.o)
 .debug_frame   0x00003614      0x184 components/Libraries/external/algo/\libalg.a(drv_spi.o)
 .debug_frame   0x00003798      0x138 components/Libraries/external/algo/\libalg.a(drv_timer32b0.o)
 .debug_frame   0x000038d0      0x280 components/Libraries/external/algo/\libalg.a(drv_uart.o)
 .debug_frame   0x00003b50       0xc4 components/Libraries/external/algo/\libalg.a(drv_wdt.o)
 .debug_frame   0x00003c14       0x64 components/Libraries/external/algo/\libalg.a(service_battery.o)
 .debug_frame   0x00003c78      0x17c components/Libraries/external/algo/\libalg.a(service_device_firmware_update_OTA.o)
 .debug_frame   0x00003df4       0x6c components/Libraries/external/algo/\libalg.a(service_device_information.o)
 .debug_frame   0x00003e60       0x70 components/Libraries/external/algo/\libalg.a(service_generic_access.o)
 .debug_frame   0x00003ed0       0x64 components/Libraries/external/algo/\libalg.a(service_generic_attribute.o)
 .debug_frame   0x00003f34       0x70 components/Libraries/external/algo/\libalg.a(service_human_interface_device.o)
 .debug_frame   0x00003fa4       0xb0 components/Libraries/external/algo/\libalg.a(console.o)
 .debug_frame   0x00004054      0x18c components/Libraries/external/algo/\libalg.a(shell.o)
 .debug_frame   0x000041e0      0x178 components/Libraries/external/algo/\libalg.a(ab_debug.o)
 .debug_frame   0x00004358       0x84 components/Libraries/external/algo/\libalg.a(dfu.o)
 .debug_frame   0x000043dc       0xd4 components/Libraries/external/algo/\libalg.a(ab_module.o)
 .debug_frame   0x000044b0      0x160 output/\lib1600.a(ab_log.o)

.debug_loc      0x00000000     0xa8d1
 .debug_loc     0x00000000      0x2db /cygdrive/c/Airoha/AiroBlueSDK/AB1600_1_0_5_0/projects/Remote/output/pj/components/Libraries/hci_devices/hci_spi_1602.o
 .debug_loc     0x000002db       0x7a /cygdrive/c/Airoha/AiroBlueSDK/AB1600_1_0_5_0/projects/Remote/output/main.o
 .debug_loc     0x00000355      0x50b /cygdrive/c/Airoha/AiroBlueSDK/AB1600_1_0_5_0/projects/Remote/output/remote.o
 .debug_loc     0x00000860      0x3f6 /cygdrive/c/Airoha/AiroBlueSDK/AB1600_1_0_5_0/projects/Remote/output/remote_button.o
 .debug_loc     0x00000c56      0x420 /cygdrive/c/Airoha/AiroBlueSDK/AB1600_1_0_5_0/projects/Remote/output/remote_mouse.o
 .debug_loc     0x00001076      0x2fe /cygdrive/c/Airoha/AiroBlueSDK/AB1600_1_0_5_0/projects/Remote/output/remote_microphone.o
 .debug_loc     0x00001374      0x272 /cygdrive/c/Airoha/AiroBlueSDK/AB1600_1_0_5_0/projects/Remote/output/remote_gatt.o
 .debug_loc     0x000015e6      0x3d8 /cygdrive/c/Airoha/AiroBlueSDK/AB1600_1_0_5_0/projects/Remote/output/remote_adv.o
 .debug_loc     0x000019be      0x264 /cygdrive/c/Airoha/AiroBlueSDK/AB1600_1_0_5_0/projects/Remote/output/remote_led.o
 .debug_loc     0x00001c22       0xc5 /cygdrive/c/Airoha/AiroBlueSDK/AB1600_1_0_5_0/projects/Remote/output/remote_gpio.o
 .debug_loc     0x00001ce7      0x1f9 /cygdrive/c/Airoha/AiroBlueSDK/AB1600_1_0_5_0/projects/Remote/output/remote_vcmd.o
 .debug_loc     0x00001ee0      0x207 /cygdrive/c/Airoha/AiroBlueSDK/AB1600_1_0_5_0/projects/Remote/output/spl/components/Libraries/external/ICM_20688_spi/mtd.o
 .debug_loc     0x000020e7      0x3fb /cygdrive/c/Airoha/AiroBlueSDK/AB1600_1_0_5_0/projects/Remote/output/spl/components/Libraries/external/ADPCM/g726_enc_32.o
 .debug_loc     0x000024e2     0x1301 /cygdrive/c/Airoha/AiroBlueSDK/AB1600_1_0_5_0/projects/Remote/output/spl/components/Libraries/external/ADPCM/g72x.o
 .debug_loc     0x000037e3      0x8e2 /cygdrive/c/Airoha/AiroBlueSDK/AB1600_1_0_5_0/projects/Remote/output/spl/components/Libraries/external/ima_adpcm/ima_enc.o
 .debug_loc     0x000040c5      0x196 components/Libraries/external/algo/\libalg.a(ab_adc.o)
 .debug_loc     0x0000425b       0x66 components/Libraries/external/algo/\libalg.a(ab_clk.o)
 .debug_loc     0x000042c1       0xb3 components/Libraries/external/algo/\libalg.a(ab_assert.o)
 .debug_loc     0x00004374       0xf4 components/Libraries/external/algo/\libalg.a(ab_flash.o)
 .debug_loc     0x00004468      0x3b6 components/Libraries/external/algo/\libalg.a(ab_led.o)
 .debug_loc     0x0000481e      0x128 components/Libraries/external/algo/\libalg.a(ab_malloc_hook.o)
 .debug_loc     0x00004946      0x183 components/Libraries/external/algo/\libalg.a(ab_printf_hook.o)
 .debug_loc     0x00004ac9      0x144 components/Libraries/external/algo/\libalg.a(ab_pwr.o)
 .debug_loc     0x00004c0d      0x2f0 components/Libraries/external/algo/\libalg.a(ab_queue.o)
 .debug_loc     0x00004efd       0x71 components/Libraries/external/algo/\libalg.a(ab_mp_sector.o)
 .debug_loc     0x00004f6e      0x3ad components/Libraries/external/algo/\libalg.a(ab_spi.o)
 .debug_loc     0x0000531b      0x437 components/Libraries/external/algo/\libalg.a(bsp_generic.o)
 .debug_loc     0x00005752      0x218 components/Libraries/external/algo/\libalg.a(ab_timer.o)
 .debug_loc     0x0000596a      0x2b0 components/Libraries/external/algo/\libalg.a(ab_uart.o)
 .debug_loc     0x00005c1a      0x8f5 components/Libraries/external/algo/\libalg.a(ab_airoha_vcmd.o)
 .debug_loc     0x0000650f       0xae components/Libraries/external/algo/\libalg.a(drv_adc.o)
 .debug_loc     0x000065bd      0x323 components/Libraries/external/algo/\libalg.a(drv_clk.o)
 .debug_loc     0x000068e0      0x36c components/Libraries/external/algo/\libalg.a(drv_flash.o)
 .debug_loc     0x00006c4c      0x560 components/Libraries/external/algo/\libalg.a(drv_gpio.o)
 .debug_loc     0x000071ac      0x15a components/Libraries/external/algo/\libalg.a(drv_odgpio.o)
 .debug_loc     0x00007306      0x14c components/Libraries/external/algo/\libalg.a(drv_keyscan.o)
 .debug_loc     0x00007452      0x140 components/Libraries/external/algo/\libalg.a(drv_led.o)
 .debug_loc     0x00007592       0xb9 components/Libraries/external/algo/\libalg.a(drv_mic.o)
 .debug_loc     0x0000764b      0x156 components/Libraries/external/algo/\libalg.a(drv_odpinmux.o)
 .debug_loc     0x000077a1      0x341 components/Libraries/external/algo/\libalg.a(drv_pinmux.o)
 .debug_loc     0x00007ae2       0x9c components/Libraries/external/algo/\libalg.a(drv_pwr.o)
 .debug_loc     0x00007b7e      0x317 components/Libraries/external/algo/\libalg.a(drv_spi.o)
 .debug_loc     0x00007e95      0x1d8 components/Libraries/external/algo/\libalg.a(drv_timer32b0.o)
 .debug_loc     0x0000806d      0x6ca components/Libraries/external/algo/\libalg.a(drv_uart.o)
 .debug_loc     0x00008737       0xae components/Libraries/external/algo/\libalg.a(drv_wdt.o)
 .debug_loc     0x000087e5       0x8e components/Libraries/external/algo/\libalg.a(service_battery.o)
 .debug_loc     0x00008873      0x311 components/Libraries/external/algo/\libalg.a(service_device_firmware_update_OTA.o)
 .debug_loc     0x00008b84       0xb7 components/Libraries/external/algo/\libalg.a(service_device_information.o)
 .debug_loc     0x00008c3b       0x7c components/Libraries/external/algo/\libalg.a(service_generic_access.o)
 .debug_loc     0x00008cb7       0xa4 components/Libraries/external/algo/\libalg.a(service_generic_attribute.o)
 .debug_loc     0x00008d5b       0xc3 components/Libraries/external/algo/\libalg.a(service_human_interface_device.o)
 .debug_loc     0x00008e1e      0x138 components/Libraries/external/algo/\libalg.a(console.o)
 .debug_loc     0x00008f56      0x91f components/Libraries/external/algo/\libalg.a(shell.o)
 .debug_loc     0x00009875      0x185 components/Libraries/external/algo/\libalg.a(ab_debug.o)
 .debug_loc     0x000099fa      0x23e components/Libraries/external/algo/\libalg.a(dfu.o)
 .debug_loc     0x00009c38      0x18e components/Libraries/external/algo/\libalg.a(ab_module.o)
 .debug_loc     0x00009dc6      0xb0b output/\lib1600.a(ab_log.o)

.debug_aranges  0x00000000     0x1258
 .debug_aranges
                0x00000000       0x60 /cygdrive/c/Airoha/AiroBlueSDK/AB1600_1_0_5_0/projects/Remote/output/pj/components/Libraries/hci_devices/hci_spi_1602.o
 .debug_aranges
                0x00000060       0x28 /cygdrive/c/Airoha/AiroBlueSDK/AB1600_1_0_5_0/projects/Remote/output/main.o
 .debug_aranges
                0x00000088       0xf8 /cygdrive/c/Airoha/AiroBlueSDK/AB1600_1_0_5_0/projects/Remote/output/remote.o
 .debug_aranges
                0x00000180       0x98 /cygdrive/c/Airoha/AiroBlueSDK/AB1600_1_0_5_0/projects/Remote/output/remote_button.o
 .debug_aranges
                0x00000218       0xd8 /cygdrive/c/Airoha/AiroBlueSDK/AB1600_1_0_5_0/projects/Remote/output/remote_mouse.o
 .debug_aranges
                0x000002f0       0x80 /cygdrive/c/Airoha/AiroBlueSDK/AB1600_1_0_5_0/projects/Remote/output/remote_microphone.o
 .debug_aranges
                0x00000370       0x78 /cygdrive/c/Airoha/AiroBlueSDK/AB1600_1_0_5_0/projects/Remote/output/remote_gatt.o
 .debug_aranges
                0x000003e8       0xa0 /cygdrive/c/Airoha/AiroBlueSDK/AB1600_1_0_5_0/projects/Remote/output/remote_adv.o
 .debug_aranges
                0x00000488       0x58 /cygdrive/c/Airoha/AiroBlueSDK/AB1600_1_0_5_0/projects/Remote/output/remote_led.o
 .debug_aranges
                0x000004e0       0x30 /cygdrive/c/Airoha/AiroBlueSDK/AB1600_1_0_5_0/projects/Remote/output/remote_gpio.o
 .debug_aranges
                0x00000510       0x38 /cygdrive/c/Airoha/AiroBlueSDK/AB1600_1_0_5_0/projects/Remote/output/remote_vcmd.o
 .debug_aranges
                0x00000548       0x20 /cygdrive/c/Airoha/AiroBlueSDK/AB1600_1_0_5_0/projects/Remote/output/spl/components/Libraries/external/ICM_20688_spi/mtd.o
 .debug_aranges
                0x00000568       0x20 /cygdrive/c/Airoha/AiroBlueSDK/AB1600_1_0_5_0/projects/Remote/output/spl/components/Libraries/external/ADPCM/g726_enc_32.o
 .debug_aranges
                0x00000588       0x20 /cygdrive/c/Airoha/AiroBlueSDK/AB1600_1_0_5_0/projects/Remote/output/spl/components/Libraries/external/ADPCM/g72x.o
 .debug_aranges
                0x000005a8       0x20 /cygdrive/c/Airoha/AiroBlueSDK/AB1600_1_0_5_0/projects/Remote/output/spl/components/Libraries/external/ima_adpcm/ima_enc.o
 .debug_aranges
                0x000005c8       0x40 components/Libraries/external/algo/\libalg.a(ab_adc.o)
 .debug_aranges
                0x00000608       0x20 components/Libraries/external/algo/\libalg.a(ab_clk.o)
 .debug_aranges
                0x00000628       0x28 components/Libraries/external/algo/\libalg.a(ab_assert.o)
 .debug_aranges
                0x00000650       0x38 components/Libraries/external/algo/\libalg.a(ab_flash.o)
 .debug_aranges
                0x00000688       0x68 components/Libraries/external/algo/\libalg.a(ab_led.o)
 .debug_aranges
                0x000006f0       0x50 components/Libraries/external/algo/\libalg.a(ab_malloc_hook.o)
 .debug_aranges
                0x00000740       0x40 components/Libraries/external/algo/\libalg.a(ab_printf_hook.o)
 .debug_aranges
                0x00000780       0x58 components/Libraries/external/algo/\libalg.a(ab_pwr.o)
 .debug_aranges
                0x000007d8       0x70 components/Libraries/external/algo/\libalg.a(ab_queue.o)
 .debug_aranges
                0x00000848       0x20 components/Libraries/external/algo/\libalg.a(ab_mp_sector.o)
 .debug_aranges
                0x00000868       0x48 components/Libraries/external/algo/\libalg.a(ab_spi.o)
 .debug_aranges
                0x000008b0       0x58 components/Libraries/external/algo/\libalg.a(bsp_generic.o)
 .debug_aranges
                0x00000908       0x50 components/Libraries/external/algo/\libalg.a(ab_timer.o)
 .debug_aranges
                0x00000958       0x58 components/Libraries/external/algo/\libalg.a(ab_uart.o)
 .debug_aranges
                0x000009b0       0xf0 components/Libraries/external/algo/\libalg.a(ab_airoha_vcmd.o)
 .debug_aranges
                0x00000aa0       0x28 components/Libraries/external/algo/\libalg.a(drv_adc.o)
 .debug_aranges
                0x00000ac8       0x50 components/Libraries/external/algo/\libalg.a(drv_clk.o)
 .debug_aranges
                0x00000b18       0x78 components/Libraries/external/algo/\libalg.a(drv_flash.o)
 .debug_aranges
                0x00000b90       0xa8 components/Libraries/external/algo/\libalg.a(drv_gpio.o)
 .debug_aranges
                0x00000c38       0x40 components/Libraries/external/algo/\libalg.a(drv_odgpio.o)
 .debug_aranges
                0x00000c78       0x38 components/Libraries/external/algo/\libalg.a(drv_keyscan.o)
 .debug_aranges
                0x00000cb0       0x38 components/Libraries/external/algo/\libalg.a(drv_led.o)
 .debug_aranges
                0x00000ce8       0x40 components/Libraries/external/algo/\libalg.a(drv_mic.o)
 .debug_aranges
                0x00000d28       0x38 components/Libraries/external/algo/\libalg.a(drv_odpinmux.o)
 .debug_aranges
                0x00000d60       0x50 components/Libraries/external/algo/\libalg.a(drv_pinmux.o)
 .debug_aranges
                0x00000db0       0x30 components/Libraries/external/algo/\libalg.a(drv_pwr.o)
 .debug_aranges
                0x00000de0       0x60 components/Libraries/external/algo/\libalg.a(drv_spi.o)
 .debug_aranges
                0x00000e40       0x58 components/Libraries/external/algo/\libalg.a(drv_timer32b0.o)
 .debug_aranges
                0x00000e98       0x98 components/Libraries/external/algo/\libalg.a(drv_uart.o)
 .debug_aranges
                0x00000f30       0x40 components/Libraries/external/algo/\libalg.a(drv_wdt.o)
 .debug_aranges
                0x00000f70       0x28 components/Libraries/external/algo/\libalg.a(service_battery.o)
 .debug_aranges
                0x00000f98       0x60 components/Libraries/external/algo/\libalg.a(service_device_firmware_update_OTA.o)
 .debug_aranges
                0x00000ff8       0x28 components/Libraries/external/algo/\libalg.a(service_device_information.o)
 .debug_aranges
                0x00001020       0x28 components/Libraries/external/algo/\libalg.a(service_generic_access.o)
 .debug_aranges
                0x00001048       0x28 components/Libraries/external/algo/\libalg.a(service_generic_attribute.o)
 .debug_aranges
                0x00001070       0x28 components/Libraries/external/algo/\libalg.a(service_human_interface_device.o)
 .debug_aranges
                0x00001098       0x38 components/Libraries/external/algo/\libalg.a(console.o)
 .debug_aranges
                0x000010d0       0x58 components/Libraries/external/algo/\libalg.a(shell.o)
 .debug_aranges
                0x00001128       0x68 components/Libraries/external/algo/\libalg.a(ab_debug.o)
 .debug_aranges
                0x00001190       0x30 components/Libraries/external/algo/\libalg.a(dfu.o)
 .debug_aranges
                0x000011c0       0x40 components/Libraries/external/algo/\libalg.a(ab_module.o)
 .debug_aranges
                0x00001200       0x58 output/\lib1600.a(ab_log.o)

.debug_ranges   0x00000000     0x16e8
 .debug_ranges  0x00000000       0x88 /cygdrive/c/Airoha/AiroBlueSDK/AB1600_1_0_5_0/projects/Remote/output/pj/components/Libraries/hci_devices/hci_spi_1602.o
 .debug_ranges  0x00000088       0x20 /cygdrive/c/Airoha/AiroBlueSDK/AB1600_1_0_5_0/projects/Remote/output/main.o
 .debug_ranges  0x000000a8       0xf0 /cygdrive/c/Airoha/AiroBlueSDK/AB1600_1_0_5_0/projects/Remote/output/remote.o
 .debug_ranges  0x00000198       0xb0 /cygdrive/c/Airoha/AiroBlueSDK/AB1600_1_0_5_0/projects/Remote/output/remote_button.o
 .debug_ranges  0x00000248       0xe8 /cygdrive/c/Airoha/AiroBlueSDK/AB1600_1_0_5_0/projects/Remote/output/remote_mouse.o
 .debug_ranges  0x00000330       0x90 /cygdrive/c/Airoha/AiroBlueSDK/AB1600_1_0_5_0/projects/Remote/output/remote_microphone.o
 .debug_ranges  0x000003c0       0xb8 /cygdrive/c/Airoha/AiroBlueSDK/AB1600_1_0_5_0/projects/Remote/output/remote_gatt.o
 .debug_ranges  0x00000478       0x98 /cygdrive/c/Airoha/AiroBlueSDK/AB1600_1_0_5_0/projects/Remote/output/remote_adv.o
 .debug_ranges  0x00000510       0x50 /cygdrive/c/Airoha/AiroBlueSDK/AB1600_1_0_5_0/projects/Remote/output/remote_led.o
 .debug_ranges  0x00000560       0x28 /cygdrive/c/Airoha/AiroBlueSDK/AB1600_1_0_5_0/projects/Remote/output/remote_gpio.o
 .debug_ranges  0x00000588       0x48 /cygdrive/c/Airoha/AiroBlueSDK/AB1600_1_0_5_0/projects/Remote/output/remote_vcmd.o
 .debug_ranges  0x000005d0       0x48 /cygdrive/c/Airoha/AiroBlueSDK/AB1600_1_0_5_0/projects/Remote/output/spl/components/Libraries/external/ICM_20688_spi/mtd.o
 .debug_ranges  0x00000618       0x60 /cygdrive/c/Airoha/AiroBlueSDK/AB1600_1_0_5_0/projects/Remote/output/spl/components/Libraries/external/ADPCM/g726_enc_32.o
 .debug_ranges  0x00000678      0x1c0 /cygdrive/c/Airoha/AiroBlueSDK/AB1600_1_0_5_0/projects/Remote/output/spl/components/Libraries/external/ADPCM/g72x.o
 .debug_ranges  0x00000838      0x110 /cygdrive/c/Airoha/AiroBlueSDK/AB1600_1_0_5_0/projects/Remote/output/spl/components/Libraries/external/ima_adpcm/ima_enc.o
 .debug_ranges  0x00000948       0x38 components/Libraries/external/algo/\libalg.a(ab_adc.o)
 .debug_ranges  0x00000980       0x18 components/Libraries/external/algo/\libalg.a(ab_clk.o)
 .debug_ranges  0x00000998       0x20 components/Libraries/external/algo/\libalg.a(ab_assert.o)
 .debug_ranges  0x000009b8       0x30 components/Libraries/external/algo/\libalg.a(ab_flash.o)
 .debug_ranges  0x000009e8       0x60 components/Libraries/external/algo/\libalg.a(ab_led.o)
 .debug_ranges  0x00000a48       0x60 components/Libraries/external/algo/\libalg.a(ab_malloc_hook.o)
 .debug_ranges  0x00000aa8       0x38 components/Libraries/external/algo/\libalg.a(ab_printf_hook.o)
 .debug_ranges  0x00000ae0       0x50 components/Libraries/external/algo/\libalg.a(ab_pwr.o)
 .debug_ranges  0x00000b30       0x68 components/Libraries/external/algo/\libalg.a(ab_queue.o)
 .debug_ranges  0x00000b98       0x48 components/Libraries/external/algo/\libalg.a(ab_mp_sector.o)
 .debug_ranges  0x00000be0       0x40 components/Libraries/external/algo/\libalg.a(ab_spi.o)
 .debug_ranges  0x00000c20       0x50 components/Libraries/external/algo/\libalg.a(bsp_generic.o)
 .debug_ranges  0x00000c70       0x48 components/Libraries/external/algo/\libalg.a(ab_timer.o)
 .debug_ranges  0x00000cb8       0x50 components/Libraries/external/algo/\libalg.a(ab_uart.o)
 .debug_ranges  0x00000d08      0x118 components/Libraries/external/algo/\libalg.a(ab_airoha_vcmd.o)
 .debug_ranges  0x00000e20       0x20 components/Libraries/external/algo/\libalg.a(drv_adc.o)
 .debug_ranges  0x00000e40       0x48 components/Libraries/external/algo/\libalg.a(drv_clk.o)
 .debug_ranges  0x00000e88      0x160 components/Libraries/external/algo/\libalg.a(drv_flash.o)
 .debug_ranges  0x00000fe8       0xa0 components/Libraries/external/algo/\libalg.a(drv_gpio.o)
 .debug_ranges  0x00001088       0x38 components/Libraries/external/algo/\libalg.a(drv_odgpio.o)
 .debug_ranges  0x000010c0       0x48 components/Libraries/external/algo/\libalg.a(drv_keyscan.o)
 .debug_ranges  0x00001108       0x30 components/Libraries/external/algo/\libalg.a(drv_led.o)
 .debug_ranges  0x00001138       0x38 components/Libraries/external/algo/\libalg.a(drv_mic.o)
 .debug_ranges  0x00001170       0x30 components/Libraries/external/algo/\libalg.a(drv_odpinmux.o)
 .debug_ranges  0x000011a0       0x60 components/Libraries/external/algo/\libalg.a(drv_pinmux.o)
 .debug_ranges  0x00001200       0x28 components/Libraries/external/algo/\libalg.a(drv_pwr.o)
 .debug_ranges  0x00001228       0x58 components/Libraries/external/algo/\libalg.a(drv_spi.o)
 .debug_ranges  0x00001280       0x50 components/Libraries/external/algo/\libalg.a(drv_timer32b0.o)
 .debug_ranges  0x000012d0       0x90 components/Libraries/external/algo/\libalg.a(drv_uart.o)
 .debug_ranges  0x00001360       0x38 components/Libraries/external/algo/\libalg.a(drv_wdt.o)
 .debug_ranges  0x00001398       0x20 components/Libraries/external/algo/\libalg.a(service_battery.o)
 .debug_ranges  0x000013b8       0xc0 components/Libraries/external/algo/\libalg.a(service_device_firmware_update_OTA.o)
 .debug_ranges  0x00001478       0x20 components/Libraries/external/algo/\libalg.a(service_device_information.o)
 .debug_ranges  0x00001498       0x50 components/Libraries/external/algo/\libalg.a(service_generic_access.o)
 .debug_ranges  0x000014e8       0x38 components/Libraries/external/algo/\libalg.a(service_generic_attribute.o)
 .debug_ranges  0x00001520       0x20 components/Libraries/external/algo/\libalg.a(service_human_interface_device.o)
 .debug_ranges  0x00001540       0x30 components/Libraries/external/algo/\libalg.a(console.o)
 .debug_ranges  0x00001570       0x68 components/Libraries/external/algo/\libalg.a(shell.o)
 .debug_ranges  0x000015d8       0x60 components/Libraries/external/algo/\libalg.a(ab_debug.o)
 .debug_ranges  0x00001638       0x28 components/Libraries/external/algo/\libalg.a(dfu.o)
 .debug_ranges  0x00001660       0x38 components/Libraries/external/algo/\libalg.a(ab_module.o)
 .debug_ranges  0x00001698       0x50 output/\lib1600.a(ab_log.o)
