
/cygdrive/c/Airoha/AiroBlueSDK/AB1600_1_0_5_0/projects/TRSPX/output/trspx_2.out:     file format elf32-nds32


Disassembly of section .text:

000c8030 <memcmp>:
   c8030:	99 42       	add333 $r5,$r0,$r2
   c8032:	d0 09       	beqs38 $r0,c8044 <memcmp+0x14>
   c8034:	08 30 00 01 	lbi.bi $r3,[$r0],#0x1
   c8038:	08 40 80 01 	lbi.bi $r4,[$r1],#0x1
   c803c:	4c 32 3f fb 	beq $r3,$r4,c8032 <memcmp+0x2>
   c8040:	9a 1c       	sub333 $r0,$r3,$r4
   c8042:	dd 9e       	ret5 $lp
   c8044:	84 00       	movi55 $r0,#0
   c8046:	dd 9e       	ret5 $lp

000c8048 <memcpy>:
   c8048:	80 60       	mov55 $r3,$r0
   c804a:	c2 07       	beqz38 $r2,c8058 <memcpy+0x10>
   c804c:	99 4a       	add333 $r5,$r1,$r2
   c804e:	08 40 80 01 	lbi.bi $r4,[$r1],#0x1
   c8052:	18 41 80 01 	sbi.bi $r4,[$r3],#0x1
   c8056:	d9 fc       	bnes38 $r1,c804e <memcpy+0x6>
   c8058:	dd 9e       	ret5 $lp
   c805a:	92 00       	nop16

000c805c <memmove>:
   c805c:	c2 14       	beqz38 $r2,c8084 <memmove+0x28>
   c805e:	80 60       	mov55 $r3,$r0
   c8060:	e2 20       	slt45 $r1,$r0
   c8062:	e8 0b       	beqzs8 c8078 <memmove+0x1c>
   c8064:	9e 91       	subi333 $r2,$r2,#1
   c8066:	98 da       	add333 $r3,$r3,$r2
   c8068:	99 4a       	add333 $r5,$r1,$r2
   c806a:	9e 49       	subi333 $r1,$r1,#1
   c806c:	08 42 ff ff 	lbi.bi $r4,[$r5],#-0x1
   c8070:	18 41 ff ff 	sbi.bi $r4,[$r3],#-0x1
   c8074:	d9 fc       	bnes38 $r1,c806c <memmove+0x10>
   c8076:	dd 9e       	ret5 $lp
   c8078:	99 4a       	add333 $r5,$r1,$r2
   c807a:	08 40 80 01 	lbi.bi $r4,[$r1],#0x1
   c807e:	18 41 80 01 	sbi.bi $r4,[$r3],#0x1
   c8082:	d9 fc       	bnes38 $r1,c807a <memmove+0x1e>
   c8084:	dd 9e       	ret5 $lp
   c8086:	92 00       	nop16

000c8088 <memset>:
   c8088:	80 60       	mov55 $r3,$r0
   c808a:	99 5a       	add333 $r5,$r3,$r2
   c808c:	d3 04       	beqs38 $r3,c8094 <memset+0xc>
   c808e:	18 11 80 01 	sbi.bi $r1,[$r3],#0x1
   c8092:	d5 fd       	j8 c808c <memset+0x4>
   c8094:	dd 9e       	ret5 $lp
   c8096:	92 00       	nop16

000c8098 <strcmp>:
   c8098:	40 50 80 04 	or $r5,$r1,$r0
   c809c:	97 4f       	fexti33 $r5,#0x1
   c809e:	cd 1b       	bnez38 $r5,c80d4 <strcmp+0x3c>
   c80a0:	b4 a0       	lwi450 $r5,[$r0]
   c80a2:	b4 61       	lwi450 $r3,[$r1]
   c80a4:	4c 51 c0 18 	bne $r5,$r3,c80d4 <strcmp+0x3c>
   c80a8:	46 4f ef ef 	sethi $r4,#0xfefef
   c80ac:	58 42 0e ff 	ori $r4,$r4,#0xeff
   c80b0:	46 28 08 08 	sethi $r2,#0x80808
   c80b4:	58 21 00 80 	ori $r2,$r2,#0x80
   c80b8:	40 32 94 05 	nor $r3,$r5,$r5
   c80bc:	40 52 90 00 	add $r5,$r5,$r4
   c80c0:	40 52 8c 02 	and $r5,$r5,$r3
   c80c4:	40 52 88 02 	and $r5,$r5,$r2
   c80c8:	cd 0e       	bnez38 $r5,c80e4 <strcmp+0x4c>
   c80ca:	9c 04       	addi333 $r0,$r0,#4
   c80cc:	b4 a0       	lwi450 $r5,[$r0]
   c80ce:	9c 4c       	addi333 $r1,$r1,#4
   c80d0:	b4 61       	lwi450 $r3,[$r1]
   c80d2:	d3 f3       	beqs38 $r3,c80b8 <strcmp+0x20>
   c80d4:	a7 40       	lbi333 $r5,[$r0+#0x0]
   c80d6:	a6 c8       	lbi333 $r3,[$r1+#0x0]
   c80d8:	db 04       	bnes38 $r3,c80e0 <strcmp+0x48>
   c80da:	9c 01       	addi333 $r0,$r0,#1
   c80dc:	9c 49       	addi333 $r1,$r1,#1
   c80de:	cd fb       	bnez38 $r5,c80d4 <strcmp+0x3c>
   c80e0:	9a 2b       	sub333 $r0,$r5,$r3
   c80e2:	dd 9e       	ret5 $lp
   c80e4:	84 00       	movi55 $r0,#0
   c80e6:	dd 9e       	ret5 $lp

000c80e8 <strcpy>:
   c80e8:	80 60       	mov55 $r3,$r0
   c80ea:	08 40 80 01 	lbi.bi $r4,[$r1],#0x1
   c80ee:	18 41 80 01 	sbi.bi $r4,[$r3],#0x1
   c80f2:	cc fc       	bnez38 $r4,c80ea <strcpy+0x2>
   c80f4:	dd 9e       	ret5 $lp
   c80f6:	92 00       	nop16

000c80f8 <strlen>:
   c80f8:	9d 41       	addi333 $r5,$r0,#1
   c80fa:	28 20 00 01 	lbsi.bi $r2,[$r0],#0x1
   c80fe:	ca fe       	bnez38 $r2,c80fa <strlen+0x2>
   c8100:	9a 05       	sub333 $r0,$r0,$r5
   c8102:	dd 9e       	ret5 $lp

000c8104 <strncmp>:
   c8104:	c2 0a       	beqz38 $r2,c8118 <strncmp+0x14>
   c8106:	08 40 00 01 	lbi.bi $r4,[$r0],#0x1
   c810a:	08 50 80 01 	lbi.bi $r5,[$r1],#0x1
   c810e:	dc 03       	bnes38 $r4,c8114 <strncmp+0x10>
   c8110:	9e 91       	subi333 $r2,$r2,#1
   c8112:	cc f9       	bnez38 $r4,c8104 <strncmp>
   c8114:	9a 25       	sub333 $r0,$r4,$r5
   c8116:	dd 9e       	ret5 $lp
   c8118:	84 00       	movi55 $r0,#0
   c811a:	dd 9e       	ret5 $lp

000c811c <__muldi3>:
   c811c:	fc 40       	push25 $r10,#0x0    ! {$r6~$r10, $fp, $gp, $lp}
   c811e:	44 40 ff ff 	movi $r4,#65535
   c8122:	40 91 10 02 	and $r9,$r2,$r4
   c8126:	40 50 40 09 	srli $r5,$r0,#16
   c812a:	42 74 94 24 	mul $r7,$r9,$r5
   c812e:	40 60 10 02 	and $r6,$r0,$r4
   c8132:	40 81 40 09 	srli $r8,$r2,#16
   c8136:	81 47       	mov55 $r10,$r7
   c8138:	42 a4 18 73 	maddr32 $r10,$r8,$r6
   c813c:	42 64 98 24 	mul $r6,$r9,$r6
   c8140:	40 43 40 09 	srli $r4,$r6,#16
   c8144:	40 45 10 00 	add $r4,$r10,$r4
   c8148:	42 54 14 24 	mul $r5,$r8,$r5
   c814c:	e2 87       	slt45 $r4,$r7
   c814e:	e8 04       	beqzs8 c8156 <__muldi3+0x3a>
   c8150:	44 71 00 00 	movi $r7,#65536
   c8154:	99 6f       	add333 $r5,$r5,$r7
   c8156:	fe 8c       	mul33 $r2,$r1
   c8158:	40 12 40 09 	srli $r1,$r4,#16
   c815c:	42 20 0c 73 	maddr32 $r2,$r0,$r3
   c8160:	40 52 84 00 	add $r5,$r5,$r1
   c8164:	40 02 40 08 	slli $r0,$r4,#16
   c8168:	97 b1       	zeh33 $r6,$r6
   c816a:	98 06       	add333 $r0,$r0,$r6
   c816c:	98 55       	add333 $r1,$r2,$r5
   c816e:	fc c0       	pop25 $r10,#0x0    ! {$r6~$r10, $fp, $gp, $lp}

000c8170 <__lshrdi3>:
   c8170:	4e 22 00 14 	beqz $r2,c8198 <__lshrdi3+0x28>
   c8174:	52 31 00 20 	subri $r3,$r2,#32
   c8178:	4e 36 00 08 	bgtz $r3,c8188 <__lshrdi3+0x18>
   c817c:	52 01 80 00 	subri $r0,$r3,#0
   c8180:	40 00 80 0d 	srl $r0,$r1,$r0
   c8184:	84 20       	movi55 $r1,#0
   c8186:	d5 09       	j8 c8198 <__lshrdi3+0x28>
   c8188:	40 30 8c 0c 	sll $r3,$r1,$r3
   c818c:	40 00 08 0d 	srl $r0,$r0,$r2
   c8190:	40 01 80 04 	or $r0,$r3,$r0
   c8194:	40 10 88 0d 	srl $r1,$r1,$r2
   c8198:	dd 9e       	ret5 $lp
   c819a:	92 00       	nop16

000c819c <__ashldi3>:
   c819c:	4e 22 00 14 	beqz $r2,c81c4 <__ashldi3+0x28>
   c81a0:	52 31 00 20 	subri $r3,$r2,#32
   c81a4:	4e 36 00 08 	bgtz $r3,c81b4 <__ashldi3+0x18>
   c81a8:	fe 5a       	neg33 $r1,$r3
   c81aa:	40 10 04 0c 	sll $r1,$r0,$r1
   c81ae:	84 00       	movi55 $r0,#0
   c81b0:	48 00 00 0a 	j c81c4 <__ashldi3+0x28>
   c81b4:	40 30 0c 0d 	srl $r3,$r0,$r3
   c81b8:	40 10 88 0c 	sll $r1,$r1,$r2
   c81bc:	40 11 84 04 	or $r1,$r3,$r1
   c81c0:	40 00 08 0c 	sll $r0,$r0,$r2
   c81c4:	dd 9e       	ret5 $lp
   c81c6:	92 00       	nop16

000c81c8 <__float32_mul>:
   c81c8:	3b ff fc bc 	smw.adm $sp,[$sp],$sp,#0x2    ! {$lp}
   c81cc:	3a 6f a8 3c 	smw.adm $r6,[$sp],$r10,#0x0    ! {$r6~$r10}
   c81d0:	40 30 5c 09 	srli $r3,$r0,#23
   c81d4:	96 d8       	zeb33 $r3,$r3
   c81d6:	40 50 dc 09 	srli $r5,$r1,#23
   c81da:	97 68       	zeb33 $r5,$r5
   c81dc:	46 68 00 00 	sethi $r6,#0x80000
   c81e0:	40 20 20 08 	slli $r2,$r0,#8
   c81e4:	fe b7       	or33 $r2,$r6
   c81e6:	40 40 a0 08 	slli $r4,$r1,#8
   c81ea:	ff 37       	or33 $r4,$r6
   c81ec:	40 80 04 03 	xor $r8,$r0,$r1
   c81f0:	40 63 20 02 	and $r6,$r6,$r8
   c81f4:	50 81 ff ff 	addi $r8,$r3,#-1
   c81f8:	5c f4 00 fe 	slti $r15,$r8,#254
   c81fc:	e8 3f       	beqzs8 c827a <__float32_mul+0xb2>
   c81fe:	50 82 ff ff 	addi $r8,$r5,#-1
   c8202:	5c f4 00 fe 	slti $r15,$r8,#254
   c8206:	e8 59       	beqzs8 c82b8 <__float32_mul+0xf0>
   c8208:	81 43       	mov55 $r10,$r3
   c820a:	3a 0f 84 3c 	smw.adm $r0,[$sp],$r1,#0x0    ! {$r0~$r1}
   c820e:	3a 4f 94 3c 	smw.adm $r4,[$sp],$r5,#0x0    ! {$r4~$r5}
   c8212:	80 02       	mov55 $r0,$r2
   c8214:	84 20       	movi55 $r1,#0
   c8216:	80 44       	mov55 $r2,$r4
   c8218:	84 60       	movi55 $r3,#0
   c821a:	49 ff ff 81 	jal c811c <__muldi3>
   c821e:	fd 10       	movd44 $r2,$r0
   c8220:	3a 4f 94 04 	lmw.bim $r4,[$sp],$r5,#0x0    ! {$r4~$r5}
   c8224:	3a 0f 84 04 	lmw.bim $r0,[$sp],$r1,#0x0    ! {$r0~$r1}
   c8228:	80 e2       	mov55 $r7,$r2
   c822a:	80 43       	mov55 $r2,$r3
   c822c:	80 6a       	mov55 $r3,$r10
   c822e:	c7 03       	beqz38 $r7,c8234 <__float32_mul+0x6c>
   c8230:	58 21 00 01 	ori $r2,$r2,#0x1
   c8234:	e4 40       	sltsi45 $r2,#0
   c8236:	e9 03       	bnezs8 c823c <__float32_mul+0x74>
   c8238:	94 91       	slli333 $r2,$r2,#1
   c823a:	9e d9       	subi333 $r3,$r3,#1
   c823c:	50 82 ff 82 	addi $r8,$r5,#-126
   c8240:	88 68       	add45 $r3,$r8
   c8242:	50 81 ff ff 	addi $r8,$r3,#-1
   c8246:	5c f4 00 fe 	slti $r15,$r8,#254
   c824a:	e8 54       	beqzs8 c82f2 <__float32_mul+0x12a>
   c824c:	44 f0 00 80 	movi $r15,#128
   c8250:	88 4f       	add45 $r2,$r15
   c8252:	e2 4f       	slt45 $r2,$r15
   c8254:	88 6f       	add45 $r3,$r15
   c8256:	40 81 20 09 	srli $r8,$r2,#8
   c825a:	54 84 00 01 	andi $r8,$r8,#0x1
   c825e:	8a 48       	sub45 $r2,$r8
   c8260:	94 91       	slli333 $r2,$r2,#1
   c8262:	92 49       	srli45 $r2,#9
   c8264:	40 81 dc 08 	slli $r8,$r3,#23
   c8268:	40 21 20 04 	or $r2,$r2,$r8
   c826c:	40 01 18 04 	or $r0,$r2,$r6
   c8270:	3a 6f a8 04 	lmw.bim $r6,[$sp],$r10,#0x0    ! {$r6~$r10}
   c8274:	3b ff fc 84 	lmw.bim $sp,[$sp],$sp,#0x2    ! {$lp}
   c8278:	dd 9e       	ret5 $lp
   c827a:	cb 13       	bnez38 $r3,c82a0 <__float32_mul+0xd8>
   c827c:	98 92       	add333 $r2,$r2,$r2
   c827e:	c2 0d       	beqz38 $r2,c8298 <__float32_mul+0xd0>
   c8280:	3a 0f 94 3c 	smw.adm $r0,[$sp],$r5,#0x0    ! {$r0~$r5}
   c8284:	80 02       	mov55 $r0,$r2
   c8286:	49 00 6e a6 	jal d5fd2 <countLeadingZeros32>
   c828a:	80 e0       	mov55 $r7,$r0
   c828c:	3a 0f 94 04 	lmw.bim $r0,[$sp],$r5,#0x0    ! {$r0~$r5}
   c8290:	9a df       	sub333 $r3,$r3,$r7
   c8292:	40 21 1c 0c 	sll $r2,$r2,$r7
   c8296:	d5 b4       	j8 c81fe <__float32_mul+0x36>
   c8298:	52 f2 80 ff 	subri $r15,$r5,#255
   c829c:	e8 28       	beqzs8 c82ec <__float32_mul+0x124>
   c829e:	d5 1c       	j8 c82d6 <__float32_mul+0x10e>
   c82a0:	40 81 08 00 	add $r8,$r2,$r2
   c82a4:	4e 83 00 24 	bnez $r8,c82ec <__float32_mul+0x124>
   c82a8:	cd 05       	bnez38 $r5,c82b2 <__float32_mul+0xea>
   c82aa:	40 82 10 00 	add $r8,$r4,$r4
   c82ae:	4e 82 00 1f 	beqz $r8,c82ec <__float32_mul+0x124>
   c82b2:	52 f2 80 ff 	subri $r15,$r5,#255
   c82b6:	e9 16       	bnezs8 c82e2 <__float32_mul+0x11a>
   c82b8:	cd 11       	bnez38 $r5,c82da <__float32_mul+0x112>
   c82ba:	99 24       	add333 $r4,$r4,$r4
   c82bc:	c4 0d       	beqz38 $r4,c82d6 <__float32_mul+0x10e>
   c82be:	3a 0f 94 3c 	smw.adm $r0,[$sp],$r5,#0x0    ! {$r0~$r5}
   c82c2:	80 04       	mov55 $r0,$r4
   c82c4:	49 00 6e 87 	jal d5fd2 <countLeadingZeros32>
   c82c8:	80 e0       	mov55 $r7,$r0
   c82ca:	3a 0f 94 04 	lmw.bim $r0,[$sp],$r5,#0x0    ! {$r0~$r5}
   c82ce:	9b 6f       	sub333 $r5,$r5,$r7
   c82d0:	40 42 1c 0c 	sll $r4,$r4,$r7
   c82d4:	d5 9a       	j8 c8208 <__float32_mul+0x40>
   c82d6:	80 06       	mov55 $r0,$r6
   c82d8:	d5 cc       	j8 c8270 <__float32_mul+0xa8>
   c82da:	40 82 10 00 	add $r8,$r4,$r4
   c82de:	4e 83 00 07 	bnez $r8,c82ec <__float32_mul+0x124>
   c82e2:	46 87 f8 00 	sethi $r8,#0x7f800
   c82e6:	40 03 20 04 	or $r0,$r6,$r8
   c82ea:	d5 c3       	j8 c8270 <__float32_mul+0xa8>
   c82ec:	46 0f fc 00 	sethi $r0,#0xffc00
   c82f0:	d5 c0       	j8 c8270 <__float32_mul+0xa8>
   c82f2:	4e 36 ff f8 	bgtz $r3,c82e2 <__float32_mul+0x11a>
   c82f6:	52 71 80 01 	subri $r7,$r3,#1
   c82fa:	5c f3 80 20 	slti $r15,$r7,#32
   c82fe:	e8 ec       	beqzs8 c82d6 <__float32_mul+0x10e>
   c8300:	52 83 80 20 	subri $r8,$r7,#32
   c8304:	40 31 20 0c 	sll $r3,$r2,$r8
   c8308:	40 21 1c 0d 	srl $r2,$r2,$r7
   c830c:	c3 03       	beqz38 $r3,c8312 <__float32_mul+0x14a>
   c830e:	58 21 00 02 	ori $r2,$r2,#0x2
   c8312:	84 60       	movi55 $r3,#0
   c8314:	50 81 00 80 	addi $r8,$r2,#128
   c8318:	e5 00       	sltsi45 $r8,#0
   c831a:	e8 99       	beqzs8 c824c <__float32_mul+0x84>
   c831c:	84 61       	movi55 $r3,#1
   c831e:	d5 97       	j8 c824c <__float32_mul+0x84>

000c8320 <__divsf3>:
   c8320:	3b ff fc bc 	smw.adm $sp,[$sp],$sp,#0x2    ! {$lp}
   c8324:	3a 6f a8 3c 	smw.adm $r6,[$sp],$r10,#0x0    ! {$r6~$r10}
   c8328:	46 78 00 00 	sethi $r7,#0x80000
   c832c:	40 40 5c 09 	srli $r4,$r0,#23
   c8330:	97 20       	zeb33 $r4,$r4
   c8332:	40 60 dc 09 	srli $r6,$r1,#23
   c8336:	97 b0       	zeb33 $r6,$r6
   c8338:	40 30 20 08 	slli $r3,$r0,#8
   c833c:	fe ff       	or33 $r3,$r7
   c833e:	40 50 a0 08 	slli $r5,$r1,#8
   c8342:	ff 7f       	or33 $r5,$r7
   c8344:	40 a0 04 03 	xor $r10,$r0,$r1
   c8348:	40 73 a8 02 	and $r7,$r7,$r10
   c834c:	50 a2 7f ff 	addi $r10,$r4,#-1
   c8350:	5c f5 00 fe 	slti $r15,$r10,#254
   c8354:	e8 50       	beqzs8 c83f4 <__divsf3+0xd4>
   c8356:	50 a3 7f ff 	addi $r10,$r6,#-1
   c835a:	5c f5 00 fe 	slti $r15,$r10,#254
   c835e:	e8 69       	beqzs8 c8430 <__divsf3+0x110>
   c8360:	e2 65       	slt45 $r3,$r5
   c8362:	e9 03       	bnezs8 c8368 <__divsf3+0x48>
   c8364:	92 61       	srli45 $r3,#1
   c8366:	9d 21       	addi333 $r4,$r4,#1
   c8368:	40 82 b8 09 	srli $r8,$r5,#14
   c836c:	40 01 a0 57 	divr $r0,$r2,$r3,$r8
   c8370:	54 92 bf ff 	andi $r9,$r5,#0x3fff
   c8374:	42 14 80 24 	mul $r1,$r9,$r0
   c8378:	40 21 38 08 	slli $r2,$r2,#14
   c837c:	81 e2       	mov55 $r15,$r2
   c837e:	9a 91       	sub333 $r2,$r2,$r1
   c8380:	40 f7 88 06 	slt $r15,$r15,$r2
   c8384:	e8 04       	beqzs8 c838c <__divsf3+0x6c>
   c8386:	9e 01       	subi333 $r0,$r0,#1
   c8388:	98 95       	add333 $r2,$r2,$r5
   c838a:	e2 45       	slt45 $r2,$r5
   c838c:	40 31 20 57 	divr $r3,$r2,$r2,$r8
   c8390:	42 14 8c 24 	mul $r1,$r9,$r3
   c8394:	40 21 38 08 	slli $r2,$r2,#14
   c8398:	81 e2       	mov55 $r15,$r2
   c839a:	9a 91       	sub333 $r2,$r2,$r1
   c839c:	40 f7 88 06 	slt $r15,$r15,$r2
   c83a0:	e8 04       	beqzs8 c83a8 <__divsf3+0x88>
   c83a2:	9e d9       	subi333 $r3,$r3,#1
   c83a4:	98 95       	add333 $r2,$r2,$r5
   c83a6:	e2 45       	slt45 $r2,$r5
   c83a8:	40 a0 38 08 	slli $r10,$r0,#14
   c83ac:	88 6a       	add45 $r3,$r10
   c83ae:	94 dc       	slli333 $r3,$r3,#4
   c83b0:	c2 03       	beqz38 $r2,c83b6 <__divsf3+0x96>
   c83b2:	58 31 80 01 	ori $r3,$r3,#0x1
   c83b6:	52 a3 00 7e 	subri $r10,$r6,#126
   c83ba:	88 8a       	add45 $r4,$r10
   c83bc:	50 a2 7f ff 	addi $r10,$r4,#-1
   c83c0:	5c f5 00 fe 	slti $r15,$r10,#254
   c83c4:	e8 4b       	beqzs8 c845a <__divsf3+0x13a>
   c83c6:	44 f0 00 80 	movi $r15,#128
   c83ca:	88 6f       	add45 $r3,$r15
   c83cc:	e2 6f       	slt45 $r3,$r15
   c83ce:	88 8f       	add45 $r4,$r15
   c83d0:	40 a1 a0 09 	srli $r10,$r3,#8
   c83d4:	54 a5 00 01 	andi $r10,$r10,#0x1
   c83d8:	8a 6a       	sub45 $r3,$r10
   c83da:	94 d9       	slli333 $r3,$r3,#1
   c83dc:	92 69       	srli45 $r3,#9
   c83de:	40 a2 5c 08 	slli $r10,$r4,#23
   c83e2:	40 31 a8 04 	or $r3,$r3,$r10
   c83e6:	40 01 9c 04 	or $r0,$r3,$r7
   c83ea:	3a 6f a8 04 	lmw.bim $r6,[$sp],$r10,#0x0    ! {$r6~$r10}
   c83ee:	3b ff fc 84 	lmw.bim $sp,[$sp],$sp,#0x2    ! {$lp}
   c83f2:	dd 9e       	ret5 $lp
   c83f4:	cc 0f       	bnez38 $r4,c8412 <__divsf3+0xf2>
   c83f6:	98 db       	add333 $r3,$r3,$r3
   c83f8:	c3 0d       	beqz38 $r3,c8412 <__divsf3+0xf2>
   c83fa:	3a 0f 94 3c 	smw.adm $r0,[$sp],$r5,#0x0    ! {$r0~$r5}
   c83fe:	80 03       	mov55 $r0,$r3
   c8400:	49 00 6d e9 	jal d5fd2 <countLeadingZeros32>
   c8404:	81 00       	mov55 $r8,$r0
   c8406:	3a 0f 94 04 	lmw.bim $r0,[$sp],$r5,#0x0    ! {$r0~$r5}
   c840a:	8a 88       	sub45 $r4,$r8
   c840c:	40 31 a0 0c 	sll $r3,$r3,$r8
   c8410:	d5 a3       	j8 c8356 <__divsf3+0x36>
   c8412:	4c 62 40 06 	bne $r6,$r4,c841e <__divsf3+0xfe>
   c8416:	40 a2 94 00 	add $r10,$r5,$r5
   c841a:	4e a2 00 3c 	beqz $r10,c8492 <__divsf3+0x172>
   c841e:	52 f3 00 ff 	subri $r15,$r6,#255
   c8422:	e8 07       	beqzs8 c8430 <__divsf3+0x110>
   c8424:	c4 19       	beqz38 $r4,c8456 <__divsf3+0x136>
   c8426:	40 a1 8c 00 	add $r10,$r3,$r3
   c842a:	4e a3 00 34 	bnez $r10,c8492 <__divsf3+0x172>
   c842e:	d5 2d       	j8 c8488 <__divsf3+0x168>
   c8430:	ce 0f       	bnez38 $r6,c844e <__divsf3+0x12e>
   c8432:	99 6d       	add333 $r5,$r5,$r5
   c8434:	c5 2a       	beqz38 $r5,c8488 <__divsf3+0x168>
   c8436:	3a 0f 94 3c 	smw.adm $r0,[$sp],$r5,#0x0    ! {$r0~$r5}
   c843a:	80 05       	mov55 $r0,$r5
   c843c:	49 00 6d cb 	jal d5fd2 <countLeadingZeros32>
   c8440:	81 00       	mov55 $r8,$r0
   c8442:	3a 0f 94 04 	lmw.bim $r0,[$sp],$r5,#0x0    ! {$r0~$r5}
   c8446:	8a c8       	sub45 $r6,$r8
   c8448:	40 52 a0 0c 	sll $r5,$r5,$r8
   c844c:	d5 8a       	j8 c8360 <__divsf3+0x40>
   c844e:	40 a2 94 00 	add $r10,$r5,$r5
   c8452:	4e a3 00 20 	bnez $r10,c8492 <__divsf3+0x172>
   c8456:	80 07       	mov55 $r0,$r7
   c8458:	d5 c9       	j8 c83ea <__divsf3+0xca>
   c845a:	4e 46 00 17 	bgtz $r4,c8488 <__divsf3+0x168>
   c845e:	52 82 00 01 	subri $r8,$r4,#1
   c8462:	5c f4 00 20 	slti $r15,$r8,#32
   c8466:	e8 f8       	beqzs8 c8456 <__divsf3+0x136>
   c8468:	52 a4 00 20 	subri $r10,$r8,#32
   c846c:	40 41 a8 0c 	sll $r4,$r3,$r10
   c8470:	40 31 a0 0d 	srl $r3,$r3,$r8
   c8474:	c4 03       	beqz38 $r4,c847a <__divsf3+0x15a>
   c8476:	58 31 80 02 	ori $r3,$r3,#0x2
   c847a:	84 80       	movi55 $r4,#0
   c847c:	50 a1 80 80 	addi $r10,$r3,#128
   c8480:	e5 40       	sltsi45 $r10,#0
   c8482:	e8 a2       	beqzs8 c83c6 <__divsf3+0xa6>
   c8484:	84 81       	movi55 $r4,#1
   c8486:	d5 a0       	j8 c83c6 <__divsf3+0xa6>
   c8488:	46 a7 f8 00 	sethi $r10,#0x7f800
   c848c:	40 03 a8 04 	or $r0,$r7,$r10
   c8490:	d5 ad       	j8 c83ea <__divsf3+0xca>
   c8492:	46 0f fc 00 	sethi $r0,#0xffc00
   c8496:	d5 aa       	j8 c83ea <__divsf3+0xca>

000c8498 <AB_UART_RxRecidue>:
   c8498:	fc 00       	push25 $r6,#0x0    ! {$r6, $fp, $gp, $lp}
   c849a:	5a 08 01 0d 	bnec $r0,#1,c84b4 <AB_UART_RxRecidue+0x1c>
   c849e:	2e 17 ca 10 	lbi.gp $r1,[+#-13808]
   c84a2:	c1 09       	beqz38 $r1,c84b4 <AB_UART_RxRecidue+0x1c>
   c84a4:	3c 13 e3 58 	lhi.gp $r1,[+#-14672]
   c84a8:	3c 03 e3 59 	lhi.gp $r0,[+#-14670]
   c84ac:	9a 08       	sub333 $r0,$r1,$r0
   c84ae:	54 00 03 ff 	andi $r0,$r0,#0x3ff
   c84b2:	d5 03       	j8 c84b8 <AB_UART_RxRecidue+0x20>
   c84b4:	49 00 5d a9 	jal d4006 <DRV_Uart_Recidue>
   c84b8:	fc 80       	pop25 $r6,#0x0    ! {$r6, $fp, $gp, $lp}

000c84ba <AB_UART_Read>:
   c84ba:	fc 41       	push25 $r10,#0x8    ! {$r6~$r10, $fp, $gp, $lp}
   c84bc:	80 e0       	mov55 $r7,$r0
   c84be:	81 21       	mov55 $r9,$r1
   c84c0:	97 91       	zeh33 $r6,$r2
   c84c2:	85 e1       	movi55 $r15,#1
   c84c4:	4c 07 c0 90 	bne $r0,$r15,c85e4 <AB_UART_Read+0x12a>
   c84c8:	2e 07 ca 10 	lbi.gp $r0,[+#-13808]
   c84cc:	4e 02 00 88 	beqz $r0,c85dc <AB_UART_Read+0x122>
   c84d0:	3c 33 e3 58 	lhi.gp $r3,[+#-14672]
   c84d4:	3c 23 e3 59 	lhi.gp $r2,[+#-14670]
   c84d8:	9a 9a       	sub333 $r2,$r3,$r2
   c84da:	54 21 03 ff 	andi $r2,$r2,#0x3ff
   c84de:	e0 c2       	slts45 $r6,$r2
   c84e0:	e9 08       	bnezs8 c84f0 <AB_UART_Read+0x36>
   c84e2:	3c 63 e3 58 	lhi.gp $r6,[+#-14672]
   c84e6:	3c 03 e3 59 	lhi.gp $r0,[+#-14670]
   c84ea:	9b b0       	sub333 $r6,$r6,$r0
   c84ec:	54 63 03 ff 	andi $r6,$r6,#0x3ff
   c84f0:	3e 7f c6 b2 	addi.gp $r7,#-14670
   c84f4:	3c 33 e3 58 	lhi.gp $r3,[+#-14672]
   c84f8:	a4 78       	lhi333 $r1,[$r7+#0x0]
   c84fa:	a4 b8       	lhi333 $r2,[$r7+#0x0]
   c84fc:	9a 59       	sub333 $r1,$r3,$r1
   c84fe:	54 10 83 ff 	andi $r1,$r1,#0x3ff
   c8502:	52 21 04 00 	subri $r2,$r2,#1024
   c8506:	e0 41       	slts45 $r2,$r1
   c8508:	e8 46       	beqzs8 c8594 <AB_UART_Read+0xda>
   c850a:	02 a3 80 00 	lhi $r10,[$r7+#0x0]
   c850e:	3c 33 e3 58 	lhi.gp $r3,[+#-14672]
   c8512:	03 c3 80 00 	lhi $fp,[$r7+#0x0]
   c8516:	52 a5 04 00 	subri $r10,$r10,#1024
   c851a:	80 e6       	mov55 $r7,$r6
   c851c:	e3 46       	slt45 $r10,$r6
   c851e:	e8 02       	beqzs8 c8522 <AB_UART_Read+0x68>
   c8520:	80 ea       	mov55 $r7,$r10
   c8522:	3c 13 e3 59 	lhi.gp $r1,[+#-14670]
   c8526:	3c 2d f2 86 	lwi.gp $r2,[+#-13800]
   c852a:	98 51       	add333 $r1,$r2,$r1
   c852c:	80 09       	mov55 $r0,$r9
   c852e:	80 47       	mov55 $r2,$r7
   c8530:	f3 81       	swi37.sp $r3,[+#0x4]
   c8532:	49 ff fd 8b 	jal c8048 <memcpy>
   c8536:	3c 03 e3 59 	lhi.gp $r0,[+#-14670]
   c853a:	f3 01       	lwi37.sp $r3,[+#0x4]
   c853c:	98 38       	add333 $r0,$r7,$r0
   c853e:	96 01       	zeh33 $r0,$r0
   c8540:	3c 0b e3 59 	shi.gp $r0,[+#-14670]
   c8544:	44 00 04 00 	movi $r0,#1024
   c8548:	3c 13 e3 59 	lhi.gp $r1,[+#-14670]
   c854c:	4c 10 40 05 	bne $r1,$r0,c8556 <AB_UART_Read+0x9c>
   c8550:	84 00       	movi55 $r0,#0
   c8552:	3c 0b e3 59 	shi.gp $r0,[+#-14670]
   c8556:	4c 63 80 2b 	beq $r6,$r7,c85ac <AB_UART_Read+0xf2>
   c855a:	40 01 f0 01 	sub $r0,$r3,$fp
   c855e:	54 00 03 ff 	andi $r0,$r0,#0x3ff
   c8562:	40 a0 28 01 	sub $r10,$r0,$r10
   c8566:	40 83 1c 01 	sub $r8,$r6,$r7
   c856a:	e3 48       	slt45 $r10,$r8
   c856c:	e8 02       	beqzs8 c8570 <AB_UART_Read+0xb6>
   c856e:	81 0a       	mov55 $r8,$r10
   c8570:	3c 13 e3 59 	lhi.gp $r1,[+#-14670]
   c8574:	3c 2d f2 86 	lwi.gp $r2,[+#-13800]
   c8578:	98 51       	add333 $r1,$r2,$r1
   c857a:	40 04 9c 00 	add $r0,$r9,$r7
   c857e:	80 48       	mov55 $r2,$r8
   c8580:	49 ff fd 64 	jal c8048 <memcpy>
   c8584:	3c 03 e3 59 	lhi.gp $r0,[+#-14670]
   c8588:	89 00       	add45 $r8,$r0
   c858a:	40 84 00 13 	zeh $r8,$r8
   c858e:	3c 8b e3 59 	shi.gp $r8,[+#-14670]
   c8592:	d5 0d       	j8 c85ac <AB_UART_Read+0xf2>
   c8594:	a4 78       	lhi333 $r1,[$r7+#0x0]
   c8596:	3c 2d f2 86 	lwi.gp $r2,[+#-13800]
   c859a:	98 51       	add333 $r1,$r2,$r1
   c859c:	80 09       	mov55 $r0,$r9
   c859e:	80 46       	mov55 $r2,$r6
   c85a0:	49 ff fd 54 	jal c8048 <memcpy>
   c85a4:	a4 38       	lhi333 $r0,[$r7+#0x0]
   c85a6:	98 30       	add333 $r0,$r6,$r0
   c85a8:	96 01       	zeh33 $r0,$r0
   c85aa:	ac 38       	shi333 $r0,[$r7+#0x0]
   c85ac:	2e 07 ca 11 	lbi.gp $r0,[+#-13807]
   c85b0:	49 00 57 10 	jal d33d0 <DRV_Gpio_PinValGet>
   c85b4:	c0 26       	beqz38 $r0,c8600 <AB_UART_Read+0x146>
   c85b6:	3c 13 e3 58 	lhi.gp $r1,[+#-14672]
   c85ba:	3c 03 e3 59 	lhi.gp $r0,[+#-14670]
   c85be:	9a 08       	sub333 $r0,$r1,$r0
   c85c0:	54 00 03 ff 	andi $r0,$r0,#0x3ff
   c85c4:	5e f0 00 65 	sltsi $r15,$r0,#101
   c85c8:	e8 1c       	beqzs8 c8600 <AB_UART_Read+0x146>
   c85ca:	2e 07 ca 11 	lbi.gp $r0,[+#-13807]
   c85ce:	84 21       	movi55 $r1,#1
   c85d0:	40 00 80 0c 	sll $r0,$r1,$r0
   c85d4:	84 20       	movi55 $r1,#0
   c85d6:	49 00 56 ec 	jal d33ae <DRV_Gpio_ValSet>
   c85da:	d5 13       	j8 c8600 <AB_UART_Read+0x146>
   c85dc:	3e 0d 2f b4 	addi.gp $r0,#-184396
   c85e0:	49 00 65 bd 	jal d515a <puts>
   c85e4:	80 07       	mov55 $r0,$r7
   c85e6:	49 00 5d 10 	jal d4006 <DRV_Uart_Recidue>
   c85ea:	80 20       	mov55 $r1,$r0
   c85ec:	96 01       	zeh33 $r0,$r0
   c85ee:	e2 c0       	slt45 $r6,$r0
   c85f0:	e8 02       	beqzs8 c85f4 <AB_UART_Read+0x13a>
   c85f2:	80 26       	mov55 $r1,$r6
   c85f4:	97 89       	zeh33 $r6,$r1
   c85f6:	80 07       	mov55 $r0,$r7
   c85f8:	80 29       	mov55 $r1,$r9
   c85fa:	80 46       	mov55 $r2,$r6
   c85fc:	49 00 5e 3f 	jal d427a <DRV_Uart_Read>
   c8600:	80 06       	mov55 $r0,$r6
   c8602:	fc c1       	pop25 $r10,#0x8    ! {$r6~$r10, $fp, $gp, $lp}

000c8604 <driver_tx_complete>:
   c8604:	fc 20       	push25 $r8,#0x0    ! {$r6~$r8, $fp, $gp, $lp}
   c8606:	97 c0       	zeb33 $r7,$r0
   c8608:	3e 0f ca 08 	addi.gp $r0,#-13816
   c860c:	38 00 1e 02 	lw $r0,[$r0+($r7<<#0x2)]
   c8610:	49 00 4e 83 	jal d2316 <AB_queue_pop>
   c8614:	80 c0       	mov55 $r6,$r0
   c8616:	c0 0a       	beqz38 $r0,c862a <driver_tx_complete+0x26>
   c8618:	a4 b0       	lhi333 $r2,[$r6+#0x0]
   c861a:	80 07       	mov55 $r0,$r7
   c861c:	9c 72       	addi333 $r1,$r6,#2
   c861e:	49 00 5d c0 	jal d419e <DRV_Uart_Write>
   c8622:	80 06       	mov55 $r0,$r6
   c8624:	49 00 4e 92 	jal d2348 <AB_queue_entry_free>
   c8628:	d5 05       	j8 c8632 <driver_tx_complete+0x2e>
   c862a:	3c 0d f2 88 	lwi.gp $r0,[+#-13792]
   c862e:	49 00 4e 26 	jal d227a <AB_PWR_WakeUnlocked>
   c8632:	fc a0       	pop25 $r8,#0x0    ! {$r6~$r8, $fp, $gp, $lp}

000c8634 <AB_UART_Write>:
   c8634:	fc 40       	push25 $r10,#0x0    ! {$r6~$r10, $fp, $gp, $lp}
   c8636:	80 c0       	mov55 $r6,$r0
   c8638:	81 01       	mov55 $r8,$r1
   c863a:	97 d1       	zeh33 $r7,$r2
   c863c:	5a 08 01 24 	bnec $r0,#1,c8684 <AB_UART_Write+0x50>
   c8640:	2e 07 ca 10 	lbi.gp $r0,[+#-13808]
   c8644:	c8 1e       	bnez38 $r0,c8680 <AB_UART_Write+0x4c>
   c8646:	d5 1f       	j8 c8684 <AB_UART_Write+0x50>
   c8648:	96 39       	zeh33 $r0,$r7
   c864a:	80 c7       	mov55 $r6,$r7
   c864c:	5c f0 04 00 	slti $r15,$r0,#1024
   c8650:	e9 03       	bnezs8 c8656 <AB_UART_Write+0x22>
   c8652:	44 60 03 ff 	movi $r6,#1023
   c8656:	97 b1       	zeh33 $r6,$r6
   c8658:	9c 32       	addi333 $r0,$r6,#2
   c865a:	49 00 4e 91 	jal d237c <AB_queue_entry_alloc>
   c865e:	81 20       	mov55 $r9,$r0
   c8660:	c0 28       	beqz38 $r0,c86b0 <AB_UART_Write+0x7c>
   c8662:	1a 60 00 01 	shi.bi $r6,[$r0],#0x2
   c8666:	80 28       	mov55 $r1,$r8
   c8668:	80 46       	mov55 $r2,$r6
   c866a:	49 ff fc ef 	jal c8048 <memcpy>
   c866e:	3c 0d f2 83 	lwi.gp $r0,[+#-13812]
   c8672:	80 29       	mov55 $r1,$r9
   c8674:	9b fe       	sub333 $r7,$r7,$r6
   c8676:	49 00 4e 1c 	jal d22ae <AB_queue_push>
   c867a:	89 06       	add45 $r8,$r6
   c867c:	97 f9       	zeh33 $r7,$r7
   c867e:	d5 01       	j8 c8680 <AB_UART_Write+0x4c>
   c8680:	cf e4       	bnez38 $r7,c8648 <AB_UART_Write+0x14>
   c8682:	d5 2b       	j8 c86d8 <AB_UART_Write+0xa4>
   c8684:	80 06       	mov55 $r0,$r6
   c8686:	49 00 5c cd 	jal d4020 <DRV_Uart_IntDis>
   c868a:	80 06       	mov55 $r0,$r6
   c868c:	80 28       	mov55 $r1,$r8
   c868e:	80 47       	mov55 $r2,$r7
   c8690:	49 00 5d 87 	jal d419e <DRV_Uart_Write>
   c8694:	c8 1b       	bnez38 $r0,c86ca <AB_UART_Write+0x96>
   c8696:	3e af ca 08 	addi.gp $r10,#-13816
   c869a:	38 05 1a 02 	lw $r0,[$r10+($r6<<#0x2)]
   c869e:	c0 16       	beqz38 $r0,c86ca <AB_UART_Write+0x96>
   c86a0:	9c 3a       	addi333 $r0,$r7,#2
   c86a2:	49 00 4e 6d 	jal d237c <AB_queue_entry_alloc>
   c86a6:	81 20       	mov55 $r9,$r0
   c86a8:	c8 06       	bnez38 $r0,c86b4 <AB_UART_Write+0x80>
   c86aa:	80 06       	mov55 $r0,$r6
   c86ac:	49 00 5c d4 	jal d4054 <DRV_Uart_IntEn>
   c86b0:	80 09       	mov55 $r0,$r9
   c86b2:	d5 14       	j8 c86da <AB_UART_Write+0xa6>
   c86b4:	1a 70 00 01 	shi.bi $r7,[$r0],#0x2
   c86b8:	80 28       	mov55 $r1,$r8
   c86ba:	80 47       	mov55 $r2,$r7
   c86bc:	49 ff fc c6 	jal c8048 <memcpy>
   c86c0:	38 05 1a 02 	lw $r0,[$r10+($r6<<#0x2)]
   c86c4:	80 29       	mov55 $r1,$r9
   c86c6:	49 00 4d f4 	jal d22ae <AB_queue_push>
   c86ca:	3c 0d f2 88 	lwi.gp $r0,[+#-13792]
   c86ce:	49 00 4d cd 	jal d2268 <AB_PWR_WakeLocked>
   c86d2:	80 06       	mov55 $r0,$r6
   c86d4:	49 00 5c c0 	jal d4054 <DRV_Uart_IntEn>
   c86d8:	84 01       	movi55 $r0,#1
   c86da:	fc c0       	pop25 $r10,#0x0    ! {$r6~$r10, $fp, $gp, $lp}

000c86dc <AB_UART_Flush>:
   c86dc:	fc 00       	push25 $r6,#0x0    ! {$r6, $fp, $gp, $lp}
   c86de:	97 80       	zeb33 $r6,$r0
   c86e0:	80 06       	mov55 $r0,$r6
   c86e2:	49 00 5c d1 	jal d4084 <DRV_Uart_Flush>
   c86e6:	c8 fd       	bnez38 $r0,c86e0 <AB_UART_Flush+0x4>
   c86e8:	fc 80       	pop25 $r6,#0x0    ! {$r6, $fp, $gp, $lp}

000c86ea <AB_UART_Open>:
   c86ea:	fc 44       	push25 $r10,#0x20    ! {$r6~$r10, $fp, $gp, $lp}
   c86ec:	81 00       	mov55 $r8,$r0
   c86ee:	50 60 80 08 	addi $r6,$r1,#8
   c86f2:	e6 03       	slti45 $r0,#3
   c86f4:	e8 64       	beqzs8 c87bc <AB_UART_Open+0xd2>
   c86f6:	3e 0f ca 08 	addi.gp $r0,#-13816
   c86fa:	38 00 22 02 	lw $r0,[$r0+($r8<<#0x2)]
   c86fe:	c8 5f       	bnez38 $r0,c87bc <AB_UART_Open+0xd2>
   c8700:	a4 0a       	lhi333 $r0,[$r1+#0x4]
   c8702:	50 9f 80 14 	addi $r9,$sp,#20
   c8706:	12 0f 80 05 	shi $r0,[$sp+#0xa]
   c870a:	12 0f 80 04 	shi $r0,[$sp+#0x8]
   c870e:	49 00 4c 9b 	jal d2044 <malloc>
   c8712:	f0 81       	swi37.sp $r0,[+#0x4]
   c8714:	02 0f 80 04 	lhi $r0,[$sp+#0x8]
   c8718:	80 ff       	mov55 $r7,$sp
   c871a:	49 00 4c 95 	jal d2044 <malloc>
   c871e:	b6 1f       	swi450 $r0,[$sp]
   c8720:	b4 06       	lwi450 $r0,[$r6]
   c8722:	f0 83       	swi37.sp $r0,[+#0xc]
   c8724:	3e 0c 46 04 	addi.gp $r0,#-244220
   c8728:	f0 84       	swi37.sp $r0,[+#0x10]
   c872a:	3e 0d 20 00 	addi.gp $r0,#-188416
   c872e:	3a 00 08 00 	lmw.bi $r0,[$r0],$r2,#0x0    ! {$r0~$r2}
   c8732:	3a 04 88 20 	smw.bi $r0,[$r9],$r2,#0x0    ! {$r0~$r2}
   c8736:	5a 88 01 29 	bnec $r8,#1,c8788 <AB_UART_Open+0x9e>
   c873a:	20 03 00 04 	lbsi $r0,[$r6+#0x4]
   c873e:	4e 04 00 25 	bgez $r0,c8788 <AB_UART_Open+0x9e>
   c8742:	3e 87 ca 10 	sbi.gp $r8,[+#-13808]
   c8746:	a6 76       	lbi333 $r1,[$r6+#0x6]
   c8748:	3e 17 ca 04 	sbi.gp $r1,[+#-13820]
   c874c:	a6 75       	lbi333 $r1,[$r6+#0x5]
   c874e:	3e 17 ca 11 	sbi.gp $r1,[+#-13807]
   c8752:	44 00 04 00 	movi $r0,#1024
   c8756:	49 00 4c 77 	jal d2044 <malloc>
   c875a:	3c 0f f2 87 	swi.gp $r0,[+#-13796]
   c875e:	44 00 04 00 	movi $r0,#1024
   c8762:	49 00 4c 71 	jal d2044 <malloc>
   c8766:	3c 0f f2 86 	swi.gp $r0,[+#-13800]
   c876a:	00 04 80 09 	lbi $r0,[$r9+#0x9]
   c876e:	84 3d       	movi55 $r1,#-3
   c8770:	fe 0e       	and33 $r0,$r1
   c8772:	10 04 80 09 	sbi $r0,[$r9+#0x9]
   c8776:	a6 34       	lbi333 $r0,[$r6+#0x4]
   c8778:	f1 03       	lwi37.sp $r1,[+#0xc]
   c877a:	96 37       	fexti33 $r0,#0x6
   c877c:	ae 34       	sbi333 $r0,[$r6+#0x4]
   c877e:	3c 1f f2 85 	swi.gp $r1,[+#-13804]
   c8782:	3e 0c 47 c0 	addi.gp $r0,#-243776
   c8786:	f0 83       	swi37.sp $r0,[+#0xc]
   c8788:	a6 34       	lbi333 $r0,[$r6+#0x4]
   c878a:	b0 45       	addri36.sp $r1,#0x14
   c878c:	ae 0e       	sbi333 $r0,[$r1+#0x6]
   c878e:	80 5f       	mov55 $r2,$sp
   c8790:	04 03 7f fe 	lwi $r0,[$r6+#-0x8]
   c8794:	f0 85       	swi37.sp $r0,[+#0x14]
   c8796:	04 03 7f ff 	lwi $r0,[$r6+#-0x4]
   c879a:	92 01       	srli45 $r0,#1
   c879c:	ac 0a       	shi333 $r0,[$r1+#0x4]
   c879e:	80 08       	mov55 $r0,$r8
   c87a0:	49 00 5f 6c 	jal d4678 <DRV_Uart_Init>
   c87a4:	49 00 4d f8 	jal d2394 <AB_queue_alloc>
   c87a8:	3e 1f ca 08 	addi.gp $r1,#-13816
   c87ac:	38 00 a2 0a 	sw $r0,[$r1+($r8<<#0x2)]
   c87b0:	49 00 4d 48 	jal d2240 <AB_PWR_GetWakeLock>
   c87b4:	3c 0f f2 88 	swi.gp $r0,[+#-13792]
   c87b8:	84 01       	movi55 $r0,#1
   c87ba:	d5 02       	j8 c87be <AB_UART_Open+0xd4>
   c87bc:	84 00       	movi55 $r0,#0
   c87be:	fc c4       	pop25 $r10,#0x20    ! {$r6~$r10, $fp, $gp, $lp}

000c87c0 <uart2_rx_data_fctl>:
   c87c0:	fc 40       	push25 $r10,#0x0    ! {$r6~$r10, $fp, $gp, $lp}
   c87c2:	97 c1       	zeh33 $r7,$r0
   c87c4:	3c 13 e3 58 	lhi.gp $r1,[+#-14672]
   c87c8:	3c 03 e3 59 	lhi.gp $r0,[+#-14670]
   c87cc:	9a 08       	sub333 $r0,$r1,$r0
   c87ce:	fe 03       	not33 $r0,$r0
   c87d0:	54 00 03 ff 	andi $r0,$r0,#0x3ff
   c87d4:	e0 07       	slts45 $r0,$r7
   c87d6:	e8 05       	beqzs8 c87e0 <uart2_rx_data_fctl+0x20>
   c87d8:	3e 0d 2f bc 	addi.gp $r0,#-184388
   c87dc:	49 00 64 bf 	jal d515a <puts>
   c87e0:	c7 2a       	beqz38 $r7,c8834 <uart2_rx_data_fctl+0x74>
   c87e2:	3e 6f c6 b0 	addi.gp $r6,#-14672
   c87e6:	a4 30       	lhi333 $r0,[$r6+#0x0]
   c87e8:	3e 8f ca 18 	addi.gp $r8,#-13800
   c87ec:	98 38       	add333 $r0,$r7,$r0
   c87ee:	5e f0 04 00 	sltsi $r15,$r0,#1024
   c87f2:	e8 0c       	beqzs8 c880a <uart2_rx_data_fctl+0x4a>
   c87f4:	a4 70       	lhi333 $r1,[$r6+#0x0]
   c87f6:	b4 48       	lwi450 $r2,[$r8]
   c87f8:	84 01       	movi55 $r0,#1
   c87fa:	98 51       	add333 $r1,$r2,$r1
   c87fc:	80 47       	mov55 $r2,$r7
   c87fe:	49 00 5d 3e 	jal d427a <DRV_Uart_Read>
   c8802:	a4 30       	lhi333 $r0,[$r6+#0x0]
   c8804:	99 f8       	add333 $r7,$r7,$r0
   c8806:	97 f9       	zeh33 $r7,$r7
   c8808:	d5 15       	j8 c8832 <uart2_rx_data_fctl+0x72>
   c880a:	02 93 00 00 	lhi $r9,[$r6+#0x0]
   c880e:	a4 70       	lhi333 $r1,[$r6+#0x0]
   c8810:	b4 48       	lwi450 $r2,[$r8]
   c8812:	52 94 84 00 	subri $r9,$r9,#1024
   c8816:	40 94 80 13 	zeh $r9,$r9
   c881a:	98 51       	add333 $r1,$r2,$r1
   c881c:	84 01       	movi55 $r0,#1
   c881e:	80 49       	mov55 $r2,$r9
   c8820:	8a e9       	sub45 $r7,$r9
   c8822:	49 00 5d 2c 	jal d427a <DRV_Uart_Read>
   c8826:	97 f9       	zeh33 $r7,$r7
   c8828:	b4 28       	lwi450 $r1,[$r8]
   c882a:	84 01       	movi55 $r0,#1
   c882c:	80 47       	mov55 $r2,$r7
   c882e:	49 00 5d 26 	jal d427a <DRV_Uart_Read>
   c8832:	ad f0       	shi333 $r7,[$r6+#0x0]
   c8834:	3c 0d f2 83 	lwi.gp $r0,[+#-13812]
   c8838:	49 00 4d 7c 	jal d2330 <AB_queue_count>
   c883c:	e6 06       	slti45 $r0,#6
   c883e:	e8 0b       	beqzs8 c8854 <uart2_rx_data_fctl+0x94>
   c8840:	3c 13 e3 58 	lhi.gp $r1,[+#-14672]
   c8844:	3c 03 e3 59 	lhi.gp $r0,[+#-14670]
   c8848:	9a 08       	sub333 $r0,$r1,$r0
   c884a:	54 00 03 ff 	andi $r0,$r0,#0x3ff
   c884e:	5e f0 02 85 	sltsi $r15,$r0,#645
   c8852:	e9 08       	bnezs8 c8862 <uart2_rx_data_fctl+0xa2>
   c8854:	2e 07 ca 11 	lbi.gp $r0,[+#-13807]
   c8858:	84 21       	movi55 $r1,#1
   c885a:	40 00 80 0c 	sll $r0,$r1,$r0
   c885e:	49 00 55 a8 	jal d33ae <DRV_Gpio_ValSet>
   c8862:	3c 1d f2 85 	lwi.gp $r1,[+#-13804]
   c8866:	c1 09       	beqz38 $r1,c8878 <uart2_rx_data_fctl+0xb8>
   c8868:	3c 23 e3 58 	lhi.gp $r2,[+#-14672]
   c886c:	3c 03 e3 59 	lhi.gp $r0,[+#-14670]
   c8870:	9a 10       	sub333 $r0,$r2,$r0
   c8872:	54 00 03 ff 	andi $r0,$r0,#0x3ff
   c8876:	dd 21       	jral5 $r1
   c8878:	fc c0       	pop25 $r10,#0x0    ! {$r6~$r10, $fp, $gp, $lp}

000c887a <AB_BSP_initEx>:
   c887a:	fc 4b       	push25 $r10,#0x58    ! {$r6~$r10, $fp, $gp, $lp}
   c887c:	80 e1       	mov55 $r7,$r1
   c887e:	f0 83       	swi37.sp $r0,[+#0xc]
   c8880:	49 00 57 b5 	jal d37ea <DRV_Pwr_BootFrom>
   c8884:	84 01       	movi55 $r0,#1
   c8886:	49 00 4d 96 	jal d23b2 <AB_SECTOR_GetMpParameter>
   c888a:	49 00 3d a0 	jal d03ca <AB_ADC_Init>
   c888e:	a0 39       	lwi333 $r0,[$r7+#0x4]
   c8890:	a0 bf       	lwi333 $r2,[$r7+#0x1c]
   c8892:	b4 27       	lwi450 $r1,[$r7]
   c8894:	04 a3 80 02 	lwi $r10,[$r7+#0x8]
   c8898:	04 83 80 03 	lwi $r8,[$r7+#0xc]
   c889c:	f0 82       	swi37.sp $r0,[+#0x8]
   c889e:	05 c3 80 04 	lwi $fp,[$r7+#0x10]
   c88a2:	a1 bd       	lwi333 $r6,[$r7+#0x14]
   c88a4:	04 93 80 06 	lwi $r9,[$r7+#0x18]
   c88a8:	c2 06       	beqz38 $r2,c88b4 <AB_BSP_initEx+0x3a>
   c88aa:	b4 02       	lwi450 $r0,[$r2]
   c88ac:	f1 81       	swi37.sp $r1,[+#0x4]
   c88ae:	49 00 44 74 	jal d1196 <AB_Debug_CpuExceptionMonitor>
   c88b2:	f1 01       	lwi37.sp $r1,[+#0x4]
   c88b4:	c1 05       	beqz38 $r1,c88be <AB_BSP_initEx+0x44>
   c88b6:	b4 01       	lwi450 $r0,[$r1]
   c88b8:	a6 4c       	lbi333 $r1,[$r1+#0x4]
   c88ba:	49 00 3d bb 	jal d0430 <AB_CLK_Switch>
   c88be:	4e 62 00 78 	beqz $r6,c89ae <AB_BSP_initEx+0x134>
   c88c2:	3e 1d 20 1c 	addi.gp $r1,#-188388
   c88c6:	3a 00 8c 00 	lmw.bi $r0,[$r1],$r3,#0x0    ! {$r0~$r3}
   c88ca:	b1 0f       	addri36.sp $r4,#0x3c
   c88cc:	b1 4b       	addri36.sp $r5,#0x2c
   c88ce:	3a 02 0c 20 	smw.bi $r0,[$r4],$r3,#0x0    ! {$r0~$r3}
   c88d2:	3e 1d 20 0c 	addi.gp $r1,#-188404
   c88d6:	3a 00 8c 00 	lmw.bi $r0,[$r1],$r3,#0x0    ! {$r0~$r3}
   c88da:	3a 02 8c 20 	smw.bi $r0,[$r5],$r3,#0x0    ! {$r0~$r3}
   c88de:	b4 26       	lwi450 $r1,[$r6]
   c88e0:	c1 23       	beqz38 $r1,c8926 <AB_BSP_initEx+0xac>
   c88e2:	00 03 00 14 	lbi $r0,[$r6+#0x14]
   c88e6:	f1 8f       	swi37.sp $r1,[+#0x3c]
   c88e8:	c0 17       	beqz38 $r0,c8916 <AB_BSP_initEx+0x9c>
   c88ea:	00 02 00 0c 	lbi $r0,[$r4+#0xc]
   c88ee:	44 1f ff 80 	movi $r1,#-128
   c88f2:	fe 0f       	or33 $r0,$r1
   c88f4:	10 02 00 0c 	sbi $r0,[$r4+#0xc]
   c88f8:	84 e1       	movi55 $r7,#1
   c88fa:	00 13 00 17 	lbi $r1,[$r6+#0x17]
   c88fe:	40 03 84 0c 	sll $r0,$r7,$r1
   c8902:	84 29       	movi55 $r1,#9
   c8904:	49 00 56 ee 	jal d36e0 <DRV_PinMux_SigSet>
   c8908:	00 13 00 16 	lbi $r1,[$r6+#0x16]
   c890c:	40 03 84 0c 	sll $r0,$r7,$r1
   c8910:	84 26       	movi55 $r1,#6
   c8912:	49 00 56 e7 	jal d36e0 <DRV_PinMux_SigSet>
   c8916:	b0 4f       	addri36.sp $r1,#0x3c
   c8918:	84 00       	movi55 $r0,#0
   c891a:	49 ff fe e8 	jal c86ea <AB_UART_Open>
   c891e:	a0 72       	lwi333 $r1,[$r6+#0x8]
   c8920:	c1 03       	beqz38 $r1,c8926 <AB_BSP_initEx+0xac>
   c8922:	3c 1f f2 89 	swi.gp $r1,[+#-13788]
   c8926:	a0 71       	lwi333 $r1,[$r6+#0x4]
   c8928:	c1 43       	beqz38 $r1,c89ae <AB_BSP_initEx+0x134>
   c892a:	b1 cb       	addri36.sp $r7,#0x2c
   c892c:	f1 8b       	swi37.sp $r1,[+#0x2c]
   c892e:	a0 34       	lwi333 $r0,[$r6+#0x10]
   c8930:	84 23       	movi55 $r1,#3
   c8932:	49 00 56 3f 	jal d35b0 <DRV_PinMux_GrpSet>
   c8936:	00 03 00 15 	lbi $r0,[$r6+#0x15]
   c893a:	c0 32       	beqz38 $r0,c899e <AB_BSP_initEx+0x124>
   c893c:	00 03 80 0c 	lbi $r0,[$r7+#0xc]
   c8940:	44 2f ff 80 	movi $r2,#-128
   c8944:	fe 17       	or33 $r0,$r2
   c8946:	10 03 80 0c 	sbi $r0,[$r7+#0xc]
   c894a:	44 00 04 00 	movi $r0,#1024
   c894e:	00 13 00 18 	lbi $r1,[$r6+#0x18]
   c8952:	10 13 80 0d 	sbi $r1,[$r7+#0xd]
   c8956:	00 23 00 19 	lbi $r2,[$r6+#0x19]
   c895a:	f0 8c       	swi37.sp $r0,[+#0x30]
   c895c:	10 23 80 0e 	sbi $r2,[$r7+#0xe]
   c8960:	84 e1       	movi55 $r7,#1
   c8962:	40 23 88 0c 	sll $r2,$r7,$r2
   c8966:	40 13 84 0c 	sll $r1,$r7,$r1
   c896a:	40 01 04 04 	or $r0,$r2,$r1
   c896e:	84 20       	movi55 $r1,#0
   c8970:	49 00 56 b8 	jal d36e0 <DRV_PinMux_SigSet>
   c8974:	00 13 00 18 	lbi $r1,[$r6+#0x18]
   c8978:	40 03 84 0c 	sll $r0,$r7,$r1
   c897c:	80 27       	mov55 $r1,$r7
   c897e:	49 00 55 07 	jal d338c <DRV_Gpio_DirSet>
   c8982:	00 13 00 19 	lbi $r1,[$r6+#0x19]
   c8986:	40 03 84 0c 	sll $r0,$r7,$r1
   c898a:	84 20       	movi55 $r1,#0
   c898c:	49 00 55 00 	jal d338c <DRV_Gpio_DirSet>
   c8990:	00 13 00 18 	lbi $r1,[$r6+#0x18]
   c8994:	40 03 84 0c 	sll $r0,$r7,$r1
   c8998:	84 20       	movi55 $r1,#0
   c899a:	49 00 55 0a 	jal d33ae <DRV_Gpio_ValSet>
   c899e:	b0 4b       	addri36.sp $r1,#0x2c
   c89a0:	84 01       	movi55 $r0,#1
   c89a2:	49 ff fe a4 	jal c86ea <AB_UART_Open>
   c89a6:	a0 73       	lwi333 $r1,[$r6+#0xc]
   c89a8:	c1 03       	beqz38 $r1,c89ae <AB_BSP_initEx+0x134>
   c89aa:	3c 1f f2 8a 	swi.gp $r1,[+#-13784]
   c89ae:	4e a2 00 0d 	beqz $r10,c89c8 <AB_BSP_initEx+0x14e>
   c89b2:	b4 2a       	lwi450 $r1,[$r10]
   c89b4:	3c 1f f1 97 	swi.gp $r1,[+#-14756]
   c89b8:	04 25 00 01 	lwi $r2,[$r10+#0x4]
   c89bc:	04 05 00 02 	lwi $r0,[$r10+#0x8]
   c89c0:	3e 1c 4b 66 	addi.gp $r1,#-242842
   c89c4:	49 00 3d be 	jal d0540 <AB_console_init>
   c89c8:	4f c2 00 08 	beqz $fp,c89d8 <AB_BSP_initEx+0x15e>
   c89cc:	b4 5c       	lwi450 $r2,[$fp]
   c89ce:	3c 2f f1 98 	swi.gp $r2,[+#-14752]
   c89d2:	b8 01       	lwi37 $r0,[$fp+#0x4]
   c89d4:	49 00 4e af 	jal d2732 <ab_airoha_vcmd_extend_reg>
   c89d8:	f0 02       	lwi37.sp $r0,[+#0x8]
   c89da:	c0 04       	beqz38 $r0,c89e2 <AB_BSP_initEx+0x168>
   c89dc:	b4 00       	lwi450 $r0,[$r0]
   c89de:	49 00 4b a4 	jal d2126 <Ab_printf_init>
   c89e2:	4e 82 00 2e 	beqz $r8,c8a3e <AB_BSP_initEx+0x1c4>
   c89e6:	84 00       	movi55 $r0,#0
   c89e8:	49 00 4c e5 	jal d23b2 <AB_SECTOR_GetMpParameter>
   c89ec:	80 c0       	mov55 $r6,$r0
   c89ee:	49 fd bd 9f 	jal 8052c <AB_SECTOR_GetCfgParameter>
   c89f2:	80 80       	mov55 $r4,$r0
   c89f4:	ce 04       	bnez38 $r6,c89fc <AB_BSP_initEx+0x182>
   c89f6:	80 66       	mov55 $r3,$r6
   c89f8:	80 46       	mov55 $r2,$r6
   c89fa:	d5 05       	j8 c8a04 <AB_BSP_initEx+0x18a>
   c89fc:	50 33 01 58 	addi $r3,$r6,#344
   c8a00:	50 23 01 c7 	addi $r2,$r6,#455
   c8a04:	b0 45       	addri36.sp $r1,#0x14
   c8a06:	f2 88       	swi37.sp $r2,[+#0x20]
   c8a08:	04 24 00 02 	lwi $r2,[$r8+#0x8]
   c8a0c:	04 04 00 03 	lwi $r0,[$r8+#0xc]
   c8a10:	f2 89       	swi37.sp $r2,[+#0x24]
   c8a12:	b4 48       	lwi450 $r2,[$r8]
   c8a14:	f0 8a       	swi37.sp $r0,[+#0x28]
   c8a16:	3c 2f f2 8b 	swi.gp $r2,[+#-13780]
   c8a1a:	00 24 00 05 	lbi $r2,[$r8+#0x5]
   c8a1e:	3e 27 ca 30 	sbi.gp $r2,[+#-13776]
   c8a22:	00 24 00 06 	lbi $r2,[$r8+#0x6]
   c8a26:	f6 85       	swi37.sp $r6,[+#0x14]
   c8a28:	3e 27 ca 31 	sbi.gp $r2,[+#-13775]
   c8a2c:	f4 86       	swi37.sp $r4,[+#0x18]
   c8a2e:	f3 87       	swi37.sp $r3,[+#0x1c]
   c8a30:	3e 0c 4b 78 	addi.gp $r0,#-242824
   c8a34:	00 34 00 04 	lbi $r3,[$r8+#0x4]
   c8a38:	84 46       	movi55 $r2,#6
   c8a3a:	49 00 0b 8a 	jal ca14e <BT_InitEx2>
   c8a3e:	4e 92 00 39 	beqz $r9,c8ab0 <AB_BSP_initEx+0x236>
   c8a42:	04 14 80 01 	lwi $r1,[$r9+#0x4]
   c8a46:	c1 05       	beqz38 $r1,c8a50 <AB_BSP_initEx+0x1d6>
   c8a48:	80 01       	mov55 $r0,$r1
   c8a4a:	84 21       	movi55 $r1,#1
   c8a4c:	49 00 54 a0 	jal d338c <DRV_Gpio_DirSet>
   c8a50:	b4 29       	lwi450 $r1,[$r9]
   c8a52:	c1 05       	beqz38 $r1,c8a5c <AB_BSP_initEx+0x1e2>
   c8a54:	80 01       	mov55 $r0,$r1
   c8a56:	84 21       	movi55 $r1,#1
   c8a58:	49 00 54 ab 	jal d33ae <DRV_Gpio_ValSet>
   c8a5c:	04 14 80 02 	lwi $r1,[$r9+#0x8]
   c8a60:	c1 05       	beqz38 $r1,c8a6a <AB_BSP_initEx+0x1f0>
   c8a62:	80 01       	mov55 $r0,$r1
   c8a64:	84 20       	movi55 $r1,#0
   c8a66:	49 00 54 c2 	jal d33ea <DRV_Gpio_PullSet>
   c8a6a:	04 14 80 03 	lwi $r1,[$r9+#0xc]
   c8a6e:	c1 05       	beqz38 $r1,c8a78 <AB_BSP_initEx+0x1fe>
   c8a70:	80 01       	mov55 $r0,$r1
   c8a72:	84 22       	movi55 $r1,#2
   c8a74:	49 00 54 bb 	jal d33ea <DRV_Gpio_PullSet>
   c8a78:	8d 30       	addi45 $r9,#16
   c8a7a:	85 00       	movi55 $r8,#0
   c8a7c:	b4 c9       	lwi450 $r6,[$r9]
   c8a7e:	c6 13       	beqz38 $r6,c8aa4 <AB_BSP_initEx+0x22a>
   c8a80:	84 e0       	movi55 $r7,#0
   c8a82:	96 34       	xlsb33 $r0,$r6
   c8a84:	c0 0b       	beqz38 $r0,c8a9a <AB_BSP_initEx+0x220>
   c8a86:	04 14 80 01 	lwi $r1,[$r9+#0x4]
   c8a8a:	04 24 80 02 	lwi $r2,[$r9+#0x8]
   c8a8e:	80 07       	mov55 $r0,$r7
   c8a90:	49 00 54 f7 	jal d347e <DRV_Gpio_IntReg>
   c8a94:	80 07       	mov55 $r0,$r7
   c8a96:	49 00 54 db 	jal d344c <DRV_Gpio_IntEn>
   c8a9a:	92 c1       	srli45 $r6,#1
   c8a9c:	c6 04       	beqz38 $r6,c8aa4 <AB_BSP_initEx+0x22a>
   c8a9e:	9d f9       	addi333 $r7,$r7,#1
   c8aa0:	97 f8       	zeb33 $r7,$r7
   c8aa2:	d5 f0       	j8 c8a82 <AB_BSP_initEx+0x208>
   c8aa4:	8d 01       	addi45 $r8,#1
   c8aa6:	54 84 00 ff 	andi $r8,$r8,#0xff
   c8aaa:	8d 2c       	addi45 $r9,#12
   c8aac:	5a 88 0a e8 	bnec $r8,#10,c8a7c <AB_BSP_initEx+0x202>
   c8ab0:	f0 03       	lwi37.sp $r0,[+#0xc]
   c8ab2:	fc cb       	pop25 $r10,#0x58    ! {$r6~$r10, $fp, $gp, $lp}

000c8ab4 <uart1_rx_ind>:
   c8ab4:	fc 47       	push25 $r10,#0x38    ! {$r6~$r10, $fp, $gp, $lp}
   c8ab6:	3c 1d f2 89 	lwi.gp $r1,[+#-13788]
   c8aba:	96 01       	zeh33 $r0,$r0
   c8abc:	c1 02       	beqz38 $r1,c8ac0 <uart1_rx_ind+0xc>
   c8abe:	dd 21       	jral5 $r1
   c8ac0:	3c 0d f1 97 	lwi.gp $r0,[+#-14756]
   c8ac4:	c0 14       	beqz38 $r0,c8aec <uart1_rx_ind+0x38>
   c8ac6:	3c 0d f1 98 	lwi.gp $r0,[+#-14752]
   c8aca:	c0 11       	beqz38 $r0,c8aec <uart1_rx_ind+0x38>
   c8acc:	d5 19       	j8 c8afe <uart1_rx_ind+0x4a>
   c8ace:	3c 0d f1 97 	lwi.gp $r0,[+#-14756]
   c8ad2:	c8 04       	bnez38 $r0,c8ada <uart1_rx_ind+0x26>
   c8ad4:	fd 03       	movd44 $r0,$r6
   c8ad6:	49 00 3d 23 	jal d051c <AB_console_handle>
   c8ada:	3c 0d f1 98 	lwi.gp $r0,[+#-14752]
   c8ade:	c8 08       	bnez38 $r0,c8aee <uart1_rx_ind+0x3a>
   c8ae0:	fd 03       	movd44 $r0,$r6
   c8ae2:	3e 2c 4b 54 	addi.gp $r2,#-242860
   c8ae6:	49 00 4f 75 	jal d29d0 <ab_airoha_vcmd_dispatch>
   c8aea:	d5 02       	j8 c8aee <uart1_rx_ind+0x3a>
   c8aec:	b1 81       	addri36.sp $r6,#0x4
   c8aee:	84 00       	movi55 $r0,#0
   c8af0:	80 26       	mov55 $r1,$r6
   c8af2:	44 20 00 32 	movi $r2,#50
   c8af6:	49 ff fc e2 	jal c84ba <AB_UART_Read>
   c8afa:	80 e0       	mov55 $r7,$r0
   c8afc:	c8 e9       	bnez38 $r0,c8ace <uart1_rx_ind+0x1a>
   c8afe:	fc c7       	pop25 $r10,#0x38    ! {$r6~$r10, $fp, $gp, $lp}

000c8b00 <uart2_rx_ind>:
   c8b00:	fc 47       	push25 $r10,#0x38    ! {$r6~$r10, $fp, $gp, $lp}
   c8b02:	3c 1d f2 8a 	lwi.gp $r1,[+#-13784]
   c8b06:	96 01       	zeh33 $r0,$r0
   c8b08:	c1 02       	beqz38 $r1,c8b0c <uart2_rx_ind+0xc>
   c8b0a:	dd 21       	jral5 $r1
   c8b0c:	3c 0d f1 97 	lwi.gp $r0,[+#-14756]
   c8b10:	5a 00 01 18 	beqc $r0,#1,c8b40 <uart2_rx_ind+0x40>
   c8b14:	3c 0d f1 98 	lwi.gp $r0,[+#-14752]
   c8b18:	5a 08 01 1d 	bnec $r0,#1,c8b52 <uart2_rx_ind+0x52>
   c8b1c:	d5 12       	j8 c8b40 <uart2_rx_ind+0x40>
   c8b1e:	3c 0d f1 97 	lwi.gp $r0,[+#-14756]
   c8b22:	5a 08 01 05 	bnec $r0,#1,c8b2c <uart2_rx_ind+0x2c>
   c8b26:	fd 03       	movd44 $r0,$r6
   c8b28:	49 00 3c fa 	jal d051c <AB_console_handle>
   c8b2c:	3c 0d f1 98 	lwi.gp $r0,[+#-14752]
   c8b30:	5a 08 01 09 	bnec $r0,#1,c8b42 <uart2_rx_ind+0x42>
   c8b34:	fd 03       	movd44 $r0,$r6
   c8b36:	3e 2c 4b 54 	addi.gp $r2,#-242860
   c8b3a:	49 00 4f 4b 	jal d29d0 <ab_airoha_vcmd_dispatch>
   c8b3e:	d5 02       	j8 c8b42 <uart2_rx_ind+0x42>
   c8b40:	b1 81       	addri36.sp $r6,#0x4
   c8b42:	84 01       	movi55 $r0,#1
   c8b44:	80 26       	mov55 $r1,$r6
   c8b46:	44 20 00 32 	movi $r2,#50
   c8b4a:	49 ff fc b8 	jal c84ba <AB_UART_Read>
   c8b4e:	80 e0       	mov55 $r7,$r0
   c8b50:	c8 e7       	bnez38 $r0,c8b1e <uart2_rx_ind+0x1e>
   c8b52:	fc c7       	pop25 $r10,#0x38    ! {$r6~$r10, $fp, $gp, $lp}

000c8b54 <bsp_mp_uart_tx>:
   c8b54:	fc 00       	push25 $r6,#0x0    ! {$r6, $fp, $gp, $lp}
   c8b56:	80 60       	mov55 $r3,$r0
   c8b58:	3c 0d f1 98 	lwi.gp $r0,[+#-14752]
   c8b5c:	96 88       	zeb33 $r2,$r1
   c8b5e:	80 23       	mov55 $r1,$r3
   c8b60:	49 ff fd 6a 	jal c8634 <AB_UART_Write>
   c8b64:	fc 80       	pop25 $r6,#0x0    ! {$r6, $fp, $gp, $lp}

000c8b66 <bsp_console_uart_tx>:
   c8b66:	fc 00       	push25 $r6,#0x0    ! {$r6, $fp, $gp, $lp}
   c8b68:	80 60       	mov55 $r3,$r0
   c8b6a:	3c 0d f1 97 	lwi.gp $r0,[+#-14756]
   c8b6e:	96 89       	zeh33 $r2,$r1
   c8b70:	80 23       	mov55 $r1,$r3
   c8b72:	49 ff fd 61 	jal c8634 <AB_UART_Write>
   c8b76:	fc 80       	pop25 $r6,#0x0    ! {$r6, $fp, $gp, $lp}

000c8b78 <bsp_bt_event_hanlder>:
   c8b78:	fc 00       	push25 $r6,#0x0    ! {$r6, $fp, $gp, $lp}
   c8b7a:	80 c0       	mov55 $r6,$r0
   c8b7c:	b4 00       	lwi450 $r0,[$r0]
   c8b7e:	c8 14       	bnez38 $r0,c8ba6 <bsp_bt_event_hanlder+0x2e>
   c8b80:	3c 0d f1 98 	lwi.gp $r0,[+#-14752]
   c8b84:	5a 00 02 11 	beqc $r0,#2,c8ba6 <bsp_bt_event_hanlder+0x2e>
   c8b88:	2e 07 ca 31 	lbi.gp $r0,[+#-13775]
   c8b8c:	c0 03       	beqz38 $r0,c8b92 <bsp_bt_event_hanlder+0x1a>
   c8b8e:	49 00 4d cd 	jal d2728 <ab_airoha_vcmd_Bdie_reset_enable>
   c8b92:	2e 07 ca 30 	lbi.gp $r0,[+#-13776]
   c8b96:	c0 06       	beqz38 $r0,c8ba2 <bsp_bt_event_hanlder+0x2a>
   c8b98:	3e 0c 4b 54 	addi.gp $r0,#-242860
   c8b9c:	49 00 50 45 	jal d2c26 <ab_airoha_vcmd_uart_hci_mode_enable>
   c8ba0:	d5 03       	j8 c8ba6 <bsp_bt_event_hanlder+0x2e>
   c8ba2:	49 00 50 26 	jal d2bee <ab_airoha_vcmd_enable>
   c8ba6:	3c 1d f2 8b 	lwi.gp $r1,[+#-13780]
   c8baa:	c1 03       	beqz38 $r1,c8bb0 <bsp_bt_event_hanlder+0x38>
   c8bac:	80 06       	mov55 $r0,$r6
   c8bae:	dd 21       	jral5 $r1
   c8bb0:	fc 80       	pop25 $r6,#0x0    ! {$r6, $fp, $gp, $lp}

000c8bb2 <hci_spi1602_check_data>:
   c8bb2:	fc 21       	push25 $r8,#0x8    ! {$r6~$r8, $fp, $gp, $lp}
   c8bb4:	3c 63 e3 5b 	lhi.gp $r6,[+#-14666]
   c8bb8:	ce 10       	bnez38 $r6,c8bd8 <hci_spi1602_check_data+0x26>
   c8bba:	44 10 00 51 	movi $r1,#81
   c8bbe:	84 45       	movi55 $r2,#5
   c8bc0:	80 1f       	mov55 $r0,$sp
   c8bc2:	49 ff fa 63 	jal c8088 <memset>
   c8bc6:	84 01       	movi55 $r0,#1
   c8bc8:	80 3f       	mov55 $r1,$sp
   c8bca:	80 46       	mov55 $r2,$r6
   c8bcc:	84 65       	movi55 $r3,#5
   c8bce:	3e 4c 4c 1c 	addi.gp $r4,#-242660
   c8bd2:	80 ff       	mov55 $r7,$sp
   c8bd4:	49 00 4c c4 	jal d255c <AB_SPI_WriteAndRead>
   c8bd8:	fc a1       	pop25 $r8,#0x8    ! {$r6~$r8, $fp, $gp, $lp}

000c8bda <hci_spi1602_read_data>:
   c8bda:	fc 01       	push25 $r6,#0x8    ! {$r6, $fp, $gp, $lp}
   c8bdc:	3c 33 e3 5a 	lhi.gp $r3,[+#-14668]
   c8be0:	97 01       	zeh33 $r4,$r0
   c8be2:	e2 64       	slt45 $r3,$r4
   c8be4:	e9 1a       	bnezs8 c8c18 <hci_spi1602_read_data+0x3e>
   c8be6:	c4 19       	beqz38 $r4,c8c18 <hci_spi1602_read_data+0x3e>
   c8be8:	3c 53 e3 5b 	lhi.gp $r5,[+#-14666]
   c8bec:	9a dc       	sub333 $r3,$r3,$r4
   c8bee:	99 65       	add333 $r5,$r4,$r5
   c8bf0:	3c 5b e3 5b 	shi.gp $r5,[+#-14666]
   c8bf4:	44 00 00 52 	movi $r0,#82
   c8bf8:	10 0f 80 07 	sbi $r0,[$sp+#0x7]
   c8bfc:	3c 3b e3 5a 	shi.gp $r3,[+#-14668]
   c8c00:	3c 1f f1 9a 	swi.gp $r1,[+#-14744]
   c8c04:	84 01       	movi55 $r0,#1
   c8c06:	50 1f 80 07 	addi $r1,$sp,#7
   c8c0a:	80 40       	mov55 $r2,$r0
   c8c0c:	84 60       	movi55 $r3,#0
   c8c0e:	3e 5c 4c f2 	addi.gp $r5,#-242446
   c8c12:	49 00 4c d4 	jal d25ba <AB_SPI_WriteThenRead>
   c8c16:	d5 02       	j8 c8c1a <hci_spi1602_read_data+0x40>
   c8c18:	84 00       	movi55 $r0,#0
   c8c1a:	fc 81       	pop25 $r6,#0x8    ! {$r6, $fp, $gp, $lp}

000c8c1c <read_trxlen_compl_int>:
   c8c1c:	fc 20       	push25 $r8,#0x0    ! {$r6~$r8, $fp, $gp, $lp}
   c8c1e:	96 49       	zeh33 $r1,$r1
   c8c20:	80 c0       	mov55 $r6,$r0
   c8c22:	5a 10 05 0a 	beqc $r1,#5,c8c36 <read_trxlen_compl_int+0x1a>
   c8c26:	3e 0d 2f c4 	addi.gp $r0,#-184380
   c8c2a:	44 10 00 67 	movi $r1,#103
   c8c2e:	3e 2d 2f d0 	addi.gp $r2,#-184368
   c8c32:	49 00 42 90 	jal d1152 <assert_ab_callback_verbose>
   c8c36:	a6 74       	lbi333 $r1,[$r6+#0x4]
   c8c38:	a6 33       	lbi333 $r0,[$r6+#0x3]
   c8c3a:	40 10 a0 08 	slli $r1,$r1,#8
   c8c3e:	98 48       	add333 $r1,$r1,$r0
   c8c40:	3c 1b e3 5c 	shi.gp $r1,[+#-14664]
   c8c44:	a6 70       	lbi333 $r1,[$r6+#0x0]
   c8c46:	96 4e       	bmski33 $r1,#0x1
   c8c48:	c1 06       	beqz38 $r1,c8c54 <read_trxlen_compl_int+0x38>
   c8c4a:	a6 72       	lbi333 $r1,[$r6+#0x2]
   c8c4c:	a6 b1       	lbi333 $r2,[$r6+#0x1]
   c8c4e:	40 10 a0 08 	slli $r1,$r1,#8
   c8c52:	98 4a       	add333 $r1,$r1,$r2
   c8c54:	3c 1b e3 5a 	shi.gp $r1,[+#-14668]
   c8c58:	3c 13 e3 5a 	lhi.gp $r1,[+#-14668]
   c8c5c:	3c 03 e3 5b 	lhi.gp $r0,[+#-14666]
   c8c60:	e2 20       	slt45 $r1,$r0
   c8c62:	e8 09       	beqzs8 c8c74 <read_trxlen_compl_int+0x58>
   c8c64:	3e 0d 30 00 	addi.gp $r0,#-184320
   c8c68:	44 10 00 71 	movi $r1,#113
   c8c6c:	3e 2d 2f d0 	addi.gp $r2,#-184368
   c8c70:	49 00 42 71 	jal d1152 <assert_ab_callback_verbose>
   c8c74:	3c 33 e3 5a 	lhi.gp $r3,[+#-14668]
   c8c78:	3c 13 e3 5b 	lhi.gp $r1,[+#-14666]
   c8c7c:	9a 59       	sub333 $r1,$r3,$r1
   c8c7e:	3c 1b e3 5a 	shi.gp $r1,[+#-14668]
   c8c82:	d5 22       	j8 c8cc6 <read_trxlen_compl_int+0xaa>
   c8c84:	3c 0d f1 9c 	lwi.gp $r0,[+#-14736]
   c8c88:	49 00 4b 47 	jal d2316 <AB_queue_pop>
   c8c8c:	80 c0       	mov55 $r6,$r0
   c8c8e:	a4 00       	lhi333 $r0,[$r0+#0x0]
   c8c90:	3c 13 e3 5c 	lhi.gp $r1,[+#-14664]
   c8c94:	9c 81       	addi333 $r2,$r0,#1
   c8c96:	e0 41       	slts45 $r2,$r1
   c8c98:	e8 11       	beqzs8 c8cba <read_trxlen_compl_int+0x9e>
   c8c9a:	9a 08       	sub333 $r0,$r1,$r0
   c8c9c:	84 60       	movi55 $r3,#0
   c8c9e:	3c 0b e3 5c 	shi.gp $r0,[+#-14664]
   c8ca2:	9c 72       	addi333 $r1,$r6,#2
   c8ca4:	96 91       	zeh33 $r2,$r2
   c8ca6:	80 83       	mov55 $r4,$r3
   c8ca8:	3e 5c 4c e4 	addi.gp $r5,#-242460
   c8cac:	84 01       	movi55 $r0,#1
   c8cae:	49 00 4c 86 	jal d25ba <AB_SPI_WriteThenRead>
   c8cb2:	80 06       	mov55 $r0,$r6
   c8cb4:	49 00 4b 4a 	jal d2348 <AB_queue_entry_free>
   c8cb8:	d5 07       	j8 c8cc6 <read_trxlen_compl_int+0xaa>
   c8cba:	3c 0d f1 9c 	lwi.gp $r0,[+#-14736]
   c8cbe:	80 26       	mov55 $r1,$r6
   c8cc0:	49 00 4b 11 	jal d22e2 <AB_queue_push_front>
   c8cc4:	d5 06       	j8 c8cd0 <read_trxlen_compl_int+0xb4>
   c8cc6:	3c 0d f1 9c 	lwi.gp $r0,[+#-14736]
   c8cca:	49 00 4b 33 	jal d2330 <AB_queue_count>
   c8cce:	c8 db       	bnez38 $r0,c8c84 <read_trxlen_compl_int+0x68>
   c8cd0:	3c 3d f1 99 	lwi.gp $r3,[+#-14748]
   c8cd4:	3c 0d f1 9b 	lwi.gp $r0,[+#-14740]
   c8cd8:	3c 13 e3 5c 	lhi.gp $r1,[+#-14664]
   c8cdc:	3c 23 e3 5a 	lhi.gp $r2,[+#-14668]
   c8ce0:	dd 23       	jral5 $r3
   c8ce2:	fc a0       	pop25 $r8,#0x0    ! {$r6~$r8, $fp, $gp, $lp}

000c8ce4 <send_tx_compl_int>:
   c8ce4:	fc 00       	push25 $r6,#0x0    ! {$r6, $fp, $gp, $lp}
   c8ce6:	49 00 36 35 	jal cf950 <Drv_1602DataReady>
   c8cea:	c0 03       	beqz38 $r0,c8cf0 <send_tx_compl_int+0xc>
   c8cec:	49 ff ff 63 	jal c8bb2 <hci_spi1602_check_data>
   c8cf0:	fc 80       	pop25 $r6,#0x0    ! {$r6, $fp, $gp, $lp}

000c8cf2 <read_rx_compl_int>:
   c8cf2:	fc 20       	push25 $r8,#0x0    ! {$r6~$r8, $fp, $gp, $lp}
   c8cf4:	80 e0       	mov55 $r7,$r0
   c8cf6:	3c 03 e3 5b 	lhi.gp $r0,[+#-14666]
   c8cfa:	97 89       	zeh33 $r6,$r1
   c8cfc:	9a 06       	sub333 $r0,$r0,$r6
   c8cfe:	3c 0b e3 5b 	shi.gp $r0,[+#-14666]
   c8d02:	49 00 36 27 	jal cf950 <Drv_1602DataReady>
   c8d06:	c0 03       	beqz38 $r0,c8d0c <read_rx_compl_int+0x1a>
   c8d08:	49 ff ff 55 	jal c8bb2 <hci_spi1602_check_data>
   c8d0c:	3c 3d f1 9a 	lwi.gp $r3,[+#-14744]
   c8d10:	3c 0d f1 9b 	lwi.gp $r0,[+#-14740]
   c8d14:	80 27       	mov55 $r1,$r7
   c8d16:	80 46       	mov55 $r2,$r6
   c8d18:	dd 23       	jral5 $r3
   c8d1a:	fc a0       	pop25 $r8,#0x0    ! {$r6~$r8, $fp, $gp, $lp}

000c8d1c <data_ready_int>:
   c8d1c:	fc 00       	push25 $r6,#0x0    ! {$r6, $fp, $gp, $lp}
   c8d1e:	49 00 36 19 	jal cf950 <Drv_1602DataReady>
   c8d22:	c0 03       	beqz38 $r0,c8d28 <data_ready_int+0xc>
   c8d24:	49 ff ff 47 	jal c8bb2 <hci_spi1602_check_data>
   c8d28:	fc 80       	pop25 $r6,#0x0    ! {$r6, $fp, $gp, $lp}

000c8d2a <hci_spi1602_send_data>:
   c8d2a:	fc 40       	push25 $r10,#0x0    ! {$r6~$r10, $fp, $gp, $lp}
   c8d2c:	81 40       	mov55 $r10,$r0
   c8d2e:	3c 0d f1 9c 	lwi.gp $r0,[+#-14736]
   c8d32:	97 89       	zeh33 $r6,$r1
   c8d34:	49 00 4a fe 	jal d2330 <AB_queue_count>
   c8d38:	81 20       	mov55 $r9,$r0
   c8d3a:	c8 07       	bnez38 $r0,c8d48 <hci_spi1602_send_data+0x1e>
   c8d3c:	3c 13 e3 5c 	lhi.gp $r1,[+#-14664]
   c8d40:	50 83 00 01 	addi $r8,$r6,#1
   c8d44:	e1 01       	slts45 $r8,$r1
   c8d46:	e9 17       	bnezs8 c8d74 <hci_spi1602_send_data+0x4a>
   c8d48:	9c 34       	addi333 $r0,$r6,#4
   c8d4a:	49 00 4b 19 	jal d237c <AB_queue_entry_alloc>
   c8d4e:	80 e0       	mov55 $r7,$r0
   c8d50:	ad 80       	shi333 $r6,[$r0+#0x0]
   c8d52:	44 0f ff a2 	movi $r0,#-94
   c8d56:	ae 3a       	sbi333 $r0,[$r7+#0x2]
   c8d58:	80 46       	mov55 $r2,$r6
   c8d5a:	80 2a       	mov55 $r1,$r10
   c8d5c:	9c 3b       	addi333 $r0,$r7,#3
   c8d5e:	49 ff f9 75 	jal c8048 <memcpy>
   c8d62:	3c 0d f1 9c 	lwi.gp $r0,[+#-14736]
   c8d66:	80 27       	mov55 $r1,$r7
   c8d68:	49 00 4a a3 	jal d22ae <AB_queue_push>
   c8d6c:	84 c0       	movi55 $r6,#0
   c8d6e:	49 ff ff 22 	jal c8bb2 <hci_spi1602_check_data>
   c8d72:	d5 20       	j8 c8db2 <hci_spi1602_send_data+0x88>
   c8d74:	9a 4e       	sub333 $r1,$r1,$r6
   c8d76:	3c 1b e3 5c 	shi.gp $r1,[+#-14664]
   c8d7a:	80 08       	mov55 $r0,$r8
   c8d7c:	49 00 49 64 	jal d2044 <malloc>
   c8d80:	80 80       	mov55 $r4,$r0
   c8d82:	80 e0       	mov55 $r7,$r0
   c8d84:	44 0f ff a2 	movi $r0,#-94
   c8d88:	18 02 00 01 	sbi.bi $r0,[$r4],#0x1
   c8d8c:	80 46       	mov55 $r2,$r6
   c8d8e:	80 04       	mov55 $r0,$r4
   c8d90:	80 2a       	mov55 $r1,$r10
   c8d92:	49 ff f9 5b 	jal c8048 <memcpy>
   c8d96:	84 01       	movi55 $r0,#1
   c8d98:	80 27       	mov55 $r1,$r7
   c8d9a:	40 24 00 13 	zeh $r2,$r8
   c8d9e:	80 69       	mov55 $r3,$r9
   c8da0:	80 89       	mov55 $r4,$r9
   c8da2:	3e 5c 4c e4 	addi.gp $r5,#-242460
   c8da6:	49 00 4c 0a 	jal d25ba <AB_SPI_WriteThenRead>
   c8daa:	80 c0       	mov55 $r6,$r0
   c8dac:	80 07       	mov55 $r0,$r7
   c8dae:	49 00 48 e6 	jal d1f7a <free>
   c8db2:	80 06       	mov55 $r0,$r6
   c8db4:	fc c0       	pop25 $r10,#0x0    ! {$r6~$r10, $fp, $gp, $lp}

000c8db6 <hci_spi1602_deinit>:
   c8db6:	fc 00       	push25 $r6,#0x0    ! {$r6, $fp, $gp, $lp}
   c8db8:	84 00       	movi55 $r0,#0
   c8dba:	49 00 35 d2 	jal cf95e <Drv_1602DataReadyIntEn>
   c8dbe:	84 20       	movi55 $r1,#0
   c8dc0:	3c 1f f1 99 	swi.gp $r1,[+#-14748]
   c8dc4:	84 01       	movi55 $r0,#1
   c8dc6:	49 00 4c 2f 	jal d2624 <AB_SPI_Close>
   c8dca:	3c 0d f1 9c 	lwi.gp $r0,[+#-14736]
   c8dce:	c0 03       	beqz38 $r0,c8dd4 <hci_spi1602_deinit+0x1e>
   c8dd0:	49 00 4a c9 	jal d2362 <AB_queue_free>
   c8dd4:	fc 80       	pop25 $r6,#0x0    ! {$r6, $fp, $gp, $lp}

000c8dd6 <hci_spi1602_init>:
   c8dd6:	fc 22       	push25 $r8,#0x10    ! {$r6~$r8, $fp, $gp, $lp}
   c8dd8:	80 e0       	mov55 $r7,$r0
   c8dda:	3c 6d f1 99 	lwi.gp $r6,[+#-14748]
   c8dde:	81 01       	mov55 $r8,$r1
   c8de0:	ce 20       	bnez38 $r6,c8e20 <hci_spi1602_init+0x4a>
   c8de2:	46 20 01 e8 	sethi $r2,#0x1e8
   c8de6:	b0 41       	addri36.sp $r1,#0x4
   c8de8:	58 21 04 80 	ori $r2,$r2,#0x480
   c8dec:	f2 81       	swi37.sp $r2,[+#0x4]
   c8dee:	f6 82       	swi37.sp $r6,[+#0x8]
   c8df0:	84 01       	movi55 $r0,#1
   c8df2:	49 00 4c 2f 	jal d2650 <AB_SPI_Open>
   c8df6:	84 01       	movi55 $r0,#1
   c8df8:	49 00 35 f4 	jal cf9e0 <Drv_1602Reset>
   c8dfc:	84 0a       	movi55 $r0,#10
   c8dfe:	49 fd bd 45 	jal 80888 <OS_delay_us>
   c8e02:	80 06       	mov55 $r0,$r6
   c8e04:	49 00 35 ee 	jal cf9e0 <Drv_1602Reset>
   c8e08:	84 0a       	movi55 $r0,#10
   c8e0a:	49 fd bd 3f 	jal 80888 <OS_delay_us>
   c8e0e:	3e 1c 4d 1c 	addi.gp $r1,#-242404
   c8e12:	80 06       	mov55 $r0,$r6
   c8e14:	49 00 35 b6 	jal cf980 <Drv_1602DataReadyIntReg>
   c8e18:	49 00 4a be 	jal d2394 <AB_queue_alloc>
   c8e1c:	3c 0f f1 9c 	swi.gp $r0,[+#-14736]
   c8e20:	3c 8f f1 99 	swi.gp $r8,[+#-14748]
   c8e24:	3c 7f f1 9b 	swi.gp $r7,[+#-14740]
   c8e28:	fc a2       	pop25 $r8,#0x10    ! {$r6~$r8, $fp, $gp, $lp}

000c8e2a <uart_rx_data_ind>:
   c8e2a:	fc 00       	push25 $r6,#0x0    ! {$r6, $fp, $gp, $lp}
   c8e2c:	84 01       	movi55 $r0,#1
   c8e2e:	49 00 58 32 	jal d3e92 <DRV_TMR32B0_NotifyDisable>
   c8e32:	d5 13       	j8 c8e58 <uart_rx_data_ind+0x2e>
   c8e34:	49 00 09 89 	jal ca146 <BT_Pending_TxCnt>
   c8e38:	5c f0 03 e9 	slti $r15,$r0,#1001
   c8e3c:	e9 04       	bnezs8 c8e44 <uart_rx_data_ind+0x1a>
   c8e3e:	84 01       	movi55 $r0,#1
   c8e40:	84 2a       	movi55 $r1,#10
   c8e42:	d5 18       	j8 c8e72 <uart_rx_data_ind+0x48>
   c8e44:	3c 23 e3 3c 	lhi.gp $r2,[+#-14728]
   c8e48:	84 01       	movi55 $r0,#1
   c8e4a:	3e 1f c7 90 	addi.gp $r1,#-14448
   c8e4e:	49 ff fb 36 	jal c84ba <AB_UART_Read>
   c8e52:	c0 03       	beqz38 $r0,c8e58 <uart_rx_data_ind+0x2e>
   c8e54:	49 00 02 01 	jal c9256 <TRSPX_send>
   c8e58:	84 01       	movi55 $r0,#1
   c8e5a:	49 ff fb 1f 	jal c8498 <AB_UART_RxRecidue>
   c8e5e:	3c 1d f1 9e 	lwi.gp $r1,[+#-14728]
   c8e62:	e2 20       	slt45 $r1,$r0
   c8e64:	e9 e8       	bnezs8 c8e34 <uart_rx_data_ind+0xa>
   c8e66:	84 01       	movi55 $r0,#1
   c8e68:	49 ff fb 18 	jal c8498 <AB_UART_RxRecidue>
   c8e6c:	c0 09       	beqz38 $r0,c8e7e <uart_rx_data_ind+0x54>
   c8e6e:	84 01       	movi55 $r0,#1
   c8e70:	84 22       	movi55 $r1,#2
   c8e72:	80 40       	mov55 $r2,$r0
   c8e74:	84 60       	movi55 $r3,#0
   c8e76:	3e 4c 4e 80 	addi.gp $r4,#-242048
   c8e7a:	49 00 57 b4 	jal d3de2 <DRV_TMR32B0_NotifyEnable>
   c8e7e:	fc 80       	pop25 $r6,#0x0    ! {$r6, $fp, $gp, $lp}

000c8e80 <uart_rx_timer>:
   c8e80:	fc 00       	push25 $r6,#0x0    ! {$r6, $fp, $gp, $lp}
   c8e82:	d5 1a       	j8 c8eb6 <uart_rx_timer+0x36>
   c8e84:	49 00 09 61 	jal ca146 <BT_Pending_TxCnt>
   c8e88:	5c f0 03 e9 	slti $r15,$r0,#1001
   c8e8c:	e9 04       	bnezs8 c8e94 <uart_rx_timer+0x14>
   c8e8e:	84 01       	movi55 $r0,#1
   c8e90:	84 2a       	movi55 $r1,#10
   c8e92:	d5 18       	j8 c8ec2 <uart_rx_timer+0x42>
   c8e94:	3c 23 e3 3c 	lhi.gp $r2,[+#-14728]
   c8e98:	3e 1f c7 90 	addi.gp $r1,#-14448
   c8e9c:	84 01       	movi55 $r0,#1
   c8e9e:	49 ff fb 0e 	jal c84ba <AB_UART_Read>
   c8ea2:	49 00 01 da 	jal c9256 <TRSPX_send>
   c8ea6:	84 01       	movi55 $r0,#1
   c8ea8:	49 ff fa f8 	jal c8498 <AB_UART_RxRecidue>
   c8eac:	c0 11       	beqz38 $r0,c8ece <uart_rx_timer+0x4e>
   c8eae:	3c 1d f1 9e 	lwi.gp $r1,[+#-14728]
   c8eb2:	e2 01       	slt45 $r0,$r1
   c8eb4:	e9 05       	bnezs8 c8ebe <uart_rx_timer+0x3e>
   c8eb6:	84 01       	movi55 $r0,#1
   c8eb8:	49 ff fa f0 	jal c8498 <AB_UART_RxRecidue>
   c8ebc:	c8 e4       	bnez38 $r0,c8e84 <uart_rx_timer+0x4>
   c8ebe:	84 01       	movi55 $r0,#1
   c8ec0:	84 22       	movi55 $r1,#2
   c8ec2:	80 40       	mov55 $r2,$r0
   c8ec4:	84 60       	movi55 $r3,#0
   c8ec6:	3e 4c 4e 80 	addi.gp $r4,#-242048
   c8eca:	49 00 57 8c 	jal d3de2 <DRV_TMR32B0_NotifyEnable>
   c8ece:	fc 80       	pop25 $r6,#0x0    ! {$r6, $fp, $gp, $lp}

000c8ed0 <main>:
   c8ed0:	fc 24       	push25 $r8,#0x20    ! {$r6~$r8, $fp, $gp, $lp}
   c8ed2:	49 00 4c 34 	jal d273a <ab_airoha_vcmd_mp_ongoing>
   c8ed6:	80 c0       	mov55 $r6,$r0
   c8ed8:	80 1f       	mov55 $r0,$sp
   c8eda:	c6 11       	beqz38 $r6,c8efc <main+0x2c>
   c8edc:	3e 1f c0 f4 	addi.gp $r1,#-16140
   c8ee0:	3e 2f ca 38 	addi.gp $r2,#-13768
   c8ee4:	a0 cb       	lwi333 $r3,[$r1+#0xc]
   c8ee6:	a8 8c       	swi333 $r2,[$r1+#0x10]
   c8ee8:	84 40       	movi55 $r2,#0
   c8eea:	b6 43       	swi450 $r2,[$r3]
   c8eec:	a0 cd       	lwi333 $r3,[$r1+#0x14]
   c8eee:	a8 89       	swi333 $r2,[$r1+#0x4]
   c8ef0:	a8 9a       	swi333 $r2,[$r3+#0x8]
   c8ef2:	10 21 80 14 	sbi $r2,[$r3+#0x14]
   c8ef6:	49 ff fc c2 	jal c887a <AB_BSP_initEx>
   c8efa:	d5 00       	j8 c8efa <main+0x2a>
   c8efc:	3e 1f c0 f4 	addi.gp $r1,#-16140
   c8f00:	49 ff fc bd 	jal c887a <AB_BSP_initEx>
   c8f04:	84 05       	movi55 $r0,#5
   c8f06:	49 00 5c ab 	jal d485c <DRV_WDT_Enable>
   c8f0a:	49 00 01 08 	jal c911a <TRSPX_init>
   c8f0e:	fa 0f       	movpi45 $r0,#0x1f
   c8f10:	49 00 58 04 	jal d3f18 <DRV_TMR32B0_Enable>
   c8f14:	3e 0d 30 34 	addi.gp $r0,#-184268
   c8f18:	49 00 61 21 	jal d515a <puts>
   c8f1c:	80 26       	mov55 $r1,$r6
   c8f1e:	84 06       	movi55 $r0,#6
   c8f20:	49 00 0a 5b 	jal ca3d6 <ble_gap_tx_power_set>
   c8f24:	b0 84       	addri36.sp $r2,#0x10
   c8f26:	fa 0e       	movpi45 $r0,#0x1e
   c8f28:	ac 11       	shi333 $r0,[$r2+#0x2]
   c8f2a:	fa 04       	movpi45 $r0,#0x14
   c8f2c:	ac 12       	shi333 $r0,[$r2+#0x4]
   c8f2e:	8c 1e       	addi45 $r0,#30
   c8f30:	ac 13       	shi333 $r0,[$r2+#0x6]
   c8f32:	ac 14       	shi333 $r0,[$r2+#0x8]
   c8f34:	44 00 00 50 	movi $r0,#80
   c8f38:	ac 15       	shi333 $r0,[$r2+#0xa]
   c8f3a:	ac 16       	shi333 $r0,[$r2+#0xc]
   c8f3c:	8c 14       	addi45 $r0,#20
   c8f3e:	ad 90       	shi333 $r6,[$r2+#0x0]
   c8f40:	ac 17       	shi333 $r0,[$r2+#0xe]
   c8f42:	3a 01 0c 00 	lmw.bi $r0,[$r2],$r3,#0x0    ! {$r0~$r3}
   c8f46:	49 00 56 6f 	jal d3c24 <DRV_TMR16_PWM>
   c8f4a:	44 00 08 00 	movi $r0,#2048
   c8f4e:	84 21       	movi55 $r1,#1
   c8f50:	49 00 53 c8 	jal d36e0 <DRV_PinMux_SigSet>
   c8f54:	44 00 10 00 	movi $r0,#4096
   c8f58:	84 22       	movi55 $r1,#2
   c8f5a:	49 00 53 c3 	jal d36e0 <DRV_PinMux_SigSet>
   c8f5e:	44 00 20 00 	movi $r0,#8192
   c8f62:	84 23       	movi55 $r1,#3
   c8f64:	49 00 53 be 	jal d36e0 <DRV_PinMux_SigSet>
   c8f68:	84 24       	movi55 $r1,#4
   c8f6a:	44 00 40 00 	movi $r0,#16384
   c8f6e:	49 00 53 b9 	jal d36e0 <DRV_PinMux_SigSet>
   c8f72:	84 0a       	movi55 $r0,#10
   c8f74:	49 fd bc 9b 	jal 808aa <OS_delay_ms>
   c8f78:	44 00 06 3f 	movi $r0,#1599
   c8f7c:	49 00 56 48 	jal d3c0c <DRV_TMR16_PWM_Enable>
   c8f80:	44 00 00 80 	movi $r0,#128
   c8f84:	84 21       	movi55 $r1,#1
   c8f86:	49 00 52 af 	jal d34e4 <DRV_OdGpio_OeSet>
   c8f8a:	46 03 9f fd 	sethi $r0,#0x39ffd
   c8f8e:	3e 2f d0 f0 	addi.gp $r2,#-12048
   c8f92:	58 00 02 f4 	ori $r0,$r0,#0x2f4
   c8f96:	b6 02       	swi450 $r0,[$r2]
   c8f98:	46 03 63 cb 	sethi $r0,#0x363cb
   c8f9c:	58 00 00 56 	ori $r0,$r0,#0x56
   c8fa0:	a8 11       	swi333 $r0,[$r2+#0x4]
   c8fa2:	46 03 71 d1 	sethi $r0,#0x371d1
   c8fa6:	58 00 04 11 	ori $r0,$r0,#0x411
   c8faa:	a8 12       	swi333 $r0,[$r2+#0x8]
   c8fac:	46 03 b9 63 	sethi $r0,#0x3b963
   c8fb0:	58 00 00 70 	ori $r0,$r0,#0x70
   c8fb4:	a8 13       	swi333 $r0,[$r2+#0xc]
   c8fb6:	46 0b 6a dd 	sethi $r0,#0xb6add
   c8fba:	58 00 05 41 	ori $r0,$r0,#0x541
   c8fbe:	a8 14       	swi333 $r0,[$r2+#0x10]
   c8fc0:	46 03 9f fd 	sethi $r0,#0x39ffd
   c8fc4:	58 00 0d e9 	ori $r0,$r0,#0xde9
   c8fc8:	a8 15       	swi333 $r0,[$r2+#0x14]
   c8fca:	46 03 64 47 	sethi $r0,#0x36447
   c8fce:	58 00 00 e6 	ori $r0,$r0,#0xe6
   c8fd2:	a8 16       	swi333 $r0,[$r2+#0x18]
   c8fd4:	46 03 b7 b1 	sethi $r0,#0x3b7b1
   c8fd8:	58 00 09 ca 	ori $r0,$r0,#0x9ca
   c8fdc:	a8 17       	swi333 $r0,[$r2+#0x1c]
   c8fde:	46 0b 6b 71 	sethi $r0,#0xb6b71
   c8fe2:	58 00 03 09 	ori $r0,$r0,#0x309
   c8fe6:	14 01 00 08 	swi $r0,[$r2+#0x20]
   c8fea:	46 0b 55 f2 	sethi $r0,#0xb55f2
   c8fee:	58 00 08 db 	ori $r0,$r0,#0x8db
   c8ff2:	14 01 00 09 	swi $r0,[$r2+#0x24]
   c8ff6:	46 03 a0 00 	sethi $r0,#0x3a000
   c8ffa:	58 00 0e 97 	ori $r0,$r0,#0xe97
   c8ffe:	14 01 00 0a 	swi $r0,[$r2+#0x28]
   c9002:	46 03 c2 5d 	sethi $r0,#0x3c25d
   c9006:	58 00 04 6a 	ori $r0,$r0,#0x46a
   c900a:	14 01 00 0b 	swi $r0,[$r2+#0x2c]
   c900e:	46 0b ac 11 	sethi $r0,#0xbac11
   c9012:	3e 3f d1 20 	addi.gp $r3,#-12000
   c9016:	58 00 07 01 	ori $r0,$r0,#0x701
   c901a:	a8 1b       	swi333 $r0,[$r3+#0xc]
   c901c:	46 0b c8 66 	sethi $r0,#0xbc866
   c9020:	58 00 01 de 	ori $r0,$r0,#0x1de
   c9024:	a8 1f       	swi333 $r0,[$r3+#0x1c]
   c9026:	46 03 ba 12 	sethi $r0,#0x3ba12
   c902a:	58 00 0b ce 	ori $r0,$r0,#0xbce
   c902e:	46 43 a8 b7 	sethi $r4,#0x3a8b7
   c9032:	84 40       	movi55 $r2,#0
   c9034:	58 42 0d 78 	ori $r4,$r4,#0xd78
   c9038:	14 01 80 0b 	swi $r0,[$r3+#0x2c]
   c903c:	46 03 b7 04 	sethi $r0,#0x3b704
   c9040:	b6 83       	swi450 $r4,[$r3]
   c9042:	a8 99       	swi333 $r2,[$r3+#0x4]
   c9044:	a8 9a       	swi333 $r2,[$r3+#0x8]
   c9046:	a8 9c       	swi333 $r2,[$r3+#0x10]
   c9048:	a9 1d       	swi333 $r4,[$r3+#0x14]
   c904a:	a8 9e       	swi333 $r2,[$r3+#0x18]
   c904c:	14 21 80 08 	swi $r2,[$r3+#0x20]
   c9050:	14 21 80 09 	swi $r2,[$r3+#0x24]
   c9054:	14 41 80 0a 	swi $r4,[$r3+#0x28]
   c9058:	58 00 0f 85 	ori $r0,$r0,#0xf85
   c905c:	3e 3f d1 50 	addi.gp $r3,#-11952
   c9060:	b6 03       	swi450 $r0,[$r3]
   c9062:	46 0b e4 cf 	sethi $r0,#0xbe4cf
   c9066:	58 00 06 f8 	ori $r0,$r0,#0x6f8
   c906a:	a8 1b       	swi333 $r0,[$r3+#0xc]
   c906c:	46 03 b6 dd 	sethi $r0,#0x3b6dd
   c9070:	58 00 03 1f 	ori $r0,$r0,#0x31f
   c9074:	a8 1d       	swi333 $r0,[$r3+#0x14]
   c9076:	46 03 dd 11 	sethi $r0,#0x3dd11
   c907a:	58 00 0c c2 	ori $r0,$r0,#0xcc2
   c907e:	a8 1f       	swi333 $r0,[$r3+#0x1c]
   c9080:	46 03 b6 a4 	sethi $r0,#0x3b6a4
   c9084:	58 00 06 a7 	ori $r0,$r0,#0x6a7
   c9088:	a8 99       	swi333 $r2,[$r3+#0x4]
   c908a:	a8 9a       	swi333 $r2,[$r3+#0x8]
   c908c:	a8 9c       	swi333 $r2,[$r3+#0x10]
   c908e:	a8 9e       	swi333 $r2,[$r3+#0x18]
   c9090:	14 21 80 08 	swi $r2,[$r3+#0x20]
   c9094:	14 21 80 09 	swi $r2,[$r3+#0x24]
   c9098:	14 01 80 0a 	swi $r0,[$r3+#0x28]
   c909c:	46 0b ec bf 	sethi $r0,#0xbecbf
   c90a0:	58 00 05 72 	ori $r0,$r0,#0x572
   c90a4:	14 01 80 0b 	swi $r0,[$r3+#0x2c]
   c90a8:	46 04 1f 00 	sethi $r0,#0x41f00
   c90ac:	3c 0f f4 60 	swi.gp $r0,[+#-11904]
   c90b0:	3c 2f f4 61 	swi.gp $r2,[+#-11900]
   c90b4:	46 04 6f ff 	sethi $r0,#0x46fff
   c90b8:	58 00 0e 00 	ori $r0,$r0,#0xe00
   c90bc:	3c 0f f4 62 	swi.gp $r0,[+#-11896]
   c90c0:	3c 0f f4 63 	swi.gp $r0,[+#-11892]
   c90c4:	46 04 4f fe 	sethi $r0,#0x44ffe
   c90c8:	3c 0f f4 64 	swi.gp $r0,[+#-11888]
   c90cc:	46 03 f4 cc 	sethi $r0,#0x3f4cc
   c90d0:	58 00 0c cd 	ori $r0,$r0,#0xccd
   c90d4:	3c 0f f4 65 	swi.gp $r0,[+#-11884]
   c90d8:	46 03 a8 31 	sethi $r0,#0x3a831
   c90dc:	58 00 02 6f 	ori $r0,$r0,#0x26f
   c90e0:	3c 0f f0 8b 	swi.gp $r0,[+#-15828]
   c90e4:	49 00 5b f1 	jal d48c6 <InitAlg>
   c90e8:	84 21       	movi55 $r1,#1
   c90ea:	84 07       	movi55 $r0,#7
   c90ec:	49 00 52 0e 	jal d3508 <DRV_OdGpio_ValSet>
   c90f0:	49 00 5b a8 	jal d4840 <DRV_WDT_Kick>
   c90f4:	fa 04       	movpi45 $r0,#0x14
   c90f6:	49 00 00 b0 	jal c9256 <TRSPX_send>
   c90fa:	84 0a       	movi55 $r0,#10
   c90fc:	49 fd bb d7 	jal 808aa <OS_delay_ms>
   c9100:	49 00 08 23 	jal ca146 <BT_Pending_TxCnt>
   c9104:	80 20       	mov55 $r1,$r0
   c9106:	3c 0f f2 90 	swi.gp $r0,[+#-13760]
   c910a:	c0 ef       	beqz38 $r0,c90e8 <main+0x218>
   c910c:	3e 0d 30 3c 	addi.gp $r0,#-184260
   c9110:	49 00 48 0f 	jal d212e <printf>
   c9114:	3c 6f f2 90 	swi.gp $r6,[+#-13760]
   c9118:	d5 e8       	j8 c90e8 <main+0x218>

000c911a <TRSPX_init>:
   c911a:	fc 00       	push25 $r6,#0x0    ! {$r6, $fp, $gp, $lp}
   c911c:	49 00 00 8d 	jal c9236 <TRSPX_service_init>
   c9120:	fa 07       	movpi45 $r0,#0x17
   c9122:	49 00 10 98 	jal cb252 <BLE_att_set_default_mtu>
   c9126:	fc 80       	pop25 $r6,#0x0    ! {$r6, $fp, $gp, $lp}

000c9128 <TRSPX_ble_set_scan_data_cb>:
   c9128:	fc 01       	push25 $r6,#0x8    ! {$r6, $fp, $gp, $lp}
   c912a:	3c 1d 4a ae 	lwi.gp $r1,[+#-185672]
   c912e:	b0 01       	addri36.sp $r0,#0x4
   c9130:	ac 40       	shi333 $r1,[$r0+#0x0]
   c9132:	92 30       	srli45 $r1,#16
   c9134:	ae 42       	sbi333 $r1,[$r0+#0x2]
   c9136:	3e 2c 51 d8 	addi.gp $r2,#-241192
   c913a:	84 23       	movi55 $r1,#3
   c913c:	49 00 0a e2 	jal ca700 <ble_gap_scan_data_set>
   c9140:	fc 81       	pop25 $r6,#0x8    ! {$r6, $fp, $gp, $lp}

000c9142 <TRSPX_bt_evt_hdl>:
   c9142:	fc 03       	push25 $r6,#0x18    ! {$r6, $fp, $gp, $lp}
   c9144:	b4 20       	lwi450 $r1,[$r0]
   c9146:	44 20 10 00 	movi $r2,#4096
   c914a:	4c 11 00 21 	beq $r1,$r2,c918c <TRSPX_bt_evt_hdl+0x4a>
   c914e:	5c f0 90 01 	slti $r15,$r1,#4097
   c9152:	e8 03       	beqzs8 c9158 <TRSPX_bt_evt_hdl+0x16>
   c9154:	c1 0a       	beqz38 $r1,c9168 <TRSPX_bt_evt_hdl+0x26>
   c9156:	d5 40       	j8 c91d6 <TRSPX_bt_evt_hdl+0x94>
   c9158:	9c 91       	addi333 $r2,$r2,#1
   c915a:	4c 11 00 36 	beq $r1,$r2,c91c6 <TRSPX_bt_evt_hdl+0x84>
   c915e:	44 20 30 02 	movi $r2,#12290
   c9162:	4c 11 40 3a 	bne $r1,$r2,c91d6 <TRSPX_bt_evt_hdl+0x94>
   c9166:	d5 34       	j8 c91ce <TRSPX_bt_evt_hdl+0x8c>
   c9168:	a6 04       	lbi333 $r0,[$r0+#0x4]
   c916a:	c0 10       	beqz38 $r0,c918a <TRSPX_bt_evt_hdl+0x48>
   c916c:	b1 84       	addri36.sp $r6,#0x10
   c916e:	ae 70       	sbi333 $r1,[$r6+#0x0]
   c9170:	50 0f 80 11 	addi $r0,$sp,#17
   c9174:	3e 1d 30 4c 	addi.gp $r1,#-184244
   c9178:	84 46       	movi55 $r2,#6
   c917a:	49 ff f7 67 	jal c8048 <memcpy>
   c917e:	80 06       	mov55 $r0,$r6
   c9180:	3e 1c 51 28 	addi.gp $r1,#-241368
   c9184:	49 00 09 d5 	jal ca52e <ble_gap_address_set>
   c9188:	d5 27       	j8 c91d6 <TRSPX_bt_evt_hdl+0x94>
   c918a:	d5 00       	j8 c918a <TRSPX_bt_evt_hdl+0x48>
   c918c:	a6 84       	lbi333 $r2,[$r0+#0x4]
   c918e:	ca 24       	bnez38 $r2,c91d6 <TRSPX_bt_evt_hdl+0x94>
   c9190:	a0 01       	lwi333 $r0,[$r0+#0x4]
   c9192:	92 08       	srli45 $r0,#8
   c9194:	2e 47 ca 44 	lbi.gp $r4,[+#-13756]
   c9198:	96 01       	zeh33 $r0,$r0
   c919a:	84 a8       	movi55 $r5,#8
   c919c:	3c 0b e9 7a 	shi.gp $r0,[+#-11532]
   c91a0:	b0 41       	addri36.sp $r1,#0x4
   c91a2:	ad 48       	shi333 $r5,[$r1+#0x0]
   c91a4:	ad 49       	shi333 $r5,[$r1+#0x2]
   c91a6:	54 52 00 03 	andi $r5,$r4,#0x3
   c91aa:	8c bd       	addi45 $r5,#29
   c91ac:	ad 4a       	shi333 $r5,[$r1+#0x4]
   c91ae:	9d 21       	addi333 $r4,$r4,#1
   c91b0:	44 50 00 64 	movi $r5,#100
   c91b4:	ad 4b       	shi333 $r5,[$r1+#0x6]
   c91b6:	ac 8c       	shi333 $r2,[$r1+#0x8]
   c91b8:	ac 8d       	shi333 $r2,[$r1+#0xa]
   c91ba:	3e 47 ca 44 	sbi.gp $r4,[+#-13756]
   c91be:	49 00 09 ff 	jal ca5bc <ble_gap_conn_param_update>
   c91c2:	84 22       	movi55 $r1,#2
   c91c4:	d5 02       	j8 c91c8 <TRSPX_bt_evt_hdl+0x86>
   c91c6:	84 20       	movi55 $r1,#0
   c91c8:	3e 0f c6 74 	addi.gp $r0,#-14732
   c91cc:	d5 04       	j8 c91d4 <TRSPX_bt_evt_hdl+0x92>
   c91ce:	a4 42       	lhi333 $r1,[$r0+#0x4]
   c91d0:	3e 0f c6 78 	addi.gp $r0,#-14728
   c91d4:	b6 20       	swi450 $r1,[$r0]
   c91d6:	fc 83       	pop25 $r6,#0x18    ! {$r6, $fp, $gp, $lp}

000c91d8 <TRSPX_ble_set_adv_data_cb>:
   c91d8:	fc 04       	push25 $r6,#0x20    ! {$r6, $fp, $gp, $lp}
   c91da:	3e 6d 2a bc 	addi.gp $r6,#-185668
   c91de:	3a 03 0c 04 	lmw.bim $r0,[$r6],$r3,#0x0    ! {$r0~$r3}
   c91e2:	80 9f       	mov55 $r4,$sp
   c91e4:	3a 02 0c 24 	smw.bim $r0,[$r4],$r3,#0x0    ! {$r0~$r3}
   c91e8:	3a 03 0c 00 	lmw.bi $r0,[$r6],$r3,#0x0    ! {$r0~$r3}
   c91ec:	3a 02 08 24 	smw.bim $r0,[$r4],$r2,#0x0    ! {$r0~$r2}
   c91f0:	80 1f       	mov55 $r0,$sp
   c91f2:	fa 2f       	movpi45 $r1,#0x1f
   c91f4:	3e 2c 52 06 	addi.gp $r2,#-241146
   c91f8:	1a 32 00 01 	shi.bi $r3,[$r4],#0x2
   c91fc:	92 70       	srli45 $r3,#16
   c91fe:	ae e0       	sbi333 $r3,[$r4+#0x0]
   c9200:	49 00 0a 9e 	jal ca73c <ble_gap_adv_data_set>
   c9204:	fc 84       	pop25 $r6,#0x20    ! {$r6, $fp, $gp, $lp}

000c9206 <TRSPX_ble_set_adv_parameter_cb>:
   c9206:	fc 02       	push25 $r6,#0x10    ! {$r6, $fp, $gp, $lp}
   c9208:	3e 0d 2a dc 	addi.gp $r0,#-185636
   c920c:	3a 00 08 00 	lmw.bi $r0,[$r0],$r2,#0x0    ! {$r0~$r2}
   c9210:	b0 c1       	addri36.sp $r3,#0x4
   c9212:	3a 01 88 20 	smw.bi $r0,[$r3],$r2,#0x0    ! {$r0~$r2}
   c9216:	80 03       	mov55 $r0,$r3
   c9218:	3e 1c 52 22 	addi.gp $r1,#-241118
   c921c:	49 00 0a 12 	jal ca640 <ble_gap_adv_start>
   c9220:	fc 82       	pop25 $r6,#0x10    ! {$r6, $fp, $gp, $lp}

000c9222 <TRSPX_ble_set_adv_scan_data_cpl_cb>:
   c9222:	fc 00       	push25 $r6,#0x0    ! {$r6, $fp, $gp, $lp}
   c9224:	84 21       	movi55 $r1,#1
   c9226:	3c 1f f1 9d 	swi.gp $r1,[+#-14732]
   c922a:	84 00       	movi55 $r0,#0
   c922c:	49 00 07 88 	jal ca13c <BT_Log_Enable>
   c9230:	fc 80       	pop25 $r6,#0x0    ! {$r6, $fp, $gp, $lp}

000c9232 <_LeXport_TxCccdCB>:
   c9232:	fc 00       	push25 $r6,#0x0    ! {$r6, $fp, $gp, $lp}
   c9234:	fc 80       	pop25 $r6,#0x0    ! {$r6, $fp, $gp, $lp}

000c9236 <TRSPX_service_init>:
   c9236:	fc 03       	push25 $r6,#0x18    ! {$r6, $fp, $gp, $lp}
   c9238:	3e 0d 2a e8 	addi.gp $r0,#-185624
   c923c:	80 a0       	mov55 $r5,$r0
   c923e:	3a 02 8c 04 	lmw.bim $r0,[$r5],$r3,#0x0    ! {$r0~$r3}
   c9242:	b1 01       	addri36.sp $r4,#0x4
   c9244:	80 c4       	mov55 $r6,$r4
   c9246:	3a 03 0c 24 	smw.bim $r0,[$r6],$r3,#0x0    ! {$r0~$r3}
   c924a:	80 04       	mov55 $r0,$r4
   c924c:	b4 a5       	lwi450 $r5,[$r5]
   c924e:	b6 a6       	swi450 $r5,[$r6]
   c9250:	49 00 00 2e 	jal c92ac <TRSPX_service_init_para>
   c9254:	fc 83       	pop25 $r6,#0x18    ! {$r6, $fp, $gp, $lp}

000c9256 <TRSPX_send>:
   c9256:	fc 20       	push25 $r8,#0x0    ! {$r6~$r8, $fp, $gp, $lp}
   c9258:	97 c1       	zeh33 $r7,$r0
   c925a:	3c 0d f1 9d 	lwi.gp $r0,[+#-14732]
   c925e:	5a 08 02 1a 	bnec $r0,#2,c9292 <TRSPX_send+0x3c>
   c9262:	44 10 00 66 	movi $r1,#102
   c9266:	fa 44       	movpi45 $r2,#0x14
   c9268:	3e 0f c7 90 	addi.gp $r0,#-14448
   c926c:	49 ff f7 0e 	jal c8088 <memset>
   c9270:	2e 37 ca 45 	lbi.gp $r3,[+#-13755]
   c9274:	3e 37 c7 90 	sbi.gp $r3,[+#-14448]
   c9278:	9c d9       	addi333 $r3,$r3,#1
   c927a:	3e 37 ca 45 	sbi.gp $r3,[+#-13755]
   c927e:	3c 03 e9 79 	lhi.gp $r0,[+#-11534]
   c9282:	80 27       	mov55 $r1,$r7
   c9284:	49 00 10 87 	jal cb392 <BLE_att_set_attribute_length>
   c9288:	3c 03 e9 79 	lhi.gp $r0,[+#-11534]
   c928c:	84 20       	movi55 $r1,#0
   c928e:	49 00 18 df 	jal cc44c <BLE_gatt_charact_notify>
   c9292:	fc a0       	pop25 $r8,#0x0    ! {$r6~$r8, $fp, $gp, $lp}

000c9294 <_LeXport_RxCB>:
   c9294:	fc 00       	push25 $r6,#0x0    ! {$r6, $fp, $gp, $lp}
   c9296:	3c 03 e9 74 	lhi.gp $r0,[+#-11544]
   c929a:	49 00 0f c7 	jal cb228 <BLE_att_get_attribute_length>
   c929e:	80 40       	mov55 $r2,$r0
   c92a0:	3e 1f c6 c8 	addi.gp $r1,#-14648
   c92a4:	84 01       	movi55 $r0,#1
   c92a6:	49 ff f9 c7 	jal c8634 <AB_UART_Write>
   c92aa:	fc 80       	pop25 $r6,#0x0    ! {$r6, $fp, $gp, $lp}

000c92ac <TRSPX_service_init_para>:
   c92ac:	fc 53       	push25 $r10,#0x98    ! {$r6~$r10, $fp, $gp, $lp}
   c92ae:	50 9f 80 80 	addi $r9,$sp,#128
   c92b2:	80 c0       	mov55 $r6,$r0
   c92b4:	84 20       	movi55 $r1,#0
   c92b6:	80 09       	mov55 $r0,$r9
   c92b8:	fa 48       	movpi45 $r2,#0x18
   c92ba:	49 ff f6 e7 	jal c8088 <memset>
   c92be:	44 00 28 00 	movi $r0,#10240
   c92c2:	f0 a0       	swi37.sp $r0,[+#0x80]
   c92c4:	85 1f       	movi55 $r8,#-1
   c92c6:	84 11       	movi55 $r0,#-15
   c92c8:	10 04 80 08 	sbi $r0,[$r9+#0x8]
   c92cc:	10 84 80 09 	sbi $r8,[$r9+#0x9]
   c92d0:	b1 d7       	addri36.sp $r7,#0x5c
   c92d2:	a1 71       	lwi333 $r5,[$r6+#0x4]
   c92d4:	fa 94       	movpi45 $r4,#0x24
   c92d6:	85 42       	movi55 $r10,#2
   c92d8:	80 44       	mov55 $r2,$r4
   c92da:	80 07       	mov55 $r0,$r7
   c92dc:	84 20       	movi55 $r1,#0
   c92de:	f4 82       	swi37.sp $r4,[+#0x8]
   c92e0:	f5 81       	swi37.sp $r5,[+#0x4]
   c92e2:	14 af 80 21 	swi $r10,[$sp+#0x84]
   c92e6:	49 ff f6 d1 	jal c8088 <memset>
   c92ea:	44 0f ff e1 	movi $r0,#-31
   c92ee:	ae 3c       	sbi333 $r0,[$r7+#0x4]
   c92f0:	44 3f ff 88 	movi $r3,#-120
   c92f4:	fa 00       	movpi45 $r0,#0x10
   c92f6:	10 83 80 05 	sbi $r8,[$r7+#0x5]
   c92fa:	10 33 80 15 	sbi $r3,[$r7+#0x15]
   c92fe:	10 03 80 14 	sbi $r0,[$r7+#0x14]
   c9302:	50 8f 80 38 	addi $r8,$sp,#56
   c9306:	f5 01       	lwi37.sp $r5,[+#0x4]
   c9308:	f4 02       	lwi37.sp $r4,[+#0x8]
   c930a:	f5 9e       	swi37.sp $r5,[+#0x78]
   c930c:	a1 74       	lwi333 $r5,[$r6+#0x10]
   c930e:	a0 32       	lwi333 $r0,[$r6+#0x8]
   c9310:	45 c0 00 c8 	movi $fp,#200
   c9314:	f0 83       	swi37.sp $r0,[+#0xc]
   c9316:	80 44       	mov55 $r2,$r4
   c9318:	80 08       	mov55 $r0,$r8
   c931a:	84 20       	movi55 $r1,#0
   c931c:	f3 82       	swi37.sp $r3,[+#0x8]
   c931e:	f5 81       	swi37.sp $r5,[+#0x4]
   c9320:	14 af 80 17 	swi $r10,[$sp+#0x5c]
   c9324:	13 c3 80 0b 	shi $fp,[$r7+#0x16]
   c9328:	13 c3 80 0c 	shi $fp,[$r7+#0x18]
   c932c:	49 ff f6 ae 	jal c8088 <memset>
   c9330:	fa 19       	movpi45 $r0,#0x29
   c9332:	10 04 00 05 	sbi $r0,[$r8+#0x5]
   c9336:	10 a4 00 04 	sbi $r10,[$r8+#0x4]
   c933a:	f0 03       	lwi37.sp $r0,[+#0xc]
   c933c:	f5 01       	lwi37.sp $r5,[+#0x4]
   c933e:	f0 95       	swi37.sp $r0,[+#0x54]
   c9340:	f5 96       	swi37.sp $r5,[+#0x58]
   c9342:	b4 46       	lwi450 $r2,[$r6]
   c9344:	a0 73       	lwi333 $r1,[$r6+#0xc]
   c9346:	fa 00       	movpi45 $r0,#0x10
   c9348:	b1 85       	addri36.sp $r6,#0x14
   c934a:	f0 85       	swi37.sp $r0,[+#0x14]
   c934c:	44 0f ff b3 	movi $r0,#-77
   c9350:	ae 34       	sbi333 $r0,[$r6+#0x4]
   c9352:	8e 18       	subi45 $r0,#24
   c9354:	ae 35       	sbi333 $r0,[$r6+#0x5]
   c9356:	44 00 00 72 	movi $r0,#114
   c935a:	ae 36       	sbi333 $r0,[$r6+#0x6]
   c935c:	44 00 00 34 	movi $r0,#52
   c9360:	ae 37       	sbi333 $r0,[$r6+#0x7]
   c9362:	44 0f ff be 	movi $r0,#-66
   c9366:	10 03 00 08 	sbi $r0,[$r6+#0x8]
   c936a:	44 0f ff ec 	movi $r0,#-20
   c936e:	10 03 00 09 	sbi $r0,[$r6+#0x9]
   c9372:	8e 18       	subi45 $r0,#24
   c9374:	10 03 00 0a 	sbi $r0,[$r6+#0xa]
   c9378:	44 0f ff a8 	movi $r0,#-88
   c937c:	10 03 00 0b 	sbi $r0,[$r6+#0xb]
   c9380:	84 14       	movi55 $r0,#-12
   c9382:	44 40 00 41 	movi $r4,#65
   c9386:	10 03 00 0c 	sbi $r0,[$r6+#0xc]
   c938a:	9c 22       	addi333 $r0,$r4,#2
   c938c:	10 43 00 0e 	sbi $r4,[$r6+#0xe]
   c9390:	10 03 00 0d 	sbi $r0,[$r6+#0xd]
   c9394:	f2 8c       	swi37.sp $r2,[+#0x30]
   c9396:	f3 02       	lwi37.sp $r3,[+#0x8]
   c9398:	10 03 00 10 	sbi $r0,[$r6+#0x10]
   c939c:	44 00 00 53 	movi $r0,#83
   c93a0:	10 03 00 11 	sbi $r0,[$r6+#0x11]
   c93a4:	10 03 00 12 	sbi $r0,[$r6+#0x12]
   c93a8:	8e 0a       	subi45 $r0,#10
   c93aa:	10 03 00 13 	sbi $r0,[$r6+#0x13]
   c93ae:	84 0c       	movi55 $r0,#12
   c93b0:	10 03 00 14 	sbi $r0,[$r6+#0x14]
   c93b4:	84 08       	movi55 $r0,#8
   c93b6:	10 03 00 15 	sbi $r0,[$r6+#0x15]
   c93ba:	80 09       	mov55 $r0,$r9
   c93bc:	10 33 00 0f 	sbi $r3,[$r6+#0xf]
   c93c0:	14 af 80 0e 	swi $r10,[$sp+#0x38]
   c93c4:	12 a4 00 0b 	shi $r10,[$r8+#0x16]
   c93c8:	13 c3 00 0b 	shi $fp,[$r6+#0x16]
   c93cc:	13 c3 00 0c 	shi $fp,[$r6+#0x18]
   c93d0:	f1 8d       	swi37.sp $r1,[+#0x34]
   c93d2:	49 00 19 6e 	jal cc6ae <BLE_gatt_add_service>
   c93d6:	3c 0b e9 78 	shi.gp $r0,[+#-11536]
   c93da:	80 07       	mov55 $r0,$r7
   c93dc:	49 00 18 ee 	jal cc5b8 <BLE_gatt_add_charact>
   c93e0:	3c 0b e9 79 	shi.gp $r0,[+#-11534]
   c93e4:	80 08       	mov55 $r0,$r8
   c93e6:	49 00 1a 1d 	jal cc820 <BLE_gatt_add_descrip>
   c93ea:	3c 0b e9 76 	shi.gp $r0,[+#-11540]
   c93ee:	80 06       	mov55 $r0,$r6
   c93f0:	49 00 18 e4 	jal cc5b8 <BLE_gatt_add_charact>
   c93f4:	3c 0b e9 74 	shi.gp $r0,[+#-11544]
   c93f8:	fc d3       	pop25 $r10,#0x98    ! {$r6~$r10, $fp, $gp, $lp}

000c93fa <chip_1602_is_vcmd_complete_event>:
   c93fa:	fc 00       	push25 $r6,#0x0    ! {$r6, $fp, $gp, $lp}
   c93fc:	a7 03       	lbi333 $r4,[$r0+#0x3]
   c93fe:	a7 42       	lbi333 $r5,[$r0+#0x2]
   c9400:	a6 c4       	lbi333 $r3,[$r0+#0x4]
   c9402:	a6 85       	lbi333 $r2,[$r0+#0x5]
   c9404:	40 42 20 08 	slli $r4,$r4,#8
   c9408:	ff 2f       	or33 $r4,$r5
   c940a:	40 31 c0 08 	slli $r3,$r3,#16
   c940e:	fe e7       	or33 $r3,$r4
   c9410:	40 21 60 08 	slli $r2,$r2,#24
   c9414:	fe 9f       	or33 $r2,$r3
   c9416:	a7 11       	lbi333 $r4,[$r2+#0x1]
   c9418:	a6 00       	lbi333 $r0,[$r0+#0x0]
   c941a:	08 51 00 02 	lbi.bi $r5,[$r2],#0x2
   c941e:	96 49       	zeh33 $r1,$r1
   c9420:	a6 d1       	lbi333 $r3,[$r2+#0x1]
   c9422:	a6 90       	lbi333 $r2,[$r2+#0x0]
   c9424:	5a 08 ff 11 	bnec $r0,#255,c9446 <chip_1602_is_vcmd_complete_event+0x4c>
   c9428:	40 42 20 08 	slli $r4,$r4,#8
   c942c:	ff 2f       	or33 $r4,$r5
   c942e:	97 23       	seh33 $r4,$r4
   c9430:	44 00 30 01 	movi $r0,#12289
   c9434:	4c 40 40 09 	bne $r4,$r0,c9446 <chip_1602_is_vcmd_complete_event+0x4c>
   c9438:	40 01 a0 08 	slli $r0,$r3,#8
   c943c:	fe 17       	or33 $r0,$r2
   c943e:	fe 0d       	xor33 $r0,$r1
   c9440:	5c 00 00 01 	slti $r0,$r0,#1
   c9444:	d5 02       	j8 c9448 <chip_1602_is_vcmd_complete_event+0x4e>
   c9446:	84 00       	movi55 $r0,#0
   c9448:	fc 80       	pop25 $r6,#0x0    ! {$r6, $fp, $gp, $lp}

000c944a <chip_1602_is_boot_complete_event>:
   c944a:	fc 00       	push25 $r6,#0x0    ! {$r6, $fp, $gp, $lp}
   c944c:	a7 03       	lbi333 $r4,[$r0+#0x3]
   c944e:	a7 42       	lbi333 $r5,[$r0+#0x2]
   c9450:	a6 84       	lbi333 $r2,[$r0+#0x4]
   c9452:	a6 c5       	lbi333 $r3,[$r0+#0x5]
   c9454:	40 42 20 08 	slli $r4,$r4,#8
   c9458:	ff 2f       	or33 $r4,$r5
   c945a:	40 21 40 08 	slli $r2,$r2,#16
   c945e:	fe a7       	or33 $r2,$r4
   c9460:	40 31 e0 08 	slli $r3,$r3,#24
   c9464:	fe d7       	or33 $r3,$r2
   c9466:	a6 81       	lbi333 $r2,[$r0+#0x1]
   c9468:	a6 00       	lbi333 $r0,[$r0+#0x0]
   c946a:	96 49       	zeh33 $r1,$r1
   c946c:	a7 19       	lbi333 $r4,[$r3+#0x1]
   c946e:	a7 58       	lbi333 $r5,[$r3+#0x0]
   c9470:	5a 08 ff 26 	bnec $r0,#255,c94bc <chip_1602_is_boot_complete_event+0x72>
   c9474:	40 42 20 08 	slli $r4,$r4,#8
   c9478:	ff 2f       	or33 $r4,$r5
   c947a:	97 23       	seh33 $r4,$r4
   c947c:	44 00 30 02 	movi $r0,#12290
   c9480:	4c 40 40 1e 	bne $r4,$r0,c94bc <chip_1602_is_boot_complete_event+0x72>
   c9484:	9e 92       	subi333 $r2,$r2,#2
   c9486:	9c 1a       	addi333 $r0,$r3,#2
   c9488:	96 90       	zeb33 $r2,$r2
   c948a:	d5 18       	j8 c94ba <chip_1602_is_boot_complete_event+0x70>
   c948c:	a6 c0       	lbi333 $r3,[$r0+#0x0]
   c948e:	5a 38 81 0f 	bnec $r3,#129,c94ac <chip_1602_is_boot_complete_event+0x62>
   c9492:	9c c2       	addi333 $r3,$r0,#2
   c9494:	a7 18       	lbi333 $r4,[$r3+#0x0]
   c9496:	5a 48 02 0b 	bnec $r4,#2,c94ac <chip_1602_is_boot_complete_event+0x62>
   c949a:	a7 19       	lbi333 $r4,[$r3+#0x1]
   c949c:	a6 da       	lbi333 $r3,[$r3+#0x2]
   c949e:	40 31 a0 08 	slli $r3,$r3,#8
   c94a2:	fe e7       	or33 $r3,$r4
   c94a4:	4c 30 c0 04 	bne $r3,$r1,c94ac <chip_1602_is_boot_complete_event+0x62>
   c94a8:	84 01       	movi55 $r0,#1
   c94aa:	d5 0a       	j8 c94be <chip_1602_is_boot_complete_event+0x74>
   c94ac:	a6 c1       	lbi333 $r3,[$r0+#0x1]
   c94ae:	52 41 ff fe 	subri $r4,$r3,#-2
   c94b2:	98 94       	add333 $r2,$r2,$r4
   c94b4:	9c da       	addi333 $r3,$r3,#2
   c94b6:	96 90       	zeb33 $r2,$r2
   c94b8:	98 03       	add333 $r0,$r0,$r3
   c94ba:	ca e9       	bnez38 $r2,c948c <chip_1602_is_boot_complete_event+0x42>
   c94bc:	84 00       	movi55 $r0,#0
   c94be:	fc 80       	pop25 $r6,#0x0    ! {$r6, $fp, $gp, $lp}

000c94c0 <chip_1602_init>:
   c94c0:	fc 00       	push25 $r6,#0x0    ! {$r6, $fp, $gp, $lp}
   c94c2:	3c 0f f2 94 	swi.gp $r0,[+#-13744]
   c94c6:	3c 2f f2 97 	swi.gp $r2,[+#-13732]
   c94ca:	97 20       	zeb33 $r4,$r4
   c94cc:	3c 1f f2 95 	swi.gp $r1,[+#-13740]
   c94d0:	c4 09       	beqz38 $r4,c94e2 <chip_1602_init+0x22>
   c94d2:	b4 43       	lwi450 $r2,[$r3]
   c94d4:	3c 2f f2 98 	swi.gp $r2,[+#-13728]
   c94d8:	e6 82       	slti45 $r4,#2
   c94da:	e9 04       	bnezs8 c94e2 <chip_1602_init+0x22>
   c94dc:	a0 d9       	lwi333 $r3,[$r3+#0x4]
   c94de:	3c 3f f2 99 	swi.gp $r3,[+#-13724]
   c94e2:	a0 81       	lwi333 $r2,[$r0+#0x4]
   c94e4:	3e 1c 54 ee 	addi.gp $r1,#-240402
   c94e8:	84 01       	movi55 $r0,#1
   c94ea:	dd 22       	jral5 $r2
   c94ec:	fc 80       	pop25 $r6,#0x0    ! {$r6, $fp, $gp, $lp}

000c94ee <hci_1602_lens_ind_cb>:
   c94ee:	fc 00       	push25 $r6,#0x0    ! {$r6, $fp, $gp, $lp}
   c94f0:	3c 0d f2 94 	lwi.gp $r0,[+#-13744]
   c94f4:	3e 1c 5f 14 	addi.gp $r1,#-237804
   c94f8:	a0 c4       	lwi333 $r3,[$r0+#0x10]
   c94fa:	96 11       	zeh33 $r0,$r2
   c94fc:	dd 23       	jral5 $r3
   c94fe:	fc 80       	pop25 $r6,#0x0    ! {$r6, $fp, $gp, $lp}

000c9500 <chip_1602_send_acl_data>:
   c9500:	fc 21       	push25 $r8,#0x8    ! {$r6~$r8, $fp, $gp, $lp}
   c9502:	97 c1       	zeh33 $r7,$r0
   c9504:	3e 0f ca 48 	addi.gp $r0,#-13752
   c9508:	a4 c0       	lhi333 $r3,[$r0+#0x0]
   c950a:	85 00       	movi55 $r8,#0
   c950c:	96 91       	zeh33 $r2,$r2
   c950e:	12 8f 80 03 	shi $r8,[$sp+#0x6]
   c9512:	4c 33 80 43 	beq $r3,$r7,c9598 <chip_1602_send_acl_data+0x98>
   c9516:	a4 c1       	lhi333 $r3,[$r0+#0x2]
   c9518:	4c 33 80 40 	beq $r3,$r7,c9598 <chip_1602_send_acl_data+0x98>
   c951c:	a4 c2       	lhi333 $r3,[$r0+#0x4]
   c951e:	4c 33 80 3d 	beq $r3,$r7,c9598 <chip_1602_send_acl_data+0x98>
   c9522:	a4 03       	lhi333 $r0,[$r0+#0x6]
   c9524:	4c 03 80 3a 	beq $r0,$r7,c9598 <chip_1602_send_acl_data+0x98>
   c9528:	fa 00       	movpi45 $r0,#0x10
   c952a:	49 00 45 8d 	jal d2044 <malloc>
   c952e:	80 c0       	mov55 $r6,$r0
   c9530:	84 04       	movi55 $r0,#4
   c9532:	b6 06       	swi450 $r0,[$r6]
   c9534:	84 05       	movi55 $r0,#5
   c9536:	ae 35       	sbi333 $r0,[$r6+#0x5]
   c9538:	49 00 45 86 	jal d2044 <malloc>
   c953c:	40 30 40 09 	srli $r3,$r0,#16
   c9540:	ac f4       	shi333 $r3,[$r6+#0x8]
   c9542:	96 81       	zeh33 $r2,$r0
   c9544:	40 31 c0 08 	slli $r3,$r3,#16
   c9548:	fa 23       	movpi45 $r1,#0x13
   c954a:	ac b3       	shi333 $r2,[$r6+#0x6]
   c954c:	ae 74       	sbi333 $r1,[$r6+#0x4]
   c954e:	fe 9f       	or33 $r2,$r3
   c9550:	84 21       	movi55 $r1,#1
   c9552:	ae 40       	sbi333 $r1,[$r0+#0x0]
   c9554:	af d1       	sbi333 $r7,[$r2+#0x1]
   c9556:	92 e8       	srli45 $r7,#8
   c9558:	a4 34       	lhi333 $r0,[$r6+#0x8]
   c955a:	a4 b3       	lhi333 $r2,[$r6+#0x6]
   c955c:	40 00 40 08 	slli $r0,$r0,#16
   c9560:	fe 17       	or33 $r0,$r2
   c9562:	af c2       	sbi333 $r7,[$r0+#0x2]
   c9564:	a4 34       	lhi333 $r0,[$r6+#0x8]
   c9566:	a4 b3       	lhi333 $r2,[$r6+#0x6]
   c9568:	40 00 40 08 	slli $r0,$r0,#16
   c956c:	fe 17       	or33 $r0,$r2
   c956e:	ae 43       	sbi333 $r1,[$r0+#0x3]
   c9570:	a4 34       	lhi333 $r0,[$r6+#0x8]
   c9572:	a4 73       	lhi333 $r1,[$r6+#0x6]
   c9574:	40 00 40 08 	slli $r0,$r0,#16
   c9578:	fe 0f       	or33 $r0,$r1
   c957a:	10 80 00 04 	sbi $r8,[$r0+#0x4]
   c957e:	3c 1d f2 95 	lwi.gp $r1,[+#-13740]
   c9582:	80 06       	mov55 $r0,$r6
   c9584:	dd 21       	jral5 $r1
   c9586:	a4 34       	lhi333 $r0,[$r6+#0x8]
   c9588:	a4 73       	lhi333 $r1,[$r6+#0x6]
   c958a:	40 00 40 08 	slli $r0,$r0,#16
   c958e:	fe 0f       	or33 $r0,$r1
   c9590:	49 00 44 f5 	jal d1f7a <free>
   c9594:	80 06       	mov55 $r0,$r6
   c9596:	d5 10       	j8 c95b6 <chip_1602_send_acl_data+0xb6>
   c9598:	80 07       	mov55 $r0,$r7
   c959a:	80 7f       	mov55 $r3,$sp
   c959c:	50 4f 80 06 	addi $r4,$sp,#6
   c95a0:	49 00 05 89 	jal ca0b2 <hci_h4_encode_dat>
   c95a4:	c0 0b       	beqz38 $r0,c95ba <chip_1602_send_acl_data+0xba>
   c95a6:	3c 0d f2 94 	lwi.gp $r0,[+#-13744]
   c95aa:	02 1f 80 03 	lhi $r1,[$sp+#0x6]
   c95ae:	a0 83       	lwi333 $r2,[$r0+#0xc]
   c95b0:	b4 1f       	lwi450 $r0,[$sp]
   c95b2:	dd 22       	jral5 $r2
   c95b4:	b4 1f       	lwi450 $r0,[$sp]
   c95b6:	49 00 44 e2 	jal d1f7a <free>
   c95ba:	fc a1       	pop25 $r8,#0x8    ! {$r6~$r8, $fp, $gp, $lp}

000c95bc <make_command_complete_ex>:
   c95bc:	fc 40       	push25 $r10,#0x0    ! {$r6~$r10, $fp, $gp, $lp}
   c95be:	40 80 00 13 	zeh $r8,$r0
   c95c2:	fa 00       	movpi45 $r0,#0x10
   c95c4:	97 d8       	zeb33 $r7,$r3
   c95c6:	81 22       	mov55 $r9,$r2
   c95c8:	54 a0 80 ff 	andi $r10,$r1,#0xff
   c95cc:	49 00 45 3c 	jal d2044 <malloc>
   c95d0:	80 c0       	mov55 $r6,$r0
   c95d2:	84 04       	movi55 $r0,#4
   c95d4:	b6 06       	swi450 $r0,[$r6]
   c95d6:	98 38       	add333 $r0,$r7,$r0
   c95d8:	ae 35       	sbi333 $r0,[$r6+#0x5]
   c95da:	49 00 45 35 	jal d2044 <malloc>
   c95de:	40 40 40 09 	srli $r4,$r0,#16
   c95e2:	ad 34       	shi333 $r4,[$r6+#0x8]
   c95e4:	96 c1       	zeh33 $r3,$r0
   c95e6:	40 42 40 08 	slli $r4,$r4,#16
   c95ea:	84 2e       	movi55 $r1,#14
   c95ec:	ac f3       	shi333 $r3,[$r6+#0x6]
   c95ee:	ae 74       	sbi333 $r1,[$r6+#0x4]
   c95f0:	fe e7       	or33 $r3,$r4
   c95f2:	84 21       	movi55 $r1,#1
   c95f4:	ae 40       	sbi333 $r1,[$r0+#0x0]
   c95f6:	10 81 80 01 	sbi $r8,[$r3+#0x1]
   c95fa:	93 08       	srli45 $r8,#8
   c95fc:	a4 34       	lhi333 $r0,[$r6+#0x8]
   c95fe:	a4 73       	lhi333 $r1,[$r6+#0x6]
   c9600:	40 00 40 08 	slli $r0,$r0,#16
   c9604:	fe 0f       	or33 $r0,$r1
   c9606:	10 80 00 02 	sbi $r8,[$r0+#0x2]
   c960a:	80 47       	mov55 $r2,$r7
   c960c:	a4 34       	lhi333 $r0,[$r6+#0x8]
   c960e:	a4 73       	lhi333 $r1,[$r6+#0x6]
   c9610:	40 00 40 08 	slli $r0,$r0,#16
   c9614:	fe 0f       	or33 $r0,$r1
   c9616:	10 a0 00 03 	sbi $r10,[$r0+#0x3]
   c961a:	a4 34       	lhi333 $r0,[$r6+#0x8]
   c961c:	a4 73       	lhi333 $r1,[$r6+#0x6]
   c961e:	40 00 40 08 	slli $r0,$r0,#16
   c9622:	fe 0f       	or33 $r0,$r1
   c9624:	9c 04       	addi333 $r0,$r0,#4
   c9626:	80 29       	mov55 $r1,$r9
   c9628:	49 ff f5 10 	jal c8048 <memcpy>
   c962c:	80 06       	mov55 $r0,$r6
   c962e:	fc c0       	pop25 $r10,#0x0    ! {$r6~$r10, $fp, $gp, $lp}

000c9630 <make_command_complete>:
   c9630:	fc 00       	push25 $r6,#0x0    ! {$r6, $fp, $gp, $lp}
   c9632:	84 40       	movi55 $r2,#0
   c9634:	96 48       	zeb33 $r1,$r1
   c9636:	80 62       	mov55 $r3,$r2
   c9638:	96 01       	zeh33 $r0,$r0
   c963a:	49 ff ff c1 	jal c95bc <make_command_complete_ex>
   c963e:	fc 80       	pop25 $r6,#0x0    ! {$r6, $fp, $gp, $lp}

000c9640 <chip_1602_check_chip_cmd_permission>:
   c9640:	fc 20       	push25 $r8,#0x0    ! {$r6~$r8, $fp, $gp, $lp}
   c9642:	2e 17 ca 58 	lbi.gp $r1,[+#-13736]
   c9646:	96 01       	zeh33 $r0,$r0
   c9648:	5a 18 05 04 	bnec $r1,#5,c9650 <chip_1602_check_chip_cmd_permission+0x10>
   c964c:	84 01       	movi55 $r0,#1
   c964e:	d5 13       	j8 c9674 <chip_1602_check_chip_cmd_permission+0x34>
   c9650:	3c 7d f2 95 	lwi.gp $r7,[+#-13740]
   c9654:	fa 3b       	movpi45 $r1,#0x2b
   c9656:	49 ff ff ed 	jal c9630 <make_command_complete>
   c965a:	80 c0       	mov55 $r6,$r0
   c965c:	dd 27       	jral5 $r7
   c965e:	a4 34       	lhi333 $r0,[$r6+#0x8]
   c9660:	a4 73       	lhi333 $r1,[$r6+#0x6]
   c9662:	40 00 40 08 	slli $r0,$r0,#16
   c9666:	fe 0f       	or33 $r0,$r1
   c9668:	49 00 44 89 	jal d1f7a <free>
   c966c:	80 06       	mov55 $r0,$r6
   c966e:	49 00 44 86 	jal d1f7a <free>
   c9672:	84 00       	movi55 $r0,#0
   c9674:	fc a0       	pop25 $r8,#0x0    ! {$r6~$r8, $fp, $gp, $lp}

000c9676 <chip_1602_send_hci_command>:
   c9676:	fc 25       	push25 $r8,#0x28    ! {$r6~$r8, $fp, $gp, $lp}
   c9678:	97 81       	zeh33 $r6,$r0
   c967a:	84 00       	movi55 $r0,#0
   c967c:	12 0f 80 13 	shi $r0,[$sp+#0x26]
   c9680:	44 00 40 01 	movi $r0,#16385
   c9684:	80 e1       	mov55 $r7,$r1
   c9686:	96 90       	zeb33 $r2,$r2
   c9688:	4c 60 00 46 	beq $r6,$r0,c9714 <chip_1602_send_hci_command+0x9e>
   c968c:	e2 06       	slt45 $r0,$r6
   c968e:	e9 0a       	bnezs8 c96a2 <chip_1602_send_hci_command+0x2c>
   c9690:	44 00 20 02 	movi $r0,#8194
   c9694:	4c 60 00 86 	beq $r6,$r0,c97a0 <chip_1602_send_hci_command+0x12a>
   c9698:	44 00 40 00 	movi $r0,#16384
   c969c:	4c 60 40 9a 	bne $r6,$r0,c97d0 <chip_1602_send_hci_command+0x15a>
   c96a0:	d5 09       	j8 c96b2 <chip_1602_send_hci_command+0x3c>
   c96a2:	9c 01       	addi333 $r0,$r0,#1
   c96a4:	4c 60 00 25 	beq $r6,$r0,c96ee <chip_1602_send_hci_command+0x78>
   c96a8:	9c 01       	addi333 $r0,$r0,#1
   c96aa:	4c 60 40 93 	bne $r6,$r0,c97d0 <chip_1602_send_hci_command+0x15a>
   c96ae:	48 00 00 6d 	j c9788 <chip_1602_send_hci_command+0x112>
   c96b2:	80 06       	mov55 $r0,$r6
   c96b4:	49 ff ff c6 	jal c9640 <chip_1602_check_chip_cmd_permission>
   c96b8:	4e 02 00 9d 	beqz $r0,c97f2 <chip_1602_send_hci_command+0x17c>
   c96bc:	b1 85       	addri36.sp $r6,#0x14
   c96be:	84 0e       	movi55 $r0,#14
   c96c0:	ae 30       	sbi333 $r0,[$r6+#0x0]
   c96c2:	44 00 00 31 	movi $r0,#49
   c96c6:	ae 31       	sbi333 $r0,[$r6+#0x1]
   c96c8:	44 0f ff b4 	movi $r0,#-76
   c96cc:	ae 32       	sbi333 $r0,[$r6+#0x2]
   c96ce:	85 06       	movi55 $r8,#6
   c96d0:	8c 10       	addi45 $r0,#16
   c96d2:	ae 33       	sbi333 $r0,[$r6+#0x3]
   c96d4:	10 83 00 04 	sbi $r8,[$r6+#0x4]
   c96d8:	80 27       	mov55 $r1,$r7
   c96da:	84 46       	movi55 $r2,#6
   c96dc:	50 0f 80 19 	addi $r0,$sp,#25
   c96e0:	49 ff f4 b4 	jal c8048 <memcpy>
   c96e4:	3e 87 ca 58 	sbi.gp $r8,[+#-13736]
   c96e8:	84 4b       	movi55 $r2,#11
   c96ea:	80 e6       	mov55 $r7,$r6
   c96ec:	d5 11       	j8 c970e <chip_1602_send_hci_command+0x98>
   c96ee:	80 06       	mov55 $r0,$r6
   c96f0:	49 ff ff a8 	jal c9640 <chip_1602_check_chip_cmd_permission>
   c96f4:	4e 02 00 7f 	beqz $r0,c97f2 <chip_1602_send_hci_command+0x17c>
   c96f8:	3e 0d 2b 6c 	addi.gp $r0,#-185492
   c96fc:	3a 00 04 00 	lmw.bi $r0,[$r0],$r1,#0x0    ! {$r0~$r1}
   c9700:	b1 c5       	addri36.sp $r7,#0x14
   c9702:	f0 85       	swi37.sp $r0,[+#0x14]
   c9704:	ae 7c       	sbi333 $r1,[$r7+#0x4]
   c9706:	84 27       	movi55 $r1,#7
   c9708:	3e 17 ca 58 	sbi.gp $r1,[+#-13736]
   c970c:	84 45       	movi55 $r2,#5
   c970e:	44 60 fc 00 	movi $r6,#64512
   c9712:	d5 5f       	j8 c97d0 <chip_1602_send_hci_command+0x15a>
   c9714:	3e 0d 2b 60 	addi.gp $r0,#-185504
   c9718:	3a 00 08 00 	lmw.bi $r0,[$r0],$r2,#0x0    ! {$r0~$r2}
   c971c:	b0 c5       	addri36.sp $r3,#0x14
   c971e:	50 8f 80 04 	addi $r8,$sp,#4
   c9722:	3a 01 84 24 	smw.bim $r0,[$r3],$r1,#0x0    ! {$r0~$r1}
   c9726:	3e 0d 2b 50 	addi.gp $r0,#-185520
   c972a:	80 88       	mov55 $r4,$r8
   c972c:	ac 98       	shi333 $r2,[$r3+#0x0]
   c972e:	3a 00 0c 00 	lmw.bi $r0,[$r0],$r3,#0x0    ! {$r0~$r3}
   c9732:	3a 02 08 24 	smw.bim $r0,[$r4],$r2,#0x0    ! {$r0~$r2}
   c9736:	80 06       	mov55 $r0,$r6
   c9738:	ac e0       	shi333 $r3,[$r4+#0x0]
   c973a:	49 ff ff 83 	jal c9640 <chip_1602_check_chip_cmd_permission>
   c973e:	c0 5a       	beqz38 $r0,c97f2 <chip_1602_send_hci_command+0x17c>
   c9740:	a6 38       	lbi333 $r0,[$r7+#0x0]
   c9742:	96 82       	seb33 $r2,$r0
   c9744:	50 00 00 21 	addi $r0,$r0,#33
   c9748:	96 00       	zeb33 $r0,$r0
   c974a:	5c f0 00 22 	slti $r15,$r0,#34
   c974e:	e9 08       	bnezs8 c975e <chip_1602_send_hci_command+0xe8>
   c9750:	3c 7d f2 95 	lwi.gp $r7,[+#-13740]
   c9754:	fa 22       	movpi45 $r1,#0x12
   c9756:	80 06       	mov55 $r0,$r6
   c9758:	49 ff ff 6c 	jal c9630 <make_command_complete>
   c975c:	d5 2f       	j8 c97ba <chip_1602_send_hci_command+0x144>
   c975e:	80 28       	mov55 $r1,$r8
   c9760:	84 00       	movi55 $r0,#0
   c9762:	20 30 80 00 	lbsi $r3,[$r1+#0x0]
   c9766:	e0 62       	slts45 $r3,$r2
   c9768:	e8 06       	beqzs8 c9774 <chip_1602_send_hci_command+0xfe>
   c976a:	9c 01       	addi333 $r0,$r0,#1
   c976c:	96 00       	zeb33 $r0,$r0
   c976e:	9c 49       	addi333 $r1,$r1,#1
   c9770:	5a 08 0e f9 	bnec $r0,#14,c9762 <chip_1602_send_hci_command+0xec>
   c9774:	b1 c5       	addri36.sp $r7,#0x14
   c9776:	10 03 80 08 	sbi $r0,[$r7+#0x8]
   c977a:	ae 3f       	sbi333 $r0,[$r7+#0x7]
   c977c:	ae 3e       	sbi333 $r0,[$r7+#0x6]
   c977e:	84 28       	movi55 $r1,#8
   c9780:	3e 17 ca 58 	sbi.gp $r1,[+#-13736]
   c9784:	84 4a       	movi55 $r2,#10
   c9786:	d5 c4       	j8 c970e <chip_1602_send_hci_command+0x98>
   c9788:	b1 c5       	addri36.sp $r7,#0x14
   c978a:	fa 07       	movpi45 $r0,#0x17
   c978c:	ae 38       	sbi333 $r0,[$r7+#0x0]
   c978e:	8c 1a       	addi45 $r0,#26
   c9790:	ae 39       	sbi333 $r0,[$r7+#0x1]
   c9792:	84 43       	movi55 $r2,#3
   c9794:	50 0f 80 16 	addi $r0,$sp,#22
   c9798:	49 ff f4 58 	jal c8048 <memcpy>
   c979c:	84 29       	movi55 $r1,#9
   c979e:	d5 b5       	j8 c9708 <chip_1602_send_hci_command+0x92>
   c97a0:	3c 0d 4a d3 	lwi.gp $r0,[+#-185524]
   c97a4:	b0 85       	addri36.sp $r2,#0x14
   c97a6:	ac 10       	shi333 $r0,[$r2+#0x0]
   c97a8:	92 10       	srli45 $r0,#16
   c97aa:	ae 12       	sbi333 $r0,[$r2+#0x2]
   c97ac:	3c 7d f2 95 	lwi.gp $r7,[+#-13740]
   c97b0:	84 20       	movi55 $r1,#0
   c97b2:	80 06       	mov55 $r0,$r6
   c97b4:	84 63       	movi55 $r3,#3
   c97b6:	49 ff ff 03 	jal c95bc <make_command_complete_ex>
   c97ba:	80 c0       	mov55 $r6,$r0
   c97bc:	dd 27       	jral5 $r7
   c97be:	a4 34       	lhi333 $r0,[$r6+#0x8]
   c97c0:	a4 73       	lhi333 $r1,[$r6+#0x6]
   c97c2:	40 00 40 08 	slli $r0,$r0,#16
   c97c6:	fe 0f       	or33 $r0,$r1
   c97c8:	49 00 43 d9 	jal d1f7a <free>
   c97cc:	80 06       	mov55 $r0,$r6
   c97ce:	d5 10       	j8 c97ee <chip_1602_send_hci_command+0x178>
   c97d0:	fd 03       	movd44 $r0,$r6
   c97d2:	b0 c8       	addri36.sp $r3,#0x20
   c97d4:	50 4f 80 26 	addi $r4,$sp,#38
   c97d8:	49 00 04 8e 	jal ca0f4 <hci_h4_encode_cmd>
   c97dc:	c0 0b       	beqz38 $r0,c97f2 <chip_1602_send_hci_command+0x17c>
   c97de:	3c 0d f2 94 	lwi.gp $r0,[+#-13744]
   c97e2:	02 1f 80 13 	lhi $r1,[$sp+#0x26]
   c97e6:	a0 83       	lwi333 $r2,[$r0+#0xc]
   c97e8:	f0 08       	lwi37.sp $r0,[+#0x20]
   c97ea:	dd 22       	jral5 $r2
   c97ec:	f0 08       	lwi37.sp $r0,[+#0x20]
   c97ee:	49 00 43 c6 	jal d1f7a <free>
   c97f2:	fc a5       	pop25 $r8,#0x28    ! {$r6~$r8, $fp, $gp, $lp}

000c97f4 <chip_1602_init_adopt_mp>:
   c97f4:	fc 42       	push25 $r10,#0x10    ! {$r6~$r10, $fp, $gp, $lp}
   c97f6:	80 e0       	mov55 $r7,$r0
   c97f8:	3e 0d 2c 20 	addi.gp $r0,#-185312
   c97fc:	3a 00 04 00 	lmw.bi $r0,[$r0],$r1,#0x0    ! {$r0~$r1}
   c9800:	12 1f 80 06 	shi $r1,[$sp+#0xc]
   c9804:	92 30       	srli45 $r1,#16
   c9806:	f0 82       	swi37.sp $r0,[+#0x8]
   c9808:	10 1f 80 0e 	sbi $r1,[$sp+#0xe]
   c980c:	cf 33       	bnez38 $r7,c9872 <chip_1602_init_adopt_mp+0x7e>
   c980e:	47 c0 01 00 	sethi $fp,#0x100
   c9812:	3c 0d f2 98 	lwi.gp $r0,[+#-13728]
   c9816:	4e 02 00 82 	beqz $r0,c991a <chip_1602_init_adopt_mp+0x126>
   c981a:	00 80 00 00 	lbi $r8,[$r0+#0x0]
   c981e:	e7 15       	slti45 $r8,#21
   c9820:	4e f2 00 7d 	beqz $r15,c991a <chip_1602_init_adopt_mp+0x126>
   c9824:	85 43       	movi55 $r10,#3
   c9826:	50 94 00 01 	addi $r9,$r8,#1
   c982a:	42 04 a8 24 	mul $r0,$r9,$r10
   c982e:	49 00 44 0b 	jal d2044 <malloc>
   c9832:	80 c0       	mov55 $r6,$r0
   c9834:	fa 08       	movpi45 $r0,#0x18
   c9836:	ae 30       	sbi333 $r0,[$r6+#0x0]
   c9838:	8c 19       	addi45 $r0,#25
   c983a:	ae 31       	sbi333 $r0,[$r6+#0x1]
   c983c:	10 83 00 02 	sbi $r8,[$r6+#0x2]
   c9840:	40 13 28 00 	add $r1,$r6,$r10
   c9844:	3c 2d f2 98 	lwi.gp $r2,[+#-13728]
   c9848:	80 02       	mov55 $r0,$r2
   c984a:	d5 0d       	j8 c9864 <chip_1602_init_adopt_mp+0x70>
   c984c:	80 62       	mov55 $r3,$r2
   c984e:	42 33 a8 73 	maddr32 $r3,$r7,$r10
   c9852:	9d f9       	addi333 $r7,$r7,#1
   c9854:	a7 1a       	lbi333 $r4,[$r3+#0x2]
   c9856:	af 08       	sbi333 $r4,[$r1+#0x0]
   c9858:	a6 db       	lbi333 $r3,[$r3+#0x3]
   c985a:	ae c9       	sbi333 $r3,[$r1+#0x1]
   c985c:	a6 c1       	lbi333 $r3,[$r0+#0x1]
   c985e:	9c 03       	addi333 $r0,$r0,#3
   c9860:	ae ca       	sbi333 $r3,[$r1+#0x2]
   c9862:	9c 4b       	addi333 $r1,$r1,#3
   c9864:	96 f8       	zeb33 $r3,$r7
   c9866:	e2 68       	slt45 $r3,$r8
   c9868:	e9 f2       	bnezs8 c984c <chip_1602_init_adopt_mp+0x58>
   c986a:	84 03       	movi55 $r0,#3
   c986c:	42 94 80 24 	mul $r9,$r9,$r0
   c9870:	d5 44       	j8 c98f8 <chip_1602_init_adopt_mp+0x104>
   c9872:	80 07       	mov55 $r0,$r7
   c9874:	44 10 31 18 	movi $r1,#12568
   c9878:	49 ff fd c1 	jal c93fa <chip_1602_is_vcmd_complete_event>
   c987c:	c0 49       	beqz38 $r0,c990e <chip_1602_init_adopt_mp+0x11a>
   c987e:	3c 0d f2 98 	lwi.gp $r0,[+#-13728]
   c9882:	00 80 00 3d 	lbi $r8,[$r0+#0x3d]
   c9886:	5c f4 00 29 	slti $r15,$r8,#41
   c988a:	e8 48       	beqzs8 c991a <chip_1602_init_adopt_mp+0x126>
   c988c:	84 07       	movi55 $r0,#7
   c988e:	42 04 00 24 	mul $r0,$r8,$r0
   c9892:	9c 03       	addi333 $r0,$r0,#3
   c9894:	49 00 43 d8 	jal d2044 <malloc>
   c9898:	80 c0       	mov55 $r6,$r0
   c989a:	fa 06       	movpi45 $r0,#0x16
   c989c:	ae 30       	sbi333 $r0,[$r6+#0x0]
   c989e:	8c 1b       	addi45 $r0,#27
   c98a0:	ae 31       	sbi333 $r0,[$r6+#0x1]
   c98a2:	10 83 00 02 	sbi $r8,[$r6+#0x2]
   c98a6:	50 93 00 03 	addi $r9,$r6,#3
   c98aa:	3d cd f2 98 	lwi.gp $fp,[+#-13728]
   c98ae:	84 69       	movi55 $r3,#9
   c98b0:	50 ae 00 42 	addi $r10,$fp,#66
   c98b4:	84 e0       	movi55 $r7,#0
   c98b6:	d5 1d       	j8 c98f0 <chip_1602_init_adopt_mp+0xfc>
   c98b8:	42 13 8c 24 	mul $r1,$r7,$r3
   c98bc:	40 0e 04 00 	add $r0,$fp,$r1
   c98c0:	50 00 00 38 	addi $r0,$r0,#56
   c98c4:	a7 06       	lbi333 $r4,[$r0+#0x6]
   c98c6:	88 3c       	add45 $r1,$fp
   c98c8:	18 44 80 01 	sbi.bi $r4,[$r9],#0x1
   c98cc:	50 10 80 42 	addi $r1,$r1,#66
   c98d0:	a6 07       	lbi333 $r0,[$r0+#0x7]
   c98d2:	9d f9       	addi333 $r7,$r7,#1
   c98d4:	18 04 80 01 	sbi.bi $r0,[$r9],#0x1
   c98d8:	00 25 00 00 	lbi $r2,[$r10+#0x0]
   c98dc:	80 09       	mov55 $r0,$r9
   c98de:	9c 91       	addi333 $r2,$r2,#1
   c98e0:	f3 81       	swi37.sp $r3,[+#0x4]
   c98e2:	49 ff f3 b3 	jal c8048 <memcpy>
   c98e6:	08 05 00 09 	lbi.bi $r0,[$r10],#0x9
   c98ea:	f3 01       	lwi37.sp $r3,[+#0x4]
   c98ec:	9c 01       	addi333 $r0,$r0,#1
   c98ee:	89 20       	add45 $r9,$r0
   c98f0:	96 38       	zeb33 $r0,$r7
   c98f2:	e2 08       	slt45 $r0,$r8
   c98f4:	e9 e2       	bnezs8 c98b8 <chip_1602_init_adopt_mp+0xc4>
   c98f6:	8b 26       	sub45 $r9,$r6
   c98f8:	44 00 fc 00 	movi $r0,#64512
   c98fc:	80 26       	mov55 $r1,$r6
   c98fe:	54 24 80 ff 	andi $r2,$r9,#0xff
   c9902:	49 ff fe ba 	jal c9676 <chip_1602_send_hci_command>
   c9906:	80 06       	mov55 $r0,$r6
   c9908:	49 00 43 39 	jal d1f7a <free>
   c990c:	d5 19       	j8 c993e <chip_1602_init_adopt_mp+0x14a>
   c990e:	80 07       	mov55 $r0,$r7
   c9910:	44 10 31 16 	movi $r1,#12566
   c9914:	49 ff fd 73 	jal c93fa <chip_1602_is_vcmd_complete_event>
   c9918:	c0 13       	beqz38 $r0,c993e <chip_1602_init_adopt_mp+0x14a>
   c991a:	84 22       	movi55 $r1,#2
   c991c:	50 0f 80 0d 	addi $r0,$sp,#13
   c9920:	49 00 2e 6f 	jal cf5fe <DRV_TRNG_Get>
   c9924:	44 00 fc 00 	movi $r0,#64512
   c9928:	b0 42       	addri36.sp $r1,#0x8
   c992a:	84 47       	movi55 $r2,#7
   c992c:	49 ff fe a5 	jal c9676 <chip_1602_send_hci_command>
   c9930:	84 25       	movi55 $r1,#5
   c9932:	3e 17 ca 58 	sbi.gp $r1,[+#-13736]
   c9936:	3c 1d f2 97 	lwi.gp $r1,[+#-13732]
   c993a:	84 01       	movi55 $r0,#1
   c993c:	dd 21       	jral5 $r1
   c993e:	fc c2       	pop25 $r10,#0x10    ! {$r6~$r10, $fp, $gp, $lp}

000c9940 <chip_1602_init_config>:
   c9940:	fc 4a       	push25 $r10,#0x50    ! {$r6~$r10, $fp, $gp, $lp}
   c9942:	81 40       	mov55 $r10,$r0
   c9944:	c8 3b       	bnez38 $r0,c99ba <chip_1602_init_config+0x7a>
   c9946:	3c 0d f2 99 	lwi.gp $r0,[+#-13724]
   c994a:	c8 12       	bnez38 $r0,c996e <chip_1602_init_config+0x2e>
   c994c:	b1 82       	addri36.sp $r6,#0x8
   c994e:	80 06       	mov55 $r0,$r6
   c9950:	3e 1d 2b dc 	addi.gp $r1,#-185380
   c9954:	44 20 00 42 	movi $r2,#66
   c9958:	49 ff f3 78 	jal c8048 <memcpy>
   c995c:	44 00 fc 00 	movi $r0,#64512
   c9960:	80 26       	mov55 $r1,$r6
   c9962:	44 20 00 42 	movi $r2,#66
   c9966:	49 ff fe 88 	jal c9676 <chip_1602_send_hci_command>
   c996a:	48 00 00 a3 	j c9ab0 <chip_1602_init_config+0x170>
   c996e:	a7 c0       	lbi333 $r7,[$r0+#0x0]
   c9970:	5c f3 80 64 	slti $r15,$r7,#100
   c9974:	4e f2 00 98 	beqz $r15,c9aa4 <chip_1602_init_config+0x164>
   c9978:	85 43       	movi55 $r10,#3
   c997a:	50 83 80 01 	addi $r8,$r7,#1
   c997e:	42 84 28 24 	mul $r8,$r8,$r10
   c9982:	80 08       	mov55 $r0,$r8
   c9984:	49 00 43 60 	jal d2044 <malloc>
   c9988:	80 c0       	mov55 $r6,$r0
   c998a:	fa 08       	movpi45 $r0,#0x18
   c998c:	ae 30       	sbi333 $r0,[$r6+#0x0]
   c998e:	8c 19       	addi45 $r0,#25
   c9990:	ae 31       	sbi333 $r0,[$r6+#0x1]
   c9992:	42 73 a8 24 	mul $r7,$r7,$r10
   c9996:	3c 1d f2 99 	lwi.gp $r1,[+#-13724]
   c999a:	9c b9       	addi333 $r2,$r7,#1
   c999c:	9c 32       	addi333 $r0,$r6,#2
   c999e:	49 ff f3 55 	jal c8048 <memcpy>
   c99a2:	44 00 fc 00 	movi $r0,#64512
   c99a6:	80 26       	mov55 $r1,$r6
   c99a8:	54 24 00 ff 	andi $r2,$r8,#0xff
   c99ac:	49 ff fe 65 	jal c9676 <chip_1602_send_hci_command>
   c99b0:	80 06       	mov55 $r0,$r6
   c99b2:	49 00 42 e4 	jal d1f7a <free>
   c99b6:	48 00 00 7d 	j c9ab0 <chip_1602_init_config+0x170>
   c99ba:	44 10 31 18 	movi $r1,#12568
   c99be:	49 ff fd 1e 	jal c93fa <chip_1602_is_vcmd_complete_event>
   c99c2:	c0 5a       	beqz38 $r0,c9a76 <chip_1602_init_config+0x136>
   c99c4:	3c 0d f2 99 	lwi.gp $r0,[+#-13724]
   c99c8:	c8 11       	bnez38 $r0,c99ea <chip_1602_init_config+0xaa>
   c99ca:	b1 82       	addri36.sp $r6,#0x8
   c99cc:	80 06       	mov55 $r0,$r6
   c99ce:	3e 1d 2b 94 	addi.gp $r1,#-185452
   c99d2:	44 20 00 46 	movi $r2,#70
   c99d6:	49 ff f3 39 	jal c8048 <memcpy>
   c99da:	44 00 fc 00 	movi $r0,#64512
   c99de:	80 26       	mov55 $r1,$r6
   c99e0:	44 20 00 46 	movi $r2,#70
   c99e4:	49 ff fe 49 	jal c9676 <chip_1602_send_hci_command>
   c99e8:	d5 47       	j8 c9a76 <chip_1602_init_config+0x136>
   c99ea:	00 80 01 2d 	lbi $r8,[$r0+#0x12d]
   c99ee:	5c f4 00 64 	slti $r15,$r8,#100
   c99f2:	e8 59       	beqzs8 c9aa4 <chip_1602_init_config+0x164>
   c99f4:	84 07       	movi55 $r0,#7
   c99f6:	42 04 00 24 	mul $r0,$r8,$r0
   c99fa:	9c 03       	addi333 $r0,$r0,#3
   c99fc:	49 00 43 24 	jal d2044 <malloc>
   c9a00:	80 c0       	mov55 $r6,$r0
   c9a02:	fa 06       	movpi45 $r0,#0x16
   c9a04:	ae 30       	sbi333 $r0,[$r6+#0x0]
   c9a06:	8c 1b       	addi45 $r0,#27
   c9a08:	ae 31       	sbi333 $r0,[$r6+#0x1]
   c9a0a:	10 83 00 02 	sbi $r8,[$r6+#0x2]
   c9a0e:	50 93 00 03 	addi $r9,$r6,#3
   c9a12:	3c 3d f2 99 	lwi.gp $r3,[+#-13724]
   c9a16:	84 89       	movi55 $r4,#9
   c9a18:	51 c1 81 32 	addi $fp,$r3,#306
   c9a1c:	84 e0       	movi55 $r7,#0
   c9a1e:	d5 1e       	j8 c9a5a <chip_1602_init_config+0x11a>
   c9a20:	42 13 90 24 	mul $r1,$r7,$r4
   c9a24:	98 19       	add333 $r0,$r3,$r1
   c9a26:	50 00 01 28 	addi $r0,$r0,#296
   c9a2a:	a6 86       	lbi333 $r2,[$r0+#0x6]
   c9a2c:	98 59       	add333 $r1,$r3,$r1
   c9a2e:	18 24 80 01 	sbi.bi $r2,[$r9],#0x1
   c9a32:	50 10 81 32 	addi $r1,$r1,#306
   c9a36:	a6 07       	lbi333 $r0,[$r0+#0x7]
   c9a38:	9d f9       	addi333 $r7,$r7,#1
   c9a3a:	18 04 80 01 	sbi.bi $r0,[$r9],#0x1
   c9a3e:	00 2e 00 00 	lbi $r2,[$fp+#0x0]
   c9a42:	80 09       	mov55 $r0,$r9
   c9a44:	9c 91       	addi333 $r2,$r2,#1
   c9a46:	f3 81       	swi37.sp $r3,[+#0x4]
   c9a48:	b6 9f       	swi450 $r4,[$sp]
   c9a4a:	49 ff f2 ff 	jal c8048 <memcpy>
   c9a4e:	08 0e 00 09 	lbi.bi $r0,[$fp],#0x9
   c9a52:	b4 9f       	lwi450 $r4,[$sp]
   c9a54:	9c 01       	addi333 $r0,$r0,#1
   c9a56:	f3 01       	lwi37.sp $r3,[+#0x4]
   c9a58:	89 20       	add45 $r9,$r0
   c9a5a:	96 38       	zeb33 $r0,$r7
   c9a5c:	e2 08       	slt45 $r0,$r8
   c9a5e:	e9 e1       	bnezs8 c9a20 <chip_1602_init_config+0xe0>
   c9a60:	8b 26       	sub45 $r9,$r6
   c9a62:	44 00 fc 00 	movi $r0,#64512
   c9a66:	80 26       	mov55 $r1,$r6
   c9a68:	54 24 80 ff 	andi $r2,$r9,#0xff
   c9a6c:	49 ff fe 05 	jal c9676 <chip_1602_send_hci_command>
   c9a70:	80 06       	mov55 $r0,$r6
   c9a72:	49 00 42 84 	jal d1f7a <free>
   c9a76:	80 0a       	mov55 $r0,$r10
   c9a78:	44 10 31 16 	movi $r1,#12566
   c9a7c:	49 ff fc bf 	jal c93fa <chip_1602_is_vcmd_complete_event>
   c9a80:	c0 0c       	beqz38 $r0,c9a98 <chip_1602_init_config+0x158>
   c9a82:	3c 0d 4a e4 	lwi.gp $r0,[+#-185456]
   c9a86:	b0 42       	addri36.sp $r1,#0x8
   c9a88:	ac 08       	shi333 $r0,[$r1+#0x0]
   c9a8a:	92 10       	srli45 $r0,#16
   c9a8c:	ae 0a       	sbi333 $r0,[$r1+#0x2]
   c9a8e:	84 43       	movi55 $r2,#3
   c9a90:	44 00 fc 00 	movi $r0,#64512
   c9a94:	49 ff fd f1 	jal c9676 <chip_1602_send_hci_command>
   c9a98:	80 0a       	mov55 $r0,$r10
   c9a9a:	44 10 30 01 	movi $r1,#12289
   c9a9e:	49 ff fc ae 	jal c93fa <chip_1602_is_vcmd_complete_event>
   c9aa2:	c0 07       	beqz38 $r0,c9ab0 <chip_1602_init_config+0x170>
   c9aa4:	84 24       	movi55 $r1,#4
   c9aa6:	3e 17 ca 58 	sbi.gp $r1,[+#-13736]
   c9aaa:	84 00       	movi55 $r0,#0
   c9aac:	49 ff fe a4 	jal c97f4 <chip_1602_init_adopt_mp>
   c9ab0:	fc ca       	pop25 $r10,#0x50    ! {$r6~$r10, $fp, $gp, $lp}

000c9ab2 <chip_1602_init_sw_reset>:
   c9ab2:	fc 21       	push25 $r8,#0x8    ! {$r6~$r8, $fp, $gp, $lp}
   c9ab4:	80 c0       	mov55 $r6,$r0
   c9ab6:	c8 0f       	bnez38 $r0,c9ad4 <chip_1602_init_sw_reset+0x22>
   c9ab8:	3e 0d 2b 88 	addi.gp $r0,#-185464
   c9abc:	3a 00 04 00 	lmw.bi $r0,[$r0],$r1,#0x0    ! {$r0~$r1}
   c9ac0:	84 46       	movi55 $r2,#6
   c9ac2:	b6 1f       	swi450 $r0,[$sp]
   c9ac4:	12 1f 80 02 	shi $r1,[$sp+#0x4]
   c9ac8:	44 00 fc 00 	movi $r0,#64512
   c9acc:	80 3f       	mov55 $r1,$sp
   c9ace:	49 ff fd d4 	jal c9676 <chip_1602_send_hci_command>
   c9ad2:	d5 4c       	j8 c9b6a <chip_1602_init_sw_reset+0xb8>
   c9ad4:	44 10 31 0e 	movi $r1,#12558
   c9ad8:	49 ff fc 91 	jal c93fa <chip_1602_is_vcmd_complete_event>
   c9adc:	c0 0e       	beqz38 $r0,c9af8 <chip_1602_init_sw_reset+0x46>
   c9ade:	3e 0d 2b 80 	addi.gp $r0,#-185472
   c9ae2:	3a 00 04 00 	lmw.bi $r0,[$r0],$r1,#0x0    ! {$r0~$r1}
   c9ae6:	84 45       	movi55 $r2,#5
   c9ae8:	b6 1f       	swi450 $r0,[$sp]
   c9aea:	10 1f 80 04 	sbi $r1,[$sp+#0x4]
   c9aee:	44 00 fc 00 	movi $r0,#64512
   c9af2:	80 3f       	mov55 $r1,$sp
   c9af4:	49 ff fd c1 	jal c9676 <chip_1602_send_hci_command>
   c9af8:	80 06       	mov55 $r0,$r6
   c9afa:	44 10 31 0f 	movi $r1,#12559
   c9afe:	49 ff fc 7e 	jal c93fa <chip_1602_is_vcmd_complete_event>
   c9b02:	c0 0b       	beqz38 $r0,c9b18 <chip_1602_init_sw_reset+0x66>
   c9b04:	3c 02 95 be 	lhi.gp $r0,[+#-185476]
   c9b08:	80 3f       	mov55 $r1,$sp
   c9b0a:	12 0f 80 00 	shi $r0,[$sp+#0x0]
   c9b0e:	84 42       	movi55 $r2,#2
   c9b10:	44 00 fc 00 	movi $r0,#64512
   c9b14:	49 ff fd b1 	jal c9676 <chip_1602_send_hci_command>
   c9b18:	80 06       	mov55 $r0,$r6
   c9b1a:	44 10 00 80 	movi $r1,#128
   c9b1e:	49 ff fc 96 	jal c944a <chip_1602_is_boot_complete_event>
   c9b22:	c0 14       	beqz38 $r0,c9b4a <chip_1602_init_sw_reset+0x98>
   c9b24:	2e 07 ca 6e 	lbi.gp $r0,[+#-13714]
   c9b28:	c8 11       	bnez38 $r0,c9b4a <chip_1602_init_sw_reset+0x98>
   c9b2a:	3e 0d 2b 74 	addi.gp $r0,#-185484
   c9b2e:	3a 00 04 00 	lmw.bi $r0,[$r0],$r1,#0x0    ! {$r0~$r1}
   c9b32:	84 46       	movi55 $r2,#6
   c9b34:	b6 1f       	swi450 $r0,[$sp]
   c9b36:	12 1f 80 02 	shi $r1,[$sp+#0x4]
   c9b3a:	44 00 fc 00 	movi $r0,#64512
   c9b3e:	80 3f       	mov55 $r1,$sp
   c9b40:	49 ff fd 9b 	jal c9676 <chip_1602_send_hci_command>
   c9b44:	84 01       	movi55 $r0,#1
   c9b46:	3e 07 ca 6e 	sbi.gp $r0,[+#-13714]
   c9b4a:	80 06       	mov55 $r0,$r6
   c9b4c:	44 10 00 80 	movi $r1,#128
   c9b50:	49 ff fc 7d 	jal c944a <chip_1602_is_boot_complete_event>
   c9b54:	c0 0b       	beqz38 $r0,c9b6a <chip_1602_init_sw_reset+0xb8>
   c9b56:	2e 07 ca 6e 	lbi.gp $r0,[+#-13714]
   c9b5a:	5a 08 01 08 	bnec $r0,#1,c9b6a <chip_1602_init_sw_reset+0xb8>
   c9b5e:	84 23       	movi55 $r1,#3
   c9b60:	3e 17 ca 58 	sbi.gp $r1,[+#-13736]
   c9b64:	84 00       	movi55 $r0,#0
   c9b66:	49 ff fe ed 	jal c9940 <chip_1602_init_config>
   c9b6a:	fc a1       	pop25 $r8,#0x8    ! {$r6~$r8, $fp, $gp, $lp}

000c9b6c <chip_1602_init_patching>:
   c9b6c:	fc 40       	push25 $r10,#0x0    ! {$r6~$r10, $fp, $gp, $lp}
   c9b6e:	80 c0       	mov55 $r6,$r0
   c9b70:	c8 0a       	bnez38 $r0,c9b84 <chip_1602_init_patching+0x18>
   c9b72:	3c 6b e5 34 	shi.gp $r6,[+#-13720]
   c9b76:	3c 6b e5 35 	shi.gp $r6,[+#-13718]
   c9b7a:	3e 07 ca 6c 	sbi.gp $r0,[+#-13716]
   c9b7e:	3e 07 ca 6d 	sbi.gp $r0,[+#-13715]
   c9b82:	d5 0d       	j8 c9b9c <chip_1602_init_patching+0x30>
   c9b84:	44 10 31 0e 	movi $r1,#12558
   c9b88:	49 ff fc 39 	jal c93fa <chip_1602_is_vcmd_complete_event>
   c9b8c:	c8 08       	bnez38 $r0,c9b9c <chip_1602_init_patching+0x30>
   c9b8e:	80 06       	mov55 $r0,$r6
   c9b90:	44 10 31 16 	movi $r1,#12566
   c9b94:	49 ff fc 33 	jal c93fa <chip_1602_is_vcmd_complete_event>
   c9b98:	4e 02 00 de 	beqz $r0,c9d54 <chip_1602_init_patching+0x1e8>
   c9b9c:	3c 7d 4a ac 	lwi.gp $r7,[+#-185680]
   c9ba0:	9f fa       	subi333 $r7,$r7,#2
   c9ba2:	3c 03 e5 34 	lhi.gp $r0,[+#-13720]
   c9ba6:	97 f9       	zeh33 $r7,$r7
   c9ba8:	e2 07       	slt45 $r0,$r7
   c9baa:	e8 38       	beqzs8 c9c1a <chip_1602_init_patching+0xae>
   c9bac:	2e 95 20 5d 	lbi.gp $r9,[+#-188323]
   c9bb0:	2e 05 20 5c 	lbi.gp $r0,[+#-188324]
   c9bb4:	40 94 a0 08 	slli $r9,$r9,#8
   c9bb8:	89 20       	add45 $r9,$r0
   c9bba:	44 00 00 f5 	movi $r0,#245
   c9bbe:	49 00 42 43 	jal d2044 <malloc>
   c9bc2:	3c 13 e5 34 	lhi.gp $r1,[+#-13720]
   c9bc6:	40 94 80 13 	zeh $r9,$r9
   c9bca:	9b f9       	sub333 $r7,$r7,$r1
   c9bcc:	80 c0       	mov55 $r6,$r0
   c9bce:	5e f3 80 f1 	sltsi $r15,$r7,#241
   c9bd2:	e9 03       	bnezs8 c9bd8 <chip_1602_init_patching+0x6c>
   c9bd4:	44 70 00 f0 	movi $r7,#240
   c9bd8:	84 0e       	movi55 $r0,#14
   c9bda:	ae 30       	sbi333 $r0,[$r6+#0x0]
   c9bdc:	44 00 00 31 	movi $r0,#49
   c9be0:	ae 31       	sbi333 $r0,[$r6+#0x1]
   c9be2:	40 04 84 00 	add $r0,$r9,$r1
   c9be6:	97 f8       	zeb33 $r7,$r7
   c9be8:	ae 32       	sbi333 $r0,[$r6+#0x2]
   c9bea:	92 08       	srli45 $r0,#8
   c9bec:	ae 33       	sbi333 $r0,[$r6+#0x3]
   c9bee:	3e 2d 20 5c 	addi.gp $r2,#-188324
   c9bf2:	af f4       	sbi333 $r7,[$r6+#0x4]
   c9bf4:	9c 4a       	addi333 $r1,$r1,#2
   c9bf6:	98 4a       	add333 $r1,$r1,$r2
   c9bf8:	9c 35       	addi333 $r0,$r6,#5
   c9bfa:	80 47       	mov55 $r2,$r7
   c9bfc:	49 ff f2 26 	jal c8048 <memcpy>
   c9c00:	9c bd       	addi333 $r2,$r7,#5
   c9c02:	44 00 fc 00 	movi $r0,#64512
   c9c06:	80 26       	mov55 $r1,$r6
   c9c08:	96 90       	zeb33 $r2,$r2
   c9c0a:	49 ff fd 36 	jal c9676 <chip_1602_send_hci_command>
   c9c0e:	80 06       	mov55 $r0,$r6
   c9c10:	49 00 41 b5 	jal d1f7a <free>
   c9c14:	3e 0f ca 68 	addi.gp $r0,#-13720
   c9c18:	d5 3d       	j8 c9c92 <chip_1602_init_patching+0x126>
   c9c1a:	4c 03 80 0a 	beq $r0,$r7,c9c2e <chip_1602_init_patching+0xc2>
   c9c1e:	3e 0d 30 54 	addi.gp $r0,#-184236
   c9c22:	44 10 01 0a 	movi $r1,#266
   c9c26:	3e 2d 30 78 	addi.gp $r2,#-184200
   c9c2a:	49 00 3a 94 	jal d1152 <assert_ab_callback_verbose>
   c9c2e:	3c 72 95 5a 	lhi.gp $r7,[+#-185676]
   c9c32:	3c 03 e5 35 	lhi.gp $r0,[+#-13718]
   c9c36:	e2 07       	slt45 $r0,$r7
   c9c38:	e8 31       	beqzs8 c9c9a <chip_1602_init_patching+0x12e>
   c9c3a:	44 00 00 e6 	movi $r0,#230
   c9c3e:	49 00 42 03 	jal d2044 <malloc>
   c9c42:	3c 13 e5 35 	lhi.gp $r1,[+#-13718]
   c9c46:	80 c0       	mov55 $r6,$r0
   c9c48:	9b f9       	sub333 $r7,$r7,$r1
   c9c4a:	5e f3 80 e1 	sltsi $r15,$r7,#225
   c9c4e:	e9 03       	bnezs8 c9c54 <chip_1602_init_patching+0xe8>
   c9c50:	44 70 00 e0 	movi $r7,#224
   c9c54:	fa 06       	movpi45 $r0,#0x16
   c9c56:	ae 30       	sbi333 $r0,[$r6+#0x0]
   c9c58:	8c 1b       	addi45 $r0,#27
   c9c5a:	97 f8       	zeb33 $r7,$r7
   c9c5c:	ae 31       	sbi333 $r0,[$r6+#0x1]
   c9c5e:	84 07       	movi55 $r0,#7
   c9c60:	40 23 80 77 	divr $r2,$r3,$r7,$r0
   c9c64:	ae b2       	sbi333 $r2,[$r6+#0x2]
   c9c66:	40 10 80 57 	divr $r1,$r2,$r1,$r0
   c9c6a:	3e 2d 28 fc 	addi.gp $r2,#-186116
   c9c6e:	fe 44       	mul33 $r1,$r0
   c9c70:	98 4a       	add333 $r1,$r1,$r2
   c9c72:	9c 33       	addi333 $r0,$r6,#3
   c9c74:	80 47       	mov55 $r2,$r7
   c9c76:	49 ff f1 e9 	jal c8048 <memcpy>
   c9c7a:	9c bb       	addi333 $r2,$r7,#3
   c9c7c:	44 00 fc 00 	movi $r0,#64512
   c9c80:	80 26       	mov55 $r1,$r6
   c9c82:	96 90       	zeb33 $r2,$r2
   c9c84:	49 ff fc f9 	jal c9676 <chip_1602_send_hci_command>
   c9c88:	80 06       	mov55 $r0,$r6
   c9c8a:	49 00 41 78 	jal d1f7a <free>
   c9c8e:	3e 0f ca 6a 	addi.gp $r0,#-13718
   c9c92:	a4 40       	lhi333 $r1,[$r0+#0x0]
   c9c94:	99 f9       	add333 $r7,$r7,$r1
   c9c96:	ad c0       	shi333 $r7,[$r0+#0x0]
   c9c98:	d5 5e       	j8 c9d54 <chip_1602_init_patching+0x1e8>
   c9c9a:	3e 7f ca 6c 	addi.gp $r7,#-13716
   c9c9e:	a6 38       	lbi333 $r0,[$r7+#0x0]
   c9ca0:	e6 04       	slti45 $r0,#4
   c9ca2:	e8 21       	beqzs8 c9ce4 <chip_1602_init_patching+0x178>
   c9ca4:	3e 1d 2b 20 	addi.gp $r1,#-185568
   c9ca8:	94 03       	slli333 $r0,$r0,#3
   c9caa:	98 01       	add333 $r0,$r0,$r1
   c9cac:	00 80 00 02 	lbi $r8,[$r0+#0x2]
   c9cb0:	50 94 00 05 	addi $r9,$r8,#5
   c9cb4:	80 09       	mov55 $r0,$r9
   c9cb6:	49 00 41 c7 	jal d2044 <malloc>
   c9cba:	80 c0       	mov55 $r6,$r0
   c9cbc:	84 0e       	movi55 $r0,#14
   c9cbe:	ae 30       	sbi333 $r0,[$r6+#0x0]
   c9cc0:	44 00 00 31 	movi $r0,#49
   c9cc4:	ae 31       	sbi333 $r0,[$r6+#0x1]
   c9cc6:	3e 1d 2b 20 	addi.gp $r1,#-185568
   c9cca:	a6 38       	lbi333 $r0,[$r7+#0x0]
   c9ccc:	80 41       	mov55 $r2,$r1
   c9cce:	38 10 83 01 	lh $r1,[$r1+($r0<<#0x3)]
   c9cd2:	94 03       	slli333 $r0,$r0,#3
   c9cd4:	ae 72       	sbi333 $r1,[$r6+#0x2]
   c9cd6:	92 28       	srli45 $r1,#8
   c9cd8:	ae 73       	sbi333 $r1,[$r6+#0x3]
   c9cda:	10 83 00 04 	sbi $r8,[$r6+#0x4]
   c9cde:	98 42       	add333 $r1,$r0,$r2
   c9ce0:	9c 35       	addi333 $r0,$r6,#5
   c9ce2:	d5 21       	j8 c9d24 <chip_1602_init_patching+0x1b8>
   c9ce4:	3e 7f ca 6d 	addi.gp $r7,#-13715
   c9ce8:	a6 38       	lbi333 $r0,[$r7+#0x0]
   c9cea:	c8 2f       	bnez38 $r0,c9d48 <chip_1602_init_patching+0x1dc>
   c9cec:	3e ad 2b 44 	addi.gp $r10,#-185532
   c9cf0:	00 85 00 02 	lbi $r8,[$r10+#0x2]
   c9cf4:	50 94 00 06 	addi $r9,$r8,#6
   c9cf8:	80 09       	mov55 $r0,$r9
   c9cfa:	49 00 41 a5 	jal d2044 <malloc>
   c9cfe:	80 c0       	mov55 $r6,$r0
   c9d00:	fa 06       	movpi45 $r0,#0x16
   c9d02:	ae 30       	sbi333 $r0,[$r6+#0x0]
   c9d04:	8c 1b       	addi45 $r0,#27
   c9d06:	ae 31       	sbi333 $r0,[$r6+#0x1]
   c9d08:	84 01       	movi55 $r0,#1
   c9d0a:	ae 32       	sbi333 $r0,[$r6+#0x2]
   c9d0c:	a6 38       	lbi333 $r0,[$r7+#0x0]
   c9d0e:	10 83 00 05 	sbi $r8,[$r6+#0x5]
   c9d12:	38 15 03 01 	lh $r1,[$r10+($r0<<#0x3)]
   c9d16:	94 03       	slli333 $r0,$r0,#3
   c9d18:	ae 73       	sbi333 $r1,[$r6+#0x3]
   c9d1a:	92 28       	srli45 $r1,#8
   c9d1c:	ae 74       	sbi333 $r1,[$r6+#0x4]
   c9d1e:	40 10 28 00 	add $r1,$r0,$r10
   c9d22:	9c 36       	addi333 $r0,$r6,#6
   c9d24:	a0 49       	lwi333 $r1,[$r1+#0x4]
   c9d26:	80 48       	mov55 $r2,$r8
   c9d28:	49 ff f1 90 	jal c8048 <memcpy>
   c9d2c:	44 00 fc 00 	movi $r0,#64512
   c9d30:	80 26       	mov55 $r1,$r6
   c9d32:	54 24 80 ff 	andi $r2,$r9,#0xff
   c9d36:	49 ff fc a0 	jal c9676 <chip_1602_send_hci_command>
   c9d3a:	80 06       	mov55 $r0,$r6
   c9d3c:	49 00 41 1f 	jal d1f7a <free>
   c9d40:	a6 38       	lbi333 $r0,[$r7+#0x0]
   c9d42:	9c 01       	addi333 $r0,$r0,#1
   c9d44:	ae 38       	sbi333 $r0,[$r7+#0x0]
   c9d46:	d5 07       	j8 c9d54 <chip_1602_init_patching+0x1e8>
   c9d48:	84 22       	movi55 $r1,#2
   c9d4a:	3e 17 ca 58 	sbi.gp $r1,[+#-13736]
   c9d4e:	84 00       	movi55 $r0,#0
   c9d50:	49 ff fe b1 	jal c9ab2 <chip_1602_init_sw_reset>
   c9d54:	fc c0       	pop25 $r10,#0x0    ! {$r6~$r10, $fp, $gp, $lp}

000c9d56 <hci_rx_recv>:
   c9d56:	fc 20       	push25 $r8,#0x0    ! {$r6~$r8, $fp, $gp, $lp}
   c9d58:	b5 00       	lwi450 $r8,[$r0]
   c9d5a:	80 c0       	mov55 $r6,$r0
   c9d5c:	85 e4       	movi55 $r15,#4
   c9d5e:	4c 87 c0 c7 	bne $r8,$r15,c9eec <hci_rx_recv+0x196>
   c9d62:	2e 17 ca 58 	lbi.gp $r1,[+#-13736]
   c9d66:	e6 25       	slti45 $r1,#5
   c9d68:	4e f3 00 a2 	bnez $r15,c9eac <hci_rx_recv+0x156>
   c9d6c:	5a 18 06 0c 	bnec $r1,#6,c9d84 <hci_rx_recv+0x2e>
   c9d70:	9c 04       	addi333 $r0,$r0,#4
   c9d72:	44 10 31 0e 	movi $r1,#12558
   c9d76:	49 ff fb 42 	jal c93fa <chip_1602_is_vcmd_complete_event>
   c9d7a:	c0 4f       	beqz38 $r0,c9e18 <hci_rx_recv+0xc2>
   c9d7c:	44 00 40 00 	movi $r0,#16384
   c9d80:	84 20       	movi55 $r1,#0
   c9d82:	d5 24       	j8 c9dca <hci_rx_recv+0x74>
   c9d84:	5a 18 07 13 	bnec $r1,#7,c9daa <hci_rx_recv+0x54>
   c9d88:	9c 04       	addi333 $r0,$r0,#4
   c9d8a:	44 10 31 0f 	movi $r1,#12559
   c9d8e:	49 ff fb 36 	jal c93fa <chip_1602_is_vcmd_complete_event>
   c9d92:	c0 43       	beqz38 $r0,c9e18 <hci_rx_recv+0xc2>
   c9d94:	a4 b4       	lhi333 $r2,[$r6+#0x8]
   c9d96:	a4 33       	lhi333 $r0,[$r6+#0x6]
   c9d98:	40 21 40 08 	slli $r2,$r2,#16
   c9d9c:	fe 87       	or33 $r2,$r0
   c9d9e:	a6 54       	lbi333 $r1,[$r2+#0x4]
   c9da0:	44 00 40 02 	movi $r0,#16386
   c9da4:	9c 95       	addi333 $r2,$r2,#5
   c9da6:	84 66       	movi55 $r3,#6
   c9da8:	d5 26       	j8 c9df4 <hci_rx_recv+0x9e>
   c9daa:	5a 18 08 13 	bnec $r1,#8,c9dd0 <hci_rx_recv+0x7a>
   c9dae:	9c 04       	addi333 $r0,$r0,#4
   c9db0:	44 10 31 16 	movi $r1,#12566
   c9db4:	49 ff fb 23 	jal c93fa <chip_1602_is_vcmd_complete_event>
   c9db8:	c0 30       	beqz38 $r0,c9e18 <hci_rx_recv+0xc2>
   c9dba:	a4 74       	lhi333 $r1,[$r6+#0x8]
   c9dbc:	a4 33       	lhi333 $r0,[$r6+#0x6]
   c9dbe:	40 10 c0 08 	slli $r1,$r1,#16
   c9dc2:	fe 47       	or33 $r1,$r0
   c9dc4:	a6 4c       	lbi333 $r1,[$r1+#0x4]
   c9dc6:	44 00 40 01 	movi $r0,#16385
   c9dca:	49 ff fc 33 	jal c9630 <make_command_complete>
   c9dce:	d5 15       	j8 c9df8 <hci_rx_recv+0xa2>
   c9dd0:	5a 18 09 24 	bnec $r1,#9,c9e18 <hci_rx_recv+0xc2>
   c9dd4:	9c 04       	addi333 $r0,$r0,#4
   c9dd6:	44 10 31 17 	movi $r1,#12567
   c9dda:	49 ff fb 10 	jal c93fa <chip_1602_is_vcmd_complete_event>
   c9dde:	c0 1d       	beqz38 $r0,c9e18 <hci_rx_recv+0xc2>
   c9de0:	a4 b4       	lhi333 $r2,[$r6+#0x8]
   c9de2:	a4 33       	lhi333 $r0,[$r6+#0x6]
   c9de4:	40 21 40 08 	slli $r2,$r2,#16
   c9de8:	fe 87       	or33 $r2,$r0
   c9dea:	a6 54       	lbi333 $r1,[$r2+#0x4]
   c9dec:	44 00 40 03 	movi $r0,#16387
   c9df0:	8c 48       	addi45 $r2,#8
   c9df2:	80 68       	mov55 $r3,$r8
   c9df4:	49 ff fb e4 	jal c95bc <make_command_complete_ex>
   c9df8:	81 00       	mov55 $r8,$r0
   c9dfa:	84 05       	movi55 $r0,#5
   c9dfc:	3e 07 ca 58 	sbi.gp $r0,[+#-13736]
   c9e00:	a4 b4       	lhi333 $r2,[$r6+#0x8]
   c9e02:	a4 73       	lhi333 $r1,[$r6+#0x6]
   c9e04:	40 21 40 08 	slli $r2,$r2,#16
   c9e08:	40 01 04 04 	or $r0,$r2,$r1
   c9e0c:	49 00 40 b7 	jal d1f7a <free>
   c9e10:	80 06       	mov55 $r0,$r6
   c9e12:	49 00 40 b4 	jal d1f7a <free>
   c9e16:	80 c8       	mov55 $r6,$r8
   c9e18:	a6 34       	lbi333 $r0,[$r6+#0x4]
   c9e1a:	5a 08 3e 21 	bnec $r0,#62,c9e5c <hci_rx_recv+0x106>
   c9e1e:	a4 74       	lhi333 $r1,[$r6+#0x8]
   c9e20:	a4 33       	lhi333 $r0,[$r6+#0x6]
   c9e22:	40 10 c0 08 	slli $r1,$r1,#16
   c9e26:	fe 47       	or33 $r1,$r0
   c9e28:	a6 08       	lbi333 $r0,[$r1+#0x0]
   c9e2a:	5a 08 01 61 	bnec $r0,#1,c9eec <hci_rx_recv+0x196>
   c9e2e:	a6 89       	lbi333 $r2,[$r1+#0x1]
   c9e30:	ca 5e       	bnez38 $r2,c9eec <hci_rx_recv+0x196>
   c9e32:	a6 ca       	lbi333 $r3,[$r1+#0x2]
   c9e34:	a7 0b       	lbi333 $r4,[$r1+#0x3]
   c9e36:	3e 1f ca 48 	addi.gp $r1,#-13752
   c9e3a:	a4 88       	lhi333 $r2,[$r1+#0x0]
   c9e3c:	ca 03       	bnez38 $r2,c9e42 <hci_rx_recv+0xec>
   c9e3e:	80 02       	mov55 $r0,$r2
   c9e40:	d5 0a       	j8 c9e54 <hci_rx_recv+0xfe>
   c9e42:	a4 89       	lhi333 $r2,[$r1+#0x2]
   c9e44:	c2 08       	beqz38 $r2,c9e54 <hci_rx_recv+0xfe>
   c9e46:	a4 0a       	lhi333 $r0,[$r1+#0x4]
   c9e48:	c8 03       	bnez38 $r0,c9e4e <hci_rx_recv+0xf8>
   c9e4a:	84 02       	movi55 $r0,#2
   c9e4c:	d5 04       	j8 c9e54 <hci_rx_recv+0xfe>
   c9e4e:	a4 0b       	lhi333 $r0,[$r1+#0x6]
   c9e50:	c8 4e       	bnez38 $r0,c9eec <hci_rx_recv+0x196>
   c9e52:	84 03       	movi55 $r0,#3
   c9e54:	40 22 20 08 	slli $r2,$r4,#8
   c9e58:	98 9a       	add333 $r2,$r3,$r2
   c9e5a:	d5 24       	j8 c9ea2 <hci_rx_recv+0x14c>
   c9e5c:	5a 08 05 48 	bnec $r0,#5,c9eec <hci_rx_recv+0x196>
   c9e60:	a4 74       	lhi333 $r1,[$r6+#0x8]
   c9e62:	a4 33       	lhi333 $r0,[$r6+#0x6]
   c9e64:	40 10 c0 08 	slli $r1,$r1,#16
   c9e68:	fe 47       	or33 $r1,$r0
   c9e6a:	a6 0a       	lbi333 $r0,[$r1+#0x2]
   c9e6c:	a6 49       	lbi333 $r1,[$r1+#0x1]
   c9e6e:	40 00 20 08 	slli $r0,$r0,#8
   c9e72:	98 01       	add333 $r0,$r0,$r1
   c9e74:	3e 1f ca 48 	addi.gp $r1,#-13752
   c9e78:	a4 88       	lhi333 $r2,[$r1+#0x0]
   c9e7a:	96 01       	zeh33 $r0,$r0
   c9e7c:	4c 20 40 04 	bne $r2,$r0,c9e84 <hci_rx_recv+0x12e>
   c9e80:	84 00       	movi55 $r0,#0
   c9e82:	d5 0f       	j8 c9ea0 <hci_rx_recv+0x14a>
   c9e84:	a4 89       	lhi333 $r2,[$r1+#0x2]
   c9e86:	4c 20 40 04 	bne $r2,$r0,c9e8e <hci_rx_recv+0x138>
   c9e8a:	84 01       	movi55 $r0,#1
   c9e8c:	d5 0a       	j8 c9ea0 <hci_rx_recv+0x14a>
   c9e8e:	a4 8a       	lhi333 $r2,[$r1+#0x4]
   c9e90:	4c 20 40 04 	bne $r2,$r0,c9e98 <hci_rx_recv+0x142>
   c9e94:	84 02       	movi55 $r0,#2
   c9e96:	d5 05       	j8 c9ea0 <hci_rx_recv+0x14a>
   c9e98:	a4 4b       	lhi333 $r1,[$r1+#0x6]
   c9e9a:	4c 10 40 29 	bne $r1,$r0,c9eec <hci_rx_recv+0x196>
   c9e9e:	84 03       	movi55 $r0,#3
   c9ea0:	84 40       	movi55 $r2,#0
   c9ea2:	3e 1f ca 48 	addi.gp $r1,#-13752
   c9ea6:	38 20 81 09 	sh $r2,[$r1+($r0<<#0x1)]
   c9eaa:	d5 21       	j8 c9eec <hci_rx_recv+0x196>
   c9eac:	9c 04       	addi333 $r0,$r0,#4
   c9eae:	5a 10 02 16 	beqc $r1,#2,c9eda <hci_rx_recv+0x184>
   c9eb2:	e6 23       	slti45 $r1,#3
   c9eb4:	e8 04       	beqzs8 c9ebc <hci_rx_recv+0x166>
   c9eb6:	5a 18 01 07 	bnec $r1,#1,c9ec4 <hci_rx_recv+0x16e>
   c9eba:	d5 0d       	j8 c9ed4 <hci_rx_recv+0x17e>
   c9ebc:	5a 10 03 12 	beqc $r1,#3,c9ee0 <hci_rx_recv+0x18a>
   c9ec0:	5a 10 04 13 	beqc $r1,#4,c9ee6 <hci_rx_recv+0x190>
   c9ec4:	84 20       	movi55 $r1,#0
   c9ec6:	49 ff fa c2 	jal c944a <chip_1602_is_boot_complete_event>
   c9eca:	c0 15       	beqz38 $r0,c9ef4 <hci_rx_recv+0x19e>
   c9ecc:	84 21       	movi55 $r1,#1
   c9ece:	3e 17 ca 58 	sbi.gp $r1,[+#-13736]
   c9ed2:	84 00       	movi55 $r0,#0
   c9ed4:	49 ff fe 4c 	jal c9b6c <chip_1602_init_patching>
   c9ed8:	d5 0e       	j8 c9ef4 <hci_rx_recv+0x19e>
   c9eda:	49 ff fd ec 	jal c9ab2 <chip_1602_init_sw_reset>
   c9ede:	d5 0b       	j8 c9ef4 <hci_rx_recv+0x19e>
   c9ee0:	49 ff fd 30 	jal c9940 <chip_1602_init_config>
   c9ee4:	d5 08       	j8 c9ef4 <hci_rx_recv+0x19e>
   c9ee6:	49 ff fc 87 	jal c97f4 <chip_1602_init_adopt_mp>
   c9eea:	d5 05       	j8 c9ef4 <hci_rx_recv+0x19e>
   c9eec:	3c 1d f2 95 	lwi.gp $r1,[+#-13740]
   c9ef0:	80 06       	mov55 $r0,$r6
   c9ef2:	dd 21       	jral5 $r1
   c9ef4:	b4 06       	lwi450 $r0,[$r6]
   c9ef6:	5a 08 04 08 	bnec $r0,#4,c9f06 <hci_rx_recv+0x1b0>
   c9efa:	a4 34       	lhi333 $r0,[$r6+#0x8]
   c9efc:	a4 73       	lhi333 $r1,[$r6+#0x6]
   c9efe:	40 00 40 08 	slli $r0,$r0,#16
   c9f02:	fe 0f       	or33 $r0,$r1
   c9f04:	d5 02       	j8 c9f08 <hci_rx_recv+0x1b2>
   c9f06:	a0 32       	lwi333 $r0,[$r6+#0x8]
   c9f08:	49 00 40 39 	jal d1f7a <free>
   c9f0c:	80 06       	mov55 $r0,$r6
   c9f0e:	49 00 40 36 	jal d1f7a <free>
   c9f12:	fc a0       	pop25 $r8,#0x0    ! {$r6~$r8, $fp, $gp, $lp}

000c9f14 <hci_1602_read_cfm_cb>:
   c9f14:	fc 41       	push25 $r10,#0x8    ! {$r6~$r10, $fp, $gp, $lp}
   c9f16:	81 01       	mov55 $r8,$r1
   c9f18:	97 d1       	zeh33 $r7,$r2
   c9f1a:	b1 81       	addri36.sp $r6,#0x4
   c9f1c:	d5 07       	j8 c9f2a <hci_1602_read_cfm_cb+0x16>
   c9f1e:	c0 03       	beqz38 $r0,c9f24 <hci_1602_read_cfm_cb+0x10>
   c9f20:	49 ff ff 1b 	jal c9d56 <hci_rx_recv>
   c9f24:	8a e9       	sub45 $r7,$r9
   c9f26:	89 07       	add45 $r8,$r7
   c9f28:	80 e9       	mov55 $r7,$r9
   c9f2a:	80 08       	mov55 $r0,$r8
   c9f2c:	80 27       	mov55 $r1,$r7
   c9f2e:	80 46       	mov55 $r2,$r6
   c9f30:	49 00 00 17 	jal c9f5e <hci_h4_decode>
   c9f34:	40 90 00 13 	zeh $r9,$r0
   c9f38:	f0 01       	lwi37.sp $r0,[+#0x4]
   c9f3a:	4e 93 ff f2 	bnez $r9,c9f1e <hci_1602_read_cfm_cb+0xa>
   c9f3e:	c0 04       	beqz38 $r0,c9f46 <hci_1602_read_cfm_cb+0x32>
   c9f40:	49 ff ff 0b 	jal c9d56 <hci_rx_recv>
   c9f44:	d5 0c       	j8 c9f5c <hci_1602_read_cfm_cb+0x48>
   c9f46:	00 14 00 00 	lbi $r1,[$r8+#0x0]
   c9f4a:	3e 0d 30 b0 	addi.gp $r0,#-184144
   c9f4e:	80 47       	mov55 $r2,$r7
   c9f50:	49 00 40 ef 	jal d212e <printf>
   c9f54:	3c 0d f2 94 	lwi.gp $r0,[+#-13744]
   c9f58:	a0 05       	lwi333 $r0,[$r0+#0x14]
   c9f5a:	dd 20       	jral5 $r0
   c9f5c:	fc c1       	pop25 $r10,#0x8    ! {$r6~$r10, $fp, $gp, $lp}

000c9f5e <hci_h4_decode>:
   c9f5e:	fc 40       	push25 $r10,#0x0    ! {$r6~$r10, $fp, $gp, $lp}
   c9f60:	97 89       	zeh33 $r6,$r1
   c9f62:	80 e0       	mov55 $r7,$r0
   c9f64:	83 82       	mov55 $fp,$r2
   c9f66:	4e 62 00 a4 	beqz $r6,ca0ae <hci_h4_decode+0x150>
   c9f6a:	3c 8d f1 9f 	lwi.gp $r8,[+#-14724]
   c9f6e:	4e 83 00 08 	bnez $r8,c9f7e <hci_h4_decode+0x20>
   c9f72:	fa 00       	movpi45 $r0,#0x10
   c9f74:	49 00 40 68 	jal d2044 <malloc>
   c9f78:	3c 0f f1 9f 	swi.gp $r0,[+#-14724]
   c9f7c:	b7 00       	swi450 $r8,[$r0]
   c9f7e:	84 00       	movi55 $r0,#0
   c9f80:	b6 1c       	swi450 $r0,[$fp]
   c9f82:	3e 8f c6 7c 	addi.gp $r8,#-14724
   c9f86:	b4 08       	lwi450 $r0,[$r8]
   c9f88:	b4 00       	lwi450 $r0,[$r0]
   c9f8a:	85 e2       	movi55 $r15,#2
   c9f8c:	4c 07 80 73 	beq $r0,$r15,ca072 <hci_h4_decode+0x114>
   c9f90:	85 e4       	movi55 $r15,#4
   c9f92:	4c 07 80 70 	beq $r0,$r15,ca072 <hci_h4_decode+0x114>
   c9f96:	4e 03 00 8c 	bnez $r0,ca0ae <hci_h4_decode+0x150>
   c9f9a:	a6 78       	lbi333 $r1,[$r7+#0x0]
   c9f9c:	5a 10 02 05 	beqc $r1,#2,c9fa6 <hci_h4_decode+0x48>
   c9fa0:	5a 18 04 54 	bnec $r1,#4,ca048 <hci_h4_decode+0xea>
   c9fa4:	d5 2c       	j8 c9ffc <hci_h4_decode+0x9e>
   c9fa6:	e6 c5       	slti45 $r6,#5
   c9fa8:	e8 09       	beqzs8 c9fba <hci_h4_decode+0x5c>
   c9faa:	3e 0d 30 d8 	addi.gp $r0,#-184104
   c9fae:	44 10 00 63 	movi $r1,#99
   c9fb2:	3e 2d 30 e4 	addi.gp $r2,#-184092
   c9fb6:	49 00 38 ce 	jal d1152 <assert_ab_callback_verbose>
   c9fba:	a6 3a       	lbi333 $r0,[$r7+#0x2]
   c9fbc:	a6 79       	lbi333 $r1,[$r7+#0x1]
   c9fbe:	b5 28       	lwi450 $r9,[$r8]
   c9fc0:	40 00 20 08 	slli $r0,$r0,#8
   c9fc4:	98 01       	add333 $r0,$r0,$r1
   c9fc6:	12 04 80 02 	shi $r0,[$r9+#0x4]
   c9fca:	9f b5       	subi333 $r6,$r6,#5
   c9fcc:	a6 3c       	lbi333 $r0,[$r7+#0x4]
   c9fce:	a6 7b       	lbi333 $r1,[$r7+#0x3]
   c9fd0:	40 00 20 08 	slli $r0,$r0,#8
   c9fd4:	98 01       	add333 $r0,$r0,$r1
   c9fd6:	96 01       	zeh33 $r0,$r0
   c9fd8:	12 04 80 03 	shi $r0,[$r9+#0x6]
   c9fdc:	97 b1       	zeh33 $r6,$r6
   c9fde:	49 00 40 33 	jal d2044 <malloc>
   c9fe2:	14 04 80 02 	swi $r0,[$r9+#0x8]
   c9fe6:	3c 0f f2 9c 	swi.gp $r0,[+#-13712]
   c9fea:	b4 28       	lwi450 $r1,[$r8]
   c9fec:	02 94 80 03 	lhi $r9,[$r9+#0x6]
   c9ff0:	84 42       	movi55 $r2,#2
   c9ff2:	9d fd       	addi333 $r7,$r7,#5
   c9ff4:	b6 41       	swi450 $r2,[$r1]
   c9ff6:	3c 9b e5 3a 	shi.gp $r9,[+#-13708]
   c9ffa:	d5 3a       	j8 ca06e <hci_h4_decode+0x110>
   c9ffc:	e6 c3       	slti45 $r6,#3
   c9ffe:	e8 09       	beqzs8 ca010 <hci_h4_decode+0xb2>
   ca000:	3e 0d 31 14 	addi.gp $r0,#-184044
   ca004:	44 10 00 75 	movi $r1,#117
   ca008:	3e 2d 30 e4 	addi.gp $r2,#-184092
   ca00c:	49 00 38 a3 	jal d1152 <assert_ab_callback_verbose>
   ca010:	b5 28       	lwi450 $r9,[$r8]
   ca012:	a6 39       	lbi333 $r0,[$r7+#0x1]
   ca014:	9f b3       	subi333 $r6,$r6,#3
   ca016:	10 04 80 04 	sbi $r0,[$r9+#0x4]
   ca01a:	97 b1       	zeh33 $r6,$r6
   ca01c:	a6 3a       	lbi333 $r0,[$r7+#0x2]
   ca01e:	9d fb       	addi333 $r7,$r7,#3
   ca020:	10 04 80 05 	sbi $r0,[$r9+#0x5]
   ca024:	49 00 40 10 	jal d2044 <malloc>
   ca028:	40 10 40 09 	srli $r1,$r0,#16
   ca02c:	12 04 80 03 	shi $r0,[$r9+#0x6]
   ca030:	12 14 80 04 	shi $r1,[$r9+#0x8]
   ca034:	3c 0f f2 9c 	swi.gp $r0,[+#-13712]
   ca038:	b4 28       	lwi450 $r1,[$r8]
   ca03a:	00 04 80 05 	lbi $r0,[$r9+#0x5]
   ca03e:	84 44       	movi55 $r2,#4
   ca040:	b6 41       	swi450 $r2,[$r1]
   ca042:	3c 0b e5 3a 	shi.gp $r0,[+#-13708]
   ca046:	d5 14       	j8 ca06e <hci_h4_decode+0x110>
   ca048:	c9 03       	bnez38 $r1,ca04e <hci_h4_decode+0xf0>
   ca04a:	5a 60 01 0f 	beqc $r6,#1,ca068 <hci_h4_decode+0x10a>
   ca04e:	80 46       	mov55 $r2,$r6
   ca050:	3e 0d 31 20 	addi.gp $r0,#-184032
   ca054:	49 00 40 6d 	jal d212e <printf>
   ca058:	3e 0d 31 38 	addi.gp $r0,#-184008
   ca05c:	44 10 00 87 	movi $r1,#135
   ca060:	3e 2d 30 e4 	addi.gp $r2,#-184092
   ca064:	49 00 38 77 	jal d1152 <assert_ab_callback_verbose>
   ca068:	9f b1       	subi333 $r6,$r6,#1
   ca06a:	97 b1       	zeh33 $r6,$r6
   ca06c:	9d f9       	addi333 $r7,$r7,#1
   ca06e:	ce 8c       	bnez38 $r6,c9f86 <hci_h4_decode+0x28>
   ca070:	d5 1f       	j8 ca0ae <hci_h4_decode+0x150>
   ca072:	3c 03 e5 3a 	lhi.gp $r0,[+#-13708]
   ca076:	81 26       	mov55 $r9,$r6
   ca078:	e2 06       	slt45 $r0,$r6
   ca07a:	e8 02       	beqzs8 ca07e <hci_h4_decode+0x120>
   ca07c:	81 20       	mov55 $r9,$r0
   ca07e:	40 94 80 13 	zeh $r9,$r9
   ca082:	3c 0d f2 9c 	lwi.gp $r0,[+#-13712]
   ca086:	80 27       	mov55 $r1,$r7
   ca088:	80 49       	mov55 $r2,$r9
   ca08a:	49 ff ef df 	jal c8048 <memcpy>
   ca08e:	3c 03 e5 3a 	lhi.gp $r0,[+#-13708]
   ca092:	8a c9       	sub45 $r6,$r9
   ca094:	8a 09       	sub45 $r0,$r9
   ca096:	96 01       	zeh33 $r0,$r0
   ca098:	97 b1       	zeh33 $r6,$r6
   ca09a:	3c 0b e5 3a 	shi.gp $r0,[+#-13708]
   ca09e:	c8 08       	bnez38 $r0,ca0ae <hci_h4_decode+0x150>
   ca0a0:	46 10 01 00 	sethi $r1,#0x100
   ca0a4:	3c 2d f1 9f 	lwi.gp $r2,[+#-14724]
   ca0a8:	b6 5c       	swi450 $r2,[$fp]
   ca0aa:	3c 0f f1 9f 	swi.gp $r0,[+#-14724]
   ca0ae:	80 06       	mov55 $r0,$r6
   ca0b0:	fc c0       	pop25 $r10,#0x0    ! {$r6~$r10, $fp, $gp, $lp}

000ca0b2 <hci_h4_encode_dat>:
   ca0b2:	fc 40       	push25 $r10,#0x0    ! {$r6~$r10, $fp, $gp, $lp}
   ca0b4:	97 91       	zeh33 $r6,$r2
   ca0b6:	9d f5       	addi333 $r7,$r6,#5
   ca0b8:	40 80 00 13 	zeh $r8,$r0
   ca0bc:	80 07       	mov55 $r0,$r7
   ca0be:	83 83       	mov55 $fp,$r3
   ca0c0:	81 41       	mov55 $r10,$r1
   ca0c2:	81 24       	mov55 $r9,$r4
   ca0c4:	49 00 3f c0 	jal d2044 <malloc>
   ca0c8:	b6 1c       	swi450 $r0,[$fp]
   ca0ca:	c0 14       	beqz38 $r0,ca0f2 <hci_h4_encode_dat+0x40>
   ca0cc:	84 22       	movi55 $r1,#2
   ca0ce:	ae 40       	sbi333 $r1,[$r0+#0x0]
   ca0d0:	10 80 00 01 	sbi $r8,[$r0+#0x1]
   ca0d4:	40 13 20 09 	srli $r1,$r6,#8
   ca0d8:	93 08       	srli45 $r8,#8
   ca0da:	ae 44       	sbi333 $r1,[$r0+#0x4]
   ca0dc:	10 80 00 02 	sbi $r8,[$r0+#0x2]
   ca0e0:	af 83       	sbi333 $r6,[$r0+#0x3]
   ca0e2:	80 2a       	mov55 $r1,$r10
   ca0e4:	9c 05       	addi333 $r0,$r0,#5
   ca0e6:	80 46       	mov55 $r2,$r6
   ca0e8:	49 ff ef b0 	jal c8048 <memcpy>
   ca0ec:	12 74 80 00 	shi $r7,[$r9+#0x0]
   ca0f0:	84 01       	movi55 $r0,#1
   ca0f2:	fc c0       	pop25 $r10,#0x0    ! {$r6~$r10, $fp, $gp, $lp}

000ca0f4 <hci_h4_encode_cmd>:
   ca0f4:	fc 40       	push25 $r10,#0x0    ! {$r6~$r10, $fp, $gp, $lp}
   ca0f6:	97 90       	zeb33 $r6,$r2
   ca0f8:	9d f4       	addi333 $r7,$r6,#4
   ca0fa:	40 80 00 13 	zeh $r8,$r0
   ca0fe:	80 07       	mov55 $r0,$r7
   ca100:	83 83       	mov55 $fp,$r3
   ca102:	81 41       	mov55 $r10,$r1
   ca104:	81 24       	mov55 $r9,$r4
   ca106:	49 00 3f 9f 	jal d2044 <malloc>
   ca10a:	b6 1c       	swi450 $r0,[$fp]
   ca10c:	c0 11       	beqz38 $r0,ca12e <hci_h4_encode_cmd+0x3a>
   ca10e:	10 80 00 01 	sbi $r8,[$r0+#0x1]
   ca112:	84 21       	movi55 $r1,#1
   ca114:	93 08       	srli45 $r8,#8
   ca116:	ae 40       	sbi333 $r1,[$r0+#0x0]
   ca118:	10 80 00 02 	sbi $r8,[$r0+#0x2]
   ca11c:	af 83       	sbi333 $r6,[$r0+#0x3]
   ca11e:	80 2a       	mov55 $r1,$r10
   ca120:	9c 04       	addi333 $r0,$r0,#4
   ca122:	80 46       	mov55 $r2,$r6
   ca124:	49 ff ef 92 	jal c8048 <memcpy>
   ca128:	12 74 80 00 	shi $r7,[$r9+#0x0]
   ca12c:	84 01       	movi55 $r0,#1
   ca12e:	fc c0       	pop25 $r10,#0x0    ! {$r6~$r10, $fp, $gp, $lp}

000ca130 <bt_infom_ap>:
   ca130:	fc 00       	push25 $r6,#0x0    ! {$r6, $fp, $gp, $lp}
   ca132:	3c 1d f2 9e 	lwi.gp $r1,[+#-13704]
   ca136:	c1 02       	beqz38 $r1,ca13a <bt_infom_ap+0xa>
   ca138:	dd 21       	jral5 $r1
   ca13a:	fc 80       	pop25 $r6,#0x0    ! {$r6, $fp, $gp, $lp}

000ca13c <BT_Log_Enable>:
   ca13c:	fc 00       	push25 $r6,#0x0    ! {$r6, $fp, $gp, $lp}
   ca13e:	96 00       	zeb33 $r0,$r0
   ca140:	49 00 2e 9b 	jal cfe76 <hci_log_set>
   ca144:	fc 80       	pop25 $r6,#0x0    ! {$r6, $fp, $gp, $lp}

000ca146 <BT_Pending_TxCnt>:
   ca146:	fc 00       	push25 $r6,#0x0    ! {$r6, $fp, $gp, $lp}
   ca148:	49 00 2f 40 	jal cffc8 <hci_pending_acl>
   ca14c:	fc 80       	pop25 $r6,#0x0    ! {$r6, $fp, $gp, $lp}

000ca14e <BT_InitEx2>:
   ca14e:	fc 4d       	push25 $r10,#0x68    ! {$r6~$r10, $fp, $gp, $lp}
   ca150:	54 91 00 ff 	andi $r9,$r2,#0xff
   ca154:	f0 81       	swi37.sp $r0,[+#0x4]
   ca156:	80 c1       	mov55 $r6,$r1
   ca158:	83 83       	mov55 $fp,$r3
   ca15a:	e7 26       	slti45 $r9,#6
   ca15c:	4e f3 00 8c 	bnez $r15,ca274 <BT_InitEx2+0x126>
   ca160:	b0 0f       	addri36.sp $r0,#0x3c
   ca162:	84 20       	movi55 $r1,#0
   ca164:	fa 58       	movpi45 $r2,#0x28
   ca166:	50 73 00 08 	addi $r7,$r6,#8
   ca16a:	49 ff ef 8f 	jal c8088 <memset>
   ca16e:	b4 07       	lwi450 $r0,[$r7]
   ca170:	4e 02 00 7e 	beqz $r0,ca26c <BT_InitEx2+0x11e>
   ca174:	04 a3 00 03 	lwi $r10,[$r6+#0xc]
   ca178:	b0 42       	addri36.sp $r1,#0x8
   ca17a:	50 25 00 05 	addi $r2,$r10,#5
   ca17e:	50 0f 80 0e 	addi $r0,$sp,#14
   ca182:	08 31 7f ff 	lbi.bi $r3,[$r2],#-0x1
   ca186:	18 30 80 01 	sbi.bi $r3,[$r1],#0x1
   ca18a:	4c 10 7f fc 	bne $r1,$r0,ca182 <BT_InitEx2+0x34>
   ca18e:	b4 07       	lwi450 $r0,[$r7]
   ca190:	b0 4f       	addri36.sp $r1,#0x3c
   ca192:	fa 58       	movpi45 $r2,#0x28
   ca194:	49 ff ef 4e 	jal c8030 <memcmp>
   ca198:	c8 21       	bnez38 $r0,ca1da <BT_InitEx2+0x8c>
   ca19a:	50 8f 80 08 	addi $r8,$sp,#8
   ca19e:	80 08       	mov55 $r0,$r8
   ca1a0:	3e 1d 31 3c 	addi.gp $r1,#-184004
   ca1a4:	84 43       	movi55 $r2,#3
   ca1a6:	49 ff ef 45 	jal c8030 <memcmp>
   ca1aa:	c0 16       	beqz38 $r0,ca1d6 <BT_InitEx2+0x88>
   ca1ac:	80 08       	mov55 $r0,$r8
   ca1ae:	3e 1d 31 40 	addi.gp $r1,#-184000
   ca1b2:	84 43       	movi55 $r2,#3
   ca1b4:	49 ff ef 3e 	jal c8030 <memcmp>
   ca1b8:	c0 0f       	beqz38 $r0,ca1d6 <BT_InitEx2+0x88>
   ca1ba:	80 08       	mov55 $r0,$r8
   ca1bc:	3e 1d 31 44 	addi.gp $r1,#-183996
   ca1c0:	84 43       	movi55 $r2,#3
   ca1c2:	49 ff ef 37 	jal c8030 <memcmp>
   ca1c6:	c0 08       	beqz38 $r0,ca1d6 <BT_InitEx2+0x88>
   ca1c8:	80 08       	mov55 $r0,$r8
   ca1ca:	3e 1d 31 48 	addi.gp $r1,#-183992
   ca1ce:	84 43       	movi55 $r2,#3
   ca1d0:	49 ff ef 30 	jal c8030 <memcmp>
   ca1d4:	c8 03       	bnez38 $r0,ca1da <BT_InitEx2+0x8c>
   ca1d6:	84 20       	movi55 $r1,#0
   ca1d8:	d5 4c       	j8 ca270 <BT_InitEx2+0x122>
   ca1da:	04 83 00 04 	lwi $r8,[$r6+#0x10]
   ca1de:	50 1f 80 0e 	addi $r1,$sp,#14
   ca1e2:	4e 82 00 0d 	beqz $r8,ca1fc <BT_InitEx2+0xae>
   ca1e6:	80 08       	mov55 $r0,$r8
   ca1e8:	b6 3f       	swi450 $r1,[$sp]
   ca1ea:	49 ff ef 87 	jal c80f8 <strlen>
   ca1ee:	b4 3f       	lwi450 $r1,[$sp]
   ca1f0:	96 80       	zeb33 $r2,$r0
   ca1f2:	10 2f 80 67 	sbi $r2,[$sp+#0x67]
   ca1f6:	80 01       	mov55 $r0,$r1
   ca1f8:	80 28       	mov55 $r1,$r8
   ca1fa:	d5 08       	j8 ca20a <BT_InitEx2+0xbc>
   ca1fc:	fa 0c       	movpi45 $r0,#0x1c
   ca1fe:	10 0f 80 67 	sbi $r0,[$sp+#0x67]
   ca202:	fa 4c       	movpi45 $r2,#0x1c
   ca204:	80 01       	mov55 $r0,$r1
   ca206:	3e 1d 31 4c 	addi.gp $r1,#-183988
   ca20a:	49 ff ef 1f 	jal c8048 <memcpy>
   ca20e:	00 0f 80 67 	lbi $r0,[$sp+#0x67]
   ca212:	5c f0 00 23 	slti $r15,$r0,#35
   ca216:	e9 04       	bnezs8 ca21e <BT_InitEx2+0xd0>
   ca218:	fa 12       	movpi45 $r0,#0x22
   ca21a:	10 0f 80 67 	sbi $r0,[$sp+#0x67]
   ca21e:	00 2f 80 67 	lbi $r2,[$sp+#0x67]
   ca222:	a1 35       	lwi333 $r4,[$r6+#0x14]
   ca224:	9c 96       	addi333 $r2,$r2,#6
   ca226:	96 90       	zeb33 $r2,$r2
   ca228:	10 2f 80 67 	sbi $r2,[$sp+#0x67]
   ca22c:	b0 0f       	addri36.sp $r0,#0x3c
   ca22e:	00 55 00 00 	lbi $r5,[$r10+#0x0]
   ca232:	c4 0b       	beqz38 $r4,ca248 <BT_InitEx2+0xfa>
   ca234:	50 1f 80 67 	addi $r1,$sp,#103
   ca238:	dd 24       	jral5 $r4
   ca23a:	b4 07       	lwi450 $r0,[$r7]
   ca23c:	fa 58       	movpi45 $r2,#0x28
   ca23e:	b0 4f       	addri36.sp $r1,#0x3c
   ca240:	49 ff ee f8 	jal c8030 <memcmp>
   ca244:	c0 0c       	beqz38 $r0,ca25c <BT_InitEx2+0x10e>
   ca246:	d5 0e       	j8 ca262 <BT_InitEx2+0x114>
   ca248:	97 5f       	fexti33 $r5,#0x3
   ca24a:	b0 42       	addri36.sp $r1,#0x8
   ca24c:	3e 3d 2c 38 	addi.gp $r3,#-185288
   ca250:	3e 4d 2c 58 	addi.gp $r4,#-185256
   ca254:	8c aa       	addi45 $r5,#10
   ca256:	49 00 2b d6 	jal cfa02 <Encrypt>
   ca25a:	d5 f0       	j8 ca23a <BT_InitEx2+0xec>
   ca25c:	3e 07 c6 c0 	sbi.gp $r0,[+#-14656]
   ca260:	d5 0a       	j8 ca274 <BT_InitEx2+0x126>
   ca262:	44 0f ff bb 	movi $r0,#-69
   ca266:	3e 07 c6 c0 	sbi.gp $r0,[+#-14656]
   ca26a:	d5 05       	j8 ca274 <BT_InitEx2+0x126>
   ca26c:	44 1f ff aa 	movi $r1,#-86
   ca270:	3e 17 c6 c0 	sbi.gp $r1,[+#-14656]
   ca274:	f0 01       	lwi37.sp $r0,[+#0x4]
   ca276:	3c 0f f2 9e 	swi.gp $r0,[+#-13704]
   ca27a:	3e 2c 67 78 	addi.gp $r2,#-235656
   ca27e:	3e 1c 6d ea 	addi.gp $r1,#-234006
   ca282:	80 66       	mov55 $r3,$r6
   ca284:	80 89       	mov55 $r4,$r9
   ca286:	3e 0c 62 9a 	addi.gp $r0,#-236902
   ca28a:	49 00 30 3f 	jal d0308 <hci_cmd_evt_dat_init>
   ca28e:	80 1c       	mov55 $r0,$fp
   ca290:	49 ff ff 56 	jal ca13c <BT_Log_Enable>
   ca294:	49 00 29 f9 	jal cf686 <Drv_MMITimerDisable>
   ca298:	fc cd       	pop25 $r10,#0x68    ! {$r6~$r10, $fp, $gp, $lp}

000ca29a <hci_init_done>:
   ca29a:	fc 06       	push25 $r6,#0x30    ! {$r6, $fp, $gp, $lp}
   ca29c:	96 40       	zeb33 $r1,$r0
   ca29e:	c1 0a       	beqz38 $r1,ca2b2 <hci_init_done+0x18>
   ca2a0:	84 20       	movi55 $r1,#0
   ca2a2:	44 00 10 05 	movi $r0,#4101
   ca2a6:	80 41       	mov55 $r2,$r1
   ca2a8:	3e 3c 62 c4 	addi.gp $r3,#-236860
   ca2ac:	49 00 2f d2 	jal d0250 <hci_send_cmd>
   ca2b0:	d5 09       	j8 ca2c2 <hci_init_done+0x28>
   ca2b2:	3c 2d f2 9e 	lwi.gp $r2,[+#-13704]
   ca2b6:	c2 06       	beqz38 $r2,ca2c2 <hci_init_done+0x28>
   ca2b8:	b6 3f       	swi450 $r1,[$sp]
   ca2ba:	10 1f 80 04 	sbi $r1,[$sp+#0x4]
   ca2be:	80 1f       	mov55 $r0,$sp
   ca2c0:	dd 22       	jral5 $r2
   ca2c2:	fc 86       	pop25 $r6,#0x30    ! {$r6, $fp, $gp, $lp}

000ca2c4 <bt_init_read_buf_size>:
   ca2c4:	fc 06       	push25 $r6,#0x30    ! {$r6, $fp, $gp, $lp}
   ca2c6:	a7 8a       	lbi333 $r6,[$r1+#0x2]
   ca2c8:	a6 09       	lbi333 $r0,[$r1+#0x1]
   ca2ca:	40 63 20 08 	slli $r6,$r6,#8
   ca2ce:	99 b0       	add333 $r6,$r6,$r0
   ca2d0:	a6 0b       	lbi333 $r0,[$r1+#0x3]
   ca2d2:	97 b1       	zeh33 $r6,$r6
   ca2d4:	c0 0e       	beqz38 $r0,ca2f0 <bt_init_read_buf_size+0x2c>
   ca2d6:	84 20       	movi55 $r1,#0
   ca2d8:	44 00 20 02 	movi $r0,#8194
   ca2dc:	80 41       	mov55 $r2,$r1
   ca2de:	3e 3c 62 c4 	addi.gp $r3,#-236860
   ca2e2:	49 00 2f b7 	jal d0250 <hci_send_cmd>
   ca2e6:	44 00 20 02 	movi $r0,#8194
   ca2ea:	4c 60 40 32 	bne $r6,$r0,ca34e <bt_init_read_buf_size+0x8a>
   ca2ee:	d5 26       	j8 ca33a <bt_init_read_buf_size+0x76>
   ca2f0:	44 30 10 05 	movi $r3,#4101
   ca2f4:	a6 0d       	lbi333 $r0,[$r1+#0x5]
   ca2f6:	a6 8c       	lbi333 $r2,[$r1+#0x4]
   ca2f8:	4c 61 c0 0e 	bne $r6,$r3,ca314 <bt_init_read_buf_size+0x50>
   ca2fc:	00 30 80 08 	lbi $r3,[$r1+#0x8]
   ca300:	40 00 20 08 	slli $r0,$r0,#8
   ca304:	98 02       	add333 $r0,$r0,$r2
   ca306:	a6 8f       	lbi333 $r2,[$r1+#0x7]
   ca308:	40 31 a0 08 	slli $r3,$r3,#8
   ca30c:	98 5a       	add333 $r1,$r3,$r2
   ca30e:	96 01       	zeh33 $r0,$r0
   ca310:	96 49       	zeh33 $r1,$r1
   ca312:	d5 06       	j8 ca31e <bt_init_read_buf_size+0x5a>
   ca314:	40 00 20 08 	slli $r0,$r0,#8
   ca318:	98 02       	add333 $r0,$r0,$r2
   ca31a:	a6 4e       	lbi333 $r1,[$r1+#0x6]
   ca31c:	96 01       	zeh33 $r0,$r0
   ca31e:	49 00 2e 4f 	jal cffbc <hci_dat_info_update>
   ca322:	49 00 05 34 	jal cad8a <l2cap_init>
   ca326:	49 00 0f 4e 	jal cc1c2 <att_init>
   ca32a:	49 00 04 82 	jal cac2e <BLE_gap_sm_init>
   ca32e:	49 00 06 77 	jal cb01c <l2cap_lesig_init>
   ca332:	2e 07 c6 c0 	lbi.gp $r0,[+#-14656]
   ca336:	49 00 00 35 	jal ca3a0 <ble_gap_init>
   ca33a:	3c 1d f2 9e 	lwi.gp $r1,[+#-13704]
   ca33e:	c1 08       	beqz38 $r1,ca34e <bt_init_read_buf_size+0x8a>
   ca340:	84 40       	movi55 $r2,#0
   ca342:	b6 5f       	swi450 $r2,[$sp]
   ca344:	84 41       	movi55 $r2,#1
   ca346:	10 2f 80 04 	sbi $r2,[$sp+#0x4]
   ca34a:	80 1f       	mov55 $r0,$sp
   ca34c:	dd 21       	jral5 $r1
   ca34e:	fc 86       	pop25 $r6,#0x30    ! {$r6, $fp, $gp, $lp}

000ca350 <generic_status_complete_cb>:
   ca350:	fc 06       	push25 $r6,#0x30    ! {$r6, $fp, $gp, $lp}
   ca352:	96 48       	zeb33 $r1,$r1
   ca354:	80 7f       	mov55 $r3,$sp
   ca356:	b6 1f       	swi450 $r0,[$sp]
   ca358:	5a 10 0e 05 	beqc $r1,#14,ca362 <generic_status_complete_cb+0x12>
   ca35c:	5a 18 0f 0b 	bnec $r1,#15,ca372 <generic_status_complete_cb+0x22>
   ca360:	d5 03       	j8 ca366 <generic_status_complete_cb+0x16>
   ca362:	a6 13       	lbi333 $r0,[$r2+#0x3]
   ca364:	d5 02       	j8 ca368 <generic_status_complete_cb+0x18>
   ca366:	a6 10       	lbi333 $r0,[$r2+#0x0]
   ca368:	c0 05       	beqz38 $r0,ca372 <generic_status_complete_cb+0x22>
   ca36a:	ae 1c       	sbi333 $r0,[$r3+#0x4]
   ca36c:	80 1f       	mov55 $r0,$sp
   ca36e:	49 ff fe e1 	jal ca130 <bt_infom_ap>
   ca372:	fc 86       	pop25 $r6,#0x30    ! {$r6, $fp, $gp, $lp}

000ca374 <generic_encrypt_cb>:
   ca374:	fc 00       	push25 $r6,#0x0    ! {$r6, $fp, $gp, $lp}
   ca376:	80 a1       	mov55 $r5,$r1
   ca378:	80 83       	mov55 $r4,$r3
   ca37a:	96 40       	zeb33 $r1,$r0
   ca37c:	96 d0       	zeb33 $r3,$r2
   ca37e:	44 00 10 07 	movi $r0,#4103
   ca382:	80 45       	mov55 $r2,$r5
   ca384:	49 ff ff e6 	jal ca350 <generic_status_complete_cb>
   ca388:	fc 80       	pop25 $r6,#0x0    ! {$r6, $fp, $gp, $lp}

000ca38a <generic_conn_update_cb>:
   ca38a:	fc 00       	push25 $r6,#0x0    ! {$r6, $fp, $gp, $lp}
   ca38c:	80 a1       	mov55 $r5,$r1
   ca38e:	80 83       	mov55 $r4,$r3
   ca390:	96 40       	zeb33 $r1,$r0
   ca392:	96 d0       	zeb33 $r3,$r2
   ca394:	44 00 10 08 	movi $r0,#4104
   ca398:	80 45       	mov55 $r2,$r5
   ca39a:	49 ff ff db 	jal ca350 <generic_status_complete_cb>
   ca39e:	fc 80       	pop25 $r6,#0x0    ! {$r6, $fp, $gp, $lp}

000ca3a0 <ble_gap_init>:
   ca3a0:	fc 00       	push25 $r6,#0x0    ! {$r6, $fp, $gp, $lp}
   ca3a2:	96 40       	zeb33 $r1,$r0
   ca3a4:	3e 17 c6 c1 	sbi.gp $r1,[+#-14655]
   ca3a8:	3e 2f c1 14 	addi.gp $r2,#-16108
   ca3ac:	ae 50       	sbi333 $r1,[$r2+#0x0]
   ca3ae:	3e 17 c1 1c 	sbi.gp $r1,[+#-16100]
   ca3b2:	c9 09       	bnez38 $r1,ca3c4 <ble_gap_init+0x24>
   ca3b4:	44 00 40 02 	movi $r0,#16386
   ca3b8:	80 41       	mov55 $r2,$r1
   ca3ba:	3e 3c 64 1a 	addi.gp $r3,#-236518
   ca3be:	49 00 2f 49 	jal d0250 <hci_send_cmd>
   ca3c2:	d5 09       	j8 ca3d4 <ble_gap_init+0x34>
   ca3c4:	84 60       	movi55 $r3,#0
   ca3c6:	80 22       	mov55 $r1,$r2
   ca3c8:	44 00 40 00 	movi $r0,#16384
   ca3cc:	84 46       	movi55 $r2,#6
   ca3ce:	80 83       	mov55 $r4,$r3
   ca3d0:	49 00 2e d5 	jal d017a <hci_send_cmd_ex>
   ca3d4:	fc 80       	pop25 $r6,#0x0    ! {$r6, $fp, $gp, $lp}

000ca3d6 <ble_gap_tx_power_set>:
   ca3d6:	fc 01       	push25 $r6,#0x8    ! {$r6, $fp, $gp, $lp}
   ca3d8:	84 41       	movi55 $r2,#1
   ca3da:	80 81       	mov55 $r4,$r1
   ca3dc:	10 0f 80 04 	sbi $r0,[$sp+#0x4]
   ca3e0:	b0 41       	addri36.sp $r1,#0x4
   ca3e2:	44 00 40 01 	movi $r0,#16385
   ca3e6:	3e 3c 64 56 	addi.gp $r3,#-236458
   ca3ea:	49 00 2e c8 	jal d017a <hci_send_cmd_ex>
   ca3ee:	84 00       	movi55 $r0,#0
   ca3f0:	fc 81       	pop25 $r6,#0x8    ! {$r6, $fp, $gp, $lp}

000ca3f2 <set_adv_parm_cb>:
   ca3f2:	fc 01       	push25 $r6,#0x8    ! {$r6, $fp, $gp, $lp}
   ca3f4:	84 01       	movi55 $r0,#1
   ca3f6:	10 0f 80 07 	sbi $r0,[$sp+#0x7]
   ca3fa:	80 83       	mov55 $r4,$r3
   ca3fc:	a6 4b       	lbi333 $r1,[$r1+#0x3]
   ca3fe:	c1 04       	beqz38 $r1,ca406 <set_adv_parm_cb+0x14>
   ca400:	84 00       	movi55 $r0,#0
   ca402:	dd 23       	jral5 $r3
   ca404:	d5 0a       	j8 ca418 <set_adv_parm_cb+0x26>
   ca406:	44 00 20 0a 	movi $r0,#8202
   ca40a:	50 1f 80 07 	addi $r1,$sp,#7
   ca40e:	84 41       	movi55 $r2,#1
   ca410:	3e 3c 64 56 	addi.gp $r3,#-236458
   ca414:	49 00 2e b3 	jal d017a <hci_send_cmd_ex>
   ca418:	fc 81       	pop25 $r6,#0x8    ! {$r6, $fp, $gp, $lp}

000ca41a <gap_init_cb>:
   ca41a:	fc 20       	push25 $r8,#0x0    ! {$r6~$r8, $fp, $gp, $lp}
   ca41c:	a6 0b       	lbi333 $r0,[$r1+#0x3]
   ca41e:	80 c1       	mov55 $r6,$r1
   ca420:	a7 c9       	lbi333 $r7,[$r1+#0x1]
   ca422:	00 80 80 02 	lbi $r8,[$r1+#0x2]
   ca426:	c0 09       	beqz38 $r0,ca438 <gap_init_cb+0x1e>
   ca428:	3e 0d 31 6c 	addi.gp $r0,#-183956
   ca42c:	44 10 00 93 	movi $r1,#147
   ca430:	3e 2d 31 78 	addi.gp $r2,#-183944
   ca434:	49 00 36 8f 	jal d1152 <assert_ab_callback_verbose>
   ca438:	40 14 20 08 	slli $r1,$r8,#8
   ca43c:	98 79       	add333 $r1,$r7,$r1
   ca43e:	96 49       	zeh33 $r1,$r1
   ca440:	44 00 40 02 	movi $r0,#16386
   ca444:	4c 10 40 08 	bne $r1,$r0,ca454 <gap_init_cb+0x3a>
   ca448:	3e 0f c1 14 	addi.gp $r0,#-16108
   ca44c:	9c 74       	addi333 $r1,$r6,#4
   ca44e:	84 46       	movi55 $r2,#6
   ca450:	49 ff ed fc 	jal c8048 <memcpy>
   ca454:	fc a0       	pop25 $r8,#0x0    ! {$r6~$r8, $fp, $gp, $lp}

000ca456 <generic_complete_cb>:
   ca456:	fc 00       	push25 $r6,#0x0    ! {$r6, $fp, $gp, $lp}
   ca458:	a6 0a       	lbi333 $r0,[$r1+#0x2]
   ca45a:	80 c1       	mov55 $r6,$r1
   ca45c:	a6 49       	lbi333 $r1,[$r1+#0x1]
   ca45e:	40 00 20 08 	slli $r0,$r0,#8
   ca462:	98 01       	add333 $r0,$r0,$r1
   ca464:	96 01       	zeh33 $r0,$r0
   ca466:	44 10 20 0a 	movi $r1,#8202
   ca46a:	4c 00 80 39 	beq $r0,$r1,ca4dc <generic_complete_cb+0x86>
   ca46e:	5c f0 20 0b 	slti $r15,$r0,#8203
   ca472:	e8 0f       	beqzs8 ca490 <generic_complete_cb+0x3a>
   ca474:	9e 4c       	subi333 $r1,$r1,#4
   ca476:	4c 00 80 37 	beq $r0,$r1,ca4e4 <generic_complete_cb+0x8e>
   ca47a:	5c f0 20 07 	slti $r15,$r0,#8199
   ca47e:	e8 05       	beqzs8 ca488 <generic_complete_cb+0x32>
   ca480:	9e 49       	subi333 $r1,$r1,#1
   ca482:	4c 00 c0 37 	bne $r0,$r1,ca4f0 <generic_complete_cb+0x9a>
   ca486:	d5 1d       	j8 ca4c0 <generic_complete_cb+0x6a>
   ca488:	5c f0 20 08 	slti $r15,$r0,#8200
   ca48c:	e9 32       	bnezs8 ca4f0 <generic_complete_cb+0x9a>
   ca48e:	d5 2b       	j8 ca4e4 <generic_complete_cb+0x8e>
   ca490:	9c 4c       	addi333 $r1,$r1,#4
   ca492:	4c 00 80 29 	beq $r0,$r1,ca4e4 <generic_complete_cb+0x8e>
   ca496:	5c f0 20 0f 	slti $r15,$r0,#8207
   ca49a:	e8 05       	beqzs8 ca4a4 <generic_complete_cb+0x4e>
   ca49c:	5c f0 20 0d 	slti $r15,$r0,#8205
   ca4a0:	e8 28       	beqzs8 ca4f0 <generic_complete_cb+0x9a>
   ca4a2:	d5 21       	j8 ca4e4 <generic_complete_cb+0x8e>
   ca4a4:	44 10 40 00 	movi $r1,#16384
   ca4a8:	4c 00 80 06 	beq $r0,$r1,ca4b4 <generic_complete_cb+0x5e>
   ca4ac:	9c 49       	addi333 $r1,$r1,#1
   ca4ae:	4c 00 c0 21 	bne $r0,$r1,ca4f0 <generic_complete_cb+0x9a>
   ca4b2:	d5 19       	j8 ca4e4 <generic_complete_cb+0x8e>
   ca4b4:	9c 1c       	addi333 $r0,$r3,#4
   ca4b6:	3a 00 04 00 	lmw.bi $r0,[$r0],$r1,#0x0    ! {$r0~$r1}
   ca4ba:	3e 2f c1 14 	addi.gp $r2,#-16108
   ca4be:	d5 06       	j8 ca4ca <generic_complete_cb+0x74>
   ca4c0:	9c 1c       	addi333 $r0,$r3,#4
   ca4c2:	3a 00 04 00 	lmw.bi $r0,[$r0],$r1,#0x0    ! {$r0~$r1}
   ca4c6:	3e 2f c1 1c 	addi.gp $r2,#-16100
   ca4ca:	aa 11       	swi333.bi $r0,[$r2],#0x4
   ca4cc:	ac 50       	shi333 $r1,[$r2+#0x0]
   ca4ce:	b4 43       	lwi450 $r2,[$r3]
   ca4d0:	c2 10       	beqz38 $r2,ca4f0 <generic_complete_cb+0x9a>
   ca4d2:	a6 73       	lbi333 $r1,[$r6+#0x3]
   ca4d4:	5c 00 80 01 	slti $r0,$r1,#1
   ca4d8:	dd 22       	jral5 $r2
   ca4da:	d5 0b       	j8 ca4f0 <generic_complete_cb+0x9a>
   ca4dc:	2e 17 ca 80 	lbi.gp $r1,[+#-13696]
   ca4e0:	3e 17 ca 81 	sbi.gp $r1,[+#-13695]
   ca4e4:	c3 10       	beqz38 $r3,ca504 <generic_complete_cb+0xae>
   ca4e6:	a6 73       	lbi333 $r1,[$r6+#0x3]
   ca4e8:	5c 00 80 01 	slti $r0,$r1,#1
   ca4ec:	dd 23       	jral5 $r3
   ca4ee:	d5 0b       	j8 ca504 <generic_complete_cb+0xae>
   ca4f0:	a6 33       	lbi333 $r0,[$r6+#0x3]
   ca4f2:	c0 09       	beqz38 $r0,ca504 <generic_complete_cb+0xae>
   ca4f4:	3e 0d 31 6c 	addi.gp $r0,#-183956
   ca4f8:	44 10 00 d1 	movi $r1,#209
   ca4fc:	3e 2d 31 78 	addi.gp $r2,#-183944
   ca500:	49 00 36 29 	jal d1152 <assert_ab_callback_verbose>
   ca504:	fc 80       	pop25 $r6,#0x0    ! {$r6, $fp, $gp, $lp}

000ca506 <ble_gap_start_encrypt>:
   ca506:	fc 05       	push25 $r6,#0x28    ! {$r6, $fp, $gp, $lp}
   ca508:	b1 83       	addri36.sp $r6,#0xc
   ca50a:	12 0f 80 02 	shi $r0,[$sp+#0x4]
   ca50e:	fa 4a       	movpi45 $r2,#0x1a
   ca510:	ac 30       	shi333 $r0,[$r6+#0x0]
   ca512:	50 0f 80 0e 	addi $r0,$sp,#14
   ca516:	49 ff ed 99 	jal c8048 <memcpy>
   ca51a:	44 00 20 19 	movi $r0,#8217
   ca51e:	80 26       	mov55 $r1,$r6
   ca520:	fa 4c       	movpi45 $r2,#0x1c
   ca522:	3e 3c 63 74 	addi.gp $r3,#-236684
   ca526:	49 00 2e 95 	jal d0250 <hci_send_cmd>
   ca52a:	84 00       	movi55 $r0,#0
   ca52c:	fc 85       	pop25 $r6,#0x28    ! {$r6, $fp, $gp, $lp}

000ca52e <ble_gap_address_set>:
   ca52e:	fc 40       	push25 $r10,#0x0    ! {$r6~$r10, $fp, $gp, $lp}
   ca530:	a6 80       	lbi333 $r2,[$r0+#0x0]
   ca532:	80 e0       	mov55 $r7,$r0
   ca534:	81 21       	mov55 $r9,$r1
   ca536:	e6 43       	slti45 $r2,#3
   ca538:	e8 03       	beqzs8 ca53e <ble_gap_address_set+0x10>
   ca53a:	ca 20       	bnez38 $r2,ca57a <ble_gap_address_set+0x4c>
   ca53c:	d5 06       	j8 ca548 <ble_gap_address_set+0x1a>
   ca53e:	5a 20 03 03 	beqc $r2,#3,ca544 <ble_gap_address_set+0x16>
   ca542:	d5 3b       	j8 ca5b8 <ble_gap_address_set+0x8a>
   ca544:	80 02       	mov55 $r0,$r2
   ca546:	d5 3a       	j8 ca5ba <ble_gap_address_set+0x8c>
   ca548:	84 0c       	movi55 $r0,#12
   ca54a:	49 00 3d 7d 	jal d2044 <malloc>
   ca54e:	80 40       	mov55 $r2,$r0
   ca550:	1c 91 00 01 	swi.bi $r9,[$r2],#0x4
   ca554:	80 c0       	mov55 $r6,$r0
   ca556:	2e 07 c6 c1 	lbi.gp $r0,[+#-14655]
   ca55a:	c8 07       	bnez38 $r0,ca568 <ble_gap_address_set+0x3a>
   ca55c:	80 02       	mov55 $r0,$r2
   ca55e:	9c 79       	addi333 $r1,$r7,#1
   ca560:	84 46       	movi55 $r2,#6
   ca562:	49 ff ed 73 	jal c8048 <memcpy>
   ca566:	d5 07       	j8 ca574 <ble_gap_address_set+0x46>
   ca568:	3e 0f c1 14 	addi.gp $r0,#-16108
   ca56c:	3a 00 04 00 	lmw.bi $r0,[$r0],$r1,#0x0    ! {$r0~$r1}
   ca570:	aa 11       	swi333.bi $r0,[$r2],#0x4
   ca572:	ac 50       	shi333 $r1,[$r2+#0x0]
   ca574:	44 00 40 00 	movi $r0,#16384
   ca578:	d5 19       	j8 ca5aa <ble_gap_address_set+0x7c>
   ca57a:	84 0c       	movi55 $r0,#12
   ca57c:	49 00 3d 64 	jal d2044 <malloc>
   ca580:	80 40       	mov55 $r2,$r0
   ca582:	1c 91 00 01 	swi.bi $r9,[$r2],#0x4
   ca586:	80 c0       	mov55 $r6,$r0
   ca588:	2e 07 c6 c1 	lbi.gp $r0,[+#-14655]
   ca58c:	c8 07       	bnez38 $r0,ca59a <ble_gap_address_set+0x6c>
   ca58e:	80 02       	mov55 $r0,$r2
   ca590:	9c 79       	addi333 $r1,$r7,#1
   ca592:	84 46       	movi55 $r2,#6
   ca594:	49 ff ed 5a 	jal c8048 <memcpy>
   ca598:	d5 07       	j8 ca5a6 <ble_gap_address_set+0x78>
   ca59a:	3e 0f c1 1c 	addi.gp $r0,#-16100
   ca59e:	3a 00 04 00 	lmw.bi $r0,[$r0],$r1,#0x0    ! {$r0~$r1}
   ca5a2:	aa 11       	swi333.bi $r0,[$r2],#0x4
   ca5a4:	ac 50       	shi333 $r1,[$r2+#0x0]
   ca5a6:	44 00 20 05 	movi $r0,#8197
   ca5aa:	9c 74       	addi333 $r1,$r6,#4
   ca5ac:	84 46       	movi55 $r2,#6
   ca5ae:	3e 3c 64 56 	addi.gp $r3,#-236458
   ca5b2:	80 86       	mov55 $r4,$r6
   ca5b4:	49 00 2d e3 	jal d017a <hci_send_cmd_ex>
   ca5b8:	84 00       	movi55 $r0,#0
   ca5ba:	fc c0       	pop25 $r10,#0x0    ! {$r6~$r10, $fp, $gp, $lp}

000ca5bc <ble_gap_conn_param_update>:
   ca5bc:	fc 25       	push25 $r8,#0x28    ! {$r6~$r8, $fp, $gp, $lp}
   ca5be:	12 0f 80 02 	shi $r0,[$sp+#0x4]
   ca5c2:	96 01       	zeh33 $r0,$r0
   ca5c4:	81 01       	mov55 $r8,$r1
   ca5c6:	49 00 02 1a 	jal ca9fa <ble_gap_link_GetIdx_ByHandle>
   ca5ca:	80 c0       	mov55 $r6,$r0
   ca5cc:	5a 08 ff 04 	bnec $r0,#255,ca5d4 <ble_gap_conn_param_update+0x18>
   ca5d0:	84 01       	movi55 $r0,#1
   ca5d2:	d5 36       	j8 ca63e <ble_gap_conn_param_update+0x82>
   ca5d4:	b1 c7       	addri36.sp $r7,#0x1c
   ca5d6:	80 07       	mov55 $r0,$r7
   ca5d8:	80 28       	mov55 $r1,$r8
   ca5da:	84 4c       	movi55 $r2,#12
   ca5dc:	49 ff ed 36 	jal c8048 <memcpy>
   ca5e0:	a4 38       	lhi333 $r0,[$r7+#0x0]
   ca5e2:	5a 08 06 12 	bnec $r0,#6,ca606 <ble_gap_conn_param_update+0x4a>
   ca5e6:	3e 2d 2c 64 	addi.gp $r2,#-185244
   ca5ea:	a4 7a       	lhi333 $r1,[$r7+#0x4]
   ca5ec:	50 31 00 27 	addi $r3,$r2,#39
   ca5f0:	a6 10       	lbi333 $r0,[$r2+#0x0]
   ca5f2:	e2 20       	slt45 $r1,$r0
   ca5f4:	e9 08       	bnezs8 ca604 <ble_gap_conn_param_update+0x48>
   ca5f6:	4c 10 40 04 	bne $r1,$r0,ca5fe <ble_gap_conn_param_update+0x42>
   ca5fa:	9c 49       	addi333 $r1,$r1,#1
   ca5fc:	96 49       	zeh33 $r1,$r1
   ca5fe:	9c 91       	addi333 $r2,$r2,#1
   ca600:	4c 21 ff f8 	bne $r2,$r3,ca5f0 <ble_gap_conn_param_update+0x34>
   ca604:	ac 7a       	shi333 $r1,[$r7+#0x4]
   ca606:	80 06       	mov55 $r0,$r6
   ca608:	49 00 02 88 	jal cab18 <ble_gap_link_GetAttr_Role>
   ca60c:	b0 47       	addri36.sp $r1,#0x1c
   ca60e:	5a 08 01 06 	bnec $r0,#1,ca61a <ble_gap_conn_param_update+0x5e>
   ca612:	80 06       	mov55 $r0,$r6
   ca614:	49 00 04 ee 	jal caff0 <l2cap_lesig_conn_param_update_req>
   ca618:	d5 12       	j8 ca63c <ble_gap_conn_param_update+0x80>
   ca61a:	02 0f 80 02 	lhi $r0,[$sp+#0x4]
   ca61e:	b1 83       	addri36.sp $r6,#0xc
   ca620:	ac 30       	shi333 $r0,[$r6+#0x0]
   ca622:	84 4c       	movi55 $r2,#12
   ca624:	50 0f 80 0e 	addi $r0,$sp,#14
   ca628:	49 ff ed 10 	jal c8048 <memcpy>
   ca62c:	44 00 20 13 	movi $r0,#8211
   ca630:	80 26       	mov55 $r1,$r6
   ca632:	84 4e       	movi55 $r2,#14
   ca634:	3e 3c 63 8a 	addi.gp $r3,#-236662
   ca638:	49 00 2e 0c 	jal d0250 <hci_send_cmd>
   ca63c:	84 00       	movi55 $r0,#0
   ca63e:	fc a5       	pop25 $r8,#0x28    ! {$r6~$r8, $fp, $gp, $lp}

000ca640 <ble_gap_adv_start>:
   ca640:	fc 22       	push25 $r8,#0x10    ! {$r6~$r8, $fp, $gp, $lp}
   ca642:	80 c0       	mov55 $r6,$r0
   ca644:	81 01       	mov55 $r8,$r1
   ca646:	c8 0c       	bnez38 $r0,ca65e <ble_gap_adv_start+0x1e>
   ca648:	84 01       	movi55 $r0,#1
   ca64a:	10 0f 80 0f 	sbi $r0,[$sp+#0xf]
   ca64e:	50 1f 80 0f 	addi $r1,$sp,#15
   ca652:	44 00 20 0a 	movi $r0,#8202
   ca656:	84 41       	movi55 $r2,#1
   ca658:	3e 3c 64 56 	addi.gp $r3,#-236458
   ca65c:	d5 4d       	j8 ca6f6 <ble_gap_adv_start+0xb6>
   ca65e:	84 20       	movi55 $r1,#0
   ca660:	80 1f       	mov55 $r0,$sp
   ca662:	84 4f       	movi55 $r2,#15
   ca664:	49 ff ed 12 	jal c8088 <memset>
   ca668:	00 03 00 08 	lbi $r0,[$r6+#0x8]
   ca66c:	a6 77       	lbi333 $r1,[$r6+#0x7]
   ca66e:	40 00 20 08 	slli $r0,$r0,#8
   ca672:	fe 0f       	or33 $r0,$r1
   ca674:	12 0f 80 00 	shi $r0,[$sp+#0x0]
   ca678:	80 ff       	mov55 $r7,$sp
   ca67a:	00 03 00 0a 	lbi $r0,[$r6+#0xa]
   ca67e:	00 13 00 09 	lbi $r1,[$r6+#0x9]
   ca682:	40 00 20 08 	slli $r0,$r0,#8
   ca686:	fe 0f       	or33 $r0,$r1
   ca688:	12 0f 80 01 	shi $r0,[$sp+#0x2]
   ca68c:	2e 07 c6 c1 	lbi.gp $r0,[+#-14655]
   ca690:	c0 07       	beqz38 $r0,ca69e <ble_gap_adv_start+0x5e>
   ca692:	5a 00 aa 06 	beqc $r0,#170,ca69e <ble_gap_adv_start+0x5e>
   ca696:	84 03       	movi55 $r0,#3
   ca698:	10 0f 80 04 	sbi $r0,[$sp+#0x4]
   ca69c:	d5 04       	j8 ca6a4 <ble_gap_adv_start+0x64>
   ca69e:	a6 30       	lbi333 $r0,[$r6+#0x0]
   ca6a0:	10 0f 80 04 	sbi $r0,[$sp+#0x4]
   ca6a4:	a6 35       	lbi333 $r0,[$r6+#0x5]
   ca6a6:	3e 07 ca 80 	sbi.gp $r0,[+#-13696]
   ca6aa:	10 0f 80 05 	sbi $r0,[$sp+#0x5]
   ca6ae:	a6 f2       	lbi333 $r3,[$r6+#0x2]
   ca6b0:	a7 31       	lbi333 $r4,[$r6+#0x1]
   ca6b2:	a6 33       	lbi333 $r0,[$r6+#0x3]
   ca6b4:	40 31 a0 08 	slli $r3,$r3,#8
   ca6b8:	a6 74       	lbi333 $r1,[$r6+#0x4]
   ca6ba:	fe e7       	or33 $r3,$r4
   ca6bc:	40 00 40 08 	slli $r0,$r0,#16
   ca6c0:	fe 1f       	or33 $r0,$r3
   ca6c2:	40 10 e0 08 	slli $r1,$r1,#24
   ca6c6:	fe 47       	or33 $r1,$r0
   ca6c8:	c1 0a       	beqz38 $r1,ca6dc <ble_gap_adv_start+0x9c>
   ca6ca:	08 00 80 01 	lbi.bi $r0,[$r1],#0x1
   ca6ce:	84 46       	movi55 $r2,#6
   ca6d0:	10 0f 80 06 	sbi $r0,[$sp+#0x6]
   ca6d4:	50 0f 80 07 	addi $r0,$sp,#7
   ca6d8:	49 ff ec b8 	jal c8048 <memcpy>
   ca6dc:	00 03 00 0b 	lbi $r0,[$r6+#0xb]
   ca6e0:	80 3f       	mov55 $r1,$sp
   ca6e2:	10 0f 80 0d 	sbi $r0,[$sp+#0xd]
   ca6e6:	84 4f       	movi55 $r2,#15
   ca6e8:	a7 b6       	lbi333 $r6,[$r6+#0x6]
   ca6ea:	44 00 20 06 	movi $r0,#8198
   ca6ee:	10 6f 80 0e 	sbi $r6,[$sp+#0xe]
   ca6f2:	3e 3c 63 f2 	addi.gp $r3,#-236558
   ca6f6:	80 88       	mov55 $r4,$r8
   ca6f8:	49 00 2d 41 	jal d017a <hci_send_cmd_ex>
   ca6fc:	84 00       	movi55 $r0,#0
   ca6fe:	fc a2       	pop25 $r8,#0x10    ! {$r6~$r8, $fp, $gp, $lp}

000ca700 <ble_gap_scan_data_set>:
   ca700:	fc 44       	push25 $r10,#0x20    ! {$r6~$r10, $fp, $gp, $lp}
   ca702:	50 af 80 01 	addi $r10,$sp,#1
   ca706:	97 88       	zeb33 $r6,$r1
   ca708:	81 20       	mov55 $r9,$r0
   ca70a:	80 e2       	mov55 $r7,$r2
   ca70c:	80 0a       	mov55 $r0,$r10
   ca70e:	84 20       	movi55 $r1,#0
   ca710:	fa 4f       	movpi45 $r2,#0x1f
   ca712:	49 ff ec bb 	jal c8088 <memset>
   ca716:	80 29       	mov55 $r1,$r9
   ca718:	80 46       	mov55 $r2,$r6
   ca71a:	80 0a       	mov55 $r0,$r10
   ca71c:	49 ff ec 96 	jal c8048 <memcpy>
   ca720:	44 00 20 09 	movi $r0,#8201
   ca724:	80 3f       	mov55 $r1,$sp
   ca726:	fa 50       	movpi45 $r2,#0x20
   ca728:	3e 3c 64 56 	addi.gp $r3,#-236458
   ca72c:	80 87       	mov55 $r4,$r7
   ca72e:	10 6f 80 00 	sbi $r6,[$sp+#0x0]
   ca732:	81 1f       	mov55 $r8,$sp
   ca734:	49 00 2d 23 	jal d017a <hci_send_cmd_ex>
   ca738:	84 00       	movi55 $r0,#0
   ca73a:	fc c4       	pop25 $r10,#0x20    ! {$r6~$r10, $fp, $gp, $lp}

000ca73c <ble_gap_adv_data_set>:
   ca73c:	fc 44       	push25 $r10,#0x20    ! {$r6~$r10, $fp, $gp, $lp}
   ca73e:	50 af 80 01 	addi $r10,$sp,#1
   ca742:	97 88       	zeb33 $r6,$r1
   ca744:	81 20       	mov55 $r9,$r0
   ca746:	80 e2       	mov55 $r7,$r2
   ca748:	80 0a       	mov55 $r0,$r10
   ca74a:	84 20       	movi55 $r1,#0
   ca74c:	fa 4f       	movpi45 $r2,#0x1f
   ca74e:	49 ff ec 9d 	jal c8088 <memset>
   ca752:	80 29       	mov55 $r1,$r9
   ca754:	80 46       	mov55 $r2,$r6
   ca756:	80 0a       	mov55 $r0,$r10
   ca758:	49 ff ec 78 	jal c8048 <memcpy>
   ca75c:	44 00 20 08 	movi $r0,#8200
   ca760:	80 3f       	mov55 $r1,$sp
   ca762:	fa 50       	movpi45 $r2,#0x20
   ca764:	3e 3c 64 56 	addi.gp $r3,#-236458
   ca768:	80 87       	mov55 $r4,$r7
   ca76a:	10 6f 80 00 	sbi $r6,[$sp+#0x0]
   ca76e:	81 1f       	mov55 $r8,$sp
   ca770:	49 00 2d 05 	jal d017a <hci_send_cmd_ex>
   ca774:	84 00       	movi55 $r0,#0
   ca776:	fc c4       	pop25 $r10,#0x20    ! {$r6~$r10, $fp, $gp, $lp}

000ca778 <ble_gap_event_handler>:
   ca778:	fc 40       	push25 $r10,#0x0    ! {$r6~$r10, $fp, $gp, $lp}
   ca77a:	ee f8       	addi10.sp #-264
   ca77c:	96 00       	zeb33 $r0,$r0
   ca77e:	80 c2       	mov55 $r6,$r2
   ca780:	96 48       	zeb33 $r1,$r1
   ca782:	5a 00 0c 21 	beqc $r0,#12,ca7c4 <ble_gap_event_handler+0x4c>
   ca786:	e6 0d       	slti45 $r0,#13
   ca788:	e8 08       	beqzs8 ca798 <ble_gap_event_handler+0x20>
   ca78a:	85 e5       	movi55 $r15,#5
   ca78c:	4c 07 80 f0 	beq $r0,$r15,ca96c <ble_gap_event_handler+0x1f4>
   ca790:	85 e8       	movi55 $r15,#8
   ca792:	4c 07 c1 05 	bne $r0,$r15,ca99c <ble_gap_event_handler+0x224>
   ca796:	d5 12       	j8 ca7ba <ble_gap_event_handler+0x42>
   ca798:	5a 00 30 07 	beqc $r0,#48,ca7a6 <ble_gap_event_handler+0x2e>
   ca79c:	5a 00 3e 04 	beqc $r0,#62,ca7a4 <ble_gap_event_handler+0x2c>
   ca7a0:	48 00 00 fe 	j ca99c <ble_gap_event_handler+0x224>
   ca7a4:	d5 19       	j8 ca7d6 <ble_gap_event_handler+0x5e>
   ca7a6:	b1 f6       	addri36.sp $r7,#0xd8
   ca7a8:	80 22       	mov55 $r1,$r2
   ca7aa:	80 07       	mov55 $r0,$r7
   ca7ac:	84 43       	movi55 $r2,#3
   ca7ae:	49 ff ec 4d 	jal c8048 <memcpy>
   ca7b2:	84 01       	movi55 $r0,#1
   ca7b4:	ae 3b       	sbi333 $r0,[$r7+#0x3]
   ca7b6:	80 07       	mov55 $r0,$r7
   ca7b8:	d5 02       	j8 ca7bc <ble_gap_event_handler+0x44>
   ca7ba:	80 02       	mov55 $r0,$r2
   ca7bc:	49 00 02 63 	jal cac82 <BLE_gap_sm_encryption_change>
   ca7c0:	48 00 00 ee 	j ca99c <ble_gap_event_handler+0x224>
   ca7c4:	44 00 10 09 	movi $r0,#4105
   ca7c8:	b1 f6       	addri36.sp $r7,#0xd8
   ca7ca:	f0 b6       	swi37.sp $r0,[+#0xd8]
   ca7cc:	80 22       	mov55 $r1,$r2
   ca7ce:	b0 37       	addri36.sp $r0,#0xdc
   ca7d0:	84 48       	movi55 $r2,#8
   ca7d2:	48 00 00 be 	j ca94e <ble_gap_event_handler+0x1d6>
   ca7d6:	a6 10       	lbi333 $r0,[$r2+#0x0]
   ca7d8:	85 e3       	movi55 $r15,#3
   ca7da:	4c 07 80 b3 	beq $r0,$r15,ca940 <ble_gap_event_handler+0x1c8>
   ca7de:	e6 04       	slti45 $r0,#4
   ca7e0:	e8 07       	beqzs8 ca7ee <ble_gap_event_handler+0x76>
   ca7e2:	5a 00 01 11 	beqc $r0,#1,ca804 <ble_gap_event_handler+0x8c>
   ca7e6:	85 e2       	movi55 $r15,#2
   ca7e8:	4c 07 c0 da 	bne $r0,$r15,ca99c <ble_gap_event_handler+0x224>
   ca7ec:	d5 40       	j8 ca86c <ble_gap_event_handler+0xf4>
   ca7ee:	85 e8       	movi55 $r15,#8
   ca7f0:	4c 07 80 b6 	beq $r0,$r15,ca95c <ble_gap_event_handler+0x1e4>
   ca7f4:	85 e9       	movi55 $r15,#9
   ca7f6:	4c 07 80 b7 	beq $r0,$r15,ca964 <ble_gap_event_handler+0x1ec>
   ca7fa:	85 e5       	movi55 $r15,#5
   ca7fc:	4c 07 c0 d0 	bne $r0,$r15,ca99c <ble_gap_event_handler+0x224>
   ca800:	48 00 00 aa 	j ca954 <ble_gap_event_handler+0x1dc>
   ca804:	9d d1       	addi333 $r7,$r2,#1
   ca806:	44 00 10 00 	movi $r0,#4096
   ca80a:	f0 aa       	swi37.sp $r0,[+#0xa8]
   ca80c:	80 27       	mov55 $r1,$r7
   ca80e:	b0 2b       	addri36.sp $r0,#0xac
   ca810:	fa 42       	movpi45 $r2,#0x12
   ca812:	49 ff ec 1b 	jal c8048 <memcpy>
   ca816:	00 83 80 00 	lbi $r8,[$r7+#0x0]
   ca81a:	4e 83 00 26 	bnez $r8,ca866 <ble_gap_event_handler+0xee>
   ca81e:	9d b6       	addi333 $r6,$r6,#6
   ca820:	80 06       	mov55 $r0,$r6
   ca822:	49 00 01 fd 	jal cac1c <ble_gap_link_Is_ValidAddr>
   ca826:	c0 05       	beqz38 $r0,ca830 <ble_gap_event_handler+0xb8>
   ca828:	9c 39       	addi333 $r0,$r7,#1
   ca82a:	80 28       	mov55 $r1,$r8
   ca82c:	80 48       	mov55 $r2,$r8
   ca82e:	d5 0a       	j8 ca842 <ble_gap_event_handler+0xca>
   ca830:	2e 17 ca 81 	lbi.gp $r1,[+#-13695]
   ca834:	c9 04       	bnez38 $r1,ca83c <ble_gap_event_handler+0xc4>
   ca836:	3e 2f c1 14 	addi.gp $r2,#-16108
   ca83a:	d5 03       	j8 ca840 <ble_gap_event_handler+0xc8>
   ca83c:	3e 2f c1 1c 	addi.gp $r2,#-16100
   ca840:	9c 39       	addi333 $r0,$r7,#1
   ca842:	84 62       	movi55 $r3,#2
   ca844:	49 00 01 b8 	jal cabb4 <ble_gap_link_Add_Ex>
   ca848:	80 06       	mov55 $r0,$r6
   ca84a:	49 00 01 fd 	jal cac44 <BLE_gap_sm_set_link_auth>
   ca84e:	a6 3a       	lbi333 $r0,[$r7+#0x2]
   ca850:	a6 79       	lbi333 $r1,[$r7+#0x1]
   ca852:	40 00 20 08 	slli $r0,$r0,#8
   ca856:	fe 0f       	or33 $r0,$r1
   ca858:	49 00 00 d1 	jal ca9fa <ble_gap_link_GetIdx_ByHandle>
   ca85c:	80 20       	mov55 $r1,$r0
   ca85e:	44 00 10 00 	movi $r0,#4096
   ca862:	49 00 02 5f 	jal cad20 <l2cap_notify>
   ca866:	b0 2a       	addri36.sp $r0,#0xa8
   ca868:	48 00 00 98 	j ca998 <ble_gap_event_handler+0x220>
   ca86c:	9e 09       	subi333 $r0,$r1,#1
   ca86e:	44 10 10 03 	movi $r1,#4099
   ca872:	f1 9e       	swi37.sp $r1,[+#0x78]
   ca874:	51 c1 00 01 	addi $fp,$r2,#1
   ca878:	08 ae 00 01 	lbi.bi $r10,[$fp],#0x1
   ca87c:	84 46       	movi55 $r2,#6
   ca87e:	40 1e 28 00 	add $r1,$fp,$r10
   ca882:	40 40 a8 00 	add $r4,$r1,$r10
   ca886:	80 a4       	mov55 $r5,$r4
   ca888:	42 55 08 73 	maddr32 $r5,$r10,$r2
   ca88c:	f1 83       	swi37.sp $r1,[+#0xc]
   ca88e:	96 00       	zeb33 $r0,$r0
   ca890:	a6 a8       	lbi333 $r2,[$r5+#0x0]
   ca892:	41 e2 a8 00 	add $lp,$r5,$r10
   ca896:	50 31 00 0b 	addi $r3,$r2,#11
   ca89a:	4c 01 c0 06 	bne $r0,$r3,ca8a6 <ble_gap_event_handler+0x12e>
   ca89e:	80 45       	mov55 $r2,$r5
   ca8a0:	84 00       	movi55 $r0,#0
   ca8a2:	80 3e       	mov55 $r1,$lp
   ca8a4:	d5 0f       	j8 ca8c2 <ble_gap_event_handler+0x14a>
   ca8a6:	8c 51       	addi45 $r2,#17
   ca8a8:	4c 01 3f fb 	beq $r0,$r2,ca89e <ble_gap_event_handler+0x126>
   ca8ac:	00 0e 00 00 	lbi $r0,[$fp+#0x0]
   ca8b0:	5a 08 01 f7 	bnec $r0,#1,ca89e <ble_gap_event_handler+0x126>
   ca8b4:	48 00 00 74 	j ca99c <ble_gap_event_handler+0x224>
   ca8b8:	08 31 00 01 	lbi.bi $r3,[$r2],#0x1
   ca8bc:	9c 01       	addi333 $r0,$r0,#1
   ca8be:	98 4b       	add333 $r1,$r1,$r3
   ca8c0:	96 00       	zeb33 $r0,$r0
   ca8c2:	e2 0a       	slt45 $r0,$r10
   ca8c4:	e9 fa       	bnezs8 ca8b8 <ble_gap_event_handler+0x140>
   ca8c6:	15 cf 80 04 	swi $fp,[$sp+#0x10]
   ca8ca:	80 61       	mov55 $r3,$r1
   ca8cc:	83 84       	mov55 $fp,$r4
   ca8ce:	85 20       	movi55 $r9,#0
   ca8d0:	80 8a       	mov55 $r4,$r10
   ca8d2:	b1 9e       	addri36.sp $r6,#0x78
   ca8d4:	50 8f 80 7d 	addi $r8,$sp,#125
   ca8d8:	50 7f 80 89 	addi $r7,$sp,#137
   ca8dc:	81 5e       	mov55 $r10,$lp
   ca8de:	f5 85       	swi37.sp $r5,[+#0x14]
   ca8e0:	d5 2b       	j8 ca936 <ble_gap_event_handler+0x1be>
   ca8e2:	f0 03       	lwi37.sp $r0,[+#0xc]
   ca8e4:	80 3c       	mov55 $r1,$fp
   ca8e6:	38 00 24 00 	lb $r0,[$r0+($r9<<#0x0)]
   ca8ea:	84 46       	movi55 $r2,#6
   ca8ec:	ae 34       	sbi333 $r0,[$r6+#0x4]
   ca8ee:	80 08       	mov55 $r0,$r8
   ca8f0:	f4 81       	swi37.sp $r4,[+#0x4]
   ca8f2:	f3 82       	swi37.sp $r3,[+#0x8]
   ca8f4:	49 ff eb aa 	jal c8048 <memcpy>
   ca8f8:	f3 02       	lwi37.sp $r3,[+#0x8]
   ca8fa:	51 ce 00 06 	addi $fp,$fp,#6
   ca8fe:	38 11 a4 00 	lb $r1,[$r3+($r9<<#0x0)]
   ca902:	10 13 00 0b 	sbi $r1,[$r6+#0xb]
   ca906:	f1 04       	lwi37.sp $r1,[+#0x10]
   ca908:	08 00 80 01 	lbi.bi $r0,[$r1],#0x1
   ca90c:	f0 a1       	swi37.sp $r0,[+#0x84]
   ca90e:	f1 84       	swi37.sp $r1,[+#0x10]
   ca910:	f0 05       	lwi37.sp $r0,[+#0x14]
   ca912:	80 2a       	mov55 $r1,$r10
   ca914:	38 20 24 00 	lb $r2,[$r0+($r9<<#0x0)]
   ca918:	80 07       	mov55 $r0,$r7
   ca91a:	10 23 00 10 	sbi $r2,[$r6+#0x10]
   ca91e:	f3 82       	swi37.sp $r3,[+#0x8]
   ca920:	49 ff eb 94 	jal c8048 <memcpy>
   ca924:	00 03 00 10 	lbi $r0,[$r6+#0x10]
   ca928:	8d 21       	addi45 $r9,#1
   ca92a:	89 40       	add45 $r10,$r0
   ca92c:	80 06       	mov55 $r0,$r6
   ca92e:	49 ff fc 01 	jal ca130 <bt_infom_ap>
   ca932:	f4 01       	lwi37.sp $r4,[+#0x4]
   ca934:	f3 02       	lwi37.sp $r3,[+#0x8]
   ca936:	54 04 80 ff 	andi $r0,$r9,#0xff
   ca93a:	e2 04       	slt45 $r0,$r4
   ca93c:	e9 d3       	bnezs8 ca8e2 <ble_gap_event_handler+0x16a>
   ca93e:	d5 2f       	j8 ca99c <ble_gap_event_handler+0x224>
   ca940:	44 00 10 02 	movi $r0,#4098
   ca944:	b1 d2       	addri36.sp $r7,#0x48
   ca946:	f0 92       	swi37.sp $r0,[+#0x48]
   ca948:	9c 51       	addi333 $r1,$r2,#1
   ca94a:	b0 13       	addri36.sp $r0,#0x4c
   ca94c:	84 4b       	movi55 $r2,#11
   ca94e:	49 ff eb 7d 	jal c8048 <memcpy>
   ca952:	d5 22       	j8 ca996 <ble_gap_event_handler+0x21e>
   ca954:	9c 11       	addi333 $r0,$r2,#1
   ca956:	49 00 01 bb 	jal caccc <BLE_gap_sm_ltk_request>
   ca95a:	d5 21       	j8 ca99c <ble_gap_event_handler+0x224>
   ca95c:	9c 11       	addi333 $r0,$r2,#1
   ca95e:	49 00 01 c9 	jal cacf0 <BLE_gap_sm_read_public_key_complete>
   ca962:	d5 1d       	j8 ca99c <ble_gap_event_handler+0x224>
   ca964:	9c 11       	addi333 $r0,$r2,#1
   ca966:	49 00 01 c1 	jal cace8 <BLE_gap_sm_gen_dhkey_complete>
   ca96a:	d5 19       	j8 ca99c <ble_gap_event_handler+0x224>
   ca96c:	b1 c6       	addri36.sp $r7,#0x18
   ca96e:	44 00 10 01 	movi $r0,#4097
   ca972:	f0 86       	swi37.sp $r0,[+#0x18]
   ca974:	9d 91       	addi333 $r6,$r2,#1
   ca976:	a6 31       	lbi333 $r0,[$r6+#0x1]
   ca978:	a6 70       	lbi333 $r1,[$r6+#0x0]
   ca97a:	40 00 20 08 	slli $r0,$r0,#8
   ca97e:	98 01       	add333 $r0,$r0,$r1
   ca980:	96 01       	zeh33 $r0,$r0
   ca982:	ac 3a       	shi333 $r0,[$r7+#0x4]
   ca984:	a7 b2       	lbi333 $r6,[$r6+#0x2]
   ca986:	af be       	sbi333 $r6,[$r7+#0x6]
   ca988:	49 00 00 39 	jal ca9fa <ble_gap_link_GetIdx_ByHandle>
   ca98c:	49 00 00 a9 	jal caade <ble_gap_link_Del>
   ca990:	a4 3a       	lhi333 $r0,[$r7+#0x4]
   ca992:	49 00 01 52 	jal cac36 <BLE_gap_sm_disconnected>
   ca996:	80 07       	mov55 $r0,$r7
   ca998:	49 ff fb cc 	jal ca130 <bt_infom_ap>
   ca99c:	ed 08       	addi10.sp #264
   ca99e:	fc c0       	pop25 $r10,#0x0    ! {$r6~$r10, $fp, $gp, $lp}

000ca9a0 <ble_gap_link_GetAttr_OwnerType>:
   ca9a0:	fc 00       	push25 $r6,#0x0    ! {$r6, $fp, $gp, $lp}
   ca9a2:	44 10 00 3d 	movi $r1,#61
   ca9a6:	96 00       	zeb33 $r0,$r0
   ca9a8:	fe 0c       	mul33 $r0,$r1
   ca9aa:	3e 1f ca 84 	addi.gp $r1,#-13692
   ca9ae:	98 01       	add333 $r0,$r0,$r1
   ca9b0:	00 00 00 14 	lbi $r0,[$r0+#0x14]
   ca9b4:	fc 80       	pop25 $r6,#0x0    ! {$r6, $fp, $gp, $lp}

000ca9b6 <ble_gap_link_GetAttr_OwnerAddr>:
   ca9b6:	fc 00       	push25 $r6,#0x0    ! {$r6, $fp, $gp, $lp}
   ca9b8:	44 20 00 3d 	movi $r2,#61
   ca9bc:	96 00       	zeb33 $r0,$r0
   ca9be:	fe 84       	mul33 $r2,$r0
   ca9c0:	3e 0f ca 84 	addi.gp $r0,#-13692
   ca9c4:	98 90       	add333 $r2,$r2,$r0
   ca9c6:	80 01       	mov55 $r0,$r1
   ca9c8:	50 11 00 15 	addi $r1,$r2,#21
   ca9cc:	84 46       	movi55 $r2,#6
   ca9ce:	49 ff eb 3d 	jal c8048 <memcpy>
   ca9d2:	fc 80       	pop25 $r6,#0x0    ! {$r6, $fp, $gp, $lp}

000ca9d4 <ble_gap_link_GetAttr_Handle>:
   ca9d4:	fc 00       	push25 $r6,#0x0    ! {$r6, $fp, $gp, $lp}
   ca9d6:	96 00       	zeb33 $r0,$r0
   ca9d8:	e6 10       	slti45 $r0,#16
   ca9da:	e9 04       	bnezs8 ca9e2 <ble_gap_link_GetAttr_Handle+0xe>
   ca9dc:	44 00 ff ff 	movi $r0,#65535
   ca9e0:	d5 0c       	j8 ca9f8 <ble_gap_link_GetAttr_Handle+0x24>
   ca9e2:	44 10 00 3d 	movi $r1,#61
   ca9e6:	fe 0c       	mul33 $r0,$r1
   ca9e8:	3e 2f ca 84 	addi.gp $r2,#-13692
   ca9ec:	98 42       	add333 $r1,$r0,$r2
   ca9ee:	a6 09       	lbi333 $r0,[$r1+#0x1]
   ca9f0:	a6 88       	lbi333 $r2,[$r1+#0x0]
   ca9f2:	40 00 20 08 	slli $r0,$r0,#8
   ca9f6:	fe 17       	or33 $r0,$r2
   ca9f8:	fc 80       	pop25 $r6,#0x0    ! {$r6, $fp, $gp, $lp}

000ca9fa <ble_gap_link_GetIdx_ByHandle>:
   ca9fa:	fc 00       	push25 $r6,#0x0    ! {$r6, $fp, $gp, $lp}
   ca9fc:	84 20       	movi55 $r1,#0
   ca9fe:	96 c1       	zeh33 $r3,$r0
   caa00:	44 40 00 3d 	movi $r4,#61
   caa04:	3e 5f ca 84 	addi.gp $r5,#-13692
   caa08:	42 20 90 24 	mul $r2,$r1,$r4
   caa0c:	98 95       	add333 $r2,$r2,$r5
   caa0e:	a7 50       	lbi333 $r5,[$r2+#0x0]
   caa10:	a6 91       	lbi333 $r2,[$r2+#0x1]
   caa12:	96 08       	zeb33 $r0,$r1
   caa14:	40 21 20 08 	slli $r2,$r2,#8
   caa18:	fe af       	or33 $r2,$r5
   caa1a:	4c 21 80 07 	beq $r2,$r3,caa28 <ble_gap_link_GetIdx_ByHandle+0x2e>
   caa1e:	9c 49       	addi333 $r1,$r1,#1
   caa20:	5a 18 10 f2 	bnec $r1,#16,caa04 <ble_gap_link_GetIdx_ByHandle+0xa>
   caa24:	44 00 00 ff 	movi $r0,#255
   caa28:	fc 80       	pop25 $r6,#0x0    ! {$r6, $fp, $gp, $lp}

000caa2a <ble_gap_link_GetAttr_BdAddr>:
   caa2a:	fc 00       	push25 $r6,#0x0    ! {$r6, $fp, $gp, $lp}
   caa2c:	44 10 00 3d 	movi $r1,#61
   caa30:	96 00       	zeb33 $r0,$r0
   caa32:	fe 0c       	mul33 $r0,$r1
   caa34:	3e 1f ca 84 	addi.gp $r1,#-13692
   caa38:	98 01       	add333 $r0,$r0,$r1
   caa3a:	9c 04       	addi333 $r0,$r0,#4
   caa3c:	fc 80       	pop25 $r6,#0x0    ! {$r6, $fp, $gp, $lp}

000caa3e <ble_gap_link_GetAttr_BdAddrType>:
   caa3e:	fc 00       	push25 $r6,#0x0    ! {$r6, $fp, $gp, $lp}
   caa40:	44 10 00 3d 	movi $r1,#61
   caa44:	96 00       	zeb33 $r0,$r0
   caa46:	fe 0c       	mul33 $r0,$r1
   caa48:	3e 1f ca 84 	addi.gp $r1,#-13692
   caa4c:	98 01       	add333 $r0,$r0,$r1
   caa4e:	a6 03       	lbi333 $r0,[$r0+#0x3]
   caa50:	fc 80       	pop25 $r6,#0x0    ! {$r6, $fp, $gp, $lp}

000caa52 <ble_gap_link_GetIdx_Empty>:
   caa52:	fc 00       	push25 $r6,#0x0    ! {$r6, $fp, $gp, $lp}
   caa54:	3e 1f ca 97 	addi.gp $r1,#-13673
   caa58:	84 00       	movi55 $r0,#0
   caa5a:	a6 88       	lbi333 $r2,[$r1+#0x0]
   caa5c:	c2 09       	beqz38 $r2,caa6e <ble_gap_link_GetIdx_Empty+0x1c>
   caa5e:	9c 01       	addi333 $r0,$r0,#1
   caa60:	96 00       	zeb33 $r0,$r0
   caa62:	50 10 80 3d 	addi $r1,$r1,#61
   caa66:	5a 08 10 fa 	bnec $r0,#16,caa5a <ble_gap_link_GetIdx_Empty+0x8>
   caa6a:	44 00 00 ff 	movi $r0,#255
   caa6e:	fc 80       	pop25 $r6,#0x0    ! {$r6, $fp, $gp, $lp}

000caa70 <ble_gap_link_SetAttr_Auth>:
   caa70:	fc 00       	push25 $r6,#0x0    ! {$r6, $fp, $gp, $lp}
   caa72:	44 20 00 3d 	movi $r2,#61
   caa76:	96 00       	zeb33 $r0,$r0
   caa78:	fe 14       	mul33 $r0,$r2
   caa7a:	3e 2f ca 84 	addi.gp $r2,#-13692
   caa7e:	98 02       	add333 $r0,$r0,$r2
   caa80:	10 10 00 11 	sbi $r1,[$r0+#0x11]
   caa84:	fc 80       	pop25 $r6,#0x0    ! {$r6, $fp, $gp, $lp}

000caa86 <ble_gap_link_GetAttr_Auth>:
   caa86:	fc 00       	push25 $r6,#0x0    ! {$r6, $fp, $gp, $lp}
   caa88:	44 10 00 3d 	movi $r1,#61
   caa8c:	96 00       	zeb33 $r0,$r0
   caa8e:	fe 0c       	mul33 $r0,$r1
   caa90:	3e 1f ca 84 	addi.gp $r1,#-13692
   caa94:	98 01       	add333 $r0,$r0,$r1
   caa96:	00 00 00 11 	lbi $r0,[$r0+#0x11]
   caa9a:	fc 80       	pop25 $r6,#0x0    ! {$r6, $fp, $gp, $lp}

000caa9c <ble_gap_link_SetAttr_Enc>:
   caa9c:	fc 00       	push25 $r6,#0x0    ! {$r6, $fp, $gp, $lp}
   caa9e:	44 20 00 3d 	movi $r2,#61
   caaa2:	96 00       	zeb33 $r0,$r0
   caaa4:	fe 14       	mul33 $r0,$r2
   caaa6:	3e 2f ca 84 	addi.gp $r2,#-13692
   caaaa:	98 02       	add333 $r0,$r0,$r2
   caaac:	10 10 00 12 	sbi $r1,[$r0+#0x12]
   caab0:	fc 80       	pop25 $r6,#0x0    ! {$r6, $fp, $gp, $lp}

000caab2 <ble_gap_link_GetAttr_Enc>:
   caab2:	fc 00       	push25 $r6,#0x0    ! {$r6, $fp, $gp, $lp}
   caab4:	44 10 00 3d 	movi $r1,#61
   caab8:	96 00       	zeb33 $r0,$r0
   caaba:	fe 0c       	mul33 $r0,$r1
   caabc:	3e 1f ca 84 	addi.gp $r1,#-13692
   caac0:	98 01       	add333 $r0,$r0,$r1
   caac2:	00 00 00 12 	lbi $r0,[$r0+#0x12]
   caac6:	fc 80       	pop25 $r6,#0x0    ! {$r6, $fp, $gp, $lp}

000caac8 <ble_gap_link_SetAttr_State>:
   caac8:	fc 00       	push25 $r6,#0x0    ! {$r6, $fp, $gp, $lp}
   caaca:	44 20 00 3d 	movi $r2,#61
   caace:	96 00       	zeb33 $r0,$r0
   caad0:	fe 14       	mul33 $r0,$r2
   caad2:	3e 2f ca 84 	addi.gp $r2,#-13692
   caad6:	98 02       	add333 $r0,$r0,$r2
   caad8:	10 10 00 13 	sbi $r1,[$r0+#0x13]
   caadc:	fc 80       	pop25 $r6,#0x0    ! {$r6, $fp, $gp, $lp}

000caade <ble_gap_link_Del>:
   caade:	fc 00       	push25 $r6,#0x0    ! {$r6, $fp, $gp, $lp}
   caae0:	96 00       	zeb33 $r0,$r0
   caae2:	84 41       	movi55 $r2,#1
   caae4:	3c 3d f3 95 	lwi.gp $r3,[+#-12716]
   caae8:	40 21 00 0c 	sll $r2,$r2,$r0
   caaec:	fe 93       	not33 $r2,$r2
   caaee:	fe 9e       	and33 $r2,$r3
   caaf0:	3c 2f f3 95 	swi.gp $r2,[+#-12716]
   caaf4:	84 20       	movi55 $r1,#0
   caaf6:	49 ff ff e9 	jal caac8 <ble_gap_link_SetAttr_State>
   caafa:	fc 80       	pop25 $r6,#0x0    ! {$r6, $fp, $gp, $lp}

000caafc <ble_gap_link_Add>:
   caafc:	fc 00       	push25 $r6,#0x0    ! {$r6, $fp, $gp, $lp}
   caafe:	3c 4d f3 95 	lwi.gp $r4,[+#-12716]
   cab02:	96 00       	zeb33 $r0,$r0
   cab04:	84 61       	movi55 $r3,#1
   cab06:	40 31 80 0c 	sll $r3,$r3,$r0
   cab0a:	fe e7       	or33 $r3,$r4
   cab0c:	3c 3f f3 95 	swi.gp $r3,[+#-12716]
   cab10:	96 48       	zeb33 $r1,$r1
   cab12:	49 ff ff db 	jal caac8 <ble_gap_link_SetAttr_State>
   cab16:	fc 80       	pop25 $r6,#0x0    ! {$r6, $fp, $gp, $lp}

000cab18 <ble_gap_link_GetAttr_Role>:
   cab18:	fc 00       	push25 $r6,#0x0    ! {$r6, $fp, $gp, $lp}
   cab1a:	44 10 00 3d 	movi $r1,#61
   cab1e:	96 00       	zeb33 $r0,$r0
   cab20:	fe 0c       	mul33 $r0,$r1
   cab22:	3e 1f ca 84 	addi.gp $r1,#-13692
   cab26:	98 01       	add333 $r0,$r0,$r1
   cab28:	a6 02       	lbi333 $r0,[$r0+#0x2]
   cab2a:	fc 80       	pop25 $r6,#0x0    ! {$r6, $fp, $gp, $lp}

000cab2c <ble_gap_link_SetAttr_Data>:
   cab2c:	fc 00       	push25 $r6,#0x0    ! {$r6, $fp, $gp, $lp}
   cab2e:	44 20 00 3d 	movi $r2,#61
   cab32:	96 00       	zeb33 $r0,$r0
   cab34:	fe 14       	mul33 $r0,$r2
   cab36:	3e 2f ca 84 	addi.gp $r2,#-13692
   cab3a:	98 02       	add333 $r0,$r0,$r2
   cab3c:	50 00 00 38 	addi $r0,$r0,#56
   cab40:	40 20 a0 09 	srli $r2,$r1,#8
   cab44:	ae 41       	sbi333 $r1,[$r0+#0x1]
   cab46:	ae 82       	sbi333 $r2,[$r0+#0x2]
   cab48:	40 20 c0 09 	srli $r2,$r1,#16
   cab4c:	92 38       	srli45 $r1,#24
   cab4e:	ae 83       	sbi333 $r2,[$r0+#0x3]
   cab50:	ae 44       	sbi333 $r1,[$r0+#0x4]
   cab52:	fc 80       	pop25 $r6,#0x0    ! {$r6, $fp, $gp, $lp}

000cab54 <ble_gap_link_GetAttr_Data>:
   cab54:	fc 00       	push25 $r6,#0x0    ! {$r6, $fp, $gp, $lp}
   cab56:	44 10 00 3d 	movi $r1,#61
   cab5a:	96 00       	zeb33 $r0,$r0
   cab5c:	fe 44       	mul33 $r1,$r0
   cab5e:	3e 0f ca 84 	addi.gp $r0,#-13692
   cab62:	98 48       	add333 $r1,$r1,$r0
   cab64:	50 10 80 38 	addi $r1,$r1,#56
   cab68:	a6 0a       	lbi333 $r0,[$r1+#0x2]
   cab6a:	a6 c9       	lbi333 $r3,[$r1+#0x1]
   cab6c:	a6 8b       	lbi333 $r2,[$r1+#0x3]
   cab6e:	40 00 20 08 	slli $r0,$r0,#8
   cab72:	fe 1f       	or33 $r0,$r3
   cab74:	40 21 40 08 	slli $r2,$r2,#16
   cab78:	fe 87       	or33 $r2,$r0
   cab7a:	a6 0c       	lbi333 $r0,[$r1+#0x4]
   cab7c:	40 00 60 08 	slli $r0,$r0,#24
   cab80:	fe 17       	or33 $r0,$r2
   cab82:	fc 80       	pop25 $r6,#0x0    ! {$r6, $fp, $gp, $lp}

000cab84 <ble_gap_link_GetIdx_ByBdAddr>:
   cab84:	fc 40       	push25 $r10,#0x0    ! {$r6~$r10, $fp, $gp, $lp}
   cab86:	84 c0       	movi55 $r6,#0
   cab88:	81 20       	mov55 $r9,$r0
   cab8a:	44 80 00 3d 	movi $r8,#61
   cab8e:	3e 0f ca 84 	addi.gp $r0,#-13692
   cab92:	42 13 20 24 	mul $r1,$r6,$r8
   cab96:	98 48       	add333 $r1,$r1,$r0
   cab98:	9c 4c       	addi333 $r1,$r1,#4
   cab9a:	80 09       	mov55 $r0,$r9
   cab9c:	84 46       	movi55 $r2,#6
   cab9e:	97 f0       	zeb33 $r7,$r6
   caba0:	49 ff ea 48 	jal c8030 <memcmp>
   caba4:	c0 06       	beqz38 $r0,cabb0 <ble_gap_link_GetIdx_ByBdAddr+0x2c>
   caba6:	9d b1       	addi333 $r6,$r6,#1
   caba8:	5a 68 10 f3 	bnec $r6,#16,cab8e <ble_gap_link_GetIdx_ByBdAddr+0xa>
   cabac:	44 70 00 ff 	movi $r7,#255
   cabb0:	80 07       	mov55 $r0,$r7
   cabb2:	fc c0       	pop25 $r10,#0x0    ! {$r6~$r10, $fp, $gp, $lp}

000cabb4 <ble_gap_link_Add_Ex>:
   cabb4:	fc 40       	push25 $r10,#0x0    ! {$r6~$r10, $fp, $gp, $lp}
   cabb6:	80 e0       	mov55 $r7,$r0
   cabb8:	81 02       	mov55 $r8,$r2
   cabba:	54 a0 80 ff 	andi $r10,$r1,#0xff
   cabbe:	54 91 80 ff 	andi $r9,$r3,#0xff
   cabc2:	ca 09       	bnez38 $r2,cabd4 <ble_gap_link_Add_Ex+0x20>
   cabc4:	9c 04       	addi333 $r0,$r0,#4
   cabc6:	49 ff ff df 	jal cab84 <ble_gap_link_GetIdx_ByBdAddr>
   cabca:	80 29       	mov55 $r1,$r9
   cabcc:	80 c0       	mov55 $r6,$r0
   cabce:	49 ff ff 7d 	jal caac8 <ble_gap_link_SetAttr_State>
   cabd2:	d5 19       	j8 cac04 <ble_gap_link_Add_Ex+0x50>
   cabd4:	49 ff ff 3f 	jal caa52 <ble_gap_link_GetIdx_Empty>
   cabd8:	80 c0       	mov55 $r6,$r0
   cabda:	5a 08 ff 04 	bnec $r0,#255,cabe2 <ble_gap_link_Add_Ex+0x2e>
   cabde:	84 00       	movi55 $r0,#0
   cabe0:	d5 1d       	j8 cac1a <ble_gap_link_Add_Ex+0x66>
   cabe2:	80 29       	mov55 $r1,$r9
   cabe4:	49 ff ff 8c 	jal caafc <ble_gap_link_Add>
   cabe8:	44 30 00 3d 	movi $r3,#61
   cabec:	3e 0f ca 84 	addi.gp $r0,#-13692
   cabf0:	fe f4       	mul33 $r3,$r6
   cabf2:	98 d8       	add333 $r3,$r3,$r0
   cabf4:	10 a1 80 14 	sbi $r10,[$r3+#0x14]
   cabf8:	50 01 80 15 	addi $r0,$r3,#21
   cabfc:	80 28       	mov55 $r1,$r8
   cabfe:	84 46       	movi55 $r2,#6
   cac00:	49 ff ea 24 	jal c8048 <memcpy>
   cac04:	44 00 00 3d 	movi $r0,#61
   cac08:	3e 1f ca 84 	addi.gp $r1,#-13692
   cac0c:	ff 84       	mul33 $r6,$r0
   cac0e:	98 31       	add333 $r0,$r6,$r1
   cac10:	fa 41       	movpi45 $r2,#0x11
   cac12:	80 27       	mov55 $r1,$r7
   cac14:	49 ff ea 1a 	jal c8048 <memcpy>
   cac18:	84 01       	movi55 $r0,#1
   cac1a:	fc c0       	pop25 $r10,#0x0    ! {$r6~$r10, $fp, $gp, $lp}

000cac1c <ble_gap_link_Is_ValidAddr>:
   cac1c:	fc 00       	push25 $r6,#0x0    ! {$r6, $fp, $gp, $lp}
   cac1e:	49 ff ff b3 	jal cab84 <ble_gap_link_GetIdx_ByBdAddr>
   cac22:	56 00 00 ff 	xori $r0,$r0,#0xff
   cac26:	84 20       	movi55 $r1,#0
   cac28:	40 00 80 06 	slt $r0,$r1,$r0
   cac2c:	fc 80       	pop25 $r6,#0x0    ! {$r6, $fp, $gp, $lp}

000cac2e <BLE_gap_sm_init>:
   cac2e:	fc 00       	push25 $r6,#0x0    ! {$r6, $fp, $gp, $lp}
   cac30:	49 00 0e 5c 	jal cc8e8 <sm_init>
   cac34:	fc 80       	pop25 $r6,#0x0    ! {$r6, $fp, $gp, $lp}

000cac36 <BLE_gap_sm_disconnected>:
   cac36:	fc 00       	push25 $r6,#0x0    ! {$r6, $fp, $gp, $lp}
   cac38:	96 01       	zeh33 $r0,$r0
   cac3a:	49 ff fe e0 	jal ca9fa <ble_gap_link_GetIdx_ByHandle>
   cac3e:	49 00 0f 6a 	jal ccb12 <SM_LinkDisconnected>
   cac42:	fc 80       	pop25 $r6,#0x0    ! {$r6, $fp, $gp, $lp}

000cac44 <BLE_gap_sm_set_link_auth>:
   cac44:	fc 31       	push25 $r8,#0x88    ! {$r6~$r8, $fp, $gp, $lp}
   cac46:	81 00       	mov55 $r8,$r0
   cac48:	49 ff ff 9e 	jal cab84 <ble_gap_link_GetIdx_ByBdAddr>
   cac4c:	80 e0       	mov55 $r7,$r0
   cac4e:	5a 00 ff 18 	beqc $r0,#255,cac7e <BLE_gap_sm_set_link_auth+0x3a>
   cac52:	80 08       	mov55 $r0,$r8
   cac54:	80 3f       	mov55 $r1,$sp
   cac56:	80 df       	mov55 $r6,$sp
   cac58:	49 00 14 bd 	jal cd5d2 <sm_hal_flash_load_data>
   cac5c:	c0 11       	beqz38 $r0,cac7e <BLE_gap_sm_set_link_auth+0x3a>
   cac5e:	00 0f 80 13 	lbi $r0,[$sp+#0x13]
   cac62:	84 20       	movi55 $r1,#0
   cac64:	40 10 80 06 	slt $r1,$r1,$r0
   cac68:	00 0f 80 11 	lbi $r0,[$sp+#0x11]
   cac6c:	96 16       	bmski33 $r0,#0x2
   cac6e:	c0 04       	beqz38 $r0,cac76 <BLE_gap_sm_set_link_auth+0x32>
   cac70:	58 10 80 04 	ori $r1,$r1,#0x4
   cac74:	96 48       	zeb33 $r1,$r1
   cac76:	80 07       	mov55 $r0,$r7
   cac78:	49 00 18 54 	jal cdd20 <sm_hal_set_link_authenticated>
   cac7c:	d5 02       	j8 cac80 <BLE_gap_sm_set_link_auth+0x3c>
   cac7e:	84 00       	movi55 $r0,#0
   cac80:	fc b1       	pop25 $r8,#0x88    ! {$r6~$r8, $fp, $gp, $lp}

000cac82 <BLE_gap_sm_encryption_change>:
   cac82:	fc 20       	push25 $r8,#0x0    ! {$r6~$r8, $fp, $gp, $lp}
   cac84:	80 c0       	mov55 $r6,$r0
   cac86:	a6 41       	lbi333 $r1,[$r0+#0x1]
   cac88:	a6 02       	lbi333 $r0,[$r0+#0x2]
   cac8a:	40 00 20 08 	slli $r0,$r0,#8
   cac8e:	fe 0f       	or33 $r0,$r1
   cac90:	49 ff fe b5 	jal ca9fa <ble_gap_link_GetIdx_ByHandle>
   cac94:	80 e0       	mov55 $r7,$r0
   cac96:	49 ff ff 41 	jal cab18 <ble_gap_link_GetAttr_Role>
   cac9a:	a6 b2       	lbi333 $r2,[$r6+#0x2]
   cac9c:	a6 f1       	lbi333 $r3,[$r6+#0x1]
   cac9e:	40 21 20 08 	slli $r2,$r2,#8
   caca2:	fe 9f       	or33 $r2,$r3
   caca4:	a6 70       	lbi333 $r1,[$r6+#0x0]
   caca6:	a6 f3       	lbi333 $r3,[$r6+#0x3]
   caca8:	81 00       	mov55 $r8,$r0
   cacaa:	3e 0d 31 94 	addi.gp $r0,#-183916
   cacae:	49 00 3a 40 	jal d212e <printf>
   cacb2:	5a 88 01 07 	bnec $r8,#1,cacc0 <BLE_gap_sm_encryption_change+0x3e>
   cacb6:	80 07       	mov55 $r0,$r7
   cacb8:	80 26       	mov55 $r1,$r6
   cacba:	49 00 1e 99 	jal ce9ec <SM_Slave_EncryptionChange>
   cacbe:	d5 05       	j8 cacc8 <BLE_gap_sm_encryption_change+0x46>
   cacc0:	80 07       	mov55 $r0,$r7
   cacc2:	80 26       	mov55 $r1,$r6
   cacc4:	49 00 24 4a 	jal cf558 <SM_Master_EncryptionChange>
   cacc8:	84 01       	movi55 $r0,#1
   cacca:	fc a0       	pop25 $r8,#0x0    ! {$r6~$r8, $fp, $gp, $lp}

000caccc <BLE_gap_sm_ltk_request>:
   caccc:	fc 00       	push25 $r6,#0x0    ! {$r6, $fp, $gp, $lp}
   cacce:	a6 40       	lbi333 $r1,[$r0+#0x0]
   cacd0:	80 c0       	mov55 $r6,$r0
   cacd2:	a6 01       	lbi333 $r0,[$r0+#0x1]
   cacd4:	40 00 20 08 	slli $r0,$r0,#8
   cacd8:	fe 0f       	or33 $r0,$r1
   cacda:	49 ff fe 90 	jal ca9fa <ble_gap_link_GetIdx_ByHandle>
   cacde:	80 26       	mov55 $r1,$r6
   cace0:	49 00 1f 37 	jal ceb4e <SM_Slave_LTKRequest>
   cace4:	84 01       	movi55 $r0,#1
   cace6:	fc 80       	pop25 $r6,#0x0    ! {$r6, $fp, $gp, $lp}

000cace8 <BLE_gap_sm_gen_dhkey_complete>:
   cace8:	fc 00       	push25 $r6,#0x0    ! {$r6, $fp, $gp, $lp}
   cacea:	49 00 13 ac 	jal cd442 <SM_CryptoTool_GenerateDHKeyComplete>
   cacee:	fc 80       	pop25 $r6,#0x0    ! {$r6, $fp, $gp, $lp}

000cacf0 <BLE_gap_sm_read_public_key_complete>:
   cacf0:	fc 00       	push25 $r6,#0x0    ! {$r6, $fp, $gp, $lp}
   cacf2:	49 00 0f d5 	jal ccc9c <SM_CryptoTool_ReadLocalP256PublicKeyComplete>
   cacf6:	fc 80       	pop25 $r6,#0x0    ! {$r6, $fp, $gp, $lp}

000cacf8 <l2cap_find_cidcb>:
   cacf8:	fc 00       	push25 $r6,#0x0    ! {$r6, $fp, $gp, $lp}
   cacfa:	3e 2f c8 58 	addi.gp $r2,#-14248
   cacfe:	96 01       	zeh33 $r0,$r0
   cad00:	84 20       	movi55 $r1,#0
   cad02:	a4 d0       	lhi333 $r3,[$r2+#0x0]
   cad04:	4c 30 40 07 	bne $r3,$r0,cad12 <l2cap_find_cidcb+0x1a>
   cad08:	94 4b       	slli333 $r1,$r1,#3
   cad0a:	3e 2f c8 58 	addi.gp $r2,#-14248
   cad0e:	98 0a       	add333 $r0,$r1,$r2
   cad10:	d5 07       	j8 cad1e <l2cap_find_cidcb+0x26>
   cad12:	9c 49       	addi333 $r1,$r1,#1
   cad14:	96 48       	zeb33 $r1,$r1
   cad16:	8c 48       	addi45 $r2,#8
   cad18:	5a 18 10 f5 	bnec $r1,#16,cad02 <l2cap_find_cidcb+0xa>
   cad1c:	84 00       	movi55 $r0,#0
   cad1e:	fc 80       	pop25 $r6,#0x0    ! {$r6, $fp, $gp, $lp}

000cad20 <l2cap_notify>:
   cad20:	fc 41       	push25 $r10,#0x8    ! {$r6~$r10, $fp, $gp, $lp}
   cad22:	54 80 80 ff 	andi $r8,$r1,#0xff
   cad26:	44 10 10 00 	movi $r1,#4096
   cad2a:	4c 00 c0 12 	bne $r0,$r1,cad4e <l2cap_notify+0x2e>
   cad2e:	3e 6f c8 58 	addi.gp $r6,#-14248
   cad32:	50 73 00 80 	addi $r7,$r6,#128
   cad36:	81 3f       	mov55 $r9,$sp
   cad38:	a4 30       	lhi333 $r0,[$r6+#0x0]
   cad3a:	c0 07       	beqz38 $r0,cad48 <l2cap_notify+0x28>
   cad3c:	a1 31       	lwi333 $r4,[$r6+#0x4]
   cad3e:	3a 24 8c 00 	lmw.bi $r2,[$r9],$r3,#0x0    ! {$r2~$r3}
   cad42:	80 08       	mov55 $r0,$r8
   cad44:	84 21       	movi55 $r1,#1
   cad46:	dd 24       	jral5 $r4
   cad48:	8c c8       	addi45 $r6,#8
   cad4a:	4c 63 ff f7 	bne $r6,$r7,cad38 <l2cap_notify+0x18>
   cad4e:	fc c1       	pop25 $r10,#0x8    ! {$r6~$r10, $fp, $gp, $lp}

000cad50 <l2cap_pdu_dispatch>:
   cad50:	fc 21       	push25 $r8,#0x8    ! {$r6~$r8, $fp, $gp, $lp}
   cad52:	97 80       	zeb33 $r6,$r0
   cad54:	96 09       	zeh33 $r0,$r1
   cad56:	81 02       	mov55 $r8,$r2
   cad58:	97 d9       	zeh33 $r7,$r3
   cad5a:	49 ff ff cf 	jal cacf8 <l2cap_find_cidcb>
   cad5e:	c0 0a       	beqz38 $r0,cad72 <l2cap_pdu_dispatch+0x22>
   cad60:	b7 1f       	swi450 $r8,[$sp]
   cad62:	12 7f 80 02 	shi $r7,[$sp+#0x4]
   cad66:	a1 41       	lwi333 $r5,[$r0+#0x4]
   cad68:	3a 2f 8c 00 	lmw.bi $r2,[$sp],$r3,#0x0    ! {$r2~$r3}
   cad6c:	80 06       	mov55 $r0,$r6
   cad6e:	84 20       	movi55 $r1,#0
   cad70:	dd 25       	jral5 $r5
   cad72:	fc a1       	pop25 $r8,#0x8    ! {$r6~$r8, $fp, $gp, $lp}

000cad74 <BLE_l2cap_cid_register>:
   cad74:	fc 20       	push25 $r8,#0x0    ! {$r6~$r8, $fp, $gp, $lp}
   cad76:	97 c1       	zeh33 $r7,$r0
   cad78:	84 00       	movi55 $r0,#0
   cad7a:	80 c1       	mov55 $r6,$r1
   cad7c:	49 ff ff be 	jal cacf8 <l2cap_find_cidcb>
   cad80:	c0 04       	beqz38 $r0,cad88 <BLE_l2cap_cid_register+0x14>
   cad82:	ad c0       	shi333 $r7,[$r0+#0x0]
   cad84:	a9 81       	swi333 $r6,[$r0+#0x4]
   cad86:	84 01       	movi55 $r0,#1
   cad88:	fc a0       	pop25 $r8,#0x0    ! {$r6~$r8, $fp, $gp, $lp}

000cad8a <l2cap_init>:
   cad8a:	fc 00       	push25 $r6,#0x0    ! {$r6, $fp, $gp, $lp}
   cad8c:	84 20       	movi55 $r1,#0
   cad8e:	44 20 00 80 	movi $r2,#128
   cad92:	3e 0f c8 58 	addi.gp $r0,#-14248
   cad96:	49 ff e9 79 	jal c8088 <memset>
   cad9a:	fc 80       	pop25 $r6,#0x0    ! {$r6, $fp, $gp, $lp}

000cad9c <l2cap_hci_fragment>:
   cad9c:	fc 40       	push25 $r10,#0x0    ! {$r6~$r10, $fp, $gp, $lp}
   cad9e:	97 d9       	zeh33 $r7,$r3
   cada0:	96 00       	zeb33 $r0,$r0
   cada2:	83 82       	mov55 $fp,$r2
   cada4:	40 90 80 13 	zeh $r9,$r1
   cada8:	50 83 80 04 	addi $r8,$r7,#4
   cadac:	49 ff fe 14 	jal ca9d4 <ble_gap_link_GetAttr_Handle>
   cadb0:	81 40       	mov55 $r10,$r0
   cadb2:	80 08       	mov55 $r0,$r8
   cadb4:	49 00 39 48 	jal d2044 <malloc>
   cadb8:	80 c0       	mov55 $r6,$r0
   cadba:	af c0       	sbi333 $r7,[$r0+#0x0]
   cadbc:	40 03 a0 09 	srli $r0,$r7,#8
   cadc0:	ae 31       	sbi333 $r0,[$r6+#0x1]
   cadc2:	10 93 00 02 	sbi $r9,[$r6+#0x2]
   cadc6:	80 3c       	mov55 $r1,$fp
   cadc8:	80 47       	mov55 $r2,$r7
   cadca:	93 28       	srli45 $r9,#8
   cadcc:	9c 34       	addi333 $r0,$r6,#4
   cadce:	10 93 00 03 	sbi $r9,[$r6+#0x3]
   cadd2:	49 ff e9 3b 	jal c8048 <memcpy>
   cadd6:	80 0a       	mov55 $r0,$r10
   cadd8:	80 26       	mov55 $r1,$r6
   cadda:	40 24 00 13 	zeh $r2,$r8
   cadde:	49 00 2a 40 	jal d025e <hci_send_acl>
   cade2:	80 06       	mov55 $r0,$r6
   cade4:	49 00 38 cb 	jal d1f7a <free>
   cade8:	fc c0       	pop25 $r10,#0x0    ! {$r6~$r10, $fp, $gp, $lp}

000cadea <l2cap_hci_recombine>:
   cadea:	fc 41       	push25 $r10,#0x8    ! {$r6~$r10, $fp, $gp, $lp}
   cadec:	40 80 00 13 	zeh $r8,$r0
   cadf0:	54 04 0f ff 	andi $r0,$r8,#0xfff
   cadf4:	81 22       	mov55 $r9,$r2
   cadf6:	97 c9       	zeh33 $r7,$r1
   cadf8:	49 ff fe 01 	jal ca9fa <ble_gap_link_GetIdx_ByHandle>
   cadfc:	81 40       	mov55 $r10,$r0
   cadfe:	5a 08 ff 04 	bnec $r0,#255,cae06 <l2cap_hci_recombine+0x1c>
   cae02:	48 00 00 dd 	j cafbc <l2cap_hci_recombine+0x1d2>
   cae06:	93 0c       	srli45 $r8,#12
   cae08:	49 ff fe a6 	jal cab54 <ble_gap_link_GetAttr_Data>
   cae0c:	54 84 00 03 	andi $r8,$r8,#0x3
   cae10:	80 c0       	mov55 $r6,$r0
   cae12:	85 e2       	movi55 $r15,#2
   cae14:	4c 87 c0 6e 	bne $r8,$r15,caef0 <l2cap_hci_recombine+0x106>
   cae18:	00 04 80 00 	lbi $r0,[$r9+#0x0]
   cae1c:	00 84 80 01 	lbi $r8,[$r9+#0x1]
   cae20:	00 24 80 02 	lbi $r2,[$r9+#0x2]
   cae24:	01 c4 80 03 	lbi $fp,[$r9+#0x3]
   cae28:	4e 72 00 ca 	beqz $r7,cafbc <l2cap_hci_recombine+0x1d2>
   cae2c:	40 84 20 08 	slli $r8,$r8,#8
   cae30:	89 00       	add45 $r8,$r0
   cae32:	40 84 00 13 	zeh $r8,$r8
   cae36:	4e 82 00 c3 	beqz $r8,cafbc <l2cap_hci_recombine+0x1d2>
   cae3a:	9e 3c       	subi333 $r0,$r7,#4
   cae3c:	f0 81       	swi37.sp $r0,[+#0x4]
   cae3e:	e1 00       	slts45 $r8,$r0
   cae40:	4e f3 00 be 	bnez $r15,cafbc <l2cap_hci_recombine+0x1d2>
   cae44:	c6 17       	beqz38 $r6,cae72 <l2cap_hci_recombine+0x88>
   cae46:	a6 37       	lbi333 $r0,[$r6+#0x7]
   cae48:	a6 f6       	lbi333 $r3,[$r6+#0x6]
   cae4a:	00 13 00 08 	lbi $r1,[$r6+#0x8]
   cae4e:	40 00 20 08 	slli $r0,$r0,#8
   cae52:	fe 1f       	or33 $r0,$r3
   cae54:	40 10 c0 08 	slli $r1,$r1,#16
   cae58:	fe 47       	or33 $r1,$r0
   cae5a:	00 03 00 09 	lbi $r0,[$r6+#0x9]
   cae5e:	b6 5f       	swi450 $r2,[$sp]
   cae60:	40 00 60 08 	slli $r0,$r0,#24
   cae64:	fe 0f       	or33 $r0,$r1
   cae66:	49 00 38 8a 	jal d1f7a <free>
   cae6a:	80 06       	mov55 $r0,$r6
   cae6c:	49 00 38 87 	jal d1f7a <free>
   cae70:	b4 5f       	lwi450 $r2,[$sp]
   cae72:	41 ce 20 08 	slli $fp,$fp,#8
   cae76:	41 c1 70 00 	add $fp,$r2,$fp
   cae7a:	9e 3b       	subi333 $r0,$r7,#3
   cae7c:	41 ce 00 13 	zeh $fp,$fp
   cae80:	8d 24       	addi45 $r9,#4
   cae82:	e1 00       	slts45 $r8,$r0
   cae84:	e9 2f       	bnezs8 caee2 <l2cap_hci_recombine+0xf8>
   cae86:	84 0a       	movi55 $r0,#10
   cae88:	49 00 38 de 	jal d2044 <malloc>
   cae8c:	80 c0       	mov55 $r6,$r0
   cae8e:	84 20       	movi55 $r1,#0
   cae90:	84 4a       	movi55 $r2,#10
   cae92:	49 ff e8 fb 	jal c8088 <memset>
   cae96:	11 c3 00 00 	sbi $fp,[$r6+#0x0]
   cae9a:	40 04 20 09 	srli $r0,$r8,#8
   cae9e:	41 ce 20 09 	srli $fp,$fp,#8
   caea2:	ae 33       	sbi333 $r0,[$r6+#0x3]
   caea4:	11 c3 00 01 	sbi $fp,[$r6+#0x1]
   caea8:	10 83 00 02 	sbi $r8,[$r6+#0x2]
   caeac:	80 08       	mov55 $r0,$r8
   caeae:	49 00 38 cb 	jal d2044 <malloc>
   caeb2:	40 10 20 09 	srli $r1,$r0,#8
   caeb6:	ae 77       	sbi333 $r1,[$r6+#0x7]
   caeb8:	40 30 60 09 	srli $r3,$r0,#24
   caebc:	40 10 40 09 	srli $r1,$r0,#16
   caec0:	10 13 00 08 	sbi $r1,[$r6+#0x8]
   caec4:	ae 36       	sbi333 $r0,[$r6+#0x6]
   caec6:	10 33 00 09 	sbi $r3,[$r6+#0x9]
   caeca:	9f fc       	subi333 $r7,$r7,#4
   caecc:	f2 01       	lwi37.sp $r2,[+#0x4]
   caece:	80 29       	mov55 $r1,$r9
   caed0:	97 f9       	zeh33 $r7,$r7
   caed2:	49 ff e8 bb 	jal c8048 <memcpy>
   caed6:	af f4       	sbi333 $r7,[$r6+#0x4]
   caed8:	92 e8       	srli45 $r7,#8
   caeda:	af f5       	sbi333 $r7,[$r6+#0x5]
   caedc:	80 0a       	mov55 $r0,$r10
   caede:	80 26       	mov55 $r1,$r6
   caee0:	d5 6c       	j8 cafb8 <l2cap_hci_recombine+0x1ce>
   caee2:	80 0a       	mov55 $r0,$r10
   caee4:	80 3c       	mov55 $r1,$fp
   caee6:	80 49       	mov55 $r2,$r9
   caee8:	80 68       	mov55 $r3,$r8
   caeea:	49 ff ff 33 	jal cad50 <l2cap_pdu_dispatch>
   caeee:	d5 67       	j8 cafbc <l2cap_hci_recombine+0x1d2>
   caef0:	5a 88 01 66 	bnec $r8,#1,cafbc <l2cap_hci_recombine+0x1d2>
   caef4:	c0 64       	beqz38 $r0,cafbc <l2cap_hci_recombine+0x1d2>
   caef6:	c7 63       	beqz38 $r7,cafbc <l2cap_hci_recombine+0x1d2>
   caef8:	a6 75       	lbi333 $r1,[$r6+#0x5]
   caefa:	a6 04       	lbi333 $r0,[$r0+#0x4]
   caefc:	a6 b3       	lbi333 $r2,[$r6+#0x3]
   caefe:	40 10 a0 08 	slli $r1,$r1,#8
   caf02:	a6 f2       	lbi333 $r3,[$r6+#0x2]
   caf04:	fe 47       	or33 $r1,$r0
   caf06:	40 21 20 08 	slli $r2,$r2,#8
   caf0a:	98 39       	add333 $r0,$r7,$r1
   caf0c:	fe 9f       	or33 $r2,$r3
   caf0e:	e0 40       	slts45 $r2,$r0
   caf10:	e9 56       	bnezs8 cafbc <l2cap_hci_recombine+0x1d2>
   caf12:	a6 f7       	lbi333 $r3,[$r6+#0x7]
   caf14:	a7 36       	lbi333 $r4,[$r6+#0x6]
   caf16:	00 23 00 08 	lbi $r2,[$r6+#0x8]
   caf1a:	00 03 00 09 	lbi $r0,[$r6+#0x9]
   caf1e:	40 31 a0 08 	slli $r3,$r3,#8
   caf22:	fe e7       	or33 $r3,$r4
   caf24:	40 21 40 08 	slli $r2,$r2,#16
   caf28:	fe 9f       	or33 $r2,$r3
   caf2a:	40 00 60 08 	slli $r0,$r0,#24
   caf2e:	fe 17       	or33 $r0,$r2
   caf30:	98 01       	add333 $r0,$r0,$r1
   caf32:	80 47       	mov55 $r2,$r7
   caf34:	80 29       	mov55 $r1,$r9
   caf36:	49 ff e8 89 	jal c8048 <memcpy>
   caf3a:	a6 f5       	lbi333 $r3,[$r6+#0x5]
   caf3c:	a6 34       	lbi333 $r0,[$r6+#0x4]
   caf3e:	40 31 a0 08 	slli $r3,$r3,#8
   caf42:	fe c7       	or33 $r3,$r0
   caf44:	99 fb       	add333 $r7,$r7,$r3
   caf46:	96 f9       	zeh33 $r3,$r7
   caf48:	40 01 a0 09 	srli $r0,$r3,#8
   caf4c:	ae 35       	sbi333 $r0,[$r6+#0x5]
   caf4e:	a6 33       	lbi333 $r0,[$r6+#0x3]
   caf50:	a6 72       	lbi333 $r1,[$r6+#0x2]
   caf52:	40 00 20 08 	slli $r0,$r0,#8
   caf56:	fe 0f       	or33 $r0,$r1
   caf58:	ae f4       	sbi333 $r3,[$r6+#0x4]
   caf5a:	4c 30 40 31 	bne $r3,$r0,cafbc <l2cap_hci_recombine+0x1d2>
   caf5e:	a6 37       	lbi333 $r0,[$r6+#0x7]
   caf60:	a6 b6       	lbi333 $r2,[$r6+#0x6]
   caf62:	00 43 00 08 	lbi $r4,[$r6+#0x8]
   caf66:	40 00 20 08 	slli $r0,$r0,#8
   caf6a:	fe 17       	or33 $r0,$r2
   caf6c:	a6 71       	lbi333 $r1,[$r6+#0x1]
   caf6e:	00 23 00 09 	lbi $r2,[$r6+#0x9]
   caf72:	a7 70       	lbi333 $r5,[$r6+#0x0]
   caf74:	40 42 40 08 	slli $r4,$r4,#16
   caf78:	ff 07       	or33 $r4,$r0
   caf7a:	40 10 a0 08 	slli $r1,$r1,#8
   caf7e:	40 21 60 08 	slli $r2,$r2,#24
   caf82:	fe 6f       	or33 $r1,$r5
   caf84:	fe a7       	or33 $r2,$r4
   caf86:	80 0a       	mov55 $r0,$r10
   caf88:	49 ff fe e4 	jal cad50 <l2cap_pdu_dispatch>
   caf8c:	a6 37       	lbi333 $r0,[$r6+#0x7]
   caf8e:	a6 b6       	lbi333 $r2,[$r6+#0x6]
   caf90:	00 13 00 08 	lbi $r1,[$r6+#0x8]
   caf94:	40 00 20 08 	slli $r0,$r0,#8
   caf98:	fe 17       	or33 $r0,$r2
   caf9a:	40 10 c0 08 	slli $r1,$r1,#16
   caf9e:	fe 47       	or33 $r1,$r0
   cafa0:	00 03 00 09 	lbi $r0,[$r6+#0x9]
   cafa4:	40 00 60 08 	slli $r0,$r0,#24
   cafa8:	fe 0f       	or33 $r0,$r1
   cafaa:	49 00 37 e8 	jal d1f7a <free>
   cafae:	80 06       	mov55 $r0,$r6
   cafb0:	49 00 37 e5 	jal d1f7a <free>
   cafb4:	80 0a       	mov55 $r0,$r10
   cafb6:	84 20       	movi55 $r1,#0
   cafb8:	49 ff fd ba 	jal cab2c <ble_gap_link_SetAttr_Data>
   cafbc:	fc c1       	pop25 $r10,#0x8    ! {$r6~$r10, $fp, $gp, $lp}

000cafbe <l2cap_lesig_error_rsp>:
   cafbe:	fc 01       	push25 $r6,#0x8    ! {$r6, $fp, $gp, $lp}
   cafc0:	96 d1       	zeh33 $r3,$r2
   cafc2:	10 1f 80 01 	sbi $r1,[$sp+#0x1]
   cafc6:	84 22       	movi55 $r1,#2
   cafc8:	10 1f 80 02 	sbi $r1,[$sp+#0x2]
   cafcc:	10 3f 80 04 	sbi $r3,[$sp+#0x4]
   cafd0:	84 20       	movi55 $r1,#0
   cafd2:	92 68       	srli45 $r3,#8
   cafd4:	84 81       	movi55 $r4,#1
   cafd6:	10 1f 80 03 	sbi $r1,[$sp+#0x3]
   cafda:	10 3f 80 05 	sbi $r3,[$sp+#0x5]
   cafde:	80 5f       	mov55 $r2,$sp
   cafe0:	84 25       	movi55 $r1,#5
   cafe2:	84 66       	movi55 $r3,#6
   cafe4:	96 00       	zeb33 $r0,$r0
   cafe6:	10 4f 80 00 	sbi $r4,[$sp+#0x0]
   cafea:	49 ff fe d9 	jal cad9c <l2cap_hci_fragment>
   cafee:	fc 81       	pop25 $r6,#0x8    ! {$r6, $fp, $gp, $lp}

000caff0 <l2cap_lesig_conn_param_update_req>:
   caff0:	fc 22       	push25 $r8,#0x10    ! {$r6~$r8, $fp, $gp, $lp}
   caff2:	b1 81       	addri36.sp $r6,#0x4
   caff4:	97 c0       	zeb33 $r7,$r0
   caff6:	fa 02       	movpi45 $r0,#0x12
   caff8:	ae 30       	sbi333 $r0,[$r6+#0x0]
   caffa:	84 01       	movi55 $r0,#1
   caffc:	ae 31       	sbi333 $r0,[$r6+#0x1]
   caffe:	84 08       	movi55 $r0,#8
   cb000:	ae 32       	sbi333 $r0,[$r6+#0x2]
   cb002:	84 00       	movi55 $r0,#0
   cb004:	ae 33       	sbi333 $r0,[$r6+#0x3]
   cb006:	84 48       	movi55 $r2,#8
   cb008:	b0 02       	addri36.sp $r0,#0x8
   cb00a:	49 ff e8 1f 	jal c8048 <memcpy>
   cb00e:	80 07       	mov55 $r0,$r7
   cb010:	84 25       	movi55 $r1,#5
   cb012:	80 46       	mov55 $r2,$r6
   cb014:	84 6c       	movi55 $r3,#12
   cb016:	49 ff fe c3 	jal cad9c <l2cap_hci_fragment>
   cb01a:	fc a2       	pop25 $r8,#0x10    ! {$r6~$r8, $fp, $gp, $lp}

000cb01c <l2cap_lesig_init>:
   cb01c:	fc 00       	push25 $r6,#0x0    ! {$r6, $fp, $gp, $lp}
   cb01e:	3e 1c 70 2a 	addi.gp $r1,#-233430
   cb022:	84 05       	movi55 $r0,#5
   cb024:	49 ff fe a8 	jal cad74 <BLE_l2cap_cid_register>
   cb028:	fc 80       	pop25 $r6,#0x0    ! {$r6, $fp, $gp, $lp}

000cb02a <le_sig_cid_evt_cb>:
   cb02a:	fc 4d       	push25 $r10,#0x68    ! {$r6~$r10, $fp, $gp, $lp}
   cb02c:	3a 2f 8c 20 	smw.bi $r2,[$sp],$r3,#0x0    ! {$r2~$r3}
   cb030:	81 21       	mov55 $r9,$r1
   cb032:	97 c0       	zeb33 $r7,$r0
   cb034:	02 8f 80 02 	lhi $r8,[$sp+#0x4]
   cb038:	80 c2       	mov55 $r6,$r2
   cb03a:	4e 93 00 4a 	bnez $r9,cb0ce <le_sig_cid_evt_cb+0xa4>
   cb03e:	5a 88 0c 22 	bnec $r8,#12,cb082 <le_sig_cid_evt_cb+0x58>
   cb042:	a6 10       	lbi333 $r0,[$r2+#0x0]
   cb044:	5a 08 12 40 	bnec $r0,#18,cb0c4 <le_sig_cid_evt_cb+0x9a>
   cb048:	80 07       	mov55 $r0,$r7
   cb04a:	49 ff fd 67 	jal cab18 <ble_gap_link_GetAttr_Role>
   cb04e:	5a 08 01 06 	bnec $r0,#1,cb05a <le_sig_cid_evt_cb+0x30>
   cb052:	80 07       	mov55 $r0,$r7
   cb054:	a6 71       	lbi333 $r1,[$r6+#0x1]
   cb056:	80 49       	mov55 $r2,$r9
   cb058:	d5 39       	j8 cb0ca <le_sig_cid_evt_cb+0xa0>
   cb05a:	50 9f 80 38 	addi $r9,$sp,#56
   cb05e:	44 00 10 04 	movi $r0,#4100
   cb062:	f0 8e       	swi37.sp $r0,[+#0x38]
   cb064:	80 07       	mov55 $r0,$r7
   cb066:	49 ff fc b7 	jal ca9d4 <ble_gap_link_GetAttr_Handle>
   cb06a:	12 04 80 02 	shi $r0,[$r9+#0x4]
   cb06e:	9c 74       	addi333 $r1,$r6,#4
   cb070:	a6 31       	lbi333 $r0,[$r6+#0x1]
   cb072:	80 48       	mov55 $r2,$r8
   cb074:	12 04 80 03 	shi $r0,[$r9+#0x6]
   cb078:	b0 10       	addri36.sp $r0,#0x40
   cb07a:	49 ff e7 e7 	jal c8048 <memcpy>
   cb07e:	80 09       	mov55 $r0,$r9
   cb080:	d5 1f       	j8 cb0be <le_sig_cid_evt_cb+0x94>
   cb082:	5a 88 06 21 	bnec $r8,#6,cb0c4 <le_sig_cid_evt_cb+0x9a>
   cb086:	a6 10       	lbi333 $r0,[$r2+#0x0]
   cb088:	5a 08 13 1e 	bnec $r0,#19,cb0c4 <le_sig_cid_evt_cb+0x9a>
   cb08c:	9d 94       	addi333 $r6,$r2,#4
   cb08e:	a6 30       	lbi333 $r0,[$r6+#0x0]
   cb090:	c0 1f       	beqz38 $r0,cb0ce <le_sig_cid_evt_cb+0xa4>
   cb092:	50 8f 80 08 	addi $r8,$sp,#8
   cb096:	44 00 10 02 	movi $r0,#4098
   cb09a:	f0 82       	swi37.sp $r0,[+#0x8]
   cb09c:	80 07       	mov55 $r0,$r7
   cb09e:	a7 b0       	lbi333 $r6,[$r6+#0x0]
   cb0a0:	10 64 00 04 	sbi $r6,[$r8+#0x4]
   cb0a4:	49 ff fc 98 	jal ca9d4 <ble_gap_link_GetAttr_Handle>
   cb0a8:	f1 03       	lwi37.sp $r1,[+#0xc]
   cb0aa:	46 2f f0 00 	sethi $r2,#0xff000
   cb0ae:	58 21 00 ff 	ori $r2,$r2,#0xff
   cb0b2:	40 00 20 08 	slli $r0,$r0,#8
   cb0b6:	fe 56       	and33 $r1,$r2
   cb0b8:	fe 0f       	or33 $r0,$r1
   cb0ba:	f0 83       	swi37.sp $r0,[+#0xc]
   cb0bc:	80 08       	mov55 $r0,$r8
   cb0be:	49 ff f8 39 	jal ca130 <bt_infom_ap>
   cb0c2:	d5 06       	j8 cb0ce <le_sig_cid_evt_cb+0xa4>
   cb0c4:	a6 71       	lbi333 $r1,[$r6+#0x1]
   cb0c6:	80 07       	mov55 $r0,$r7
   cb0c8:	84 40       	movi55 $r2,#0
   cb0ca:	49 ff ff 7a 	jal cafbe <l2cap_lesig_error_rsp>
   cb0ce:	fc cd       	pop25 $r10,#0x68    ! {$r6~$r10, $fp, $gp, $lp}

000cb0d0 <ATT_UnknownPduHadler>:
   cb0d0:	fc 00       	push25 $r6,#0x0    ! {$r6, $fp, $gp, $lp}
   cb0d2:	fc 80       	pop25 $r6,#0x0    ! {$r6, $fp, $gp, $lp}

000cb0d4 <ATT_transaction_timeout_cb>:
   cb0d4:	fc 00       	push25 $r6,#0x0    ! {$r6, $fp, $gp, $lp}
   cb0d6:	46 10 01 01 	sethi $r1,#0x101
   cb0da:	84 41       	movi55 $r2,#1
   cb0dc:	96 1f       	fexti33 $r0,#0x3
   cb0de:	40 01 00 0c 	sll $r0,$r2,$r0
   cb0e2:	3c 23 e9 7c 	lhi.gp $r2,[+#-11528]
   cb0e6:	fe 17       	or33 $r0,$r2
   cb0e8:	3c 0b e9 7c 	shi.gp $r0,[+#-11528]
   cb0ec:	fc 80       	pop25 $r6,#0x0    ! {$r6, $fp, $gp, $lp}

000cb0ee <ATT_is_in_transaction>:
   cb0ee:	fc 00       	push25 $r6,#0x0    ! {$r6, $fp, $gp, $lp}
   cb0f0:	3c 13 e9 7b 	lhi.gp $r1,[+#-11530]
   cb0f4:	96 1f       	fexti33 $r0,#0x3
   cb0f6:	40 00 80 0e 	sra $r0,$r1,$r0
   cb0fa:	96 04       	xlsb33 $r0,$r0
   cb0fc:	fc 80       	pop25 $r6,#0x0    ! {$r6, $fp, $gp, $lp}

000cb0fe <ATT_BinarySearchIndexByHandle>:
   cb0fe:	fc 00       	push25 $r6,#0x0    ! {$r6, $fp, $gp, $lp}
   cb100:	96 41       	zeh33 $r1,$r0
   cb102:	3c 33 e9 7d 	lhi.gp $r3,[+#-11526]
   cb106:	e2 23       	slt45 $r1,$r3
   cb108:	e8 0e       	beqzs8 cb124 <ATT_BinarySearchIndexByHandle+0x26>
   cb10a:	3c 0d f4 b3 	lwi.gp $r0,[+#-11572]
   cb10e:	38 20 06 02 	lw $r2,[$r0+($r1<<#0x2)]
   cb112:	00 01 00 13 	lbi $r0,[$r2+#0x13]
   cb116:	00 41 00 12 	lbi $r4,[$r2+#0x12]
   cb11a:	40 00 20 08 	slli $r0,$r0,#8
   cb11e:	fe 27       	or33 $r0,$r4
   cb120:	4c 00 80 1d 	beq $r0,$r1,cb15a <ATT_BinarySearchIndexByHandle+0x5c>
   cb124:	9e d9       	subi333 $r3,$r3,#1
   cb126:	3c 4d f4 b3 	lwi.gp $r4,[+#-11572]
   cb12a:	96 d9       	zeh33 $r3,$r3
   cb12c:	84 40       	movi55 $r2,#0
   cb12e:	98 1a       	add333 $r0,$r3,$r2
   cb130:	92 01       	srli45 $r0,#1
   cb132:	38 52 02 02 	lw $r5,[$r4+($r0<<#0x2)]
   cb136:	00 62 80 12 	lbi $r6,[$r5+#0x12]
   cb13a:	00 52 80 13 	lbi $r5,[$r5+#0x13]
   cb13e:	40 52 a0 08 	slli $r5,$r5,#8
   cb142:	ff 77       	or33 $r5,$r6
   cb144:	d1 0b       	beqs38 $r1,cb15a <ATT_BinarySearchIndexByHandle+0x5c>
   cb146:	e2 a1       	slt45 $r5,$r1
   cb148:	e8 04       	beqzs8 cb150 <ATT_BinarySearchIndexByHandle+0x52>
   cb14a:	9c 01       	addi333 $r0,$r0,#1
   cb14c:	96 81       	zeh33 $r2,$r0
   cb14e:	d5 03       	j8 cb154 <ATT_BinarySearchIndexByHandle+0x56>
   cb150:	9e 01       	subi333 $r0,$r0,#1
   cb152:	96 c1       	zeh33 $r3,$r0
   cb154:	e2 62       	slt45 $r3,$r2
   cb156:	e8 ec       	beqzs8 cb12e <ATT_BinarySearchIndexByHandle+0x30>
   cb158:	84 00       	movi55 $r0,#0
   cb15a:	fc 80       	pop25 $r6,#0x0    ! {$r6, $fp, $gp, $lp}

000cb15c <ATT_CheckHandle>:
   cb15c:	fc 00       	push25 $r6,#0x0    ! {$r6, $fp, $gp, $lp}
   cb15e:	a6 80       	lbi333 $r2,[$r0+#0x0]
   cb160:	96 49       	zeh33 $r1,$r1
   cb162:	ca 08       	bnez38 $r2,cb172 <ATT_CheckHandle+0x16>
   cb164:	c1 05       	beqz38 $r1,cb16e <ATT_CheckHandle+0x12>
   cb166:	3c 23 e9 7d 	lhi.gp $r2,[+#-11526]
   cb16a:	e2 41       	slt45 $r2,$r1
   cb16c:	e8 03       	beqzs8 cb172 <ATT_CheckHandle+0x16>
   cb16e:	84 21       	movi55 $r1,#1
   cb170:	ae 40       	sbi333 $r1,[$r0+#0x0]
   cb172:	fc 80       	pop25 $r6,#0x0    ! {$r6, $fp, $gp, $lp}

000cb174 <ATT_CALLBACK>:
   cb174:	fc 00       	push25 $r6,#0x0    ! {$r6, $fp, $gp, $lp}
   cb176:	97 01       	zeh33 $r4,$r0
   cb178:	96 08       	zeb33 $r0,$r1
   cb17a:	96 50       	zeb33 $r1,$r2
   cb17c:	3c 2d f4 b3 	lwi.gp $r2,[+#-11572]
   cb180:	38 31 12 02 	lw $r3,[$r2+($r4<<#0x2)]
   cb184:	a7 5d       	lbi333 $r5,[$r3+#0x5]
   cb186:	a6 9c       	lbi333 $r2,[$r3+#0x4]
   cb188:	40 52 a0 08 	slli $r5,$r5,#8
   cb18c:	ff 57       	or33 $r5,$r2
   cb18e:	a6 9e       	lbi333 $r2,[$r3+#0x6]
   cb190:	a6 df       	lbi333 $r3,[$r3+#0x7]
   cb192:	40 21 40 08 	slli $r2,$r2,#16
   cb196:	fe af       	or33 $r2,$r5
   cb198:	40 31 e0 08 	slli $r3,$r3,#24
   cb19c:	fe d7       	or33 $r3,$r2
   cb19e:	c3 03       	beqz38 $r3,cb1a4 <ATT_CALLBACK+0x30>
   cb1a0:	80 44       	mov55 $r2,$r4
   cb1a2:	dd 23       	jral5 $r3
   cb1a4:	fc 80       	pop25 $r6,#0x0    ! {$r6, $fp, $gp, $lp}

000cb1a6 <ATT_ReturnGroupEndIndex>:
   cb1a6:	fc 00       	push25 $r6,#0x0    ! {$r6, $fp, $gp, $lp}
   cb1a8:	96 40       	zeb33 $r1,$r0
   cb1aa:	3c 2d f4 b3 	lwi.gp $r2,[+#-11572]
   cb1ae:	38 01 06 02 	lw $r0,[$r2+($r1<<#0x2)]
   cb1b2:	00 30 00 08 	lbi $r3,[$r0+#0x8]
   cb1b6:	00 00 00 09 	lbi $r0,[$r0+#0x9]
   cb1ba:	40 00 20 08 	slli $r0,$r0,#8
   cb1be:	fe 1f       	or33 $r0,$r3
   cb1c0:	50 00 58 00 	addi $r0,$r0,#-10240
   cb1c4:	96 01       	zeh33 $r0,$r0
   cb1c6:	e6 02       	slti45 $r0,#2
   cb1c8:	e9 03       	bnezs8 cb1ce <ATT_ReturnGroupEndIndex+0x28>
   cb1ca:	84 00       	movi55 $r0,#0
   cb1cc:	d5 1f       	j8 cb20a <ATT_ReturnGroupEndIndex+0x64>
   cb1ce:	3c 33 e9 7d 	lhi.gp $r3,[+#-11526]
   cb1d2:	9c 09       	addi333 $r0,$r1,#1
   cb1d4:	96 00       	zeb33 $r0,$r0
   cb1d6:	9f 19       	subi333 $r4,$r3,#1
   cb1d8:	d5 16       	j8 cb204 <ATT_ReturnGroupEndIndex+0x5e>
   cb1da:	38 51 02 02 	lw $r5,[$r2+($r0<<#0x2)]
   cb1de:	00 62 80 08 	lbi $r6,[$r5+#0x8]
   cb1e2:	00 52 80 09 	lbi $r5,[$r5+#0x9]
   cb1e6:	40 52 a0 08 	slli $r5,$r5,#8
   cb1ea:	ff 77       	or33 $r5,$r6
   cb1ec:	50 52 d8 00 	addi $r5,$r5,#-10240
   cb1f0:	97 69       	zeh33 $r5,$r5
   cb1f2:	e6 a2       	slti45 $r5,#2
   cb1f4:	e8 04       	beqzs8 cb1fc <ATT_ReturnGroupEndIndex+0x56>
   cb1f6:	9e 01       	subi333 $r0,$r0,#1
   cb1f8:	96 00       	zeb33 $r0,$r0
   cb1fa:	d5 08       	j8 cb20a <ATT_ReturnGroupEndIndex+0x64>
   cb1fc:	e0 04       	slts45 $r0,$r4
   cb1fe:	e8 06       	beqzs8 cb20a <ATT_ReturnGroupEndIndex+0x64>
   cb200:	9c 01       	addi333 $r0,$r0,#1
   cb202:	96 00       	zeb33 $r0,$r0
   cb204:	e2 03       	slt45 $r0,$r3
   cb206:	e9 ea       	bnezs8 cb1da <ATT_ReturnGroupEndIndex+0x34>
   cb208:	80 01       	mov55 $r0,$r1
   cb20a:	fc 80       	pop25 $r6,#0x0    ! {$r6, $fp, $gp, $lp}

000cb20c <ATT_SetU16LE>:
   cb20c:	fc 00       	push25 $r6,#0x0    ! {$r6, $fp, $gp, $lp}
   cb20e:	96 49       	zeh33 $r1,$r1
   cb210:	ae 40       	sbi333 $r1,[$r0+#0x0]
   cb212:	92 28       	srli45 $r1,#8
   cb214:	ae 41       	sbi333 $r1,[$r0+#0x1]
   cb216:	fc 80       	pop25 $r6,#0x0    ! {$r6, $fp, $gp, $lp}

000cb218 <ATT_GetU16LE>:
   cb218:	fc 00       	push25 $r6,#0x0    ! {$r6, $fp, $gp, $lp}
   cb21a:	a6 81       	lbi333 $r2,[$r0+#0x1]
   cb21c:	a6 40       	lbi333 $r1,[$r0+#0x0]
   cb21e:	40 21 20 08 	slli $r2,$r2,#8
   cb222:	98 11       	add333 $r0,$r2,$r1
   cb224:	96 01       	zeh33 $r0,$r0
   cb226:	fc 80       	pop25 $r6,#0x0    ! {$r6, $fp, $gp, $lp}

000cb228 <BLE_att_get_attribute_length>:
   cb228:	fc 00       	push25 $r6,#0x0    ! {$r6, $fp, $gp, $lp}
   cb22a:	3c 13 e9 7d 	lhi.gp $r1,[+#-11526]
   cb22e:	96 01       	zeh33 $r0,$r0
   cb230:	e2 01       	slt45 $r0,$r1
   cb232:	e9 04       	bnezs8 cb23a <BLE_att_get_attribute_length+0x12>
   cb234:	44 00 ff ff 	movi $r0,#65535
   cb238:	d5 0c       	j8 cb250 <BLE_att_get_attribute_length+0x28>
   cb23a:	3c 1d f4 b3 	lwi.gp $r1,[+#-11572]
   cb23e:	38 10 82 02 	lw $r1,[$r1+($r0<<#0x2)]
   cb242:	00 00 80 0f 	lbi $r0,[$r1+#0xf]
   cb246:	00 20 80 0e 	lbi $r2,[$r1+#0xe]
   cb24a:	40 00 20 08 	slli $r0,$r0,#8
   cb24e:	fe 17       	or33 $r0,$r2
   cb250:	fc 80       	pop25 $r6,#0x0    ! {$r6, $fp, $gp, $lp}

000cb252 <BLE_att_set_default_mtu>:
   cb252:	fc 00       	push25 $r6,#0x0    ! {$r6, $fp, $gp, $lp}
   cb254:	3c 0b e3 5d 	shi.gp $r0,[+#-14662]
   cb258:	fc 80       	pop25 $r6,#0x0    ! {$r6, $fp, $gp, $lp}

000cb25a <ATT_ConvertToUUID128>:
   cb25a:	fc 20       	push25 $r8,#0x0    ! {$r6~$r8, $fp, $gp, $lp}
   cb25c:	97 c8       	zeb33 $r7,$r1
   cb25e:	81 00       	mov55 $r8,$r0
   cb260:	80 c2       	mov55 $r6,$r2
   cb262:	5a 78 10 07 	bnec $r7,#16,cb270 <ATT_ConvertToUUID128+0x16>
   cb266:	80 22       	mov55 $r1,$r2
   cb268:	80 47       	mov55 $r2,$r7
   cb26a:	49 ff e6 ef 	jal c8048 <memcpy>
   cb26e:	d5 0e       	j8 cb28a <ATT_ConvertToUUID128+0x30>
   cb270:	3e 1d 2c 8c 	addi.gp $r1,#-185204
   cb274:	fa 40       	movpi45 $r2,#0x10
   cb276:	49 ff e6 e9 	jal c8048 <memcpy>
   cb27a:	5a 78 02 05 	bnec $r7,#2,cb284 <ATT_ConvertToUUID128+0x2a>
   cb27e:	12 64 00 06 	shi $r6,[$r8+#0xc]
   cb282:	d5 04       	j8 cb28a <ATT_ConvertToUUID128+0x30>
   cb284:	b4 c6       	lwi450 $r6,[$r6]
   cb286:	14 64 00 03 	swi $r6,[$r8+#0xc]
   cb28a:	fc a0       	pop25 $r8,#0x0    ! {$r6~$r8, $fp, $gp, $lp}

000cb28c <ATT_ReleasePWQ>:
   cb28c:	fc 20       	push25 $r8,#0x0    ! {$r6~$r8, $fp, $gp, $lp}
   cb28e:	97 c0       	zeb33 $r7,$r0
   cb290:	3e 0f c8 d8 	addi.gp $r0,#-14120
   cb294:	38 60 1e 02 	lw $r6,[$r0+($r7<<#0x2)]
   cb298:	d5 05       	j8 cb2a2 <ATT_ReleasePWQ+0x16>
   cb29a:	80 06       	mov55 $r0,$r6
   cb29c:	b4 c6       	lwi450 $r6,[$r6]
   cb29e:	49 00 36 6e 	jal d1f7a <free>
   cb2a2:	ce fc       	bnez38 $r6,cb29a <ATT_ReleasePWQ+0xe>
   cb2a4:	3e 0f c8 d8 	addi.gp $r0,#-14120
   cb2a8:	38 60 1e 0a 	sw $r6,[$r0+($r7<<#0x2)]
   cb2ac:	3e 0f c9 80 	addi.gp $r0,#-13952
   cb2b0:	38 60 1e 0a 	sw $r6,[$r0+($r7<<#0x2)]
   cb2b4:	fc a0       	pop25 $r8,#0x0    ! {$r6~$r8, $fp, $gp, $lp}

000cb2b6 <ATT_AllocRspDataPdu>:
   cb2b6:	fc 20       	push25 $r8,#0x0    ! {$r6~$r8, $fp, $gp, $lp}
   cb2b8:	97 c0       	zeb33 $r7,$r0
   cb2ba:	3c 6d f2 46 	lwi.gp $r6,[+#-14056]
   cb2be:	ce 09       	bnez38 $r6,cb2d0 <ATT_AllocRspDataPdu+0x1a>
   cb2c0:	3e 0d 31 c4 	addi.gp $r0,#-183868
   cb2c4:	44 10 00 e6 	movi $r1,#230
   cb2c8:	3e 2d 31 d8 	addi.gp $r2,#-183848
   cb2cc:	49 00 2f 43 	jal d1152 <assert_ab_callback_verbose>
   cb2d0:	80 06       	mov55 $r0,$r6
   cb2d2:	af f0       	sbi333 $r7,[$r6+#0x0]
   cb2d4:	fc a0       	pop25 $r8,#0x0    ! {$r6~$r8, $fp, $gp, $lp}

000cb2d6 <ATT_CheckAccessPermission>:
   cb2d6:	fc 20       	push25 $r8,#0x0    ! {$r6~$r8, $fp, $gp, $lp}
   cb2d8:	97 c8       	zeb33 $r7,$r1
   cb2da:	80 c0       	mov55 $r6,$r0
   cb2dc:	54 03 80 44 	andi $r0,$r7,#0x44
   cb2e0:	c0 0d       	beqz38 $r0,cb2fa <ATT_CheckAccessPermission+0x24>
   cb2e2:	54 03 80 88 	andi $r0,$r7,#0x88
   cb2e6:	c0 03       	beqz38 $r0,cb2ec <ATT_CheckAccessPermission+0x16>
   cb2e8:	84 0c       	movi55 $r0,#12
   cb2ea:	d5 2c       	j8 cb342 <ATT_CheckAccessPermission+0x6c>
   cb2ec:	2e 07 c9 7e 	lbi.gp $r0,[+#-13954]
   cb2f0:	49 ff fb e1 	jal caab2 <ble_gap_link_GetAttr_Enc>
   cb2f4:	c8 03       	bnez38 $r0,cb2fa <ATT_CheckAccessPermission+0x24>
   cb2f6:	84 0f       	movi55 $r0,#15
   cb2f8:	d5 25       	j8 cb342 <ATT_CheckAccessPermission+0x6c>
   cb2fa:	96 3a       	seb33 $r0,$r7
   cb2fc:	4e 04 00 06 	bgez $r0,cb308 <ATT_CheckAccessPermission+0x32>
   cb300:	97 e6       	bmski33 $r7,#0x4
   cb302:	cf 08       	bnez38 $r7,cb312 <ATT_CheckAccessPermission+0x3c>
   cb304:	84 03       	movi55 $r0,#3
   cb306:	d5 1e       	j8 cb342 <ATT_CheckAccessPermission+0x6c>
   cb308:	54 03 80 08 	andi $r0,$r7,#0x8
   cb30c:	c0 0d       	beqz38 $r0,cb326 <ATT_CheckAccessPermission+0x50>
   cb30e:	97 fc       	xlsb33 $r7,$r7
   cb310:	c7 09       	beqz38 $r7,cb322 <ATT_CheckAccessPermission+0x4c>
   cb312:	2e 07 c9 7e 	lbi.gp $r0,[+#-13954]
   cb316:	49 ff fb b8 	jal caa86 <ble_gap_link_GetAttr_Auth>
   cb31a:	5a 00 05 15 	beqc $r0,#5,cb344 <ATT_CheckAccessPermission+0x6e>
   cb31e:	84 05       	movi55 $r0,#5
   cb320:	d5 11       	j8 cb342 <ATT_CheckAccessPermission+0x6c>
   cb322:	84 02       	movi55 $r0,#2
   cb324:	d5 0f       	j8 cb342 <ATT_CheckAccessPermission+0x6c>
   cb326:	54 03 80 22 	andi $r0,$r7,#0x22
   cb32a:	c0 03       	beqz38 $r0,cb330 <ATT_CheckAccessPermission+0x5a>
   cb32c:	84 08       	movi55 $r0,#8
   cb32e:	d5 0a       	j8 cb342 <ATT_CheckAccessPermission+0x6c>
   cb330:	54 73 80 11 	andi $r7,$r7,#0x11
   cb334:	c7 08       	beqz38 $r7,cb344 <ATT_CheckAccessPermission+0x6e>
   cb336:	2e 07 c9 7e 	lbi.gp $r0,[+#-13954]
   cb33a:	49 ff fb a6 	jal caa86 <ble_gap_link_GetAttr_Auth>
   cb33e:	c8 03       	bnez38 $r0,cb344 <ATT_CheckAccessPermission+0x6e>
   cb340:	84 05       	movi55 $r0,#5
   cb342:	ae 30       	sbi333 $r0,[$r6+#0x0]
   cb344:	fc a0       	pop25 $r8,#0x0    ! {$r6~$r8, $fp, $gp, $lp}

000cb346 <ATT_CheckWritePermission>:
   cb346:	fc 00       	push25 $r6,#0x0    ! {$r6, $fp, $gp, $lp}
   cb348:	a6 80       	lbi333 $r2,[$r0+#0x0]
   cb34a:	96 49       	zeh33 $r1,$r1
   cb34c:	ca 0c       	bnez38 $r2,cb364 <ATT_CheckWritePermission+0x1e>
   cb34e:	3c 2d f4 b3 	lwi.gp $r2,[+#-11572]
   cb352:	38 11 06 02 	lw $r1,[$r2+($r1<<#0x2)]
   cb356:	00 10 80 0d 	lbi $r1,[$r1+#0xd]
   cb35a:	54 10 80 f0 	andi $r1,$r1,#0xf0
   cb35e:	c1 03       	beqz38 $r1,cb364 <ATT_CheckWritePermission+0x1e>
   cb360:	49 ff ff bb 	jal cb2d6 <ATT_CheckAccessPermission>
   cb364:	fc 80       	pop25 $r6,#0x0    ! {$r6, $fp, $gp, $lp}

000cb366 <ATT_CheckReadPermission>:
   cb366:	fc 00       	push25 $r6,#0x0    ! {$r6, $fp, $gp, $lp}
   cb368:	a6 80       	lbi333 $r2,[$r0+#0x0]
   cb36a:	96 49       	zeh33 $r1,$r1
   cb36c:	ca 0b       	bnez38 $r2,cb382 <ATT_CheckReadPermission+0x1c>
   cb36e:	3c 2d f4 b3 	lwi.gp $r2,[+#-11572]
   cb372:	38 11 06 02 	lw $r1,[$r2+($r1<<#0x2)]
   cb376:	00 10 80 0d 	lbi $r1,[$r1+#0xd]
   cb37a:	96 5f       	fexti33 $r1,#0x3
   cb37c:	c1 03       	beqz38 $r1,cb382 <ATT_CheckReadPermission+0x1c>
   cb37e:	49 ff ff ac 	jal cb2d6 <ATT_CheckAccessPermission>
   cb382:	fc 80       	pop25 $r6,#0x0    ! {$r6, $fp, $gp, $lp}

000cb384 <ATT_IsSameValue>:
   cb384:	fc 00       	push25 $r6,#0x0    ! {$r6, $fp, $gp, $lp}
   cb386:	96 91       	zeh33 $r2,$r2
   cb388:	49 ff e6 54 	jal c8030 <memcmp>
   cb38c:	5c 00 00 01 	slti $r0,$r0,#1
   cb390:	fc 80       	pop25 $r6,#0x0    ! {$r6, $fp, $gp, $lp}

000cb392 <BLE_att_set_attribute_length>:
   cb392:	fc 00       	push25 $r6,#0x0    ! {$r6, $fp, $gp, $lp}
   cb394:	3e 2f d2 fa 	addi.gp $r2,#-11526
   cb398:	a4 90       	lhi333 $r2,[$r2+#0x0]
   cb39a:	96 01       	zeh33 $r0,$r0
   cb39c:	96 49       	zeh33 $r1,$r1
   cb39e:	e2 02       	slt45 $r0,$r2
   cb3a0:	e9 03       	bnezs8 cb3a6 <BLE_att_set_attribute_length+0x14>
   cb3a2:	84 01       	movi55 $r0,#1
   cb3a4:	d5 34       	j8 cb40c <BLE_att_set_attribute_length+0x7a>
   cb3a6:	64 42 00 02 	mfsr $r4,$PSW
   cb3aa:	64 02 00 43 	setgie.d
   cb3ae:	64 00 00 08 	dsb
   cb3b2:	46 30 01 00 	sethi $r3,#0x100
   cb3b6:	58 31 80 b0 	ori $r3,$r3,#0xb0
   cb3ba:	b4 43       	lwi450 $r2,[$r3]
   cb3bc:	9d 51       	addi333 $r5,$r2,#1
   cb3be:	b6 a3       	swi450 $r5,[$r3]
   cb3c0:	ca 06       	bnez38 $r2,cb3cc <BLE_att_set_attribute_length+0x3a>
   cb3c2:	46 20 01 00 	sethi $r2,#0x100
   cb3c6:	58 21 00 bc 	ori $r2,$r2,#0xbc
   cb3ca:	b6 82       	swi450 $r4,[$r2]
   cb3cc:	3e 2f d2 cc 	addi.gp $r2,#-11572
   cb3d0:	b4 42       	lwi450 $r2,[$r2]
   cb3d2:	38 01 02 02 	lw $r0,[$r2+($r0<<#0x2)]
   cb3d6:	10 10 00 0e 	sbi $r1,[$r0+#0xe]
   cb3da:	92 28       	srli45 $r1,#8
   cb3dc:	10 10 00 0f 	sbi $r1,[$r0+#0xf]
   cb3e0:	46 00 01 00 	sethi $r0,#0x100
   cb3e4:	58 00 00 b0 	ori $r0,$r0,#0xb0
   cb3e8:	b4 20       	lwi450 $r1,[$r0]
   cb3ea:	9e 49       	subi333 $r1,$r1,#1
   cb3ec:	b6 20       	swi450 $r1,[$r0]
   cb3ee:	b4 00       	lwi450 $r0,[$r0]
   cb3f0:	c8 0d       	bnez38 $r0,cb40a <BLE_att_set_attribute_length+0x78>
   cb3f2:	46 10 01 00 	sethi $r1,#0x100
   cb3f6:	58 10 80 bc 	ori $r1,$r1,#0xbc
   cb3fa:	b4 21       	lwi450 $r1,[$r1]
   cb3fc:	96 4c       	xlsb33 $r1,$r1
   cb3fe:	c1 06       	beqz38 $r1,cb40a <BLE_att_set_attribute_length+0x78>
   cb400:	64 12 00 43 	setgie.e
   cb404:	64 00 00 08 	dsb
   cb408:	d5 02       	j8 cb40c <BLE_att_set_attribute_length+0x7a>
   cb40a:	84 00       	movi55 $r0,#0
   cb40c:	fc 80       	pop25 $r6,#0x0    ! {$r6, $fp, $gp, $lp}

000cb40e <ATT_end_transaction>:
   cb40e:	fc 00       	push25 $r6,#0x0    ! {$r6, $fp, $gp, $lp}
   cb410:	97 80       	zeb33 $r6,$r0
   cb412:	50 03 00 80 	addi $r0,$r6,#128
   cb416:	49 00 21 66 	jal cf6e2 <Ab_MMITimerUnset>
   cb41a:	97 9f       	fexti33 $r6,#0x3
   cb41c:	46 10 01 01 	sethi $r1,#0x101
   cb420:	84 01       	movi55 $r0,#1
   cb422:	40 60 18 0c 	sll $r6,$r0,$r6
   cb426:	3c 03 e9 7b 	lhi.gp $r0,[+#-11530]
   cb42a:	ff b3       	not33 $r6,$r6
   cb42c:	ff 86       	and33 $r6,$r0
   cb42e:	3c 6b e9 7b 	shi.gp $r6,[+#-11530]
   cb432:	fc 80       	pop25 $r6,#0x0    ! {$r6, $fp, $gp, $lp}

000cb434 <ATT_ServerGetConfirmation>:
   cb434:	fc 20       	push25 $r8,#0x0    ! {$r6~$r8, $fp, $gp, $lp}
   cb436:	3e 0f c9 18 	addi.gp $r0,#-14056
   cb43a:	00 60 00 66 	lbi $r6,[$r0+#0x66]
   cb43e:	50 73 00 08 	addi $r7,$r6,#8
   cb442:	95 fa       	slli333 $r7,$r7,#2
   cb444:	99 f8       	add333 $r7,$r7,$r0
   cb446:	a0 79       	lwi333 $r1,[$r7+#0x4]
   cb448:	c1 05       	beqz38 $r1,cb452 <ATT_ServerGetConfirmation+0x1e>
   cb44a:	80 06       	mov55 $r0,$r6
   cb44c:	dd 21       	jral5 $r1
   cb44e:	84 00       	movi55 $r0,#0
   cb450:	a8 39       	swi333 $r0,[$r7+#0x4]
   cb452:	80 06       	mov55 $r0,$r6
   cb454:	49 ff ff dd 	jal cb40e <ATT_end_transaction>
   cb458:	fc a0       	pop25 $r8,#0x0    ! {$r6~$r8, $fp, $gp, $lp}

000cb45a <ATT_start_transaction>:
   cb45a:	fc 00       	push25 $r6,#0x0    ! {$r6, $fp, $gp, $lp}
   cb45c:	97 80       	zeb33 $r6,$r0
   cb45e:	50 03 00 80 	addi $r0,$r6,#128
   cb462:	80 86       	mov55 $r4,$r6
   cb464:	84 20       	movi55 $r1,#0
   cb466:	44 20 75 30 	movi $r2,#30000
   cb46a:	3e 3c 70 d4 	addi.gp $r3,#-233260
   cb46e:	49 00 21 87 	jal cf77c <Ab_MMITimerSet>
   cb472:	97 9f       	fexti33 $r6,#0x3
   cb474:	46 00 01 01 	sethi $r0,#0x101
   cb478:	84 21       	movi55 $r1,#1
   cb47a:	40 60 98 0c 	sll $r6,$r1,$r6
   cb47e:	3c 13 e9 7b 	lhi.gp $r1,[+#-11530]
   cb482:	ff 8f       	or33 $r6,$r1
   cb484:	3c 6b e9 7b 	shi.gp $r6,[+#-11530]
   cb488:	fc 80       	pop25 $r6,#0x0    ! {$r6, $fp, $gp, $lp}

000cb48a <ATT_SendPduToL2CAP>:
   cb48a:	fc 00       	push25 $r6,#0x0    ! {$r6, $fp, $gp, $lp}
   cb48c:	80 40       	mov55 $r2,$r0
   cb48e:	2e 07 c9 7e 	lbi.gp $r0,[+#-13954]
   cb492:	96 c9       	zeh33 $r3,$r1
   cb494:	84 24       	movi55 $r1,#4
   cb496:	49 ff fc 83 	jal cad9c <l2cap_hci_fragment>
   cb49a:	fc 80       	pop25 $r6,#0x0    ! {$r6, $fp, $gp, $lp}

000cb49c <ATT_SendErrorRsp>:
   cb49c:	fc 01       	push25 $r6,#0x8    ! {$r6, $fp, $gp, $lp}
   cb49e:	96 49       	zeh33 $r1,$r1
   cb4a0:	10 1f 80 02 	sbi $r1,[$sp+#0x2]
   cb4a4:	92 28       	srli45 $r1,#8
   cb4a6:	84 81       	movi55 $r4,#1
   cb4a8:	10 0f 80 01 	sbi $r0,[$sp+#0x1]
   cb4ac:	10 1f 80 03 	sbi $r1,[$sp+#0x3]
   cb4b0:	80 1f       	mov55 $r0,$sp
   cb4b2:	84 25       	movi55 $r1,#5
   cb4b4:	10 4f 80 00 	sbi $r4,[$sp+#0x0]
   cb4b8:	10 2f 80 04 	sbi $r2,[$sp+#0x4]
   cb4bc:	49 ff ff e7 	jal cb48a <ATT_SendPduToL2CAP>
   cb4c0:	fc 81       	pop25 $r6,#0x8    ! {$r6, $fp, $gp, $lp}

000cb4c2 <ATT_ServerGetExecuteWriteReq>:
   cb4c2:	fc 40       	push25 $r10,#0x0    ! {$r6~$r10, $fp, $gp, $lp}
   cb4c4:	3e 1f d2 cc 	addi.gp $r1,#-11572
   cb4c8:	b4 41       	lwi450 $r2,[$r1]
   cb4ca:	a6 01       	lbi333 $r0,[$r0+#0x1]
   cb4cc:	b4 c2       	lwi450 $r6,[$r2]
   cb4ce:	2e 87 c9 7e 	lbi.gp $r8,[+#-13954]
   cb4d2:	5a 08 01 4a 	bnec $r0,#1,cb566 <ATT_ServerGetExecuteWriteReq+0xa4>
   cb4d6:	3e 0f c8 d8 	addi.gp $r0,#-14120
   cb4da:	38 70 22 02 	lw $r7,[$r0+($r8<<#0x2)]
   cb4de:	81 21       	mov55 $r9,$r1
   cb4e0:	d5 41       	j8 cb562 <ATT_ServerGetExecuteWriteReq+0xa0>
   cb4e2:	b4 09       	lwi450 $r0,[$r9]
   cb4e4:	02 a3 80 03 	lhi $r10,[$r7+#0x6]
   cb4e8:	a4 fc       	lhi333 $r3,[$r7+#0x8]
   cb4ea:	38 60 2a 02 	lw $r6,[$r0+($r10<<#0x2)]
   cb4ee:	00 23 00 0f 	lbi $r2,[$r6+#0xf]
   cb4f2:	00 03 00 0e 	lbi $r0,[$r6+#0xe]
   cb4f6:	40 21 20 08 	slli $r2,$r2,#8
   cb4fa:	fe 87       	or33 $r2,$r0
   cb4fc:	e2 43       	slt45 $r2,$r3
   cb4fe:	e8 03       	beqzs8 cb504 <ATT_ServerGetExecuteWriteReq+0x42>
   cb500:	84 e7       	movi55 $r7,#7
   cb502:	d5 38       	j8 cb572 <ATT_ServerGetExecuteWriteReq+0xb0>
   cb504:	00 03 00 11 	lbi $r0,[$r6+#0x11]
   cb508:	a4 7a       	lhi333 $r1,[$r7+#0x4]
   cb50a:	00 43 00 10 	lbi $r4,[$r6+#0x10]
   cb50e:	40 00 20 08 	slli $r0,$r0,#8
   cb512:	98 59       	add333 $r1,$r3,$r1
   cb514:	fe 27       	or33 $r0,$r4
   cb516:	96 49       	zeh33 $r1,$r1
   cb518:	c8 04       	bnez38 $r0,cb520 <ATT_ServerGetExecuteWriteReq+0x5e>
   cb51a:	e2 41       	slt45 $r2,$r1
   cb51c:	e8 09       	beqzs8 cb52e <ATT_ServerGetExecuteWriteReq+0x6c>
   cb51e:	d5 27       	j8 cb56c <ATT_ServerGetExecuteWriteReq+0xaa>
   cb520:	e2 01       	slt45 $r0,$r1
   cb522:	e9 25       	bnezs8 cb56c <ATT_ServerGetExecuteWriteReq+0xaa>
   cb524:	10 13 00 0e 	sbi $r1,[$r6+#0xe]
   cb528:	92 28       	srli45 $r1,#8
   cb52a:	10 13 00 0f 	sbi $r1,[$r6+#0xf]
   cb52e:	a6 71       	lbi333 $r1,[$r6+#0x1]
   cb530:	a7 30       	lbi333 $r4,[$r6+#0x0]
   cb532:	a6 32       	lbi333 $r0,[$r6+#0x2]
   cb534:	40 10 a0 08 	slli $r1,$r1,#8
   cb538:	a6 b3       	lbi333 $r2,[$r6+#0x3]
   cb53a:	fe 67       	or33 $r1,$r4
   cb53c:	40 00 40 08 	slli $r0,$r0,#16
   cb540:	fe 0f       	or33 $r0,$r1
   cb542:	40 21 60 08 	slli $r2,$r2,#24
   cb546:	fe 87       	or33 $r2,$r0
   cb548:	c2 07       	beqz38 $r2,cb556 <ATT_ServerGetExecuteWriteReq+0x94>
   cb54a:	98 13       	add333 $r0,$r2,$r3
   cb54c:	a4 ba       	lhi333 $r2,[$r7+#0x4]
   cb54e:	50 13 80 0a 	addi $r1,$r7,#10
   cb552:	49 ff e5 7b 	jal c8048 <memcpy>
   cb556:	80 0a       	mov55 $r0,$r10
   cb558:	84 22       	movi55 $r1,#2
   cb55a:	80 48       	mov55 $r2,$r8
   cb55c:	49 ff fe 0c 	jal cb174 <ATT_CALLBACK>
   cb560:	b4 e7       	lwi450 $r7,[$r7]
   cb562:	cf c0       	bnez38 $r7,cb4e2 <ATT_ServerGetExecuteWriteReq+0x20>
   cb564:	d5 06       	j8 cb570 <ATT_ServerGetExecuteWriteReq+0xae>
   cb566:	c0 05       	beqz38 $r0,cb570 <ATT_ServerGetExecuteWriteReq+0xae>
   cb568:	84 e4       	movi55 $r7,#4
   cb56a:	d5 04       	j8 cb572 <ATT_ServerGetExecuteWriteReq+0xb0>
   cb56c:	84 ed       	movi55 $r7,#13
   cb56e:	d5 02       	j8 cb572 <ATT_ServerGetExecuteWriteReq+0xb0>
   cb570:	84 e0       	movi55 $r7,#0
   cb572:	80 08       	mov55 $r0,$r8
   cb574:	49 ff fe 8c 	jal cb28c <ATT_ReleasePWQ>
   cb578:	c7 0d       	beqz38 $r7,cb592 <ATT_ServerGetExecuteWriteReq+0xd0>
   cb57a:	00 13 00 13 	lbi $r1,[$r6+#0x13]
   cb57e:	00 23 00 12 	lbi $r2,[$r6+#0x12]
   cb582:	40 10 a0 08 	slli $r1,$r1,#8
   cb586:	fe 57       	or33 $r1,$r2
   cb588:	fa 08       	movpi45 $r0,#0x18
   cb58a:	80 47       	mov55 $r2,$r7
   cb58c:	49 ff ff 88 	jal cb49c <ATT_SendErrorRsp>
   cb590:	d5 07       	j8 cb59e <ATT_ServerGetExecuteWriteReq+0xdc>
   cb592:	fa 09       	movpi45 $r0,#0x19
   cb594:	49 ff fe 91 	jal cb2b6 <ATT_AllocRspDataPdu>
   cb598:	84 21       	movi55 $r1,#1
   cb59a:	49 ff ff 78 	jal cb48a <ATT_SendPduToL2CAP>
   cb59e:	fc c0       	pop25 $r10,#0x0    ! {$r6~$r10, $fp, $gp, $lp}

000cb5a0 <ATT_ServerGetPrepareWriteReq>:
   cb5a0:	fc 41       	push25 $r10,#0x8    ! {$r6~$r10, $fp, $gp, $lp}
   cb5a2:	9d 81       	addi333 $r6,$r0,#1
   cb5a4:	80 06       	mov55 $r0,$r6
   cb5a6:	49 ff fe 39 	jal cb218 <ATT_GetU16LE>
   cb5aa:	80 e0       	mov55 $r7,$r0
   cb5ac:	49 ff fd a9 	jal cb0fe <ATT_BinarySearchIndexByHandle>
   cb5b0:	81 00       	mov55 $r8,$r0
   cb5b2:	51 cf 80 07 	addi $fp,$sp,#7
   cb5b6:	84 00       	movi55 $r0,#0
   cb5b8:	10 0e 00 00 	sbi $r0,[$fp+#0x0]
   cb5bc:	80 28       	mov55 $r1,$r8
   cb5be:	80 1c       	mov55 $r0,$fp
   cb5c0:	3c 93 e4 be 	lhi.gp $r9,[+#-13956]
   cb5c4:	49 ff fd cc 	jal cb15c <ATT_CheckHandle>
   cb5c8:	80 1c       	mov55 $r0,$fp
   cb5ca:	80 28       	mov55 $r1,$r8
   cb5cc:	49 ff fe bd 	jal cb346 <ATT_CheckWritePermission>
   cb5d0:	00 2f 80 07 	lbi $r2,[$sp+#0x7]
   cb5d4:	c2 06       	beqz38 $r2,cb5e0 <ATT_ServerGetPrepareWriteReq+0x40>
   cb5d6:	fa 06       	movpi45 $r0,#0x16
   cb5d8:	80 27       	mov55 $r1,$r7
   cb5da:	49 ff ff 61 	jal cb49c <ATT_SendErrorRsp>
   cb5de:	d5 39       	j8 cb650 <ATT_ServerGetPrepareWriteReq+0xb0>
   cb5e0:	50 74 ff fb 	addi $r7,$r9,#-5
   cb5e4:	97 f9       	zeh33 $r7,$r7
   cb5e6:	50 03 80 0c 	addi $r0,$r7,#12
   cb5ea:	49 00 35 2d 	jal d2044 <malloc>
   cb5ee:	2e 47 c9 7e 	lbi.gp $r4,[+#-13954]
   cb5f2:	80 60       	mov55 $r3,$r0
   cb5f4:	3e 0f c8 d8 	addi.gp $r0,#-14120
   cb5f8:	38 10 12 02 	lw $r1,[$r0+($r4<<#0x2)]
   cb5fc:	c9 04       	bnez38 $r1,cb604 <ATT_ServerGetPrepareWriteReq+0x64>
   cb5fe:	38 30 12 0a 	sw $r3,[$r0+($r4<<#0x2)]
   cb602:	d5 06       	j8 cb60e <ATT_ServerGetPrepareWriteReq+0x6e>
   cb604:	3e 0f c9 80 	addi.gp $r0,#-13952
   cb608:	38 00 12 02 	lw $r0,[$r0+($r4<<#0x2)]
   cb60c:	b6 60       	swi450 $r3,[$r0]
   cb60e:	3e 0f c9 80 	addi.gp $r0,#-13952
   cb612:	38 30 12 0a 	sw $r3,[$r0+($r4<<#0x2)]
   cb616:	12 81 80 03 	shi $r8,[$r3+#0x6]
   cb61a:	ad da       	shi333 $r7,[$r3+#0x4]
   cb61c:	80 47       	mov55 $r2,$r7
   cb61e:	a6 33       	lbi333 $r0,[$r6+#0x3]
   cb620:	a6 72       	lbi333 $r1,[$r6+#0x2]
   cb622:	40 00 20 08 	slli $r0,$r0,#8
   cb626:	98 01       	add333 $r0,$r0,$r1
   cb628:	ac 1c       	shi333 $r0,[$r3+#0x8]
   cb62a:	84 00       	movi55 $r0,#0
   cb62c:	b6 03       	swi450 $r0,[$r3]
   cb62e:	9c 74       	addi333 $r1,$r6,#4
   cb630:	50 01 80 0a 	addi $r0,$r3,#10
   cb634:	49 ff e5 0a 	jal c8048 <memcpy>
   cb638:	fa 07       	movpi45 $r0,#0x17
   cb63a:	49 ff fe 3e 	jal cb2b6 <ATT_AllocRspDataPdu>
   cb63e:	81 00       	mov55 $r8,$r0
   cb640:	80 26       	mov55 $r1,$r6
   cb642:	9c 01       	addi333 $r0,$r0,#1
   cb644:	9c bc       	addi333 $r2,$r7,#4
   cb646:	49 ff e5 01 	jal c8048 <memcpy>
   cb64a:	fd 04       	movd44 $r0,$r8
   cb64c:	49 ff ff 1f 	jal cb48a <ATT_SendPduToL2CAP>
   cb650:	fc c1       	pop25 $r10,#0x8    ! {$r6~$r10, $fp, $gp, $lp}

000cb652 <ATT_ServerGetWriteMux>:
   cb652:	fc 41       	push25 $r10,#0x8    ! {$r6~$r10, $fp, $gp, $lp}
   cb654:	a7 80       	lbi333 $r6,[$r0+#0x0]
   cb656:	5a 68 d2 0a 	bnec $r6,#210,cb66a <ATT_ServerGetWriteMux+0x18>
   cb65a:	2e 27 c9 7f 	lbi.gp $r2,[+#-13953]
   cb65e:	85 e2       	movi55 $r15,#2
   cb660:	4c 27 c0 70 	bne $r2,$r15,cb740 <ATT_ServerGetWriteMux+0xee>
   cb664:	84 40       	movi55 $r2,#0
   cb666:	3e 27 c9 7f 	sbi.gp $r2,[+#-13953]
   cb66a:	50 80 00 01 	addi $r8,$r0,#1
   cb66e:	80 08       	mov55 $r0,$r8
   cb670:	49 ff fd d4 	jal cb218 <ATT_GetU16LE>
   cb674:	81 20       	mov55 $r9,$r0
   cb676:	49 ff fd 44 	jal cb0fe <ATT_BinarySearchIndexByHandle>
   cb67a:	80 e0       	mov55 $r7,$r0
   cb67c:	50 af 80 07 	addi $r10,$sp,#7
   cb680:	84 00       	movi55 $r0,#0
   cb682:	10 05 00 00 	sbi $r0,[$r10+#0x0]
   cb686:	80 27       	mov55 $r1,$r7
   cb688:	80 0a       	mov55 $r0,$r10
   cb68a:	49 ff fd 69 	jal cb15c <ATT_CheckHandle>
   cb68e:	80 0a       	mov55 $r0,$r10
   cb690:	80 27       	mov55 $r1,$r7
   cb692:	49 ff fe 5a 	jal cb346 <ATT_CheckWritePermission>
   cb696:	00 05 00 00 	lbi $r0,[$r10+#0x0]
   cb69a:	c8 43       	bnez38 $r0,cb720 <ATT_ServerGetWriteMux+0xce>
   cb69c:	3c 03 e4 be 	lhi.gp $r0,[+#-13956]
   cb6a0:	5a 60 d2 04 	beqc $r6,#210,cb6a8 <ATT_ServerGetWriteMux+0x56>
   cb6a4:	84 43       	movi55 $r2,#3
   cb6a6:	d5 02       	j8 cb6aa <ATT_ServerGetWriteMux+0x58>
   cb6a8:	84 4f       	movi55 $r2,#15
   cb6aa:	3c 4d f4 b3 	lwi.gp $r4,[+#-11572]
   cb6ae:	9a 82       	sub333 $r2,$r0,$r2
   cb6b0:	94 3a       	slli333 $r0,$r7,#2
   cb6b2:	99 20       	add333 $r4,$r4,$r0
   cb6b4:	b4 64       	lwi450 $r3,[$r4]
   cb6b6:	8c 6a       	addi45 $r3,#10
   cb6b8:	96 91       	zeh33 $r2,$r2
   cb6ba:	a7 5f       	lbi333 $r5,[$r3+#0x7]
   cb6bc:	a6 1e       	lbi333 $r0,[$r3+#0x6]
   cb6be:	40 52 a0 08 	slli $r5,$r5,#8
   cb6c2:	ff 47       	or33 $r5,$r0
   cb6c4:	cd 09       	bnez38 $r5,cb6d6 <ATT_ServerGetWriteMux+0x84>
   cb6c6:	a6 1d       	lbi333 $r0,[$r3+#0x5]
   cb6c8:	a6 5c       	lbi333 $r1,[$r3+#0x4]
   cb6ca:	40 00 20 08 	slli $r0,$r0,#8
   cb6ce:	fe 0f       	or33 $r0,$r1
   cb6d0:	e2 02       	slt45 $r0,$r2
   cb6d2:	e8 0c       	beqzs8 cb6ea <ATT_ServerGetWriteMux+0x98>
   cb6d4:	d5 03       	j8 cb6da <ATT_ServerGetWriteMux+0x88>
   cb6d6:	e2 a2       	slt45 $r5,$r2
   cb6d8:	e8 05       	beqzs8 cb6e2 <ATT_ServerGetWriteMux+0x90>
   cb6da:	84 0d       	movi55 $r0,#13
   cb6dc:	10 05 00 00 	sbi $r0,[$r10+#0x0]
   cb6e0:	d5 20       	j8 cb720 <ATT_ServerGetWriteMux+0xce>
   cb6e2:	40 01 20 09 	srli $r0,$r2,#8
   cb6e6:	ae 9c       	sbi333 $r2,[$r3+#0x4]
   cb6e8:	ae 1d       	sbi333 $r0,[$r3+#0x5]
   cb6ea:	b4 64       	lwi450 $r3,[$r4]
   cb6ec:	a6 59       	lbi333 $r1,[$r3+#0x1]
   cb6ee:	a7 18       	lbi333 $r4,[$r3+#0x0]
   cb6f0:	2e a7 c9 7e 	lbi.gp $r10,[+#-13954]
   cb6f4:	a6 1a       	lbi333 $r0,[$r3+#0x2]
   cb6f6:	40 10 a0 08 	slli $r1,$r1,#8
   cb6fa:	a6 db       	lbi333 $r3,[$r3+#0x3]
   cb6fc:	fe 67       	or33 $r1,$r4
   cb6fe:	40 00 40 08 	slli $r0,$r0,#16
   cb702:	fe 0f       	or33 $r0,$r1
   cb704:	40 31 e0 08 	slli $r3,$r3,#24
   cb708:	fe c7       	or33 $r3,$r0
   cb70a:	c3 06       	beqz38 $r3,cb716 <ATT_ServerGetWriteMux+0xc4>
   cb70c:	80 03       	mov55 $r0,$r3
   cb70e:	50 14 00 02 	addi $r1,$r8,#2
   cb712:	49 ff e4 9b 	jal c8048 <memcpy>
   cb716:	80 07       	mov55 $r0,$r7
   cb718:	84 22       	movi55 $r1,#2
   cb71a:	80 4a       	mov55 $r2,$r10
   cb71c:	49 ff fd 2c 	jal cb174 <ATT_CALLBACK>
   cb720:	5a 68 12 10 	bnec $r6,#18,cb740 <ATT_ServerGetWriteMux+0xee>
   cb724:	00 2f 80 07 	lbi $r2,[$sp+#0x7]
   cb728:	ca 08       	bnez38 $r2,cb738 <ATT_ServerGetWriteMux+0xe6>
   cb72a:	fa 03       	movpi45 $r0,#0x13
   cb72c:	49 ff fd c5 	jal cb2b6 <ATT_AllocRspDataPdu>
   cb730:	84 21       	movi55 $r1,#1
   cb732:	49 ff fe ac 	jal cb48a <ATT_SendPduToL2CAP>
   cb736:	d5 05       	j8 cb740 <ATT_ServerGetWriteMux+0xee>
   cb738:	80 06       	mov55 $r0,$r6
   cb73a:	80 29       	mov55 $r1,$r9
   cb73c:	49 ff fe b0 	jal cb49c <ATT_SendErrorRsp>
   cb740:	fc c1       	pop25 $r10,#0x8    ! {$r6~$r10, $fp, $gp, $lp}

000cb742 <ATT_ServerGetReadByGroupTypeReq>:
   cb742:	fc 43       	push25 $r10,#0x18    ! {$r6~$r10, $fp, $gp, $lp}
   cb744:	80 c0       	mov55 $r6,$r0
   cb746:	9c 01       	addi333 $r0,$r0,#1
   cb748:	49 ff fd 68 	jal cb218 <ATT_GetU16LE>
   cb74c:	81 40       	mov55 $r10,$r0
   cb74e:	9c 33       	addi333 $r0,$r6,#3
   cb750:	49 ff fd 64 	jal cb218 <ATT_GetU16LE>
   cb754:	f0 83       	swi37.sp $r0,[+#0xc]
   cb756:	9c 35       	addi333 $r0,$r6,#5
   cb758:	49 ff fd 60 	jal cb218 <ATT_GetU16LE>
   cb75c:	f0 82       	swi37.sp $r0,[+#0x8]
   cb75e:	f0 03       	lwi37.sp $r0,[+#0xc]
   cb760:	e2 0a       	slt45 $r0,$r10
   cb762:	e9 03       	bnezs8 cb768 <ATT_ServerGetReadByGroupTypeReq+0x26>
   cb764:	4e a3 00 07 	bnez $r10,cb772 <ATT_ServerGetReadByGroupTypeReq+0x30>
   cb768:	fa 00       	movpi45 $r0,#0x10
   cb76a:	80 2a       	mov55 $r1,$r10
   cb76c:	84 41       	movi55 $r2,#1
   cb76e:	48 00 00 ad 	j cb8c8 <ATT_ServerGetReadByGroupTypeReq+0x186>
   cb772:	f6 02       	lwi37.sp $r6,[+#0x8]
   cb774:	50 23 58 00 	addi $r2,$r6,#-10240
   cb778:	96 91       	zeh33 $r2,$r2
   cb77a:	e6 42       	slti45 $r2,#2
   cb77c:	e9 06       	bnezs8 cb788 <ATT_ServerGetReadByGroupTypeReq+0x46>
   cb77e:	fa 00       	movpi45 $r0,#0x10
   cb780:	80 2a       	mov55 $r1,$r10
   cb782:	80 40       	mov55 $r2,$r0
   cb784:	48 00 00 a2 	j cb8c8 <ATT_ServerGetReadByGroupTypeReq+0x186>
   cb788:	fa 01       	movpi45 $r0,#0x11
   cb78a:	49 ff fd 96 	jal cb2b6 <ATT_AllocRspDataPdu>
   cb78e:	9d c1       	addi333 $r7,$r0,#1
   cb790:	f0 84       	swi37.sp $r0,[+#0x10]
   cb792:	87 80       	movi55 $fp,#0
   cb794:	9c 39       	addi333 $r0,$r7,#1
   cb796:	f0 85       	swi37.sp $r0,[+#0x14]
   cb798:	85 21       	movi55 $r9,#1
   cb79a:	81 1c       	mov55 $r8,$fp
   cb79c:	3e 5f d2 cc 	addi.gp $r5,#-11572
   cb7a0:	48 00 00 83 	j cb8a6 <ATT_ServerGetReadByGroupTypeReq+0x164>
   cb7a4:	b4 25       	lwi450 $r1,[$r5]
   cb7a6:	38 60 a6 02 	lw $r6,[$r1+($r9<<#0x2)]
   cb7aa:	00 13 00 13 	lbi $r1,[$r6+#0x13]
   cb7ae:	00 23 00 12 	lbi $r2,[$r6+#0x12]
   cb7b2:	40 10 a0 08 	slli $r1,$r1,#8
   cb7b6:	fe 57       	or33 $r1,$r2
   cb7b8:	e2 2a       	slt45 $r1,$r10
   cb7ba:	e9 72       	bnezs8 cb89e <ATT_ServerGetReadByGroupTypeReq+0x15c>
   cb7bc:	f0 03       	lwi37.sp $r0,[+#0xc]
   cb7be:	e2 01       	slt45 $r0,$r1
   cb7c0:	e9 78       	bnezs8 cb8b0 <ATT_ServerGetReadByGroupTypeReq+0x16e>
   cb7c2:	00 13 00 09 	lbi $r1,[$r6+#0x9]
   cb7c6:	00 23 00 08 	lbi $r2,[$r6+#0x8]
   cb7ca:	40 10 a0 08 	slli $r1,$r1,#8
   cb7ce:	f0 02       	lwi37.sp $r0,[+#0x8]
   cb7d0:	fe 57       	or33 $r1,$r2
   cb7d2:	4c 10 40 66 	bne $r1,$r0,cb89e <ATT_ServerGetReadByGroupTypeReq+0x15c>
   cb7d6:	00 23 00 0e 	lbi $r2,[$r6+#0xe]
   cb7da:	00 13 00 0f 	lbi $r1,[$r6+#0xf]
   cb7de:	4e 83 00 0e 	bnez $r8,cb7fa <ATT_ServerGetReadByGroupTypeReq+0xb8>
   cb7e2:	83 82       	mov55 $fp,$r2
   cb7e4:	40 10 a0 08 	slli $r1,$r1,#8
   cb7e8:	41 c0 f0 04 	or $fp,$r1,$fp
   cb7ec:	51 ce 00 04 	addi $fp,$fp,#4
   cb7f0:	41 ce 00 13 	zeh $fp,$fp
   cb7f4:	11 c3 80 00 	sbi $fp,[$r7+#0x0]
   cb7f8:	d5 08       	j8 cb808 <ATT_ServerGetReadByGroupTypeReq+0xc6>
   cb7fa:	40 10 a0 08 	slli $r1,$r1,#8
   cb7fe:	fe 57       	or33 $r1,$r2
   cb800:	a6 f8       	lbi333 $r3,[$r7+#0x0]
   cb802:	9c 4c       	addi333 $r1,$r1,#4
   cb804:	4c 30 c0 58 	bne $r3,$r1,cb8b4 <ATT_ServerGetReadByGroupTypeReq+0x172>
   cb808:	00 23 00 13 	lbi $r2,[$r6+#0x13]
   cb80c:	00 13 00 12 	lbi $r1,[$r6+#0x12]
   cb810:	40 33 a0 00 	add $r3,$r7,$r8
   cb814:	40 21 20 08 	slli $r2,$r2,#8
   cb818:	9c 19       	addi333 $r0,$r3,#1
   cb81a:	fe 57       	or33 $r1,$r2
   cb81c:	f5 81       	swi37.sp $r5,[+#0x4]
   cb81e:	49 ff fc f7 	jal cb20c <ATT_SetU16LE>
   cb822:	00 13 00 0f 	lbi $r1,[$r6+#0xf]
   cb826:	a6 f0       	lbi333 $r3,[$r6+#0x0]
   cb828:	40 20 a0 08 	slli $r2,$r1,#8
   cb82c:	a6 71       	lbi333 $r1,[$r6+#0x1]
   cb82e:	00 43 00 0e 	lbi $r4,[$r6+#0xe]
   cb832:	40 10 a0 08 	slli $r1,$r1,#8
   cb836:	fe cf       	or33 $r3,$r1
   cb838:	a6 72       	lbi333 $r1,[$r6+#0x2]
   cb83a:	50 04 00 04 	addi $r0,$r8,#4
   cb83e:	40 10 c0 08 	slli $r1,$r1,#16
   cb842:	fe 5f       	or33 $r1,$r3
   cb844:	a6 f3       	lbi333 $r3,[$r6+#0x3]
   cb846:	f6 05       	lwi37.sp $r6,[+#0x14]
   cb848:	40 31 e0 08 	slli $r3,$r3,#24
   cb84c:	fe 5f       	or33 $r1,$r3
   cb84e:	fe a7       	or33 $r2,$r4
   cb850:	98 30       	add333 $r0,$r6,$r0
   cb852:	49 ff e3 fb 	jal c8048 <memcpy>
   cb856:	80 09       	mov55 $r0,$r9
   cb858:	49 ff fc a7 	jal cb1a6 <ATT_ReturnGroupEndIndex>
   cb85c:	f5 01       	lwi37.sp $r5,[+#0x4]
   cb85e:	40 33 a0 00 	add $r3,$r7,$r8
   cb862:	b4 25       	lwi450 $r1,[$r5]
   cb864:	81 20       	mov55 $r9,$r0
   cb866:	38 20 82 02 	lw $r2,[$r1+($r0<<#0x2)]
   cb86a:	9c 1b       	addi333 $r0,$r3,#3
   cb86c:	00 11 00 12 	lbi $r1,[$r2+#0x12]
   cb870:	00 21 00 13 	lbi $r2,[$r2+#0x13]
   cb874:	89 1c       	add45 $r8,$fp
   cb876:	40 21 20 08 	slli $r2,$r2,#8
   cb87a:	fe 57       	or33 $r1,$r2
   cb87c:	49 ff fc c8 	jal cb20c <ATT_SetU16LE>
   cb880:	3e 0f c9 18 	addi.gp $r0,#-14056
   cb884:	00 20 00 66 	lbi $r2,[$r0+#0x66]
   cb888:	40 84 00 13 	zeh $r8,$r8
   cb88c:	98 92       	add333 $r2,$r2,$r2
   cb88e:	98 90       	add333 $r2,$r2,$r0
   cb890:	50 1e 00 01 	addi $r1,$fp,#1
   cb894:	a4 92       	lhi333 $r2,[$r2+#0x4]
   cb896:	88 28       	add45 $r1,$r8
   cb898:	f5 01       	lwi37.sp $r5,[+#0x4]
   cb89a:	e0 22       	slts45 $r1,$r2
   cb89c:	e8 0a       	beqzs8 cb8b0 <ATT_ServerGetReadByGroupTypeReq+0x16e>
   cb89e:	50 04 80 01 	addi $r0,$r9,#1
   cb8a2:	54 90 00 ff 	andi $r9,$r0,#0xff
   cb8a6:	3c 13 e9 7d 	lhi.gp $r1,[+#-11526]
   cb8aa:	e3 21       	slt45 $r9,$r1
   cb8ac:	4e f3 ff 7c 	bnez $r15,cb7a4 <ATT_ServerGetReadByGroupTypeReq+0x62>
   cb8b0:	4e 82 00 09 	beqz $r8,cb8c2 <ATT_ServerGetReadByGroupTypeReq+0x180>
   cb8b4:	50 14 00 02 	addi $r1,$r8,#2
   cb8b8:	f0 04       	lwi37.sp $r0,[+#0x10]
   cb8ba:	96 49       	zeh33 $r1,$r1
   cb8bc:	49 ff fd e7 	jal cb48a <ATT_SendPduToL2CAP>
   cb8c0:	d5 06       	j8 cb8cc <ATT_ServerGetReadByGroupTypeReq+0x18a>
   cb8c2:	fa 00       	movpi45 $r0,#0x10
   cb8c4:	80 2a       	mov55 $r1,$r10
   cb8c6:	84 4a       	movi55 $r2,#10
   cb8c8:	49 ff fd ea 	jal cb49c <ATT_SendErrorRsp>
   cb8cc:	fc c3       	pop25 $r10,#0x18    ! {$r6~$r10, $fp, $gp, $lp}

000cb8ce <ATT_ServerGetReadMultiReq>:
   cb8ce:	fc 44       	push25 $r10,#0x20    ! {$r6~$r10, $fp, $gp, $lp}
   cb8d0:	9c 01       	addi333 $r0,$r0,#1
   cb8d2:	f0 84       	swi37.sp $r0,[+#0x10]
   cb8d4:	3c 13 e4 be 	lhi.gp $r1,[+#-13956]
   cb8d8:	84 42       	movi55 $r2,#2
   cb8da:	9e 49       	subi333 $r1,$r1,#1
   cb8dc:	40 10 88 56 	divsr $r1,$r2,$r1,$r2
   cb8e0:	84 0f       	movi55 $r0,#15
   cb8e2:	87 80       	movi55 $fp,#0
   cb8e4:	81 3c       	mov55 $r9,$fp
   cb8e6:	81 5c       	mov55 $r10,$fp
   cb8e8:	50 7f 80 1f 	addi $r7,$sp,#31
   cb8ec:	96 48       	zeb33 $r1,$r1
   cb8ee:	f1 83       	swi37.sp $r1,[+#0xc]
   cb8f0:	84 20       	movi55 $r1,#0
   cb8f2:	ae 78       	sbi333 $r1,[$r7+#0x0]
   cb8f4:	49 ff fc e1 	jal cb2b6 <ATT_AllocRspDataPdu>
   cb8f8:	2e 67 c9 7e 	lbi.gp $r6,[+#-13954]
   cb8fc:	3e 1f c9 18 	addi.gp $r1,#-14056
   cb900:	98 f6       	add333 $r3,$r6,$r6
   cb902:	f0 81       	swi37.sp $r0,[+#0x4]
   cb904:	98 59       	add333 $r1,$r3,$r1
   cb906:	9c 01       	addi333 $r0,$r0,#1
   cb908:	b6 df       	swi450 $r6,[$sp]
   cb90a:	f0 85       	swi37.sp $r0,[+#0x14]
   cb90c:	f1 82       	swi37.sp $r1,[+#0x8]
   cb90e:	d5 53       	j8 cb9b4 <ATT_ServerGetReadMultiReq+0xe6>
   cb910:	f1 04       	lwi37.sp $r1,[+#0x10]
   cb912:	40 00 f0 00 	add $r0,$r1,$fp
   cb916:	49 ff fc 81 	jal cb218 <ATT_GetU16LE>
   cb91a:	81 00       	mov55 $r8,$r0
   cb91c:	49 ff fb f1 	jal cb0fe <ATT_BinarySearchIndexByHandle>
   cb920:	80 c0       	mov55 $r6,$r0
   cb922:	80 26       	mov55 $r1,$r6
   cb924:	80 07       	mov55 $r0,$r7
   cb926:	49 ff fc 1b 	jal cb15c <ATT_CheckHandle>
   cb92a:	80 07       	mov55 $r0,$r7
   cb92c:	80 26       	mov55 $r1,$r6
   cb92e:	49 ff fd 1c 	jal cb366 <ATT_CheckReadPermission>
   cb932:	a6 b8       	lbi333 $r2,[$r7+#0x0]
   cb934:	c2 06       	beqz38 $r2,cb940 <ATT_ServerGetReadMultiReq+0x72>
   cb936:	84 0e       	movi55 $r0,#14
   cb938:	80 28       	mov55 $r1,$r8
   cb93a:	49 ff fd b1 	jal cb49c <ATT_SendErrorRsp>
   cb93e:	d5 44       	j8 cb9c6 <ATT_ServerGetReadMultiReq+0xf8>
   cb940:	f0 02       	lwi37.sp $r0,[+#0x8]
   cb942:	a4 c2       	lhi333 $r3,[$r0+#0x4]
   cb944:	9e d9       	subi333 $r3,$r3,#1
   cb946:	e1 43       	slts45 $r10,$r3
   cb948:	e8 30       	beqzs8 cb9a8 <ATT_ServerGetReadMultiReq+0xda>
   cb94a:	b4 5f       	lwi450 $r2,[$sp]
   cb94c:	80 06       	mov55 $r0,$r6
   cb94e:	84 21       	movi55 $r1,#1
   cb950:	49 ff fc 12 	jal cb174 <ATT_CALLBACK>
   cb954:	3c 3d f4 b3 	lwi.gp $r3,[+#-11572]
   cb958:	f0 02       	lwi37.sp $r0,[+#0x8]
   cb95a:	38 41 9a 02 	lw $r4,[$r3+($r6<<#0x2)]
   cb95e:	a4 42       	lhi333 $r1,[$r0+#0x4]
   cb960:	00 32 00 0f 	lbi $r3,[$r4+#0xf]
   cb964:	00 52 00 0e 	lbi $r5,[$r4+#0xe]
   cb968:	9e 49       	subi333 $r1,$r1,#1
   cb96a:	40 31 a0 08 	slli $r3,$r3,#8
   cb96e:	8a 2a       	sub45 $r1,$r10
   cb970:	fe ef       	or33 $r3,$r5
   cb972:	e0 61       	slts45 $r3,$r1
   cb974:	e8 02       	beqzs8 cb978 <ATT_ServerGetReadMultiReq+0xaa>
   cb976:	80 23       	mov55 $r1,$r3
   cb978:	a6 e1       	lbi333 $r3,[$r4+#0x1]
   cb97a:	a7 60       	lbi333 $r5,[$r4+#0x0]
   cb97c:	40 31 a0 08 	slli $r3,$r3,#8
   cb980:	ff 5f       	or33 $r5,$r3
   cb982:	a6 e2       	lbi333 $r3,[$r4+#0x2]
   cb984:	97 89       	zeh33 $r6,$r1
   cb986:	40 31 c0 08 	slli $r3,$r3,#16
   cb98a:	ff 5f       	or33 $r5,$r3
   cb98c:	a6 e3       	lbi333 $r3,[$r4+#0x3]
   cb98e:	f1 05       	lwi37.sp $r1,[+#0x14]
   cb990:	40 41 e0 08 	slli $r4,$r3,#24
   cb994:	40 00 a8 00 	add $r0,$r1,$r10
   cb998:	80 46       	mov55 $r2,$r6
   cb99a:	40 12 14 04 	or $r1,$r4,$r5
   cb99e:	89 46       	add45 $r10,$r6
   cb9a0:	49 ff e3 54 	jal c8048 <memcpy>
   cb9a4:	40 a5 00 13 	zeh $r10,$r10
   cb9a8:	50 04 80 01 	addi $r0,$r9,#1
   cb9ac:	54 90 00 ff 	andi $r9,$r0,#0xff
   cb9b0:	51 ce 00 02 	addi $fp,$fp,#2
   cb9b4:	f0 03       	lwi37.sp $r0,[+#0xc]
   cb9b6:	e3 20       	slt45 $r9,$r0
   cb9b8:	e9 ac       	bnezs8 cb910 <ATT_ServerGetReadMultiReq+0x42>
   cb9ba:	50 15 00 01 	addi $r1,$r10,#1
   cb9be:	f0 01       	lwi37.sp $r0,[+#0x4]
   cb9c0:	96 49       	zeh33 $r1,$r1
   cb9c2:	49 ff fd 64 	jal cb48a <ATT_SendPduToL2CAP>
   cb9c6:	fc c4       	pop25 $r10,#0x20    ! {$r6~$r10, $fp, $gp, $lp}

000cb9c8 <ATT_ServerGetReadBlobReq>:
   cb9c8:	fc 41       	push25 $r10,#0x8    ! {$r6~$r10, $fp, $gp, $lp}
   cb9ca:	80 c0       	mov55 $r6,$r0
   cb9cc:	9c 01       	addi333 $r0,$r0,#1
   cb9ce:	49 ff fc 25 	jal cb218 <ATT_GetU16LE>
   cb9d2:	81 00       	mov55 $r8,$r0
   cb9d4:	9c 33       	addi333 $r0,$r6,#3
   cb9d6:	49 ff fc 21 	jal cb218 <ATT_GetU16LE>
   cb9da:	80 e0       	mov55 $r7,$r0
   cb9dc:	80 08       	mov55 $r0,$r8
   cb9de:	49 ff fb 90 	jal cb0fe <ATT_BinarySearchIndexByHandle>
   cb9e2:	97 80       	zeb33 $r6,$r0
   cb9e4:	50 9f 80 07 	addi $r9,$sp,#7
   cb9e8:	84 00       	movi55 $r0,#0
   cb9ea:	10 04 80 00 	sbi $r0,[$r9+#0x0]
   cb9ee:	80 26       	mov55 $r1,$r6
   cb9f0:	80 09       	mov55 $r0,$r9
   cb9f2:	49 ff fb b5 	jal cb15c <ATT_CheckHandle>
   cb9f6:	80 09       	mov55 $r0,$r9
   cb9f8:	80 26       	mov55 $r1,$r6
   cb9fa:	49 ff fc b6 	jal cb366 <ATT_CheckReadPermission>
   cb9fe:	00 04 80 00 	lbi $r0,[$r9+#0x0]
   cba02:	c8 11       	bnez38 $r0,cba24 <ATT_ServerGetReadBlobReq+0x5c>
   cba04:	3c 0d f4 b3 	lwi.gp $r0,[+#-11572]
   cba08:	38 00 1a 02 	lw $r0,[$r0+($r6<<#0x2)]
   cba0c:	00 10 00 0e 	lbi $r1,[$r0+#0xe]
   cba10:	00 00 00 0f 	lbi $r0,[$r0+#0xf]
   cba14:	40 00 20 08 	slli $r0,$r0,#8
   cba18:	fe 0f       	or33 $r0,$r1
   cba1a:	e2 07       	slt45 $r0,$r7
   cba1c:	e8 04       	beqzs8 cba24 <ATT_ServerGetReadBlobReq+0x5c>
   cba1e:	84 07       	movi55 $r0,#7
   cba20:	10 04 80 00 	sbi $r0,[$r9+#0x0]
   cba24:	00 24 80 00 	lbi $r2,[$r9+#0x0]
   cba28:	c2 06       	beqz38 $r2,cba34 <ATT_ServerGetReadBlobReq+0x6c>
   cba2a:	84 0c       	movi55 $r0,#12
   cba2c:	80 28       	mov55 $r1,$r8
   cba2e:	49 ff fd 37 	jal cb49c <ATT_SendErrorRsp>
   cba32:	d5 47       	j8 cbac0 <ATT_ServerGetReadBlobReq+0xf8>
   cba34:	2e 97 c9 7e 	lbi.gp $r9,[+#-13954]
   cba38:	84 0d       	movi55 $r0,#13
   cba3a:	49 ff fc 3e 	jal cb2b6 <ATT_AllocRspDataPdu>
   cba3e:	81 40       	mov55 $r10,$r0
   cba40:	3c 0d f4 b3 	lwi.gp $r0,[+#-11572]
   cba44:	41 c3 08 08 	slli $fp,$r6,#2
   cba48:	38 00 70 02 	lw $r0,[$r0+($fp<<#0x0)]
   cba4c:	00 80 00 0f 	lbi $r8,[$r0+#0xf]
   cba50:	00 10 00 0e 	lbi $r1,[$r0+#0xe]
   cba54:	40 84 20 08 	slli $r8,$r8,#8
   cba58:	40 84 04 04 	or $r8,$r8,$r1
   cba5c:	40 04 a4 00 	add $r0,$r9,$r9
   cba60:	3e 1f c9 18 	addi.gp $r1,#-14056
   cba64:	98 01       	add333 $r0,$r0,$r1
   cba66:	a4 02       	lhi333 $r0,[$r0+#0x4]
   cba68:	8b 07       	sub45 $r8,$r7
   cba6a:	9e 01       	subi333 $r0,$r0,#1
   cba6c:	e0 08       	slts45 $r0,$r8
   cba6e:	e8 02       	beqzs8 cba72 <ATT_ServerGetReadBlobReq+0xaa>
   cba70:	81 00       	mov55 $r8,$r0
   cba72:	40 84 00 13 	zeh $r8,$r8
   cba76:	4e 82 00 1f 	beqz $r8,cbab4 <ATT_ServerGetReadBlobReq+0xec>
   cba7a:	cf 06       	bnez38 $r7,cba86 <ATT_ServerGetReadBlobReq+0xbe>
   cba7c:	80 06       	mov55 $r0,$r6
   cba7e:	84 21       	movi55 $r1,#1
   cba80:	80 49       	mov55 $r2,$r9
   cba82:	49 ff fb 79 	jal cb174 <ATT_CALLBACK>
   cba86:	3c 0d f4 b3 	lwi.gp $r0,[+#-11572]
   cba8a:	38 30 70 02 	lw $r3,[$r0+($fp<<#0x0)]
   cba8e:	a6 99       	lbi333 $r2,[$r3+#0x1]
   cba90:	a7 18       	lbi333 $r4,[$r3+#0x0]
   cba92:	a6 1a       	lbi333 $r0,[$r3+#0x2]
   cba94:	40 21 20 08 	slli $r2,$r2,#8
   cba98:	a6 5b       	lbi333 $r1,[$r3+#0x3]
