Archive member included because of file (symbol)

output/\lib1600.a(ab_adc.o)   /cygdrive/c/Airoha/AiroBlueSDK/AB1600_1_0_5_0/projects/SmartRemote/output/smartRemote.o (AB_ADC_Get_Voltage)
output/\lib1600.a(ab_clk.o)   /cygdrive/c/Airoha/AiroBlueSDK/AB1600_1_0_5_0/projects/SmartRemote/output/service.o (AB_CLK_Switch)
output/\lib1600.a(ab_assert.o)
                              /cygdrive/c/Airoha/AiroBlueSDK/AB1600_1_0_5_0/projects/SmartRemote/output/pj/components/Libraries/hci_devices/hci_spi_1602.o (assert_ab_callback_verbose)
output/\lib1600.a(ab_led.o)   /cygdrive/c/Airoha/AiroBlueSDK/AB1600_1_0_5_0/projects/SmartRemote/output/smartRemote.o (AB_LED_stop)
output/\lib1600.a(ab_malloc_hook.o)
                              /cygdrive/c/Airoha/AiroBlueSDK/AB1600_1_0_5_0/projects/SmartRemote/output/pj/components/Libraries/hci_devices/hci_spi_1602.o (free)
output/\lib1600.a(ab_printf_hook.o)
                              /cygdrive/c/Airoha/AiroBlueSDK/AB1600_1_0_5_0/projects/SmartRemote/output/smartRemote.o (printf)
output/\lib1600.a(ab_pwr.o)   /cygdrive/c/Airoha/AiroBlueSDK/AB1600_1_0_5_0/projects/SmartRemote/output/microphone.o (AB_PWR_Stanby)
output/\lib1600.a(ab_queue.o)
                              /cygdrive/c/Airoha/AiroBlueSDK/AB1600_1_0_5_0/projects/SmartRemote/output/pj/components/Libraries/hci_devices/hci_spi_1602.o (AB_queue_push)
output/\lib1600.a(ab_mp_sector.o)
                              /cygdrive/c/Airoha/AiroBlueSDK/AB1600_1_0_5_0/projects/SmartRemote/output/peripheral.o (AB_SECTOR_GetMpParameter)
output/\lib1600.a(ab_spi.o)   /cygdrive/c/Airoha/AiroBlueSDK/AB1600_1_0_5_0/projects/SmartRemote/output/pj/components/Libraries/hci_devices/hci_spi_1602.o (AB_SPI_WriteAndRead)
output/\lib1600.a(bsp_generic.o)
                              /cygdrive/c/Airoha/AiroBlueSDK/AB1600_1_0_5_0/projects/SmartRemote/output/main.o (AB_BSP_initEx)
output/\lib1600.a(ab_timer.o)
                              /cygdrive/c/Airoha/AiroBlueSDK/AB1600_1_0_5_0/projects/SmartRemote/output/smartRemote.o (AB_Timer_AlertUnset)
output/\lib1600.a(ab_uart.o)  output/\lib1600.a(bsp_generic.o) (AB_UART_Read)
output/\lib1600.a(ab_airoha_vcmd.o)
                              output/\lib1600.a(bsp_generic.o) (ab_airoha_vcmd_Bdie_reset_enable)
output/\lib1600.a(drv_adc.o)  output/\lib1600.a(ab_adc.o) (DRV_ADC_Read)
output/\lib1600.a(drv_clk.o)  output/\lib1600.a(ab_clk.o) (DRV_CLK_SysSel)
output/\lib1600.a(drv_trnd.o)
                              /cygdrive/c/Airoha/AiroBlueSDK/AB1600_1_0_5_0/projects/SmartRemote/output/peripheral.o (DRV_TRND_Get)
output/\lib1600.a(drv_gpio.o)
                              /cygdrive/c/Airoha/AiroBlueSDK/AB1600_1_0_5_0/projects/SmartRemote/output/keyboard.o (DRV_Gpio_IntDis)
output/\lib1600.a(drv_odgpio.o)
                              /cygdrive/c/Airoha/AiroBlueSDK/AB1600_1_0_5_0/projects/SmartRemote/output/led.o (DRV_OdGpio_IeSet)
output/\lib1600.a(drv_keyscan.o)
                              /cygdrive/c/Airoha/AiroBlueSDK/AB1600_1_0_5_0/projects/SmartRemote/output/board.o (DRV_KeyScan_Dis)
output/\lib1600.a(drv_led.o)  output/\lib1600.a(ab_led.o) (DRV_Led_Set)
output/\lib1600.a(drv_mic.o)  /cygdrive/c/Airoha/AiroBlueSDK/AB1600_1_0_5_0/projects/SmartRemote/output/board.o (DRV_Mic_Disable)
output/\lib1600.a(drv_odpinmux.o)
                              output/\lib1600.a(ab_led.o) (DRV_OdPinMux_SigSet)
output/\lib1600.a(drv_pinmux.o)
                              output/\lib1600.a(bsp_generic.o) (DRV_PinMux_GrpSet)
output/\lib1600.a(drv_pwr.o)  /cygdrive/c/Airoha/AiroBlueSDK/AB1600_1_0_5_0/projects/SmartRemote/output/board.o (DRV_Pwr_EnterMode)
output/\lib1600.a(drv_spi.o)  output/\lib1600.a(ab_spi.o) (DRV_SPI_Deinit)
output/\lib1600.a(drv_timer32b0.o)
                              /cygdrive/c/Airoha/AiroBlueSDK/AB1600_1_0_5_0/projects/SmartRemote/output/board.o (DRV_TMR32B0_Disable)
output/\lib1600.a(drv_uart.o)
                              output/\lib1600.a(ab_uart.o) (DRV_Uart_SetBaud)
output/\lib1600.a(drv_wdt.o)  /cygdrive/c/Airoha/AiroBlueSDK/AB1600_1_0_5_0/projects/SmartRemote/output/smartRemote.o (DRV_WDT_Kick)
output/\lib1600.a(service_battery.o)
                              /cygdrive/c/Airoha/AiroBlueSDK/AB1600_1_0_5_0/projects/SmartRemote/output/smartRemote.o (BAS_update_battery_level)
output/\lib1600.a(service_device_firmware_update_OTA.o)
                              /cygdrive/c/Airoha/AiroBlueSDK/AB1600_1_0_5_0/projects/SmartRemote/output/service.o (OTA_change_permission)
output/\lib1600.a(service_device_information.o)
                              /cygdrive/c/Airoha/AiroBlueSDK/AB1600_1_0_5_0/projects/SmartRemote/output/service.o (DIS_init)
output/\lib1600.a(service_generic_access.o)
                              /cygdrive/c/Airoha/AiroBlueSDK/AB1600_1_0_5_0/projects/SmartRemote/output/service.o (GAS_init)
output/\lib1600.a(service_generic_attribute.o)
                              /cygdrive/c/Airoha/AiroBlueSDK/AB1600_1_0_5_0/projects/SmartRemote/output/service.o (GATT_init)
output/\lib1600.a(service_human_interface_device.o)
                              /cygdrive/c/Airoha/AiroBlueSDK/AB1600_1_0_5_0/projects/SmartRemote/output/service.o (HIDS_add_report)
output/\lib1600.a(console.o)  output/\lib1600.a(bsp_generic.o) (AB_console_handle)
output/\lib1600.a(shell.o)    output/\lib1600.a(console.o) (AB_shell_main_loop)
output/\lib1600.a(ab_debug.o)
                              output/\lib1600.a(bsp_generic.o) (AB_Debug_CpuExceptionMonitor)
output/\lib1600.a(dfu.o)      output/\lib1600.a(ab_airoha_vcmd.o) (AB_DFU_set_active_code_area)
output/\lib1600.a(ab_module.o)
                              output/\lib1600.a(ab_airoha_vcmd.o) (AB_module_count)
output/\lib1600.a(drv_flash.o)
                              output/\lib1600.a(service_device_firmware_update_OTA.o) (DRV_Flash_ByteProgram)
components/BT/release/\libbtcore.a(hci_h4_parser.o)
                              components/BT/release/hci_protocol_1602.o (hci_h4_decode)
components/BT/release/\libbtcore.a(bt.o)
                              /cygdrive/c/Airoha/AiroBlueSDK/AB1600_1_0_5_0/projects/SmartRemote/output/irTx.o (BT_Pause_Tx)
components/BT/release/\libbtcore.a(ble_gap.o)
                              /cygdrive/c/Airoha/AiroBlueSDK/AB1600_1_0_5_0/projects/SmartRemote/output/peripheral.o (ble_gap_disconnect)
components/BT/release/\libbtcore.a(ble_gap_links.o)
                              components/BT/release/\libbtcore.a(ble_gap.o) (ble_gap_link_GetIdx_ByHandle)
components/BT/release/\libbtcore.a(ble_gap_sm.o)
                              components/BT/release/\libbtcore.a(bt.o) (BLE_gap_sm_init)
components/BT/release/\libbtcore.a(ble_l2cap.o)
                              components/BT/release/\libbtcore.a(ble_gap.o) (l2cap_notify)
components/BT/release/\libbtcore.a(l2cap_le_sig.o)
                              components/BT/release/\libbtcore.a(ble_gap.o) (l2cap_lesig_conn_param_update_req)
components/BT/release/\libbtcore.a(ble_att.o)
                              output/\lib1600.a(service_device_firmware_update_OTA.o) (BLE_att_get_attribute_length)
components/BT/release/\libbtcore.a(ble_gatt_server.o)
                              output/\lib1600.a(service_generic_attribute.o) (BLE_gatt_charact_indicate)
components/BT/release/\libbtcore.a(ble_gatt_client.o)
                              components/BT/release/\libbtcore.a(ble_att.o) (ATT_Client_GetHandleValueReport)
components/BT/release/\libbtcore.a(sm.o)
                              components/BT/release/\libbtcore.a(ble_gap_sm.o) (sm_init)
components/BT/release/\libbtcore.a(sm_cryptotool.o)
                              components/BT/release/\libbtcore.a(ble_gap_sm.o) (SM_CryptoTool_ReadLocalP256PublicKeyComplete)
components/BT/release/\libbtcore.a(sm_hal.o)
                              components/BT/release/\libbtcore.a(ble_gap_sm.o) (sm_hal_flash_get_last_paired_device)
components/BT/release/\libbtcore.a(sm_protocol.o)
                              components/BT/release/\libbtcore.a(sm_hal.o) (SM_Protocol_L2capEventHandler)
components/BT/release/\libbtcore.a(sm_slave.o)
                              components/BT/release/\libbtcore.a(ble_gap_sm.o) (SM_Slave_OOBInputRsp)
components/BT/release/\libbtcore.a(sm_master.o)
                              components/BT/release/\libbtcore.a(ble_gap_sm.o) (SM_Master_OOBInputRsp)
components/BT/release/\libbtcore.a(Drv_Trng.o)
                              components/BT/release/hci_protocol_1602.o (DRV_TRNG_Get)
components/BT/release/\libbtcore.a(Drv_MMITimer.o)
                              components/BT/release/\libbtcore.a(bt.o) (Drv_MMITimerDisable)
components/BT/release/\libbtcore.a(Ab_MMITimer.o)
                              components/BT/release/\libbtcore.a(ble_att.o) (Ab_MMITimerUnset)
components/BT/release/\libbtcore.a(Drv_1602.o)
                              /cygdrive/c/Airoha/AiroBlueSDK/AB1600_1_0_5_0/projects/SmartRemote/output/pj/components/Libraries/hci_devices/hci_spi_1602.o (Drv_1602DataReady)
components/BT/release/\libbtcore.a(encrypt.o)
                              components/BT/release/\libbtcore.a(bt.o) (Encrypt)
components/BT/release/\libbtcore.a(hci.o)
                              components/BT/release/\libbtcore.a(bt.o) (hci_log_set)
components/BT/release/\libbtcore.a(hci_cmd_evt_dat.o)
                              components/BT/release/\libbtcore.a(bt.o) (hci_dat_info_update)
components/BT/release/\libbtcore.a(sm_common.o)
                              components/BT/release/\libbtcore.a(sm_hal.o) (SM_Common_ValueCompare)
output/\lib1600.a(ab_log.o)   components/BT/release/\libbtcore.a(hci.o) (AB_Log_EvtShow)
output/\lib1600.a(ab_flash.o)
                              components/BT/release/\libbtcore.a(sm_hal.o) (AB_Flash_ByteProgram)
C:\Andestech\AndeSight211RDS\toolchains\nds32le-elf-mculib-v3m\nds32le-elf\libc\mculib\usr\lib\libc.a(lib_a-ctype_.o)
                              output/\lib1600.a(shell.o) (__ctype_ptr__)
C:\Andestech\AndeSight211RDS\toolchains\nds32le-elf-mculib-v3m\nds32le-elf\libc\mculib\usr\lib\libc.a(lib_a-freer.o)
                              output/\lib1600.a(ab_malloc_hook.o) (_free_r)
C:\Andestech\AndeSight211RDS\toolchains\nds32le-elf-mculib-v3m\nds32le-elf\libc\mculib\usr\lib\libc.a(lib_a-mallocr.o)
                              output/\lib1600.a(ab_malloc_hook.o) (_malloc_r)
C:\Andestech\AndeSight211RDS\toolchains\nds32le-elf-mculib-v3m\nds32le-elf\libc\mculib\usr\lib\libc.a(lib_a-memcmp.o)
                              output/\lib1600.a(ab_airoha_vcmd.o) (memcmp)
C:\Andestech\AndeSight211RDS\toolchains\nds32le-elf-mculib-v3m\nds32le-elf\libc\mculib\usr\lib\libc.a(lib_a-memcpy.o)
                              /cygdrive/c/Airoha/AiroBlueSDK/AB1600_1_0_5_0/projects/SmartRemote/output/pj/components/Libraries/hci_devices/hci_spi_1602.o (memcpy)
C:\Andestech\AndeSight211RDS\toolchains\nds32le-elf-mculib-v3m\nds32le-elf\libc\mculib\usr\lib\libc.a(lib_a-memmove.o)
                              output/\lib1600.a(shell.o) (memmove)
C:\Andestech\AndeSight211RDS\toolchains\nds32le-elf-mculib-v3m\nds32le-elf\libc\mculib\usr\lib\libc.a(lib_a-memset.o)
                              /cygdrive/c/Airoha/AiroBlueSDK/AB1600_1_0_5_0/projects/SmartRemote/output/pj/components/Libraries/hci_devices/hci_spi_1602.o (memset)
C:\Andestech\AndeSight211RDS\toolchains\nds32le-elf-mculib-v3m\nds32le-elf\libc\mculib\usr\lib\libc.a(lib_a-mlock.o)
                              C:\Andestech\AndeSight211RDS\toolchains\nds32le-elf-mculib-v3m\nds32le-elf\libc\mculib\usr\lib\libc.a(lib_a-freer.o) (__malloc_lock)
C:\Andestech\AndeSight211RDS\toolchains\nds32le-elf-mculib-v3m\nds32le-elf\libc\mculib\usr\lib\libc.a(lib_a-mstats.o)
                              output/\lib1600.a(ab_malloc_hook.o) (mallinfo)
C:\Andestech\AndeSight211RDS\toolchains\nds32le-elf-mculib-v3m\nds32le-elf\libc\mculib\usr\lib\libc.a(lib_a-puts.o)
                              /cygdrive/c/Airoha/AiroBlueSDK/AB1600_1_0_5_0/projects/SmartRemote/output/smartRemote.o (puts)
C:\Andestech\AndeSight211RDS\toolchains\nds32le-elf-mculib-v3m\nds32le-elf\libc\mculib\usr\lib\libc.a(lib_a-sbrkr.o)
                              C:\Andestech\AndeSight211RDS\toolchains\nds32le-elf-mculib-v3m\nds32le-elf\libc\mculib\usr\lib\libc.a(lib_a-freer.o) (_sbrk_r)
C:\Andestech\AndeSight211RDS\toolchains\nds32le-elf-mculib-v3m\nds32le-elf\libc\mculib\usr\lib\libc.a(lib_a-sprintf.o)
                              output/\lib1600.a(shell.o) (sprintf)
C:\Andestech\AndeSight211RDS\toolchains\nds32le-elf-mculib-v3m\nds32le-elf\libc\mculib\usr\lib\libc.a(lib_a-strcmp.o)
                              output/\lib1600.a(ab_airoha_vcmd.o) (strcmp)
C:\Andestech\AndeSight211RDS\toolchains\nds32le-elf-mculib-v3m\nds32le-elf\libc\mculib\usr\lib\libc.a(lib_a-strcpy.o)
                              output/\lib1600.a(shell.o) (strcpy)
C:\Andestech\AndeSight211RDS\toolchains\nds32le-elf-mculib-v3m\nds32le-elf\libc\mculib\usr\lib\libc.a(lib_a-strlen.o)
                              output/\lib1600.a(ab_printf_hook.o) (strlen)
C:\Andestech\AndeSight211RDS\toolchains\nds32le-elf-mculib-v3m\nds32le-elf\libc\mculib\usr\lib\libc.a(lib_a-strncmp.o)
                              output/\lib1600.a(shell.o) (strncmp)
C:\Andestech\AndeSight211RDS\toolchains\nds32le-elf-mculib-v3m\nds32le-elf\libc\mculib\usr\lib\libc.a(lib_a-vprintf.o)
                              output/\lib1600.a(ab_printf_hook.o) (vprintf)
C:\Andestech\AndeSight211RDS\toolchains\nds32le-elf-mculib-v3m\nds32le-elf\libc\mculib\usr\lib\libc.a(lib_a-vsprintf.o)
                              output/\lib1600.a(ab_printf_hook.o) (vsprintf)
C:\Andestech\AndeSight211RDS\toolchains\nds32le-elf-mculib-v3m\nds32le-elf\libc\mculib\usr\lib\libc.a(do_printf.o)
                              C:\Andestech\AndeSight211RDS\toolchains\nds32le-elf-mculib-v3m\nds32le-elf\libc\mculib\usr\lib\libc.a(lib_a-vprintf.o) (do_printf)
C:\Andestech\AndeSight211RDS\toolchains\nds32le-elf-mculib-v3m\nds32le-elf\libc\mculib\usr\lib\libc.a(xint2dec.o)
                              C:\Andestech\AndeSight211RDS\toolchains\nds32le-elf-mculib-v3m\nds32le-elf\libc\mculib\usr\lib\libc.a(lib_a-vprintf.o) (double2dec)
C:\Andestech\AndeSight211RDS\toolchains\nds32le-elf-mculib-v3m\nds32le-elf\libc\mculib\usr\lib\libc.a(lib_a-data-errno.o)
                              C:\Andestech\AndeSight211RDS\toolchains\nds32le-elf-mculib-v3m\nds32le-elf\libc\mculib\usr\lib\libc.a(lib_a-mallocr.o) (_NDS32_REENT__errno)
C:\Andestech\AndeSight211RDS\toolchains\nds32le-elf-mculib-v3m\nds32le-elf\libc\mculib\usr\lib\libc.a(lib_a-data-stdio.o)
                              C:\Andestech\AndeSight211RDS\toolchains\nds32le-elf-mculib-v3m\nds32le-elf\libc\mculib\usr\lib\libc.a(lib_a-mstats.o) (_NDS32_REENT__stderr)
C:\Andestech\AndeSight211RDS\toolchains\nds32le-elf-mculib-v3m\nds32le-elf\libc\mculib\usr\lib\libc.a(lib_a-fiprintf.o)
                              C:\Andestech\AndeSight211RDS\toolchains\nds32le-elf-mculib-v3m\nds32le-elf\libc\mculib\usr\lib\libc.a(lib_a-mstats.o) (fiprintf)
C:\Andestech\AndeSight211RDS\toolchains\nds32le-elf-mculib-v3m\nds32le-elf\libc\mculib\usr\lib\libc.a(lib_a-mallinfor.o)
                              C:\Andestech\AndeSight211RDS\toolchains\nds32le-elf-mculib-v3m\nds32le-elf\libc\mculib\usr\lib\libc.a(lib_a-mstats.o) (_mallinfo_r)
C:\Andestech\AndeSight211RDS\toolchains\nds32le-elf-mculib-v3m\nds32le-elf\libc\mculib\usr\lib\libc.a(lib_a-malloptr.o)
                              C:\Andestech\AndeSight211RDS\toolchains\nds32le-elf-mculib-v3m\nds32le-elf\libc\mculib\usr\lib\libc.a(lib_a-mstats.o) (_mallopt_r)
C:\Andestech\AndeSight211RDS\toolchains\nds32le-elf-mculib-v3m\nds32le-elf\libc\mculib\usr\lib\libc.a(lib_a-mallstatsr.o)
                              C:\Andestech\AndeSight211RDS\toolchains\nds32le-elf-mculib-v3m\nds32le-elf\libc\mculib\usr\lib\libc.a(lib_a-mstats.o) (_malloc_stats_r)
C:\Andestech\AndeSight211RDS\toolchains\nds32le-elf-mculib-v3m\nds32le-elf\libc\mculib\usr\lib\libc.a(lib_a-reent_errno.o)
                              C:\Andestech\AndeSight211RDS\toolchains\nds32le-elf-mculib-v3m\nds32le-elf\libc\mculib\usr\lib\libc.a(lib_a-sbrkr.o) (errno)
C:\Andestech\AndeSight211RDS\toolchains\nds32le-elf-mculib-v3m\nds32le-elf\libc\mculib\usr\lib\libc.a(lib_a-vfiprintf.o)
                              C:\Andestech\AndeSight211RDS\toolchains\nds32le-elf-mculib-v3m\nds32le-elf\libc\mculib\usr\lib\libc.a(lib_a-fiprintf.o) (_vfiprintf_r)
C:\Andestech\AndeSight211RDS\toolchains\nds32le-elf-mculib-v3m\nds32le-elf\libc\mculib\usr\lib\libc.a(lib_a-wsetup.o)
                              C:\Andestech\AndeSight211RDS\toolchains\nds32le-elf-mculib-v3m\nds32le-elf\libc\mculib\usr\lib\libc.a(lib_a-vfiprintf.o) (__swsetup_r)
C:\Andestech\AndeSight211RDS\toolchains\nds32le-elf-mculib-v3m\nds32le-elf\libc\mculib\usr\lib\libc.a(lib_a-data-findfp.o)
                              C:\Andestech\AndeSight211RDS\toolchains\nds32le-elf-mculib-v3m\nds32le-elf\libc\mculib\usr\lib\libc.a(lib_a-vfiprintf.o) (_NDS32_REENT___sdidinit)
C:\Andestech\AndeSight211RDS\toolchains\nds32le-elf-mculib-v3m\nds32le-elf\libc\mculib\usr\lib\libc.a(lib_a-fflush.o)
                              C:\Andestech\AndeSight211RDS\toolchains\nds32le-elf-mculib-v3m\nds32le-elf\libc\mculib\usr\lib\libc.a(lib_a-vfiprintf.o) (_fflush_r)
C:\Andestech\AndeSight211RDS\toolchains\nds32le-elf-mculib-v3m\nds32le-elf\libc\mculib\usr\lib\libc.a(lib_a-findfp.o)
                              C:\Andestech\AndeSight211RDS\toolchains\nds32le-elf-mculib-v3m\nds32le-elf\libc\mculib\usr\lib\libc.a(lib_a-vfiprintf.o) (__sinit)
C:\Andestech\AndeSight211RDS\toolchains\nds32le-elf-mculib-v3m\nds32le-elf\libc\mculib\usr\lib\libc.a(lib_a-fputwc.o)
                              C:\Andestech\AndeSight211RDS\toolchains\nds32le-elf-mculib-v3m\nds32le-elf\libc\mculib\usr\lib\libc.a(lib_a-vfiprintf.o) (_fputwc_r)
C:\Andestech\AndeSight211RDS\toolchains\nds32le-elf-mculib-v3m\nds32le-elf\libc\mculib\usr\lib\libc.a(lib_a-fvwrite.o)
                              C:\Andestech\AndeSight211RDS\toolchains\nds32le-elf-mculib-v3m\nds32le-elf\libc\mculib\usr\lib\libc.a(lib_a-vfiprintf.o) (__sfvwrite_r)
C:\Andestech\AndeSight211RDS\toolchains\nds32le-elf-mculib-v3m\nds32le-elf\libc\mculib\usr\lib\libc.a(lib_a-fwalk.o)
                              C:\Andestech\AndeSight211RDS\toolchains\nds32le-elf-mculib-v3m\nds32le-elf\libc\mculib\usr\lib\libc.a(lib_a-fflush.o) (_fwalk_reent)
C:\Andestech\AndeSight211RDS\toolchains\nds32le-elf-mculib-v3m\nds32le-elf\libc\mculib\usr\lib\libc.a(lib_a-locale.o)
                              C:\Andestech\AndeSight211RDS\toolchains\nds32le-elf-mculib-v3m\nds32le-elf\libc\mculib\usr\lib\libc.a(lib_a-fputwc.o) (__mb_cur_max)
C:\Andestech\AndeSight211RDS\toolchains\nds32le-elf-mculib-v3m\nds32le-elf\libc\mculib\usr\lib\libc.a(lib_a-makebuf.o)
                              C:\Andestech\AndeSight211RDS\toolchains\nds32le-elf-mculib-v3m\nds32le-elf\libc\mculib\usr\lib\libc.a(lib_a-wsetup.o) (__smakebuf_r)
C:\Andestech\AndeSight211RDS\toolchains\nds32le-elf-mculib-v3m\nds32le-elf\libc\mculib\usr\lib\libc.a(lib_a-memchr.o)
                              C:\Andestech\AndeSight211RDS\toolchains\nds32le-elf-mculib-v3m\nds32le-elf\libc\mculib\usr\lib\libc.a(lib_a-vfiprintf.o) (memchr)
C:\Andestech\AndeSight211RDS\toolchains\nds32le-elf-mculib-v3m\nds32le-elf\libc\mculib\usr\lib\libc.a(lib_a-reallocr.o)
                              C:\Andestech\AndeSight211RDS\toolchains\nds32le-elf-mculib-v3m\nds32le-elf\libc\mculib\usr\lib\libc.a(lib_a-fvwrite.o) (_realloc_r)
C:\Andestech\AndeSight211RDS\toolchains\nds32le-elf-mculib-v3m\nds32le-elf\libc\mculib\usr\lib\libc.a(lib_a-stdio.o)
                              C:\Andestech\AndeSight211RDS\toolchains\nds32le-elf-mculib-v3m\nds32le-elf\libc\mculib\usr\lib\libc.a(lib_a-findfp.o) (__sclose)
C:\Andestech\AndeSight211RDS\toolchains\nds32le-elf-mculib-v3m\nds32le-elf\libc\mculib\usr\lib\libc.a(lib_a-wbuf.o)
                              C:\Andestech\AndeSight211RDS\toolchains\nds32le-elf-mculib-v3m\nds32le-elf\libc\mculib\usr\lib\libc.a(lib_a-fputwc.o) (__swbuf_r)
C:\Andestech\AndeSight211RDS\toolchains\nds32le-elf-mculib-v3m\nds32le-elf\libc\mculib\usr\lib\libc.a(lib_a-wcrtomb.o)
                              C:\Andestech\AndeSight211RDS\toolchains\nds32le-elf-mculib-v3m\nds32le-elf\libc\mculib\usr\lib\libc.a(lib_a-fputwc.o) (_wcrtomb_r)
C:\Andestech\AndeSight211RDS\toolchains\nds32le-elf-mculib-v3m\nds32le-elf\libc\mculib\usr\lib\libc.a(lib_a-wctomb_r.o)
                              C:\Andestech\AndeSight211RDS\toolchains\nds32le-elf-mculib-v3m\nds32le-elf\libc\mculib\usr\lib\libc.a(lib_a-wcrtomb.o) (__wctomb)
C:\Andestech\AndeSight211RDS\toolchains\nds32le-elf-mculib-v3m\nds32le-elf\libc\mculib\usr\lib\libc.a(lib_a-writer.o)
                              C:\Andestech\AndeSight211RDS\toolchains\nds32le-elf-mculib-v3m\nds32le-elf\libc\mculib\usr\lib\libc.a(lib_a-stdio.o) (_write_r)
C:\Andestech\AndeSight211RDS\toolchains\nds32le-elf-mculib-v3m\nds32le-elf\libc\mculib\usr\lib\libc.a(lib_a-closer.o)
                              C:\Andestech\AndeSight211RDS\toolchains\nds32le-elf-mculib-v3m\nds32le-elf\libc\mculib\usr\lib\libc.a(lib_a-stdio.o) (_close_r)
C:\Andestech\AndeSight211RDS\toolchains\nds32le-elf-mculib-v3m\nds32le-elf\libc\mculib\usr\lib\libc.a(lib_a-fclose.o)
                              C:\Andestech\AndeSight211RDS\toolchains\nds32le-elf-mculib-v3m\nds32le-elf\libc\mculib\usr\lib\libc.a(lib_a-findfp.o) (fclose)
C:\Andestech\AndeSight211RDS\toolchains\nds32le-elf-mculib-v3m\nds32le-elf\libc\mculib\usr\lib\libc.a(lib_a-fstatr.o)
                              C:\Andestech\AndeSight211RDS\toolchains\nds32le-elf-mculib-v3m\nds32le-elf\libc\mculib\usr\lib\libc.a(lib_a-makebuf.o) (_fstat_r)
C:\Andestech\AndeSight211RDS\toolchains\nds32le-elf-mculib-v3m\nds32le-elf\libc\mculib\usr\lib\libc.a(lib_a-isattyr.o)
                              C:\Andestech\AndeSight211RDS\toolchains\nds32le-elf-mculib-v3m\nds32le-elf\libc\mculib\usr\lib\libc.a(lib_a-makebuf.o) (_isatty_r)
C:\Andestech\AndeSight211RDS\toolchains\nds32le-elf-mculib-v3m\nds32le-elf\libc\mculib\usr\lib\libc.a(lib_a-lseekr.o)
                              C:\Andestech\AndeSight211RDS\toolchains\nds32le-elf-mculib-v3m\nds32le-elf\libc\mculib\usr\lib\libc.a(lib_a-stdio.o) (_lseek_r)
C:\Andestech\AndeSight211RDS\toolchains\nds32le-elf-mculib-v3m\nds32le-elf\libc\mculib\usr\lib\libc.a(lib_a-readr.o)
                              C:\Andestech\AndeSight211RDS\toolchains\nds32le-elf-mculib-v3m\nds32le-elf\libc\mculib\usr\lib\libc.a(lib_a-stdio.o) (_read_r)
C:\Andestech\AndeSight211RDS\toolchains\nds32le-elf-mculib-v3m\lib\gcc\nds32le-elf\4.4.4\mculib\libgcc.a(_lshrdi3.o)
                              C:\Andestech\AndeSight211RDS\toolchains\nds32le-elf-mculib-v3m\nds32le-elf\libc\mculib\usr\lib\libc.a(xint2dec.o) (__lshrdi3)
C:\Andestech\AndeSight211RDS\toolchains\nds32le-elf-mculib-v3m\lib\gcc\nds32le-elf\4.4.4\mculib\libgcc.a(_ashldi3.o)
                              C:\Andestech\AndeSight211RDS\toolchains\nds32le-elf-mculib-v3m\nds32le-elf\libc\mculib\usr\lib\libc.a(xint2dec.o) (__ashldi3)
C:\Andestech\AndeSight211RDS\toolchains\nds32le-elf-mculib-v3m\lib\gcc\nds32le-elf\4.4.4\mculib\libgcc.a(_udivdi3.o)
                              C:\Andestech\AndeSight211RDS\toolchains\nds32le-elf-mculib-v3m\nds32le-elf\libc\mculib\usr\lib\libc.a(lib_a-vfiprintf.o) (__udivdi3)
C:\Andestech\AndeSight211RDS\toolchains\nds32le-elf-mculib-v3m\lib\gcc\nds32le-elf\4.4.4\mculib\libgcc.a(_umoddi3.o)
                              C:\Andestech\AndeSight211RDS\toolchains\nds32le-elf-mculib-v3m\nds32le-elf\libc\mculib\usr\lib\libc.a(lib_a-vfiprintf.o) (__umoddi3)
C:\Andestech\AndeSight211RDS\toolchains\nds32le-elf-mculib-v3m\lib\gcc\nds32le-elf\4.4.4\mculib\libgcc.a(_udivmoddi4.o)
                              C:\Andestech\AndeSight211RDS\toolchains\nds32le-elf-mculib-v3m\lib\gcc\nds32le-elf\4.4.4\mculib\libgcc.a(_udivdi3.o) (__udivmoddi4)
C:\Andestech\AndeSight211RDS\toolchains\nds32le-elf-mculib-v3m\lib\gcc\nds32le-elf\4.4.4\mculib\libgcc.a(clz.o)
                              C:\Andestech\AndeSight211RDS\toolchains\nds32le-elf-mculib-v3m\lib\gcc\nds32le-elf\4.4.4\mculib\libgcc.a(_udivmoddi4.o) (countLeadingZeros32)
C:\Andestech\AndeSight211RDS\toolchains\nds32le-elf-mculib-v3m\lib\gcc\nds32le-elf\4.4.4\mculib\libgcc.a(_muldi3.o)
                              C:\Andestech\AndeSight211RDS\toolchains\nds32le-elf-mculib-v3m\lib\gcc\nds32le-elf\4.4.4\mculib\libgcc.a(_udivmoddi4.o) (__muldi3)

Allocating common symbols
Common symbol       size              file

_NDS32_REENT_(short, float)
                    0x138             C:\Andestech\AndeSight211RDS\toolchains\nds32le-elf-mculib-v3m\nds32le-elf\libc\mculib\usr\lib\libc.a(lib_a-data-stdio.o)
hids_HandleReport5  0x2               /cygdrive/c/Airoha/AiroBlueSDK/AB1600_1_0_5_0/projects/SmartRemote/output/service.o
att_transaction_mask
                    0x2               components/BT/release/\libbtcore.a(ble_att.o)
errno               0x4               C:\Andestech\AndeSight211RDS\toolchains\nds32le-elf-mculib-v3m\nds32le-elf\libc\mculib\usr\lib\libc.a(lib_a-reent_errno.o)
gATT_HeadPWQ        0x40              components/BT/release/\libbtcore.a(ble_att.o)
gatt_evt_size       0x2               components/BT/release/\libbtcore.a(ble_gatt_client.o)
hids_ControlPoint   0x1               /cygdrive/c/Airoha/AiroBlueSDK/AB1600_1_0_5_0/projects/SmartRemote/output/service.o
hids_Report1        0x2               /cygdrive/c/Airoha/AiroBlueSDK/AB1600_1_0_5_0/projects/SmartRemote/output/service.o
gATT_ctl            0x68              components/BT/release/\libbtcore.a(ble_att.o)
hids_HandleReport2  0x2               /cygdrive/c/Airoha/AiroBlueSDK/AB1600_1_0_5_0/projects/SmartRemote/output/service.o
gatt_evt            0x4               components/BT/release/\libbtcore.a(ble_gatt_client.o)
ppara               0x4               components/BT/release/\libbtcore.a(ble_gatt_client.o)
hids_HandleReport4  0x2               /cygdrive/c/Airoha/AiroBlueSDK/AB1600_1_0_5_0/projects/SmartRemote/output/service.o
l2_ch               0x80              components/BT/release/\libbtcore.a(ble_l2cap.o)
mic_IgnoreCount     0x1               /cygdrive/c/Airoha/AiroBlueSDK/AB1600_1_0_5_0/projects/SmartRemote/output/microphone.o
hids_HandleReport1  0x2               /cygdrive/c/Airoha/AiroBlueSDK/AB1600_1_0_5_0/projects/SmartRemote/output/service.o
idx                 0x2               /cygdrive/c/Airoha/AiroBlueSDK/AB1600_1_0_5_0/projects/SmartRemote/output/spl/components/Libraries/external/ADPCM/g726_enc_32.o
hids_Report5        0x3               /cygdrive/c/Airoha/AiroBlueSDK/AB1600_1_0_5_0/projects/SmartRemote/output/service.o
addr                0x6               components/BT/release/\libbtcore.a(sm_hal.o)
voice_AdpcmCodecSel
                    0x1               /cygdrive/c/Airoha/AiroBlueSDK/AB1600_1_0_5_0/projects/SmartRemote/output/service.o
hids_Report2        0x14              /cygdrive/c/Airoha/AiroBlueSDK/AB1600_1_0_5_0/projects/SmartRemote/output/service.o
hids_Report3        0x3               /cygdrive/c/Airoha/AiroBlueSDK/AB1600_1_0_5_0/projects/SmartRemote/output/service.o
previndex           0x2               /cygdrive/c/Airoha/AiroBlueSDK/AB1600_1_0_5_0/projects/SmartRemote/output/spl/components/Libraries/external/ima_adpcm/ima_enc.o
hids_HandleReport3  0x2               /cygdrive/c/Airoha/AiroBlueSDK/AB1600_1_0_5_0/projects/SmartRemote/output/service.o
filt_state          0xa0              /cygdrive/c/Airoha/AiroBlueSDK/AB1600_1_0_5_0/projects/SmartRemote/output/spl/components/Libraries/external/ADPCM/g726_enc_32.o
att_transaction_mask_TO
                    0x2               components/BT/release/\libbtcore.a(ble_att.o)
gAttClient          0x8               components/BT/release/\libbtcore.a(ble_att.o)
gSM_ctl             0x2               components/BT/release/\libbtcore.a(sm.o)
prevsample          0x2               /cygdrive/c/Airoha/AiroBlueSDK/AB1600_1_0_5_0/projects/SmartRemote/output/spl/components/Libraries/external/ima_adpcm/ima_enc.o
gATT_Server         0x4               components/BT/release/\libbtcore.a(ble_att.o)
ATT_SDK_SERVER_SIZE
                    0x2               components/BT/release/\libbtcore.a(ble_att.o)
gSMPairingData      0x40              components/BT/release/\libbtcore.a(sm.o)
randAddr            0xc               components/BT/release/\libbtcore.a(sm_hal.o)
gATT_TailPWQ        0x40              components/BT/release/\libbtcore.a(ble_att.o)
hids_Report4        0x1               /cygdrive/c/Airoha/AiroBlueSDK/AB1600_1_0_5_0/projects/SmartRemote/output/service.o

Discarded input sections

 .text          0x00000000        0x0 /cygdrive/c/Airoha/AiroBlueSDK/AB1600_1_0_5_0/projects/SmartRemote/output/pj/components/Device/AB1600/cfg_sector.o
 .data          0x00000000        0x0 /cygdrive/c/Airoha/AiroBlueSDK/AB1600_1_0_5_0/projects/SmartRemote/output/pj/components/Device/AB1600/cfg_sector.o
 .bss           0x00000000        0x0 /cygdrive/c/Airoha/AiroBlueSDK/AB1600_1_0_5_0/projects/SmartRemote/output/pj/components/Device/AB1600/cfg_sector.o
 .text          0x00000000        0x0 /cygdrive/c/Airoha/AiroBlueSDK/AB1600_1_0_5_0/projects/SmartRemote/output/pj/components/Libraries/hci_devices/hci_spi_1602.o
 .data          0x00000000        0x0 /cygdrive/c/Airoha/AiroBlueSDK/AB1600_1_0_5_0/projects/SmartRemote/output/pj/components/Libraries/hci_devices/hci_spi_1602.o
 .bss           0x00000000        0x0 /cygdrive/c/Airoha/AiroBlueSDK/AB1600_1_0_5_0/projects/SmartRemote/output/pj/components/Libraries/hci_devices/hci_spi_1602.o
 .text          0x00000000        0x0 /cygdrive/c/Airoha/AiroBlueSDK/AB1600_1_0_5_0/projects/SmartRemote/output/pj/components/BT/release/bt_patch/1602_patching.o
 .data          0x00000000        0x0 /cygdrive/c/Airoha/AiroBlueSDK/AB1600_1_0_5_0/projects/SmartRemote/output/pj/components/BT/release/bt_patch/1602_patching.o
 .bss           0x00000000        0x0 /cygdrive/c/Airoha/AiroBlueSDK/AB1600_1_0_5_0/projects/SmartRemote/output/pj/components/BT/release/bt_patch/1602_patching.o
 .text          0x00000000        0x0 /cygdrive/c/Airoha/AiroBlueSDK/AB1600_1_0_5_0/projects/SmartRemote/output/main.o
 .text          0x00000000        0x0 /cygdrive/c/Airoha/AiroBlueSDK/AB1600_1_0_5_0/projects/SmartRemote/output/smartRemote.o
 .data          0x00000000        0x0 /cygdrive/c/Airoha/AiroBlueSDK/AB1600_1_0_5_0/projects/SmartRemote/output/smartRemote.o
 .text          0x00000000        0x0 /cygdrive/c/Airoha/AiroBlueSDK/AB1600_1_0_5_0/projects/SmartRemote/output/peripheral.o
 .text.GAP_IsConnIntervalIdeal
                0x00000000        0x0 /cygdrive/c/Airoha/AiroBlueSDK/AB1600_1_0_5_0/projects/SmartRemote/output/peripheral.o
 .text.GAP_GetRandomAddress
                0x00000000        0x0 /cygdrive/c/Airoha/AiroBlueSDK/AB1600_1_0_5_0/projects/SmartRemote/output/peripheral.o
 .text          0x00000000        0x0 /cygdrive/c/Airoha/AiroBlueSDK/AB1600_1_0_5_0/projects/SmartRemote/output/service.o
 .text.HOGP_GetMouseButton
                0x00000000        0x0 /cygdrive/c/Airoha/AiroBlueSDK/AB1600_1_0_5_0/projects/SmartRemote/output/service.o
 .text.HOGP_SendMouse
                0x00000000        0x0 /cygdrive/c/Airoha/AiroBlueSDK/AB1600_1_0_5_0/projects/SmartRemote/output/service.o
 .text          0x00000000        0x0 /cygdrive/c/Airoha/AiroBlueSDK/AB1600_1_0_5_0/projects/SmartRemote/output/board.o
 .text          0x00000000        0x0 /cygdrive/c/Airoha/AiroBlueSDK/AB1600_1_0_5_0/projects/SmartRemote/output/keyboard.o
 .data          0x00000000        0x0 /cygdrive/c/Airoha/AiroBlueSDK/AB1600_1_0_5_0/projects/SmartRemote/output/keyboard.o
 .text.Keyboard_DropAllKeyCode
                0x00000000        0x0 /cygdrive/c/Airoha/AiroBlueSDK/AB1600_1_0_5_0/projects/SmartRemote/output/keyboard.o
 .text          0x00000000        0x0 /cygdrive/c/Airoha/AiroBlueSDK/AB1600_1_0_5_0/projects/SmartRemote/output/microphone.o
 .data          0x00000000        0x0 /cygdrive/c/Airoha/AiroBlueSDK/AB1600_1_0_5_0/projects/SmartRemote/output/microphone.o
 .text          0x00000000        0x0 /cygdrive/c/Airoha/AiroBlueSDK/AB1600_1_0_5_0/projects/SmartRemote/output/vcmd.o
 .data          0x00000000        0x0 /cygdrive/c/Airoha/AiroBlueSDK/AB1600_1_0_5_0/projects/SmartRemote/output/vcmd.o
 .text          0x00000000        0x0 /cygdrive/c/Airoha/AiroBlueSDK/AB1600_1_0_5_0/projects/SmartRemote/output/led.o
 .data          0x00000000        0x0 /cygdrive/c/Airoha/AiroBlueSDK/AB1600_1_0_5_0/projects/SmartRemote/output/led.o
 .text.LED_Process
                0x00000000        0x0 /cygdrive/c/Airoha/AiroBlueSDK/AB1600_1_0_5_0/projects/SmartRemote/output/led.o
 .text.LED_DeInit
                0x00000000        0x0 /cygdrive/c/Airoha/AiroBlueSDK/AB1600_1_0_5_0/projects/SmartRemote/output/led.o
 .text          0x00000000        0x0 /cygdrive/c/Airoha/AiroBlueSDK/AB1600_1_0_5_0/projects/SmartRemote/output/irTx.o
 .text          0x00000000        0x0 /cygdrive/c/Airoha/AiroBlueSDK/AB1600_1_0_5_0/projects/SmartRemote/output/irRx.o
 .data          0x00000000        0x0 /cygdrive/c/Airoha/AiroBlueSDK/AB1600_1_0_5_0/projects/SmartRemote/output/irRx.o
 .bss           0x00000000        0x0 /cygdrive/c/Airoha/AiroBlueSDK/AB1600_1_0_5_0/projects/SmartRemote/output/irRx.o
 .bss           0x00000000        0x0 /cygdrive/c/Airoha/AiroBlueSDK/AB1600_1_0_5_0/projects/SmartRemote/output/spl/components/Libraries/external/ADPCM/g72x.o
 .data          0x00000000        0x0 /cygdrive/c/Airoha/AiroBlueSDK/AB1600_1_0_5_0/projects/SmartRemote/output/spl/components/Libraries/external/ima_adpcm/ima_enc.o
 .bss           0x00000000        0x0 /cygdrive/c/Airoha/AiroBlueSDK/AB1600_1_0_5_0/projects/SmartRemote/output/spl/components/Libraries/external/ima_adpcm/ima_enc.o
 .text          0x00000000        0x0 components/BT/release/hci_protocol_1602.o
 .data          0x00000000        0x0 components/BT/release/hci_protocol_1602.o
 .text          0x00000000        0x0 output/\lib1600.a(ab_adc.o)
 .data          0x00000000        0x0 output/\lib1600.a(ab_adc.o)
 .text.PowerFail_IntrHandler
                0x00000000        0x0 output/\lib1600.a(ab_adc.o)
 .text.AB_ADC_PowerFail_Monitor
                0x00000000        0x0 output/\lib1600.a(ab_adc.o)
 .text.AB_ADC_Get_Level
                0x00000000        0x0 output/\lib1600.a(ab_adc.o)
 .text          0x00000000        0x0 output/\lib1600.a(ab_clk.o)
 .data          0x00000000        0x0 output/\lib1600.a(ab_clk.o)
 .bss           0x00000000        0x0 output/\lib1600.a(ab_clk.o)
 .text          0x00000000        0x0 output/\lib1600.a(ab_assert.o)
 .data          0x00000000        0x0 output/\lib1600.a(ab_assert.o)
 .bss           0x00000000        0x0 output/\lib1600.a(ab_assert.o)
 .text          0x00000000        0x0 output/\lib1600.a(ab_led.o)
 .data          0x00000000        0x0 output/\lib1600.a(ab_led.o)
 .bss           0x00000000        0x0 output/\lib1600.a(ab_led.o)
 .text.AB_LED_set_brightness
                0x00000000        0x0 output/\lib1600.a(ab_led.o)
 .text.AB_LED_set_on
                0x00000000        0x0 output/\lib1600.a(ab_led.o)
 .text.AB_LED_follow_start
                0x00000000        0x0 output/\lib1600.a(ab_led.o)
 .text.AB_LED_deinit
                0x00000000        0x0 output/\lib1600.a(ab_led.o)
 .text          0x00000000        0x0 output/\lib1600.a(ab_malloc_hook.o)
 .data          0x00000000        0x0 output/\lib1600.a(ab_malloc_hook.o)
 .bss           0x00000000        0x0 output/\lib1600.a(ab_malloc_hook.o)
 .text.ab_malloc_total
                0x00000000        0x0 output/\lib1600.a(ab_malloc_hook.o)
 .text.ab_malloc_used
                0x00000000        0x0 output/\lib1600.a(ab_malloc_hook.o)
 .text.ab_malloc_max_used
                0x00000000        0x0 output/\lib1600.a(ab_malloc_hook.o)
 .text          0x00000000        0x0 output/\lib1600.a(ab_printf_hook.o)
 .data          0x00000000        0x0 output/\lib1600.a(ab_printf_hook.o)
 .bss           0x00000000        0x0 output/\lib1600.a(ab_printf_hook.o)
 .text          0x00000000        0x0 output/\lib1600.a(ab_pwr.o)
 .data          0x00000000        0x0 output/\lib1600.a(ab_pwr.o)
 .text.AB_PWR_Off
                0x00000000        0x0 output/\lib1600.a(ab_pwr.o)
 .text          0x00000000        0x0 output/\lib1600.a(ab_queue.o)
 .data          0x00000000        0x0 output/\lib1600.a(ab_queue.o)
 .bss           0x00000000        0x0 output/\lib1600.a(ab_queue.o)
 .text.AB_queue_first
                0x00000000        0x0 output/\lib1600.a(ab_queue.o)
 .text.AB_queue_next
                0x00000000        0x0 output/\lib1600.a(ab_queue.o)
 .text.AB_queue_insert_after
                0x00000000        0x0 output/\lib1600.a(ab_queue.o)
 .text          0x00000000        0x0 output/\lib1600.a(ab_mp_sector.o)
 .data          0x00000000        0x0 output/\lib1600.a(ab_mp_sector.o)
 .bss           0x00000000        0x0 output/\lib1600.a(ab_mp_sector.o)
 .text          0x00000000        0x0 output/\lib1600.a(ab_spi.o)
 .data          0x00000000        0x0 output/\lib1600.a(ab_spi.o)
 .text          0x00000000        0x0 output/\lib1600.a(bsp_generic.o)
 .data          0x00000000        0x0 output/\lib1600.a(bsp_generic.o)
 .text.AB_BSP_init_with_console
                0x00000000        0x0 output/\lib1600.a(bsp_generic.o)
 .text.AB_BSP_init
                0x00000000        0x0 output/\lib1600.a(bsp_generic.o)
 .text          0x00000000        0x0 output/\lib1600.a(ab_timer.o)
 .data          0x00000000        0x0 output/\lib1600.a(ab_timer.o)
 .text.AB_Timer_GetTick
                0x00000000        0x0 output/\lib1600.a(ab_timer.o)
 .text.AB_Timer_Enable
                0x00000000        0x0 output/\lib1600.a(ab_timer.o)
 .text          0x00000000        0x0 output/\lib1600.a(ab_uart.o)
 .data          0x00000000        0x0 output/\lib1600.a(ab_uart.o)
 .text.AB_UART_SetBaud
                0x00000000        0x0 output/\lib1600.a(ab_uart.o)
 .text.AB_UART_RxRecidue
                0x00000000        0x0 output/\lib1600.a(ab_uart.o)
 .text          0x00000000        0x0 output/\lib1600.a(ab_airoha_vcmd.o)
 .text          0x00000000        0x0 output/\lib1600.a(drv_adc.o)
 .data          0x00000000        0x0 output/\lib1600.a(drv_adc.o)
 .text          0x00000000        0x0 output/\lib1600.a(drv_clk.o)
 .data          0x00000000        0x0 output/\lib1600.a(drv_clk.o)
 .bss           0x00000000        0x0 output/\lib1600.a(drv_clk.o)
 .text          0x00000000        0x0 output/\lib1600.a(drv_trnd.o)
 .data          0x00000000        0x0 output/\lib1600.a(drv_trnd.o)
 .bss           0x00000000        0x0 output/\lib1600.a(drv_trnd.o)
 .text.DRV_TRND_Get
                0x00000000        0x0 output/\lib1600.a(drv_trnd.o)
 .text          0x00000000        0x0 output/\lib1600.a(drv_gpio.o)
 .data          0x00000000        0x0 output/\lib1600.a(drv_gpio.o)
 .text.DRV_Gpio_PinValSet
                0x00000000        0x0 output/\lib1600.a(drv_gpio.o)
 .text.DRV_Gpio_InvSet
                0x00000000        0x0 output/\lib1600.a(drv_gpio.o)
 .text.DRV_Gpio_DirGet
                0x00000000        0x0 output/\lib1600.a(drv_gpio.o)
 .text.DRV_Gpio_ValGet
                0x00000000        0x0 output/\lib1600.a(drv_gpio.o)
 .text.DRV_Gpio_LatchedIntStsGet
                0x00000000        0x0 output/\lib1600.a(drv_gpio.o)
 .text.DRV_Gpio_PinLatchedIntStsGet
                0x00000000        0x0 output/\lib1600.a(drv_gpio.o)
 .text.DRV_Gpio_InvGet
                0x00000000        0x0 output/\lib1600.a(drv_gpio.o)
 .text.DRV_Gpio_PinPullGet
                0x00000000        0x0 output/\lib1600.a(drv_gpio.o)
 .text.DRV_Gpio_WakeDis
                0x00000000        0x0 output/\lib1600.a(drv_gpio.o)
 .text.DRV_Gpio_DebEn
                0x00000000        0x0 output/\lib1600.a(drv_gpio.o)
 .text          0x00000000        0x0 output/\lib1600.a(drv_odgpio.o)
 .data          0x00000000        0x0 output/\lib1600.a(drv_odgpio.o)
 .bss           0x00000000        0x0 output/\lib1600.a(drv_odgpio.o)
 .text.DRV_OdGpio_OeSet
                0x00000000        0x0 output/\lib1600.a(drv_odgpio.o)
 .text.DRV_OdGpio_ValSet
                0x00000000        0x0 output/\lib1600.a(drv_odgpio.o)
 .text.Drv_OdGpioDirGet
                0x00000000        0x0 output/\lib1600.a(drv_odgpio.o)
 .text.DRV_OdGpio_ValGet
                0x00000000        0x0 output/\lib1600.a(drv_odgpio.o)
 .text          0x00000000        0x0 output/\lib1600.a(drv_keyscan.o)
 .data          0x00000000        0x0 output/\lib1600.a(drv_keyscan.o)
 .text          0x00000000        0x0 output/\lib1600.a(drv_led.o)
 .data          0x00000000        0x0 output/\lib1600.a(drv_led.o)
 .bss           0x00000000        0x0 output/\lib1600.a(drv_led.o)
 .text          0x00000000        0x0 output/\lib1600.a(drv_mic.o)
 .data          0x00000000        0x0 output/\lib1600.a(drv_mic.o)
 .text.DRV_Mic_DeInit
                0x00000000        0x0 output/\lib1600.a(drv_mic.o)
 .text          0x00000000        0x0 output/\lib1600.a(drv_odpinmux.o)
 .data          0x00000000        0x0 output/\lib1600.a(drv_odpinmux.o)
 .bss           0x00000000        0x0 output/\lib1600.a(drv_odpinmux.o)
 .text.DRV_OdPinMux_GrpGet
                0x00000000        0x0 output/\lib1600.a(drv_odpinmux.o)
 .text.DRV_OdPinMux_SigGet
                0x00000000        0x0 output/\lib1600.a(drv_odpinmux.o)
 .text          0x00000000        0x0 output/\lib1600.a(drv_pinmux.o)
 .data          0x00000000        0x0 output/\lib1600.a(drv_pinmux.o)
 .bss           0x00000000        0x0 output/\lib1600.a(drv_pinmux.o)
 .text.DRV_PinMux_AioGet
                0x00000000        0x0 output/\lib1600.a(drv_pinmux.o)
 .text.DRV_PinMux_GrpGet
                0x00000000        0x0 output/\lib1600.a(drv_pinmux.o)
 .text.DRV_PinMux_SigGet
                0x00000000        0x0 output/\lib1600.a(drv_pinmux.o)
 .text.DRV_PinMux_AioSet
                0x00000000        0x0 output/\lib1600.a(drv_pinmux.o)
 .text          0x00000000        0x0 output/\lib1600.a(drv_pwr.o)
 .data          0x00000000        0x0 output/\lib1600.a(drv_pwr.o)
 .bss           0x00000000        0x0 output/\lib1600.a(drv_pwr.o)
 .text.DRV_Pwr_SetRegenNoPull
                0x00000000        0x0 output/\lib1600.a(drv_pwr.o)
 .text          0x00000000        0x0 output/\lib1600.a(drv_spi.o)
 .data          0x00000000        0x0 output/\lib1600.a(drv_spi.o)
 .text.DRV_SPI_ClkRefresh
                0x00000000        0x0 output/\lib1600.a(drv_spi.o)
 .text          0x00000000        0x0 output/\lib1600.a(drv_timer32b0.o)
 .data          0x00000000        0x0 output/\lib1600.a(drv_timer32b0.o)
 .text.DRV_TMR32B0_Reset
                0x00000000        0x0 output/\lib1600.a(drv_timer32b0.o)
 .text.DRV_TMR32B0_Enable_Ext
                0x00000000        0x0 output/\lib1600.a(drv_timer32b0.o)
 .text          0x00000000        0x0 output/\lib1600.a(drv_uart.o)
 .data          0x00000000        0x0 output/\lib1600.a(drv_uart.o)
 .text.DRV_Uart_Check
                0x00000000        0x0 output/\lib1600.a(drv_uart.o)
 .text          0x00000000        0x0 output/\lib1600.a(drv_wdt.o)
 .data          0x00000000        0x0 output/\lib1600.a(drv_wdt.o)
 .bss           0x00000000        0x0 output/\lib1600.a(drv_wdt.o)
 .text.DRV_WDT_Disable
                0x00000000        0x0 output/\lib1600.a(drv_wdt.o)
 .text.DRV_WDT_LastPC
                0x00000000        0x0 output/\lib1600.a(drv_wdt.o)
 .text          0x00000000        0x0 output/\lib1600.a(service_battery.o)
 .data          0x00000000        0x0 output/\lib1600.a(service_battery.o)
 .text          0x00000000        0x0 output/\lib1600.a(service_device_firmware_update_OTA.o)
 .data          0x00000000        0x0 output/\lib1600.a(service_device_firmware_update_OTA.o)
 .text          0x00000000        0x0 output/\lib1600.a(service_device_information.o)
 .data          0x00000000        0x0 output/\lib1600.a(service_device_information.o)
 .bss           0x00000000        0x0 output/\lib1600.a(service_device_information.o)
 .text          0x00000000        0x0 output/\lib1600.a(service_generic_access.o)
 .data          0x00000000        0x0 output/\lib1600.a(service_generic_access.o)
 .bss           0x00000000        0x0 output/\lib1600.a(service_generic_access.o)
 .text.GAS_support_privacy_feature
                0x00000000        0x0 output/\lib1600.a(service_generic_access.o)
 .text          0x00000000        0x0 output/\lib1600.a(service_generic_attribute.o)
 .data          0x00000000        0x0 output/\lib1600.a(service_generic_attribute.o)
 .text.GATT_service_changed
                0x00000000        0x0 output/\lib1600.a(service_generic_attribute.o)
 .text          0x00000000        0x0 output/\lib1600.a(service_human_interface_device.o)
 .data          0x00000000        0x0 output/\lib1600.a(service_human_interface_device.o)
 .bss           0x00000000        0x0 output/\lib1600.a(service_human_interface_device.o)
 .text          0x00000000        0x0 output/\lib1600.a(console.o)
 .data          0x00000000        0x0 output/\lib1600.a(console.o)
 .text.AB_console_set_mode
                0x00000000        0x0 output/\lib1600.a(console.o)
 .text.AB_console_UserInput
                0x00000000        0x0 output/\lib1600.a(console.o)
 .text          0x00000000        0x0 output/\lib1600.a(shell.o)
 .data          0x00000000        0x0 output/\lib1600.a(shell.o)
 .bss           0x00000000        0x0 output/\lib1600.a(shell.o)
 .text          0x00000000        0x0 output/\lib1600.a(ab_debug.o)
 .data          0x00000000        0x0 output/\lib1600.a(ab_debug.o)
 .bss           0x00000000        0x0 output/\lib1600.a(ab_debug.o)
 .text          0x00000000        0x0 output/\lib1600.a(dfu.o)
 .data          0x00000000        0x0 output/\lib1600.a(dfu.o)
 .bss           0x00000000        0x0 output/\lib1600.a(dfu.o)
 .text          0x00000000        0x0 output/\lib1600.a(ab_module.o)
 .data          0x00000000        0x0 output/\lib1600.a(ab_module.o)
 .bss           0x00000000        0x0 output/\lib1600.a(ab_module.o)
 .text.AB_module_enum_by_name_start
                0x00000000        0x0 output/\lib1600.a(ab_module.o)
 .text.AB_module_enum_by_name_next
                0x00000000        0x0 output/\lib1600.a(ab_module.o)
 .sdata_w       0x00000000        0x0 output/\lib1600.a(ab_module.o)
 .text          0x00000000        0x0 output/\lib1600.a(drv_flash.o)
 .data          0x00000000        0x0 output/\lib1600.a(drv_flash.o)
 .bss           0x00000000        0x0 output/\lib1600.a(drv_flash.o)
 .text.DRV_Flash_ByteRead
                0x00000000        0x0 output/\lib1600.a(drv_flash.o)
 .text.DRV_Flash_PageRead
                0x00000000        0x0 output/\lib1600.a(drv_flash.o)
 .text.DRV_Flash_Protection
                0x00000000        0x0 output/\lib1600.a(drv_flash.o)
 .text.DRV_Flash_ChipErase
                0x00000000        0x0 output/\lib1600.a(drv_flash.o)
 .text          0x00000000        0x0 components/BT/release/\libbtcore.a(hci_h4_parser.o)
 .data          0x00000000        0x0 components/BT/release/\libbtcore.a(hci_h4_parser.o)
 .text          0x00000000        0x0 components/BT/release/\libbtcore.a(bt.o)
 .data          0x00000000        0x0 components/BT/release/\libbtcore.a(bt.o)
 .text.BT_Loop  0x00000000        0x0 components/BT/release/\libbtcore.a(bt.o)
 .text.BT_InitEx
                0x00000000        0x0 components/BT/release/\libbtcore.a(bt.o)
 .text.BT_Init  0x00000000        0x0 components/BT/release/\libbtcore.a(bt.o)
 .text          0x00000000        0x0 components/BT/release/\libbtcore.a(ble_gap.o)
 .text.ble_gap_disable_latency
                0x00000000        0x0 components/BT/release/\libbtcore.a(ble_gap.o)
 .text.ble_gap_remote_version
                0x00000000        0x0 components/BT/release/\libbtcore.a(ble_gap.o)
 .text.generic_remote_ver_cb
                0x00000000        0x0 components/BT/release/\libbtcore.a(ble_gap.o)
 .text.generic_connect_cb
                0x00000000        0x0 components/BT/release/\libbtcore.a(ble_gap.o)
 .text.ble_gap_connect_cancel
                0x00000000        0x0 components/BT/release/\libbtcore.a(ble_gap.o)
 .text.ble_gap_scan_stop
                0x00000000        0x0 components/BT/release/\libbtcore.a(ble_gap.o)
 .text.ble_gap_tx_power_set
                0x00000000        0x0 components/BT/release/\libbtcore.a(ble_gap.o)
 .text.ble_gap_scan_set_parameter
                0x00000000        0x0 components/BT/release/\libbtcore.a(ble_gap.o)
 .text.ble_gap_pub_address_get
                0x00000000        0x0 components/BT/release/\libbtcore.a(ble_gap.o)
 .text.ble_gap_add_whitelist
                0x00000000        0x0 components/BT/release/\libbtcore.a(ble_gap.o)
 .text.ble_gap_scan_start
                0x00000000        0x0 components/BT/release/\libbtcore.a(ble_gap.o)
 .text.set_clear_wlst_cb
                0x00000000        0x0 components/BT/release/\libbtcore.a(ble_gap.o)
 .text.set_add_wlst_cb
                0x00000000        0x0 components/BT/release/\libbtcore.a(ble_gap.o)
 .text.set_scan_parm_cb
                0x00000000        0x0 components/BT/release/\libbtcore.a(ble_gap.o)
 .text.ble_gap_connect
                0x00000000        0x0 components/BT/release/\libbtcore.a(ble_gap.o)
 .text.ble_gap_adv_set_parameter
                0x00000000        0x0 components/BT/release/\libbtcore.a(ble_gap.o)
 .text.ble_gap_random_address_get
                0x00000000        0x0 components/BT/release/\libbtcore.a(ble_gap.o)
 .text          0x00000000        0x0 components/BT/release/\libbtcore.a(ble_gap_links.o)
 .data          0x00000000        0x0 components/BT/release/\libbtcore.a(ble_gap_links.o)
 .text.ble_gap_link_GetAttr_RemoteName
                0x00000000        0x0 components/BT/release/\libbtcore.a(ble_gap_links.o)
 .text.ble_gap_link_Is_Active
                0x00000000        0x0 components/BT/release/\libbtcore.a(ble_gap_links.o)
 .text.ble_gap_link_Is_AnyActive
                0x00000000        0x0 components/BT/release/\libbtcore.a(ble_gap_links.o)
 .text.ble_gap_link_GetActiveMask
                0x00000000        0x0 components/BT/release/\libbtcore.a(ble_gap_links.o)
 .text.ble_gap_link_GetAttr_State
                0x00000000        0x0 components/BT/release/\libbtcore.a(ble_gap_links.o)
 .text.ble_gap_link_SetAttr_Role
                0x00000000        0x0 components/BT/release/\libbtcore.a(ble_gap_links.o)
 .text.ble_gap_link_SetAttr_Handle
                0x00000000        0x0 components/BT/release/\libbtcore.a(ble_gap_links.o)
 .text.ble_gap_link_SetAttr_BdAddrType
                0x00000000        0x0 components/BT/release/\libbtcore.a(ble_gap_links.o)
 .text.ble_gap_link_SetAttr_Clear
                0x00000000        0x0 components/BT/release/\libbtcore.a(ble_gap_links.o)
 .text.ble_gap_link_SetAttr_BdAddr
                0x00000000        0x0 components/BT/release/\libbtcore.a(ble_gap_links.o)
 .text          0x00000000        0x0 components/BT/release/\libbtcore.a(ble_gap_sm.o)
 .data          0x00000000        0x0 components/BT/release/\libbtcore.a(ble_gap_sm.o)
 .bss           0x00000000        0x0 components/BT/release/\libbtcore.a(ble_gap_sm.o)
 .text.BLE_gap_sm_get_peer_ltk
                0x00000000        0x0 components/BT/release/\libbtcore.a(ble_gap_sm.o)
 .text.BLE_gap_sm_get_ltk
                0x00000000        0x0 components/BT/release/\libbtcore.a(ble_gap_sm.o)
 .text.BLE_gap_sm_send_keypress_notification_request
                0x00000000        0x0 components/BT/release/\libbtcore.a(ble_gap_sm.o)
 .text.BLE_gap_sm_OOB_response
                0x00000000        0x0 components/BT/release/\libbtcore.a(ble_gap_sm.o)
 .text.BLE_gap_sm_passkey_response
                0x00000000        0x0 components/BT/release/\libbtcore.a(ble_gap_sm.o)
 .text.BLE_gap_sm_is_device_bonded
                0x00000000        0x0 components/BT/release/\libbtcore.a(ble_gap_sm.o)
 .text          0x00000000        0x0 components/BT/release/\libbtcore.a(ble_l2cap.o)
 .data          0x00000000        0x0 components/BT/release/\libbtcore.a(ble_l2cap.o)
 .bss           0x00000000        0x0 components/BT/release/\libbtcore.a(ble_l2cap.o)
 .text.BLE_l2cap_cid_unregister
                0x00000000        0x0 components/BT/release/\libbtcore.a(ble_l2cap.o)
 .text.l2cap_deinit
                0x00000000        0x0 components/BT/release/\libbtcore.a(ble_l2cap.o)
 .text          0x00000000        0x0 components/BT/release/\libbtcore.a(l2cap_le_sig.o)
 .data          0x00000000        0x0 components/BT/release/\libbtcore.a(l2cap_le_sig.o)
 .bss           0x00000000        0x0 components/BT/release/\libbtcore.a(l2cap_le_sig.o)
 .text.l2cap_lesig_conn_param_update_rsp
                0x00000000        0x0 components/BT/release/\libbtcore.a(l2cap_le_sig.o)
 .text          0x00000000        0x0 components/BT/release/\libbtcore.a(ble_att.o)
 .bss           0x00000000        0x0 components/BT/release/\libbtcore.a(ble_att.o)
 .text.ATT_is_transaction_TO
                0x00000000        0x0 components/BT/release/\libbtcore.a(ble_att.o)
 .text.ATT_FindServerIndexByAddr
                0x00000000        0x0 components/BT/release/\libbtcore.a(ble_att.o)
 .text.ATT_GetCurrentMTUSize
                0x00000000        0x0 components/BT/release/\libbtcore.a(ble_att.o)
 .text.BLE_att_get_attribute_data_ptr
                0x00000000        0x0 components/BT/release/\libbtcore.a(ble_att.o)
 .text.BLE_att_set_default_mtu
                0x00000000        0x0 components/BT/release/\libbtcore.a(ble_att.o)
 .text.ATT_ChangeAttributeValueLength
                0x00000000        0x0 components/BT/release/\libbtcore.a(ble_att.o)
 .text.ATT_ChangeAttributeValueDataPtr
                0x00000000        0x0 components/BT/release/\libbtcore.a(ble_att.o)
 .text.ATT_GetAttributeValueCurrentLen
                0x00000000        0x0 components/BT/release/\libbtcore.a(ble_att.o)
 .text.BLE_att_set_attribute_data_ptr
                0x00000000        0x0 components/BT/release/\libbtcore.a(ble_att.o)
 .text          0x00000000        0x0 components/BT/release/\libbtcore.a(ble_gatt_server.o)
 .data          0x00000000        0x0 components/BT/release/\libbtcore.a(ble_gatt_server.o)
 .text.BLE_gatt_charact_indicate
                0x00000000        0x0 components/BT/release/\libbtcore.a(ble_gatt_server.o)
 .text          0x00000000        0x0 components/BT/release/\libbtcore.a(ble_gatt_client.o)
 .data          0x00000000        0x0 components/BT/release/\libbtcore.a(ble_gatt_client.o)
 .bss           0x00000000        0x0 components/BT/release/\libbtcore.a(ble_gatt_client.o)
 .text.is_gatt_procedure_ongoing
                0x00000000        0x0 components/BT/release/\libbtcore.a(ble_gatt_client.o)
 .text.ble_gatt_evt_init
                0x00000000        0x0 components/BT/release/\libbtcore.a(ble_gatt_client.o)
 .text.ble_gatt_evt_extend
                0x00000000        0x0 components/BT/release/\libbtcore.a(ble_gatt_client.o)
 .text.ble_gatt_client_send_pdu
                0x00000000        0x0 components/BT/release/\libbtcore.a(ble_gatt_client.o)
 .text.ble_gatt_client_send_prepare_write_req
                0x00000000        0x0 components/BT/release/\libbtcore.a(ble_gatt_client.o)
 .text.ble_gatt_4_12_4_write_long_char_desc
                0x00000000        0x0 components/BT/release/\libbtcore.a(ble_gatt_client.o)
 .text.ble_gatt_4_9_5_reliable_writes
                0x00000000        0x0 components/BT/release/\libbtcore.a(ble_gatt_client.o)
 .text.ble_gatt_4_9_4_write_long_char_value
                0x00000000        0x0 components/BT/release/\libbtcore.a(ble_gatt_client.o)
 .text.ble_gatt_client_send_read_blob_req
                0x00000000        0x0 components/BT/release/\libbtcore.a(ble_gatt_client.o)
 .text.ble_gatt_4_12_2_read_long_char_desc
                0x00000000        0x0 components/BT/release/\libbtcore.a(ble_gatt_client.o)
 .text.ble_gatt_4_8_3_read_long_char_value
                0x00000000        0x0 components/BT/release/\libbtcore.a(ble_gatt_client.o)
 .text.ble_gatt_client_send_read_req
                0x00000000        0x0 components/BT/release/\libbtcore.a(ble_gatt_client.o)
 .text.ble_gatt_4_12_1_read_char_desc
                0x00000000        0x0 components/BT/release/\libbtcore.a(ble_gatt_client.o)
 .text.ble_gatt_4_8_1_read_char_value
                0x00000000        0x0 components/BT/release/\libbtcore.a(ble_gatt_client.o)
 .text.ble_gatt_client_send_read_by_type_req
                0x00000000        0x0 components/BT/release/\libbtcore.a(ble_gatt_client.o)
 .text.ble_gatt_4_8_2_read_using_char_UUID
                0x00000000        0x0 components/BT/release/\libbtcore.a(ble_gatt_client.o)
 .rodata.str1.4
                0x00000000        0x0 components/BT/release/\libbtcore.a(ble_gatt_client.o)
 .text.ble_gatt_4_6_2_disc_chars_by_UUID
                0x00000000        0x0 components/BT/release/\libbtcore.a(ble_gatt_client.o)
 .text.ble_gatt_4_6_1_disc_all_chars
                0x00000000        0x0 components/BT/release/\libbtcore.a(ble_gatt_client.o)
 .text.ble_gatt_4_5_1_find_included_services
                0x00000000        0x0 components/BT/release/\libbtcore.a(ble_gatt_client.o)
 .text.ble_gatt_client_send_find_info_req
                0x00000000        0x0 components/BT/release/\libbtcore.a(ble_gatt_client.o)
 .text.ble_gatt_4_7_1_disc_all_char_descs
                0x00000000        0x0 components/BT/release/\libbtcore.a(ble_gatt_client.o)
 .text.ble_gatt_client_send_execute_write_req
                0x00000000        0x0 components/BT/release/\libbtcore.a(ble_gatt_client.o)
 .text.ble_gatt_4_9_2_signed_write_no_rsp
                0x00000000        0x0 components/BT/release/\libbtcore.a(ble_gatt_client.o)
 .text.ble_gatt_terminate_procedure
                0x00000000        0x0 components/BT/release/\libbtcore.a(ble_gatt_client.o)
 .text.ble_gatt_4_9_1_write_no_rsp
                0x00000000        0x0 components/BT/release/\libbtcore.a(ble_gatt_client.o)
 .text.ble_gatt_write_long_char_value_cb
                0x00000000        0x0 components/BT/release/\libbtcore.a(ble_gatt_client.o)
 .text.ble_gatt_write_char_value_cb
                0x00000000        0x0 components/BT/release/\libbtcore.a(ble_gatt_client.o)
 .text.ble_gatt_read_multi_char_values_cb
                0x00000000        0x0 components/BT/release/\libbtcore.a(ble_gatt_client.o)
 .text.ble_gatt_read_long_char_value_cb
                0x00000000        0x0 components/BT/release/\libbtcore.a(ble_gatt_client.o)
 .text.ble_gatt_read_using_char_UUID_cb
                0x00000000        0x0 components/BT/release/\libbtcore.a(ble_gatt_client.o)
 .text.ble_gatt_read_char_value_cb
                0x00000000        0x0 components/BT/release/\libbtcore.a(ble_gatt_client.o)
 .text.ble_gatt_disc_all_char_descs_cb
                0x00000000        0x0 components/BT/release/\libbtcore.a(ble_gatt_client.o)
 .text.ble_gatt_disc_all_chars_cb
                0x00000000        0x0 components/BT/release/\libbtcore.a(ble_gatt_client.o)
 .text.ble_gatt_find_included_services_cb
                0x00000000        0x0 components/BT/release/\libbtcore.a(ble_gatt_client.o)
 .text.ble_gatt_exchange_mtu_cb
                0x00000000        0x0 components/BT/release/\libbtcore.a(ble_gatt_client.o)
 .text.ble_gatt_reliable_writes_cb
                0x00000000        0x0 components/BT/release/\libbtcore.a(ble_gatt_client.o)
 .text.ble_gatt_disc_chars_by_UUID_cb
                0x00000000        0x0 components/BT/release/\libbtcore.a(ble_gatt_client.o)
 .text.T.119    0x00000000        0x0 components/BT/release/\libbtcore.a(ble_gatt_client.o)
 .text.ble_gatt_4_9_3_write_char_value
                0x00000000        0x0 components/BT/release/\libbtcore.a(ble_gatt_client.o)
 .text.ble_gatt_4_12_3_write_char_desc
                0x00000000        0x0 components/BT/release/\libbtcore.a(ble_gatt_client.o)
 .text.ble_gatt_4_3_1_exchange_mtu
                0x00000000        0x0 components/BT/release/\libbtcore.a(ble_gatt_client.o)
 .text.T.121    0x00000000        0x0 components/BT/release/\libbtcore.a(ble_gatt_client.o)
 .text.ble_gatt_disc_all_primary_services_cb
                0x00000000        0x0 components/BT/release/\libbtcore.a(ble_gatt_client.o)
 .text.ble_gatt_4_4_1_disc_all_primary_services
                0x00000000        0x0 components/BT/release/\libbtcore.a(ble_gatt_client.o)
 .text.ble_gatt_4_8_4_read_multi_char_values
                0x00000000        0x0 components/BT/release/\libbtcore.a(ble_gatt_client.o)
 .text.T.123    0x00000000        0x0 components/BT/release/\libbtcore.a(ble_gatt_client.o)
 .text.ble_gatt_disc_primary_service_by_UUID_cb
                0x00000000        0x0 components/BT/release/\libbtcore.a(ble_gatt_client.o)
 .text.ble_gatt_4_4_2_disc_primary_service_by_UUID
                0x00000000        0x0 components/BT/release/\libbtcore.a(ble_gatt_client.o)
 .text          0x00000000        0x0 components/BT/release/\libbtcore.a(sm.o)
 .bss           0x00000000        0x0 components/BT/release/\libbtcore.a(sm.o)
 .text.SM_GetPeerLTK
                0x00000000        0x0 components/BT/release/\libbtcore.a(sm.o)
 .text.SM_GetLTK
                0x00000000        0x0 components/BT/release/\libbtcore.a(sm.o)
 .text.SM_SendKeypressNotification
                0x00000000        0x0 components/BT/release/\libbtcore.a(sm.o)
 .text          0x00000000        0x0 components/BT/release/\libbtcore.a(sm_cryptotool.o)
 .text.h6       0x00000000        0x0 components/BT/release/\libbtcore.a(sm_cryptotool.o)
 .text.SM_CryptoTool_StartEncryption
                0x00000000        0x0 components/BT/release/\libbtcore.a(sm_cryptotool.o)
 .text          0x00000000        0x0 components/BT/release/\libbtcore.a(sm_hal.o)
 .data          0x00000000        0x0 components/BT/release/\libbtcore.a(sm_hal.o)
 .text.sm_hal_verify_resolvable_addr
                0x00000000        0x0 components/BT/release/\libbtcore.a(sm_hal.o)
 .text.sm_hal_verify_RPA_cb
                0x00000000        0x0 components/BT/release/\libbtcore.a(sm_hal.o)
 .text.sm_hal_flash_load_data_byIndex
                0x00000000        0x0 components/BT/release/\libbtcore.a(sm_hal.o)
 .text.sm_hal_flash_dump_data
                0x00000000        0x0 components/BT/release/\libbtcore.a(sm_hal.o)
 .text.sm_hal_flash_search_byAddr
                0x00000000        0x0 components/BT/release/\libbtcore.a(sm_hal.o)
 COMMON         0x00000000        0x0 components/BT/release/\libbtcore.a(sm_hal.o)
 .text          0x00000000        0x0 components/BT/release/\libbtcore.a(sm_protocol.o)
 .data          0x00000000        0x0 components/BT/release/\libbtcore.a(sm_protocol.o)
 .text.SM_Protocol_PairingKeypressNotify
                0x00000000        0x0 components/BT/release/\libbtcore.a(sm_protocol.o)
 .text          0x00000000        0x0 components/BT/release/\libbtcore.a(sm_slave.o)
 .bss           0x00000000        0x0 components/BT/release/\libbtcore.a(sm_slave.o)
 .text.SM_Slave_OOBInputRsp
                0x00000000        0x0 components/BT/release/\libbtcore.a(sm_slave.o)
 .text.SM_Slave_PasskeyInputRsp
                0x00000000        0x0 components/BT/release/\libbtcore.a(sm_slave.o)
 .text          0x00000000        0x0 components/BT/release/\libbtcore.a(sm_master.o)
 .bss           0x00000000        0x0 components/BT/release/\libbtcore.a(sm_master.o)
 .text.SM_Master_OOBInputRsp
                0x00000000        0x0 components/BT/release/\libbtcore.a(sm_master.o)
 .text.SM_Master_PasskeyInputRsp
                0x00000000        0x0 components/BT/release/\libbtcore.a(sm_master.o)
 .text          0x00000000        0x0 components/BT/release/\libbtcore.a(Drv_Trng.o)
 .data          0x00000000        0x0 components/BT/release/\libbtcore.a(Drv_Trng.o)
 .bss           0x00000000        0x0 components/BT/release/\libbtcore.a(Drv_Trng.o)
 .text          0x00000000        0x0 components/BT/release/\libbtcore.a(Drv_MMITimer.o)
 .data          0x00000000        0x0 components/BT/release/\libbtcore.a(Drv_MMITimer.o)
 .text          0x00000000        0x0 components/BT/release/\libbtcore.a(Ab_MMITimer.o)
 .data          0x00000000        0x0 components/BT/release/\libbtcore.a(Ab_MMITimer.o)
 .text          0x00000000        0x0 components/BT/release/\libbtcore.a(Drv_1602.o)
 .data          0x00000000        0x0 components/BT/release/\libbtcore.a(Drv_1602.o)
 .text          0x00000000        0x0 components/BT/release/\libbtcore.a(encrypt.o)
 .data          0x00000000        0x0 components/BT/release/\libbtcore.a(encrypt.o)
 .bss           0x00000000        0x0 components/BT/release/\libbtcore.a(encrypt.o)
 .text          0x00000000        0x0 components/BT/release/\libbtcore.a(hci.o)
 .data          0x00000000        0x0 components/BT/release/\libbtcore.a(hci.o)
 .bss           0x00000000        0x0 components/BT/release/\libbtcore.a(hci.o)
 .text          0x00000000        0x0 components/BT/release/\libbtcore.a(hci_cmd_evt_dat.o)
 .data          0x00000000        0x0 components/BT/release/\libbtcore.a(hci_cmd_evt_dat.o)
 .text          0x00000000        0x0 components/BT/release/\libbtcore.a(sm_common.o)
 .data          0x00000000        0x0 components/BT/release/\libbtcore.a(sm_common.o)
 .bss           0x00000000        0x0 components/BT/release/\libbtcore.a(sm_common.o)
 .text          0x00000000        0x0 output/\lib1600.a(ab_log.o)
 .data          0x00000000        0x0 output/\lib1600.a(ab_log.o)
 .text.AB_Log_HciStatusStr
                0x00000000        0x0 output/\lib1600.a(ab_log.o)
 .text          0x00000000        0x0 output/\lib1600.a(ab_flash.o)
 .data          0x00000000        0x0 output/\lib1600.a(ab_flash.o)
 .bss           0x00000000        0x0 output/\lib1600.a(ab_flash.o)
 .text.AB_Flash_UnLock
                0x00000000        0x0 output/\lib1600.a(ab_flash.o)
 .text.AB_Flash_Lock
                0x00000000        0x0 output/\lib1600.a(ab_flash.o)
 .text          0x00000000        0x0 C:\Andestech\AndeSight211RDS\toolchains\nds32le-elf-mculib-v3m\nds32le-elf\libc\mculib\usr\lib\libc.a(lib_a-ctype_.o)
 .data          0x00000000        0x0 C:\Andestech\AndeSight211RDS\toolchains\nds32le-elf-mculib-v3m\nds32le-elf\libc\mculib\usr\lib\libc.a(lib_a-ctype_.o)
 .bss           0x00000000        0x0 C:\Andestech\AndeSight211RDS\toolchains\nds32le-elf-mculib-v3m\nds32le-elf\libc\mculib\usr\lib\libc.a(lib_a-ctype_.o)
 .rodata._ctype_
                0x00000000        0x0 C:\Andestech\AndeSight211RDS\toolchains\nds32le-elf-mculib-v3m\nds32le-elf\libc\mculib\usr\lib\libc.a(lib_a-ctype_.o)
 .text          0x00000000        0x0 C:\Andestech\AndeSight211RDS\toolchains\nds32le-elf-mculib-v3m\nds32le-elf\libc\mculib\usr\lib\libc.a(lib_a-freer.o)
 .data          0x00000000        0x0 C:\Andestech\AndeSight211RDS\toolchains\nds32le-elf-mculib-v3m\nds32le-elf\libc\mculib\usr\lib\libc.a(lib_a-freer.o)
 .bss           0x00000000        0x0 C:\Andestech\AndeSight211RDS\toolchains\nds32le-elf-mculib-v3m\nds32le-elf\libc\mculib\usr\lib\libc.a(lib_a-freer.o)
 .text          0x00000000        0x0 C:\Andestech\AndeSight211RDS\toolchains\nds32le-elf-mculib-v3m\nds32le-elf\libc\mculib\usr\lib\libc.a(lib_a-mallocr.o)
 .data          0x00000000        0x0 C:\Andestech\AndeSight211RDS\toolchains\nds32le-elf-mculib-v3m\nds32le-elf\libc\mculib\usr\lib\libc.a(lib_a-mallocr.o)
 .bss           0x00000000        0x0 C:\Andestech\AndeSight211RDS\toolchains\nds32le-elf-mculib-v3m\nds32le-elf\libc\mculib\usr\lib\libc.a(lib_a-mallocr.o)
 .data          0x00000000        0x0 C:\Andestech\AndeSight211RDS\toolchains\nds32le-elf-mculib-v3m\nds32le-elf\libc\mculib\usr\lib\libc.a(lib_a-memcmp.o)
 .bss           0x00000000        0x0 C:\Andestech\AndeSight211RDS\toolchains\nds32le-elf-mculib-v3m\nds32le-elf\libc\mculib\usr\lib\libc.a(lib_a-memcmp.o)
 .data          0x00000000        0x0 C:\Andestech\AndeSight211RDS\toolchains\nds32le-elf-mculib-v3m\nds32le-elf\libc\mculib\usr\lib\libc.a(lib_a-memcpy.o)
 .bss           0x00000000        0x0 C:\Andestech\AndeSight211RDS\toolchains\nds32le-elf-mculib-v3m\nds32le-elf\libc\mculib\usr\lib\libc.a(lib_a-memcpy.o)
 .data          0x00000000        0x0 C:\Andestech\AndeSight211RDS\toolchains\nds32le-elf-mculib-v3m\nds32le-elf\libc\mculib\usr\lib\libc.a(lib_a-memmove.o)
 .bss           0x00000000        0x0 C:\Andestech\AndeSight211RDS\toolchains\nds32le-elf-mculib-v3m\nds32le-elf\libc\mculib\usr\lib\libc.a(lib_a-memmove.o)
 .data          0x00000000        0x0 C:\Andestech\AndeSight211RDS\toolchains\nds32le-elf-mculib-v3m\nds32le-elf\libc\mculib\usr\lib\libc.a(lib_a-memset.o)
 .bss           0x00000000        0x0 C:\Andestech\AndeSight211RDS\toolchains\nds32le-elf-mculib-v3m\nds32le-elf\libc\mculib\usr\lib\libc.a(lib_a-memset.o)
 .text          0x00000000        0x0 C:\Andestech\AndeSight211RDS\toolchains\nds32le-elf-mculib-v3m\nds32le-elf\libc\mculib\usr\lib\libc.a(lib_a-mlock.o)
 .data          0x00000000        0x0 C:\Andestech\AndeSight211RDS\toolchains\nds32le-elf-mculib-v3m\nds32le-elf\libc\mculib\usr\lib\libc.a(lib_a-mlock.o)
 .bss           0x00000000        0x0 C:\Andestech\AndeSight211RDS\toolchains\nds32le-elf-mculib-v3m\nds32le-elf\libc\mculib\usr\lib\libc.a(lib_a-mlock.o)
 .text          0x00000000        0x0 C:\Andestech\AndeSight211RDS\toolchains\nds32le-elf-mculib-v3m\nds32le-elf\libc\mculib\usr\lib\libc.a(lib_a-mstats.o)
 .data          0x00000000        0x0 C:\Andestech\AndeSight211RDS\toolchains\nds32le-elf-mculib-v3m\nds32le-elf\libc\mculib\usr\lib\libc.a(lib_a-mstats.o)
 .bss           0x00000000        0x0 C:\Andestech\AndeSight211RDS\toolchains\nds32le-elf-mculib-v3m\nds32le-elf\libc\mculib\usr\lib\libc.a(lib_a-mstats.o)
 .rodata.str1.4
                0x00000000        0x0 C:\Andestech\AndeSight211RDS\toolchains\nds32le-elf-mculib-v3m\nds32le-elf\libc\mculib\usr\lib\libc.a(lib_a-mstats.o)
 .text._mstats_r
                0x00000000        0x0 C:\Andestech\AndeSight211RDS\toolchains\nds32le-elf-mculib-v3m\nds32le-elf\libc\mculib\usr\lib\libc.a(lib_a-mstats.o)
 .text.mstats   0x00000000        0x0 C:\Andestech\AndeSight211RDS\toolchains\nds32le-elf-mculib-v3m\nds32le-elf\libc\mculib\usr\lib\libc.a(lib_a-mstats.o)
 .text.malloc_stats
                0x00000000        0x0 C:\Andestech\AndeSight211RDS\toolchains\nds32le-elf-mculib-v3m\nds32le-elf\libc\mculib\usr\lib\libc.a(lib_a-mstats.o)
 .text.mallopt  0x00000000        0x0 C:\Andestech\AndeSight211RDS\toolchains\nds32le-elf-mculib-v3m\nds32le-elf\libc\mculib\usr\lib\libc.a(lib_a-mstats.o)
 .text          0x00000000        0x0 C:\Andestech\AndeSight211RDS\toolchains\nds32le-elf-mculib-v3m\nds32le-elf\libc\mculib\usr\lib\libc.a(lib_a-puts.o)
 .data          0x00000000        0x0 C:\Andestech\AndeSight211RDS\toolchains\nds32le-elf-mculib-v3m\nds32le-elf\libc\mculib\usr\lib\libc.a(lib_a-puts.o)
 .bss           0x00000000        0x0 C:\Andestech\AndeSight211RDS\toolchains\nds32le-elf-mculib-v3m\nds32le-elf\libc\mculib\usr\lib\libc.a(lib_a-puts.o)
 .text          0x00000000        0x0 C:\Andestech\AndeSight211RDS\toolchains\nds32le-elf-mculib-v3m\nds32le-elf\libc\mculib\usr\lib\libc.a(lib_a-sbrkr.o)
 .data          0x00000000        0x0 C:\Andestech\AndeSight211RDS\toolchains\nds32le-elf-mculib-v3m\nds32le-elf\libc\mculib\usr\lib\libc.a(lib_a-sbrkr.o)
 .bss           0x00000000        0x0 C:\Andestech\AndeSight211RDS\toolchains\nds32le-elf-mculib-v3m\nds32le-elf\libc\mculib\usr\lib\libc.a(lib_a-sbrkr.o)
 .text          0x00000000        0x0 C:\Andestech\AndeSight211RDS\toolchains\nds32le-elf-mculib-v3m\nds32le-elf\libc\mculib\usr\lib\libc.a(lib_a-sprintf.o)
 .data          0x00000000        0x0 C:\Andestech\AndeSight211RDS\toolchains\nds32le-elf-mculib-v3m\nds32le-elf\libc\mculib\usr\lib\libc.a(lib_a-sprintf.o)
 .bss           0x00000000        0x0 C:\Andestech\AndeSight211RDS\toolchains\nds32le-elf-mculib-v3m\nds32le-elf\libc\mculib\usr\lib\libc.a(lib_a-sprintf.o)
 .data          0x00000000        0x0 C:\Andestech\AndeSight211RDS\toolchains\nds32le-elf-mculib-v3m\nds32le-elf\libc\mculib\usr\lib\libc.a(lib_a-strcmp.o)
 .bss           0x00000000        0x0 C:\Andestech\AndeSight211RDS\toolchains\nds32le-elf-mculib-v3m\nds32le-elf\libc\mculib\usr\lib\libc.a(lib_a-strcmp.o)
 .data          0x00000000        0x0 C:\Andestech\AndeSight211RDS\toolchains\nds32le-elf-mculib-v3m\nds32le-elf\libc\mculib\usr\lib\libc.a(lib_a-strcpy.o)
 .bss           0x00000000        0x0 C:\Andestech\AndeSight211RDS\toolchains\nds32le-elf-mculib-v3m\nds32le-elf\libc\mculib\usr\lib\libc.a(lib_a-strcpy.o)
 .data          0x00000000        0x0 C:\Andestech\AndeSight211RDS\toolchains\nds32le-elf-mculib-v3m\nds32le-elf\libc\mculib\usr\lib\libc.a(lib_a-strlen.o)
 .bss           0x00000000        0x0 C:\Andestech\AndeSight211RDS\toolchains\nds32le-elf-mculib-v3m\nds32le-elf\libc\mculib\usr\lib\libc.a(lib_a-strlen.o)
 .data          0x00000000        0x0 C:\Andestech\AndeSight211RDS\toolchains\nds32le-elf-mculib-v3m\nds32le-elf\libc\mculib\usr\lib\libc.a(lib_a-strncmp.o)
 .bss           0x00000000        0x0 C:\Andestech\AndeSight211RDS\toolchains\nds32le-elf-mculib-v3m\nds32le-elf\libc\mculib\usr\lib\libc.a(lib_a-strncmp.o)
 .text          0x00000000        0x0 C:\Andestech\AndeSight211RDS\toolchains\nds32le-elf-mculib-v3m\nds32le-elf\libc\mculib\usr\lib\libc.a(lib_a-vprintf.o)
 .data          0x00000000        0x0 C:\Andestech\AndeSight211RDS\toolchains\nds32le-elf-mculib-v3m\nds32le-elf\libc\mculib\usr\lib\libc.a(lib_a-vprintf.o)
 .bss           0x00000000        0x0 C:\Andestech\AndeSight211RDS\toolchains\nds32le-elf-mculib-v3m\nds32le-elf\libc\mculib\usr\lib\libc.a(lib_a-vprintf.o)
 .text          0x00000000        0x0 C:\Andestech\AndeSight211RDS\toolchains\nds32le-elf-mculib-v3m\nds32le-elf\libc\mculib\usr\lib\libc.a(lib_a-vsprintf.o)
 .data          0x00000000        0x0 C:\Andestech\AndeSight211RDS\toolchains\nds32le-elf-mculib-v3m\nds32le-elf\libc\mculib\usr\lib\libc.a(lib_a-vsprintf.o)
 .bss           0x00000000        0x0 C:\Andestech\AndeSight211RDS\toolchains\nds32le-elf-mculib-v3m\nds32le-elf\libc\mculib\usr\lib\libc.a(lib_a-vsprintf.o)
 .text          0x00000000        0x0 C:\Andestech\AndeSight211RDS\toolchains\nds32le-elf-mculib-v3m\nds32le-elf\libc\mculib\usr\lib\libc.a(do_printf.o)
 .data          0x00000000        0x0 C:\Andestech\AndeSight211RDS\toolchains\nds32le-elf-mculib-v3m\nds32le-elf\libc\mculib\usr\lib\libc.a(do_printf.o)
 .bss           0x00000000        0x0 C:\Andestech\AndeSight211RDS\toolchains\nds32le-elf-mculib-v3m\nds32le-elf\libc\mculib\usr\lib\libc.a(do_printf.o)
 .text          0x00000000        0x0 C:\Andestech\AndeSight211RDS\toolchains\nds32le-elf-mculib-v3m\nds32le-elf\libc\mculib\usr\lib\libc.a(xint2dec.o)
 .data          0x00000000        0x0 C:\Andestech\AndeSight211RDS\toolchains\nds32le-elf-mculib-v3m\nds32le-elf\libc\mculib\usr\lib\libc.a(xint2dec.o)
 .bss           0x00000000        0x0 C:\Andestech\AndeSight211RDS\toolchains\nds32le-elf-mculib-v3m\nds32le-elf\libc\mculib\usr\lib\libc.a(xint2dec.o)
 .text          0x00000000        0x0 C:\Andestech\AndeSight211RDS\toolchains\nds32le-elf-mculib-v3m\nds32le-elf\libc\mculib\usr\lib\libc.a(lib_a-data-errno.o)
 .data          0x00000000        0x0 C:\Andestech\AndeSight211RDS\toolchains\nds32le-elf-mculib-v3m\nds32le-elf\libc\mculib\usr\lib\libc.a(lib_a-data-errno.o)
 .bss           0x00000000        0x0 C:\Andestech\AndeSight211RDS\toolchains\nds32le-elf-mculib-v3m\nds32le-elf\libc\mculib\usr\lib\libc.a(lib_a-data-errno.o)
 .text          0x00000000        0x0 C:\Andestech\AndeSight211RDS\toolchains\nds32le-elf-mculib-v3m\nds32le-elf\libc\mculib\usr\lib\libc.a(lib_a-data-stdio.o)
 .data          0x00000000        0x0 C:\Andestech\AndeSight211RDS\toolchains\nds32le-elf-mculib-v3m\nds32le-elf\libc\mculib\usr\lib\libc.a(lib_a-data-stdio.o)
 .bss           0x00000000        0x0 C:\Andestech\AndeSight211RDS\toolchains\nds32le-elf-mculib-v3m\nds32le-elf\libc\mculib\usr\lib\libc.a(lib_a-data-stdio.o)
 .data._NDS32_REENT__stdin
                0x00000000        0x0 C:\Andestech\AndeSight211RDS\toolchains\nds32le-elf-mculib-v3m\nds32le-elf\libc\mculib\usr\lib\libc.a(lib_a-data-stdio.o)
 .data._NDS32_REENT__stdout
                0x00000000        0x0 C:\Andestech\AndeSight211RDS\toolchains\nds32le-elf-mculib-v3m\nds32le-elf\libc\mculib\usr\lib\libc.a(lib_a-data-stdio.o)
 .data._NDS32_REENT__stderr
                0x00000000        0x0 C:\Andestech\AndeSight211RDS\toolchains\nds32le-elf-mculib-v3m\nds32le-elf\libc\mculib\usr\lib\libc.a(lib_a-data-stdio.o)
 COMMON         0x00000000        0x0 C:\Andestech\AndeSight211RDS\toolchains\nds32le-elf-mculib-v3m\nds32le-elf\libc\mculib\usr\lib\libc.a(lib_a-data-stdio.o)
 .text          0x00000000        0x0 C:\Andestech\AndeSight211RDS\toolchains\nds32le-elf-mculib-v3m\nds32le-elf\libc\mculib\usr\lib\libc.a(lib_a-fiprintf.o)
 .data          0x00000000        0x0 C:\Andestech\AndeSight211RDS\toolchains\nds32le-elf-mculib-v3m\nds32le-elf\libc\mculib\usr\lib\libc.a(lib_a-fiprintf.o)
 .bss           0x00000000        0x0 C:\Andestech\AndeSight211RDS\toolchains\nds32le-elf-mculib-v3m\nds32le-elf\libc\mculib\usr\lib\libc.a(lib_a-fiprintf.o)
 .text.fiprintf
                0x00000000        0x0 C:\Andestech\AndeSight211RDS\toolchains\nds32le-elf-mculib-v3m\nds32le-elf\libc\mculib\usr\lib\libc.a(lib_a-fiprintf.o)
 .text._fiprintf_r
                0x00000000        0x0 C:\Andestech\AndeSight211RDS\toolchains\nds32le-elf-mculib-v3m\nds32le-elf\libc\mculib\usr\lib\libc.a(lib_a-fiprintf.o)
 .text          0x00000000        0x0 C:\Andestech\AndeSight211RDS\toolchains\nds32le-elf-mculib-v3m\nds32le-elf\libc\mculib\usr\lib\libc.a(lib_a-mallinfor.o)
 .data          0x00000000        0x0 C:\Andestech\AndeSight211RDS\toolchains\nds32le-elf-mculib-v3m\nds32le-elf\libc\mculib\usr\lib\libc.a(lib_a-mallinfor.o)
 .bss           0x00000000        0x0 C:\Andestech\AndeSight211RDS\toolchains\nds32le-elf-mculib-v3m\nds32le-elf\libc\mculib\usr\lib\libc.a(lib_a-mallinfor.o)
 .text          0x00000000        0x0 C:\Andestech\AndeSight211RDS\toolchains\nds32le-elf-mculib-v3m\nds32le-elf\libc\mculib\usr\lib\libc.a(lib_a-malloptr.o)
 .data          0x00000000        0x0 C:\Andestech\AndeSight211RDS\toolchains\nds32le-elf-mculib-v3m\nds32le-elf\libc\mculib\usr\lib\libc.a(lib_a-malloptr.o)
 .bss           0x00000000        0x0 C:\Andestech\AndeSight211RDS\toolchains\nds32le-elf-mculib-v3m\nds32le-elf\libc\mculib\usr\lib\libc.a(lib_a-malloptr.o)
 .text._mallopt_r
                0x00000000        0x0 C:\Andestech\AndeSight211RDS\toolchains\nds32le-elf-mculib-v3m\nds32le-elf\libc\mculib\usr\lib\libc.a(lib_a-malloptr.o)
 .text          0x00000000        0x0 C:\Andestech\AndeSight211RDS\toolchains\nds32le-elf-mculib-v3m\nds32le-elf\libc\mculib\usr\lib\libc.a(lib_a-mallstatsr.o)
 .data          0x00000000        0x0 C:\Andestech\AndeSight211RDS\toolchains\nds32le-elf-mculib-v3m\nds32le-elf\libc\mculib\usr\lib\libc.a(lib_a-mallstatsr.o)
 .bss           0x00000000        0x0 C:\Andestech\AndeSight211RDS\toolchains\nds32le-elf-mculib-v3m\nds32le-elf\libc\mculib\usr\lib\libc.a(lib_a-mallstatsr.o)
 .rodata.str1.4
                0x00000000        0x0 C:\Andestech\AndeSight211RDS\toolchains\nds32le-elf-mculib-v3m\nds32le-elf\libc\mculib\usr\lib\libc.a(lib_a-mallstatsr.o)
 .text._malloc_stats_r
                0x00000000        0x0 C:\Andestech\AndeSight211RDS\toolchains\nds32le-elf-mculib-v3m\nds32le-elf\libc\mculib\usr\lib\libc.a(lib_a-mallstatsr.o)
 .text          0x00000000        0x0 C:\Andestech\AndeSight211RDS\toolchains\nds32le-elf-mculib-v3m\nds32le-elf\libc\mculib\usr\lib\libc.a(lib_a-reent_errno.o)
 .data          0x00000000        0x0 C:\Andestech\AndeSight211RDS\toolchains\nds32le-elf-mculib-v3m\nds32le-elf\libc\mculib\usr\lib\libc.a(lib_a-reent_errno.o)
 .bss           0x00000000        0x0 C:\Andestech\AndeSight211RDS\toolchains\nds32le-elf-mculib-v3m\nds32le-elf\libc\mculib\usr\lib\libc.a(lib_a-reent_errno.o)
 .text          0x00000000        0x0 C:\Andestech\AndeSight211RDS\toolchains\nds32le-elf-mculib-v3m\nds32le-elf\libc\mculib\usr\lib\libc.a(lib_a-vfiprintf.o)
 .data          0x00000000        0x0 C:\Andestech\AndeSight211RDS\toolchains\nds32le-elf-mculib-v3m\nds32le-elf\libc\mculib\usr\lib\libc.a(lib_a-vfiprintf.o)
 .bss           0x00000000        0x0 C:\Andestech\AndeSight211RDS\toolchains\nds32le-elf-mculib-v3m\nds32le-elf\libc\mculib\usr\lib\libc.a(lib_a-vfiprintf.o)
 .text.__sprint_r
                0x00000000        0x0 C:\Andestech\AndeSight211RDS\toolchains\nds32le-elf-mculib-v3m\nds32le-elf\libc\mculib\usr\lib\libc.a(lib_a-vfiprintf.o)
 .rodata.str1.4
                0x00000000        0x0 C:\Andestech\AndeSight211RDS\toolchains\nds32le-elf-mculib-v3m\nds32le-elf\libc\mculib\usr\lib\libc.a(lib_a-vfiprintf.o)
 .text._vfiprintf_r
                0x00000000        0x0 C:\Andestech\AndeSight211RDS\toolchains\nds32le-elf-mculib-v3m\nds32le-elf\libc\mculib\usr\lib\libc.a(lib_a-vfiprintf.o)
 .text.vfiprintf
                0x00000000        0x0 C:\Andestech\AndeSight211RDS\toolchains\nds32le-elf-mculib-v3m\nds32le-elf\libc\mculib\usr\lib\libc.a(lib_a-vfiprintf.o)
 .rodata.zeroes.3964
                0x00000000        0x0 C:\Andestech\AndeSight211RDS\toolchains\nds32le-elf-mculib-v3m\nds32le-elf\libc\mculib\usr\lib\libc.a(lib_a-vfiprintf.o)
 .rodata.blanks.3963
                0x00000000        0x0 C:\Andestech\AndeSight211RDS\toolchains\nds32le-elf-mculib-v3m\nds32le-elf\libc\mculib\usr\lib\libc.a(lib_a-vfiprintf.o)
 .text          0x00000000        0x0 C:\Andestech\AndeSight211RDS\toolchains\nds32le-elf-mculib-v3m\nds32le-elf\libc\mculib\usr\lib\libc.a(lib_a-wsetup.o)
 .data          0x00000000        0x0 C:\Andestech\AndeSight211RDS\toolchains\nds32le-elf-mculib-v3m\nds32le-elf\libc\mculib\usr\lib\libc.a(lib_a-wsetup.o)
 .bss           0x00000000        0x0 C:\Andestech\AndeSight211RDS\toolchains\nds32le-elf-mculib-v3m\nds32le-elf\libc\mculib\usr\lib\libc.a(lib_a-wsetup.o)
 .text.__swsetup_r
                0x00000000        0x0 C:\Andestech\AndeSight211RDS\toolchains\nds32le-elf-mculib-v3m\nds32le-elf\libc\mculib\usr\lib\libc.a(lib_a-wsetup.o)
 .text          0x00000000        0x0 C:\Andestech\AndeSight211RDS\toolchains\nds32le-elf-mculib-v3m\nds32le-elf\libc\mculib\usr\lib\libc.a(lib_a-data-findfp.o)
 .data          0x00000000        0x0 C:\Andestech\AndeSight211RDS\toolchains\nds32le-elf-mculib-v3m\nds32le-elf\libc\mculib\usr\lib\libc.a(lib_a-data-findfp.o)
 .bss           0x00000000        0x0 C:\Andestech\AndeSight211RDS\toolchains\nds32le-elf-mculib-v3m\nds32le-elf\libc\mculib\usr\lib\libc.a(lib_a-data-findfp.o)
 .bss._NDS32_REENT___sdidinit
                0x00000000        0x0 C:\Andestech\AndeSight211RDS\toolchains\nds32le-elf-mculib-v3m\nds32le-elf\libc\mculib\usr\lib\libc.a(lib_a-data-findfp.o)
 .bss._NDS32_REENT___cleanup
                0x00000000        0x0 C:\Andestech\AndeSight211RDS\toolchains\nds32le-elf-mculib-v3m\nds32le-elf\libc\mculib\usr\lib\libc.a(lib_a-data-findfp.o)
 .bss._NDS32_REENT___sglue
                0x00000000        0x0 C:\Andestech\AndeSight211RDS\toolchains\nds32le-elf-mculib-v3m\nds32le-elf\libc\mculib\usr\lib\libc.a(lib_a-data-findfp.o)
 .text          0x00000000        0x0 C:\Andestech\AndeSight211RDS\toolchains\nds32le-elf-mculib-v3m\nds32le-elf\libc\mculib\usr\lib\libc.a(lib_a-fflush.o)
 .data          0x00000000        0x0 C:\Andestech\AndeSight211RDS\toolchains\nds32le-elf-mculib-v3m\nds32le-elf\libc\mculib\usr\lib\libc.a(lib_a-fflush.o)
 .bss           0x00000000        0x0 C:\Andestech\AndeSight211RDS\toolchains\nds32le-elf-mculib-v3m\nds32le-elf\libc\mculib\usr\lib\libc.a(lib_a-fflush.o)
 .text._fflush_r
                0x00000000        0x0 C:\Andestech\AndeSight211RDS\toolchains\nds32le-elf-mculib-v3m\nds32le-elf\libc\mculib\usr\lib\libc.a(lib_a-fflush.o)
 .text.fflush   0x00000000        0x0 C:\Andestech\AndeSight211RDS\toolchains\nds32le-elf-mculib-v3m\nds32le-elf\libc\mculib\usr\lib\libc.a(lib_a-fflush.o)
 .text          0x00000000        0x0 C:\Andestech\AndeSight211RDS\toolchains\nds32le-elf-mculib-v3m\nds32le-elf\libc\mculib\usr\lib\libc.a(lib_a-findfp.o)
 .data          0x00000000        0x0 C:\Andestech\AndeSight211RDS\toolchains\nds32le-elf-mculib-v3m\nds32le-elf\libc\mculib\usr\lib\libc.a(lib_a-findfp.o)
 .bss           0x00000000        0x0 C:\Andestech\AndeSight211RDS\toolchains\nds32le-elf-mculib-v3m\nds32le-elf\libc\mculib\usr\lib\libc.a(lib_a-findfp.o)
 .text.__sfp_lock_acquire
                0x00000000        0x0 C:\Andestech\AndeSight211RDS\toolchains\nds32le-elf-mculib-v3m\nds32le-elf\libc\mculib\usr\lib\libc.a(lib_a-findfp.o)
 .text.__sfp_lock_release
                0x00000000        0x0 C:\Andestech\AndeSight211RDS\toolchains\nds32le-elf-mculib-v3m\nds32le-elf\libc\mculib\usr\lib\libc.a(lib_a-findfp.o)
 .text.__sinit_lock_acquire
                0x00000000        0x0 C:\Andestech\AndeSight211RDS\toolchains\nds32le-elf-mculib-v3m\nds32le-elf\libc\mculib\usr\lib\libc.a(lib_a-findfp.o)
 .text.__sinit_lock_release
                0x00000000        0x0 C:\Andestech\AndeSight211RDS\toolchains\nds32le-elf-mculib-v3m\nds32le-elf\libc\mculib\usr\lib\libc.a(lib_a-findfp.o)
 .text.__fp_lock
                0x00000000        0x0 C:\Andestech\AndeSight211RDS\toolchains\nds32le-elf-mculib-v3m\nds32le-elf\libc\mculib\usr\lib\libc.a(lib_a-findfp.o)
 .text.__fp_unlock
                0x00000000        0x0 C:\Andestech\AndeSight211RDS\toolchains\nds32le-elf-mculib-v3m\nds32le-elf\libc\mculib\usr\lib\libc.a(lib_a-findfp.o)
 .text.__fp_unlock_all
                0x00000000        0x0 C:\Andestech\AndeSight211RDS\toolchains\nds32le-elf-mculib-v3m\nds32le-elf\libc\mculib\usr\lib\libc.a(lib_a-findfp.o)
 .text.__fp_lock_all
                0x00000000        0x0 C:\Andestech\AndeSight211RDS\toolchains\nds32le-elf-mculib-v3m\nds32le-elf\libc\mculib\usr\lib\libc.a(lib_a-findfp.o)
 .text._cleanup_r
                0x00000000        0x0 C:\Andestech\AndeSight211RDS\toolchains\nds32le-elf-mculib-v3m\nds32le-elf\libc\mculib\usr\lib\libc.a(lib_a-findfp.o)
 .text._cleanup
                0x00000000        0x0 C:\Andestech\AndeSight211RDS\toolchains\nds32le-elf-mculib-v3m\nds32le-elf\libc\mculib\usr\lib\libc.a(lib_a-findfp.o)
 .text.std      0x00000000        0x0 C:\Andestech\AndeSight211RDS\toolchains\nds32le-elf-mculib-v3m\nds32le-elf\libc\mculib\usr\lib\libc.a(lib_a-findfp.o)
 .text.__sinit  0x00000000        0x0 C:\Andestech\AndeSight211RDS\toolchains\nds32le-elf-mculib-v3m\nds32le-elf\libc\mculib\usr\lib\libc.a(lib_a-findfp.o)
 .text.__sfmoreglue
                0x00000000        0x0 C:\Andestech\AndeSight211RDS\toolchains\nds32le-elf-mculib-v3m\nds32le-elf\libc\mculib\usr\lib\libc.a(lib_a-findfp.o)
 .text.__sfp    0x00000000        0x0 C:\Andestech\AndeSight211RDS\toolchains\nds32le-elf-mculib-v3m\nds32le-elf\libc\mculib\usr\lib\libc.a(lib_a-findfp.o)
 .text          0x00000000        0x0 C:\Andestech\AndeSight211RDS\toolchains\nds32le-elf-mculib-v3m\nds32le-elf\libc\mculib\usr\lib\libc.a(lib_a-fputwc.o)
 .data          0x00000000        0x0 C:\Andestech\AndeSight211RDS\toolchains\nds32le-elf-mculib-v3m\nds32le-elf\libc\mculib\usr\lib\libc.a(lib_a-fputwc.o)
 .bss           0x00000000        0x0 C:\Andestech\AndeSight211RDS\toolchains\nds32le-elf-mculib-v3m\nds32le-elf\libc\mculib\usr\lib\libc.a(lib_a-fputwc.o)
 .text._fputwc_r
                0x00000000        0x0 C:\Andestech\AndeSight211RDS\toolchains\nds32le-elf-mculib-v3m\nds32le-elf\libc\mculib\usr\lib\libc.a(lib_a-fputwc.o)
 .text.fputwc   0x00000000        0x0 C:\Andestech\AndeSight211RDS\toolchains\nds32le-elf-mculib-v3m\nds32le-elf\libc\mculib\usr\lib\libc.a(lib_a-fputwc.o)
 .text          0x00000000        0x0 C:\Andestech\AndeSight211RDS\toolchains\nds32le-elf-mculib-v3m\nds32le-elf\libc\mculib\usr\lib\libc.a(lib_a-fvwrite.o)
 .data          0x00000000        0x0 C:\Andestech\AndeSight211RDS\toolchains\nds32le-elf-mculib-v3m\nds32le-elf\libc\mculib\usr\lib\libc.a(lib_a-fvwrite.o)
 .bss           0x00000000        0x0 C:\Andestech\AndeSight211RDS\toolchains\nds32le-elf-mculib-v3m\nds32le-elf\libc\mculib\usr\lib\libc.a(lib_a-fvwrite.o)
 .text.__sfvwrite_r
                0x00000000        0x0 C:\Andestech\AndeSight211RDS\toolchains\nds32le-elf-mculib-v3m\nds32le-elf\libc\mculib\usr\lib\libc.a(lib_a-fvwrite.o)
 .text          0x00000000        0x0 C:\Andestech\AndeSight211RDS\toolchains\nds32le-elf-mculib-v3m\nds32le-elf\libc\mculib\usr\lib\libc.a(lib_a-fwalk.o)
 .data          0x00000000        0x0 C:\Andestech\AndeSight211RDS\toolchains\nds32le-elf-mculib-v3m\nds32le-elf\libc\mculib\usr\lib\libc.a(lib_a-fwalk.o)
 .bss           0x00000000        0x0 C:\Andestech\AndeSight211RDS\toolchains\nds32le-elf-mculib-v3m\nds32le-elf\libc\mculib\usr\lib\libc.a(lib_a-fwalk.o)
 .text._fwalk_reent
                0x00000000        0x0 C:\Andestech\AndeSight211RDS\toolchains\nds32le-elf-mculib-v3m\nds32le-elf\libc\mculib\usr\lib\libc.a(lib_a-fwalk.o)
 .text._fwalk   0x00000000        0x0 C:\Andestech\AndeSight211RDS\toolchains\nds32le-elf-mculib-v3m\nds32le-elf\libc\mculib\usr\lib\libc.a(lib_a-fwalk.o)
 .text          0x00000000        0x0 C:\Andestech\AndeSight211RDS\toolchains\nds32le-elf-mculib-v3m\nds32le-elf\libc\mculib\usr\lib\libc.a(lib_a-locale.o)
 .data          0x00000000        0x0 C:\Andestech\AndeSight211RDS\toolchains\nds32le-elf-mculib-v3m\nds32le-elf\libc\mculib\usr\lib\libc.a(lib_a-locale.o)
 .bss           0x00000000        0x0 C:\Andestech\AndeSight211RDS\toolchains\nds32le-elf-mculib-v3m\nds32le-elf\libc\mculib\usr\lib\libc.a(lib_a-locale.o)
 .text.__locale_charset
                0x00000000        0x0 C:\Andestech\AndeSight211RDS\toolchains\nds32le-elf-mculib-v3m\nds32le-elf\libc\mculib\usr\lib\libc.a(lib_a-locale.o)
 .text.__locale_msgcharset
                0x00000000        0x0 C:\Andestech\AndeSight211RDS\toolchains\nds32le-elf-mculib-v3m\nds32le-elf\libc\mculib\usr\lib\libc.a(lib_a-locale.o)
 .text.__locale_cjk_lang
                0x00000000        0x0 C:\Andestech\AndeSight211RDS\toolchains\nds32le-elf-mculib-v3m\nds32le-elf\libc\mculib\usr\lib\libc.a(lib_a-locale.o)
 .text._localeconv_r
                0x00000000        0x0 C:\Andestech\AndeSight211RDS\toolchains\nds32le-elf-mculib-v3m\nds32le-elf\libc\mculib\usr\lib\libc.a(lib_a-locale.o)
 .text.localeconv
                0x00000000        0x0 C:\Andestech\AndeSight211RDS\toolchains\nds32le-elf-mculib-v3m\nds32le-elf\libc\mculib\usr\lib\libc.a(lib_a-locale.o)
 .rodata.str1.4
                0x00000000        0x0 C:\Andestech\AndeSight211RDS\toolchains\nds32le-elf-mculib-v3m\nds32le-elf\libc\mculib\usr\lib\libc.a(lib_a-locale.o)
 .text._setlocale_r
                0x00000000        0x0 C:\Andestech\AndeSight211RDS\toolchains\nds32le-elf-mculib-v3m\nds32le-elf\libc\mculib\usr\lib\libc.a(lib_a-locale.o)
 .text.setlocale
                0x00000000        0x0 C:\Andestech\AndeSight211RDS\toolchains\nds32le-elf-mculib-v3m\nds32le-elf\libc\mculib\usr\lib\libc.a(lib_a-locale.o)
 .data.__mb_cur_max
                0x00000000        0x0 C:\Andestech\AndeSight211RDS\toolchains\nds32le-elf-mculib-v3m\nds32le-elf\libc\mculib\usr\lib\libc.a(lib_a-locale.o)
 .bss.__nlocale_changed
                0x00000000        0x0 C:\Andestech\AndeSight211RDS\toolchains\nds32le-elf-mculib-v3m\nds32le-elf\libc\mculib\usr\lib\libc.a(lib_a-locale.o)
 .bss.__mlocale_changed
                0x00000000        0x0 C:\Andestech\AndeSight211RDS\toolchains\nds32le-elf-mculib-v3m\nds32le-elf\libc\mculib\usr\lib\libc.a(lib_a-locale.o)
 .bss._PathLocale
                0x00000000        0x0 C:\Andestech\AndeSight211RDS\toolchains\nds32le-elf-mculib-v3m\nds32le-elf\libc\mculib\usr\lib\libc.a(lib_a-locale.o)
 .rodata.lconv  0x00000000        0x0 C:\Andestech\AndeSight211RDS\toolchains\nds32le-elf-mculib-v3m\nds32le-elf\libc\mculib\usr\lib\libc.a(lib_a-locale.o)
 .data.lc_message_charset
                0x00000000        0x0 C:\Andestech\AndeSight211RDS\toolchains\nds32le-elf-mculib-v3m\nds32le-elf\libc\mculib\usr\lib\libc.a(lib_a-locale.o)
 .data.lc_ctype_charset
                0x00000000        0x0 C:\Andestech\AndeSight211RDS\toolchains\nds32le-elf-mculib-v3m\nds32le-elf\libc\mculib\usr\lib\libc.a(lib_a-locale.o)
 .text          0x00000000        0x0 C:\Andestech\AndeSight211RDS\toolchains\nds32le-elf-mculib-v3m\nds32le-elf\libc\mculib\usr\lib\libc.a(lib_a-makebuf.o)
 .data          0x00000000        0x0 C:\Andestech\AndeSight211RDS\toolchains\nds32le-elf-mculib-v3m\nds32le-elf\libc\mculib\usr\lib\libc.a(lib_a-makebuf.o)
 .bss           0x00000000        0x0 C:\Andestech\AndeSight211RDS\toolchains\nds32le-elf-mculib-v3m\nds32le-elf\libc\mculib\usr\lib\libc.a(lib_a-makebuf.o)
 .text.__smakebuf_r
                0x00000000        0x0 C:\Andestech\AndeSight211RDS\toolchains\nds32le-elf-mculib-v3m\nds32le-elf\libc\mculib\usr\lib\libc.a(lib_a-makebuf.o)
 .text          0x00000000        0x0 C:\Andestech\AndeSight211RDS\toolchains\nds32le-elf-mculib-v3m\nds32le-elf\libc\mculib\usr\lib\libc.a(lib_a-memchr.o)
 .data          0x00000000        0x0 C:\Andestech\AndeSight211RDS\toolchains\nds32le-elf-mculib-v3m\nds32le-elf\libc\mculib\usr\lib\libc.a(lib_a-memchr.o)
 .bss           0x00000000        0x0 C:\Andestech\AndeSight211RDS\toolchains\nds32le-elf-mculib-v3m\nds32le-elf\libc\mculib\usr\lib\libc.a(lib_a-memchr.o)
 .text          0x00000000        0x0 C:\Andestech\AndeSight211RDS\toolchains\nds32le-elf-mculib-v3m\nds32le-elf\libc\mculib\usr\lib\libc.a(lib_a-reallocr.o)
 .data          0x00000000        0x0 C:\Andestech\AndeSight211RDS\toolchains\nds32le-elf-mculib-v3m\nds32le-elf\libc\mculib\usr\lib\libc.a(lib_a-reallocr.o)
 .bss           0x00000000        0x0 C:\Andestech\AndeSight211RDS\toolchains\nds32le-elf-mculib-v3m\nds32le-elf\libc\mculib\usr\lib\libc.a(lib_a-reallocr.o)
 .text._realloc_r
                0x00000000        0x0 C:\Andestech\AndeSight211RDS\toolchains\nds32le-elf-mculib-v3m\nds32le-elf\libc\mculib\usr\lib\libc.a(lib_a-reallocr.o)
 .text          0x00000000        0x0 C:\Andestech\AndeSight211RDS\toolchains\nds32le-elf-mculib-v3m\nds32le-elf\libc\mculib\usr\lib\libc.a(lib_a-stdio.o)
 .data          0x00000000        0x0 C:\Andestech\AndeSight211RDS\toolchains\nds32le-elf-mculib-v3m\nds32le-elf\libc\mculib\usr\lib\libc.a(lib_a-stdio.o)
 .bss           0x00000000        0x0 C:\Andestech\AndeSight211RDS\toolchains\nds32le-elf-mculib-v3m\nds32le-elf\libc\mculib\usr\lib\libc.a(lib_a-stdio.o)
 .text.__seofread
                0x00000000        0x0 C:\Andestech\AndeSight211RDS\toolchains\nds32le-elf-mculib-v3m\nds32le-elf\libc\mculib\usr\lib\libc.a(lib_a-stdio.o)
 .text.__sclose
                0x00000000        0x0 C:\Andestech\AndeSight211RDS\toolchains\nds32le-elf-mculib-v3m\nds32le-elf\libc\mculib\usr\lib\libc.a(lib_a-stdio.o)
 .text.__sseek  0x00000000        0x0 C:\Andestech\AndeSight211RDS\toolchains\nds32le-elf-mculib-v3m\nds32le-elf\libc\mculib\usr\lib\libc.a(lib_a-stdio.o)
 .text.__swrite
                0x00000000        0x0 C:\Andestech\AndeSight211RDS\toolchains\nds32le-elf-mculib-v3m\nds32le-elf\libc\mculib\usr\lib\libc.a(lib_a-stdio.o)
 .text.__sread  0x00000000        0x0 C:\Andestech\AndeSight211RDS\toolchains\nds32le-elf-mculib-v3m\nds32le-elf\libc\mculib\usr\lib\libc.a(lib_a-stdio.o)
 .text          0x00000000        0x0 C:\Andestech\AndeSight211RDS\toolchains\nds32le-elf-mculib-v3m\nds32le-elf\libc\mculib\usr\lib\libc.a(lib_a-wbuf.o)
 .data          0x00000000        0x0 C:\Andestech\AndeSight211RDS\toolchains\nds32le-elf-mculib-v3m\nds32le-elf\libc\mculib\usr\lib\libc.a(lib_a-wbuf.o)
 .bss           0x00000000        0x0 C:\Andestech\AndeSight211RDS\toolchains\nds32le-elf-mculib-v3m\nds32le-elf\libc\mculib\usr\lib\libc.a(lib_a-wbuf.o)
 .text.__swbuf_r
                0x00000000        0x0 C:\Andestech\AndeSight211RDS\toolchains\nds32le-elf-mculib-v3m\nds32le-elf\libc\mculib\usr\lib\libc.a(lib_a-wbuf.o)
 .text.__swbuf  0x00000000        0x0 C:\Andestech\AndeSight211RDS\toolchains\nds32le-elf-mculib-v3m\nds32le-elf\libc\mculib\usr\lib\libc.a(lib_a-wbuf.o)
 .text          0x00000000        0x0 C:\Andestech\AndeSight211RDS\toolchains\nds32le-elf-mculib-v3m\nds32le-elf\libc\mculib\usr\lib\libc.a(lib_a-wcrtomb.o)
 .data          0x00000000        0x0 C:\Andestech\AndeSight211RDS\toolchains\nds32le-elf-mculib-v3m\nds32le-elf\libc\mculib\usr\lib\libc.a(lib_a-wcrtomb.o)
 .bss           0x00000000        0x0 C:\Andestech\AndeSight211RDS\toolchains\nds32le-elf-mculib-v3m\nds32le-elf\libc\mculib\usr\lib\libc.a(lib_a-wcrtomb.o)
 .text._wcrtomb_r
                0x00000000        0x0 C:\Andestech\AndeSight211RDS\toolchains\nds32le-elf-mculib-v3m\nds32le-elf\libc\mculib\usr\lib\libc.a(lib_a-wcrtomb.o)
 .text.wcrtomb  0x00000000        0x0 C:\Andestech\AndeSight211RDS\toolchains\nds32le-elf-mculib-v3m\nds32le-elf\libc\mculib\usr\lib\libc.a(lib_a-wcrtomb.o)
 .text          0x00000000        0x0 C:\Andestech\AndeSight211RDS\toolchains\nds32le-elf-mculib-v3m\nds32le-elf\libc\mculib\usr\lib\libc.a(lib_a-wctomb_r.o)
 .data          0x00000000        0x0 C:\Andestech\AndeSight211RDS\toolchains\nds32le-elf-mculib-v3m\nds32le-elf\libc\mculib\usr\lib\libc.a(lib_a-wctomb_r.o)
 .bss           0x00000000        0x0 C:\Andestech\AndeSight211RDS\toolchains\nds32le-elf-mculib-v3m\nds32le-elf\libc\mculib\usr\lib\libc.a(lib_a-wctomb_r.o)
 .text.__ascii_wctomb
                0x00000000        0x0 C:\Andestech\AndeSight211RDS\toolchains\nds32le-elf-mculib-v3m\nds32le-elf\libc\mculib\usr\lib\libc.a(lib_a-wctomb_r.o)
 .text._wctomb_r
                0x00000000        0x0 C:\Andestech\AndeSight211RDS\toolchains\nds32le-elf-mculib-v3m\nds32le-elf\libc\mculib\usr\lib\libc.a(lib_a-wctomb_r.o)
 .data.__wctomb
                0x00000000        0x0 C:\Andestech\AndeSight211RDS\toolchains\nds32le-elf-mculib-v3m\nds32le-elf\libc\mculib\usr\lib\libc.a(lib_a-wctomb_r.o)
 .text          0x00000000        0x0 C:\Andestech\AndeSight211RDS\toolchains\nds32le-elf-mculib-v3m\nds32le-elf\libc\mculib\usr\lib\libc.a(lib_a-writer.o)
 .data          0x00000000        0x0 C:\Andestech\AndeSight211RDS\toolchains\nds32le-elf-mculib-v3m\nds32le-elf\libc\mculib\usr\lib\libc.a(lib_a-writer.o)
 .bss           0x00000000        0x0 C:\Andestech\AndeSight211RDS\toolchains\nds32le-elf-mculib-v3m\nds32le-elf\libc\mculib\usr\lib\libc.a(lib_a-writer.o)
 .text._write_r
                0x00000000        0x0 C:\Andestech\AndeSight211RDS\toolchains\nds32le-elf-mculib-v3m\nds32le-elf\libc\mculib\usr\lib\libc.a(lib_a-writer.o)
 .text          0x00000000        0x0 C:\Andestech\AndeSight211RDS\toolchains\nds32le-elf-mculib-v3m\nds32le-elf\libc\mculib\usr\lib\libc.a(lib_a-closer.o)
 .data          0x00000000        0x0 C:\Andestech\AndeSight211RDS\toolchains\nds32le-elf-mculib-v3m\nds32le-elf\libc\mculib\usr\lib\libc.a(lib_a-closer.o)
 .bss           0x00000000        0x0 C:\Andestech\AndeSight211RDS\toolchains\nds32le-elf-mculib-v3m\nds32le-elf\libc\mculib\usr\lib\libc.a(lib_a-closer.o)
 .text._close_r
                0x00000000        0x0 C:\Andestech\AndeSight211RDS\toolchains\nds32le-elf-mculib-v3m\nds32le-elf\libc\mculib\usr\lib\libc.a(lib_a-closer.o)
 .text          0x00000000        0x0 C:\Andestech\AndeSight211RDS\toolchains\nds32le-elf-mculib-v3m\nds32le-elf\libc\mculib\usr\lib\libc.a(lib_a-fclose.o)
 .data          0x00000000        0x0 C:\Andestech\AndeSight211RDS\toolchains\nds32le-elf-mculib-v3m\nds32le-elf\libc\mculib\usr\lib\libc.a(lib_a-fclose.o)
 .bss           0x00000000        0x0 C:\Andestech\AndeSight211RDS\toolchains\nds32le-elf-mculib-v3m\nds32le-elf\libc\mculib\usr\lib\libc.a(lib_a-fclose.o)
 .text._fclose_r
                0x00000000        0x0 C:\Andestech\AndeSight211RDS\toolchains\nds32le-elf-mculib-v3m\nds32le-elf\libc\mculib\usr\lib\libc.a(lib_a-fclose.o)
 .text.fclose   0x00000000        0x0 C:\Andestech\AndeSight211RDS\toolchains\nds32le-elf-mculib-v3m\nds32le-elf\libc\mculib\usr\lib\libc.a(lib_a-fclose.o)
 .text          0x00000000        0x0 C:\Andestech\AndeSight211RDS\toolchains\nds32le-elf-mculib-v3m\nds32le-elf\libc\mculib\usr\lib\libc.a(lib_a-fstatr.o)
 .data          0x00000000        0x0 C:\Andestech\AndeSight211RDS\toolchains\nds32le-elf-mculib-v3m\nds32le-elf\libc\mculib\usr\lib\libc.a(lib_a-fstatr.o)
 .bss           0x00000000        0x0 C:\Andestech\AndeSight211RDS\toolchains\nds32le-elf-mculib-v3m\nds32le-elf\libc\mculib\usr\lib\libc.a(lib_a-fstatr.o)
 .text._fstat_r
                0x00000000        0x0 C:\Andestech\AndeSight211RDS\toolchains\nds32le-elf-mculib-v3m\nds32le-elf\libc\mculib\usr\lib\libc.a(lib_a-fstatr.o)
 .text          0x00000000        0x0 C:\Andestech\AndeSight211RDS\toolchains\nds32le-elf-mculib-v3m\nds32le-elf\libc\mculib\usr\lib\libc.a(lib_a-isattyr.o)
 .data          0x00000000        0x0 C:\Andestech\AndeSight211RDS\toolchains\nds32le-elf-mculib-v3m\nds32le-elf\libc\mculib\usr\lib\libc.a(lib_a-isattyr.o)
 .bss           0x00000000        0x0 C:\Andestech\AndeSight211RDS\toolchains\nds32le-elf-mculib-v3m\nds32le-elf\libc\mculib\usr\lib\libc.a(lib_a-isattyr.o)
 .text._isatty_r
                0x00000000        0x0 C:\Andestech\AndeSight211RDS\toolchains\nds32le-elf-mculib-v3m\nds32le-elf\libc\mculib\usr\lib\libc.a(lib_a-isattyr.o)
 .text          0x00000000        0x0 C:\Andestech\AndeSight211RDS\toolchains\nds32le-elf-mculib-v3m\nds32le-elf\libc\mculib\usr\lib\libc.a(lib_a-lseekr.o)
 .data          0x00000000        0x0 C:\Andestech\AndeSight211RDS\toolchains\nds32le-elf-mculib-v3m\nds32le-elf\libc\mculib\usr\lib\libc.a(lib_a-lseekr.o)
 .bss           0x00000000        0x0 C:\Andestech\AndeSight211RDS\toolchains\nds32le-elf-mculib-v3m\nds32le-elf\libc\mculib\usr\lib\libc.a(lib_a-lseekr.o)
 .text._lseek_r
                0x00000000        0x0 C:\Andestech\AndeSight211RDS\toolchains\nds32le-elf-mculib-v3m\nds32le-elf\libc\mculib\usr\lib\libc.a(lib_a-lseekr.o)
 .text          0x00000000        0x0 C:\Andestech\AndeSight211RDS\toolchains\nds32le-elf-mculib-v3m\nds32le-elf\libc\mculib\usr\lib\libc.a(lib_a-readr.o)
 .data          0x00000000        0x0 C:\Andestech\AndeSight211RDS\toolchains\nds32le-elf-mculib-v3m\nds32le-elf\libc\mculib\usr\lib\libc.a(lib_a-readr.o)
 .bss           0x00000000        0x0 C:\Andestech\AndeSight211RDS\toolchains\nds32le-elf-mculib-v3m\nds32le-elf\libc\mculib\usr\lib\libc.a(lib_a-readr.o)
 .text._read_r  0x00000000        0x0 C:\Andestech\AndeSight211RDS\toolchains\nds32le-elf-mculib-v3m\nds32le-elf\libc\mculib\usr\lib\libc.a(lib_a-readr.o)
 .data          0x00000000        0x0 C:\Andestech\AndeSight211RDS\toolchains\nds32le-elf-mculib-v3m\lib\gcc\nds32le-elf\4.4.4\mculib\libgcc.a(_lshrdi3.o)
 .bss           0x00000000        0x0 C:\Andestech\AndeSight211RDS\toolchains\nds32le-elf-mculib-v3m\lib\gcc\nds32le-elf\4.4.4\mculib\libgcc.a(_lshrdi3.o)
 .data          0x00000000        0x0 C:\Andestech\AndeSight211RDS\toolchains\nds32le-elf-mculib-v3m\lib\gcc\nds32le-elf\4.4.4\mculib\libgcc.a(_ashldi3.o)
 .bss           0x00000000        0x0 C:\Andestech\AndeSight211RDS\toolchains\nds32le-elf-mculib-v3m\lib\gcc\nds32le-elf\4.4.4\mculib\libgcc.a(_ashldi3.o)
 .text          0x00000000        0x0 C:\Andestech\AndeSight211RDS\toolchains\nds32le-elf-mculib-v3m\lib\gcc\nds32le-elf\4.4.4\mculib\libgcc.a(_udivdi3.o)
 .data          0x00000000        0x0 C:\Andestech\AndeSight211RDS\toolchains\nds32le-elf-mculib-v3m\lib\gcc\nds32le-elf\4.4.4\mculib\libgcc.a(_udivdi3.o)
 .bss           0x00000000        0x0 C:\Andestech\AndeSight211RDS\toolchains\nds32le-elf-mculib-v3m\lib\gcc\nds32le-elf\4.4.4\mculib\libgcc.a(_udivdi3.o)
 .text          0x00000000        0x0 C:\Andestech\AndeSight211RDS\toolchains\nds32le-elf-mculib-v3m\lib\gcc\nds32le-elf\4.4.4\mculib\libgcc.a(_umoddi3.o)
 .data          0x00000000        0x0 C:\Andestech\AndeSight211RDS\toolchains\nds32le-elf-mculib-v3m\lib\gcc\nds32le-elf\4.4.4\mculib\libgcc.a(_umoddi3.o)
 .bss           0x00000000        0x0 C:\Andestech\AndeSight211RDS\toolchains\nds32le-elf-mculib-v3m\lib\gcc\nds32le-elf\4.4.4\mculib\libgcc.a(_umoddi3.o)
 .text          0x00000000        0x0 C:\Andestech\AndeSight211RDS\toolchains\nds32le-elf-mculib-v3m\lib\gcc\nds32le-elf\4.4.4\mculib\libgcc.a(_udivmoddi4.o)
 .data          0x00000000        0x0 C:\Andestech\AndeSight211RDS\toolchains\nds32le-elf-mculib-v3m\lib\gcc\nds32le-elf\4.4.4\mculib\libgcc.a(_udivmoddi4.o)
 .bss           0x00000000        0x0 C:\Andestech\AndeSight211RDS\toolchains\nds32le-elf-mculib-v3m\lib\gcc\nds32le-elf\4.4.4\mculib\libgcc.a(_udivmoddi4.o)
 .text          0x00000000        0x0 C:\Andestech\AndeSight211RDS\toolchains\nds32le-elf-mculib-v3m\lib\gcc\nds32le-elf\4.4.4\mculib\libgcc.a(clz.o)
 .data          0x00000000        0x0 C:\Andestech\AndeSight211RDS\toolchains\nds32le-elf-mculib-v3m\lib\gcc\nds32le-elf\4.4.4\mculib\libgcc.a(clz.o)
 .bss           0x00000000        0x0 C:\Andestech\AndeSight211RDS\toolchains\nds32le-elf-mculib-v3m\lib\gcc\nds32le-elf\4.4.4\mculib\libgcc.a(clz.o)
 .text.countLeadingZeros32
                0x00000000        0x0 C:\Andestech\AndeSight211RDS\toolchains\nds32le-elf-mculib-v3m\lib\gcc\nds32le-elf\4.4.4\mculib\libgcc.a(clz.o)
 .text          0x00000000        0x0 C:\Andestech\AndeSight211RDS\toolchains\nds32le-elf-mculib-v3m\lib\gcc\nds32le-elf\4.4.4\mculib\libgcc.a(_muldi3.o)
 .data          0x00000000        0x0 C:\Andestech\AndeSight211RDS\toolchains\nds32le-elf-mculib-v3m\lib\gcc\nds32le-elf\4.4.4\mculib\libgcc.a(_muldi3.o)
 .bss           0x00000000        0x0 C:\Andestech\AndeSight211RDS\toolchains\nds32le-elf-mculib-v3m\lib\gcc\nds32le-elf\4.4.4\mculib\libgcc.a(_muldi3.o)

Memory Configuration

Name             Origin             Length             Attributes
FLASH_DATA       0x00081000         0x0000f000         xr
FLASH_TEXT       0x00090000         0x00038000         xr
DRAM             0x00100000         0x00008000         !xr
*default*        0x00000000         0xffffffff

Linker script and memory map

LOAD /cygdrive/c/Airoha/AiroBlueSDK/AB1600_1_0_5_0/projects/SmartRemote/output/pj/components/Device/AB1600/cfg_sector.o
LOAD /cygdrive/c/Airoha/AiroBlueSDK/AB1600_1_0_5_0/projects/SmartRemote/output/pj/components/Libraries/hci_devices/hci_spi_1602.o
LOAD /cygdrive/c/Airoha/AiroBlueSDK/AB1600_1_0_5_0/projects/SmartRemote/output/pj/components/BT/release/bt_patch/1602_patching.o
LOAD /cygdrive/c/Airoha/AiroBlueSDK/AB1600_1_0_5_0/projects/SmartRemote/output/main.o
LOAD /cygdrive/c/Airoha/AiroBlueSDK/AB1600_1_0_5_0/projects/SmartRemote/output/smartRemote.o
LOAD /cygdrive/c/Airoha/AiroBlueSDK/AB1600_1_0_5_0/projects/SmartRemote/output/peripheral.o
LOAD /cygdrive/c/Airoha/AiroBlueSDK/AB1600_1_0_5_0/projects/SmartRemote/output/service.o
LOAD /cygdrive/c/Airoha/AiroBlueSDK/AB1600_1_0_5_0/projects/SmartRemote/output/board.o
LOAD /cygdrive/c/Airoha/AiroBlueSDK/AB1600_1_0_5_0/projects/SmartRemote/output/keyboard.o
LOAD /cygdrive/c/Airoha/AiroBlueSDK/AB1600_1_0_5_0/projects/SmartRemote/output/microphone.o
LOAD /cygdrive/c/Airoha/AiroBlueSDK/AB1600_1_0_5_0/projects/SmartRemote/output/vcmd.o
LOAD /cygdrive/c/Airoha/AiroBlueSDK/AB1600_1_0_5_0/projects/SmartRemote/output/led.o
LOAD /cygdrive/c/Airoha/AiroBlueSDK/AB1600_1_0_5_0/projects/SmartRemote/output/irTx.o
LOAD /cygdrive/c/Airoha/AiroBlueSDK/AB1600_1_0_5_0/projects/SmartRemote/output/irRx.o
LOAD /cygdrive/c/Airoha/AiroBlueSDK/AB1600_1_0_5_0/projects/SmartRemote/output/spl/components/Libraries/external/ADPCM/g726_enc_32.o
LOAD /cygdrive/c/Airoha/AiroBlueSDK/AB1600_1_0_5_0/projects/SmartRemote/output/spl/components/Libraries/external/ADPCM/g72x.o
LOAD /cygdrive/c/Airoha/AiroBlueSDK/AB1600_1_0_5_0/projects/SmartRemote/output/spl/components/Libraries/external/ima_adpcm/ima_enc.o
LOAD components/BT/release/hci_protocol_1602.o
                0x000802a0                _ContextSwitch = 0x802a0
                0x00080060                VECTOR6 = 0x80060
                0x00210000                UART = 0x210000
                0x000807cc                CRC16_Generate = 0x807cc
                0x00201000                CMTFLASH = 0x201000
                0x00080476                AB_DFU_get_active_code_area = 0x80476
                0x00209000                FE25519 = 0x209000
                0x0021d000                ADC = 0x21d000
                0x00080800                CRC16_Generate_LongLenth = 0x80800
                0x00001000                __DFU_SECTOR_LEN = 0x1000
                0x00080240                VECTOR36 = 0x80240
                0x00080ba0                OS_Timer32B1_Init = 0x80ba0
                0x000801b0                VECTOR27 = 0x801b0
                0x00206000                WIRE3 = 0x206000
                0x000800f0                VECTOR15 = 0x800f0
                0x001000a8                AREA2_START = 0x1000a8
                0x00080888                OS_delay_us = 0x80888
                0x000800c0                VECTOR12 = 0x800c0
                0x00223000                TMR16B1 = 0x223000
                0x000801f0                VECTOR31 = 0x801f0
                0x00080160                VECTOR22 = 0x80160
                0x00211000                UART2 = 0x211000
                0x0020c000                SMARTCARD = 0x20c000
                0x00080040                VECTOR4 = 0x80040
                0x00226000                KEYSCAN = 0x226000
                0x0008032e                SysIntrHandlerCancel = 0x8032e
                0x00204000                IOMUX = 0x204000
                0x00080020                VECTOR2 = 0x80020
                0x00202000                SERIALFLASH = 0x202000
                0x000804bc                AB_DFU_check_status = 0x804bc
                0x00084000                DFU_active_area = 0x84000
                0x001000ac                AREA1_START = 0x1000ac
                0x001000b0                CRITICAL_DEPTH = 0x1000b0
                0x00080120                VECTOR18 = 0x80120
                0x0008030e                AB_SYS_WaitIClear = 0x8030e
                0x00221000                TMR32B1 = 0x221000
                0x0008095c                SYS_3WireWrite = 0x8095c
                0x0008052c                AB_SECTOR_GetCfgParameter = 0x8052c
                0x000801c0                VECTOR28 = 0x801c0
                0x00214000                I2C = 0x214000
                0x0021c000                AUDIO = 0x21c000
                0x00080220                VECTOR34 = 0x80220
                0x00080010                VECTOR1 = 0x80010
                0x000801e0                VECTOR30 = 0x801e0
                0x00080080                VECTOR8 = 0x80080
                0x00080190                VECTOR25 = 0x80190
                0x000808aa                OS_delay_ms = 0x808aa
                0x00080280                VECTOR40 = 0x80280
                0x00203000                CODEPATCH = 0x203000
                0x000800d0                VECTOR13 = 0x800d0
                0x00080070                VECTOR7 = 0x80070
                0x001000b4                SYS_CLOCK = 0x1000b4
                0x000800a0                VECTOR10 = 0x800a0
                0x000808b8                SYS_3WireRead = 0x808b8
                0x000809f6                SYS_3WireBitWrite = 0x809f6
                0x00080270                VECTOR39 = 0x80270
                0x00080140                VECTOR20 = 0x80140
                0x00080050                VECTOR5 = 0x80050
                0x00084000                __DFU_SECTOR_ADDR = 0x84000
                0x00080250                VECTOR37 = 0x80250
                0x000803fc                FlashSecretPattern = 0x803fc
                0x00205000                PMU = 0x205000
                0x00104000                _SDA_BASE_ = 0x104000
                0x00080aa2                OS_Timer32B1_Reset = 0x80aa2
                0x00080100                VECTOR16 = 0x80100
                0x00080b4e                OS_Timer32B1_Enable = 0x80b4e
                0x0008036a                SysIntrInitialise = 0x8036a
                0x00080384                SysIntrHandlerRegister = 0x80384
                0x00218000                SPI = 0x218000
                0x00107f00                __SYS_STACK_START = 0x107f00
                0x00219000                SPI2 = 0x219000
                0x00080a10                SYS_3WireBitErase = 0x80a10
                0x00220000                TMR32B0 = 0x220000
                0x00208000                SRP = 0x208000
                0x00080200                VECTOR32 = 0x80200
                0x0008055a                AB_Apply_CfgParameter = 0x8055a
                0x001000b8                gOSTimer32B1Prescale = 0x1000b8
                0x00080170                VECTOR23 = 0x80170
                0x00222000                TMR16B0 = 0x222000
                0x00080304                AB_SYS_SetWaitI = 0x80304
                0x00080130                VECTOR19 = 0x80130
                0x0008000c                VECTOR0_2 = 0x8000c
                0x00080afc                OS_Timer32B1_Disable = 0x80afc
                0x00080030                VECTOR3 = 0x80030
                0x00080090                VECTOR9 = 0x80090
                0x000801d0                VECTOR29 = 0x801d0
                0x000806ac                SysInit = 0x806ac
                0x00080230                VECTOR35 = 0x80230
                0x000801a0                VECTOR26 = 0x801a0
                0x001000bc                PSW_SAVE = 0x1000bc
                0x000800e0                VECTOR14 = 0x800e0
                0x00080008                VECTOR0_1 = 0x80008
                0x0008083a                DRV_MCU_ClearCache = 0x8083a
                0x00080440                AB_DFU_check_area_validity = 0x80440
                0x00225000                LED = 0x225000
                0x000800b0                VECTOR11 = 0x800b0
                0x0008053e                DefaultSystemHandler = 0x8053e
                0x001000c0                _memory_top_BOOT = 0x1000c0
                0x00080150                VECTOR21 = 0x80150
                0x00200000                MCU = 0x200000
                0x00080260                VECTOR38 = 0x80260
                0x00080000                VECTOR0 = 0x80000
                0x00080400                _start_up = 0x80400
                0x00080110                VECTOR17 = 0x80110
                0x00080a56                OS_Timer32B1_ReadTC = 0x80a56
                0x00080318                SysIntrHandler = 0x80318
                0x000803fc                _SECRET_PATTERN_ADDR = 0x803fc
                0x00080210                VECTOR33 = 0x80210
                0x00080180                VECTOR24 = 0x80180
                0x00224000                WDT = 0x224000
                0x00000000                __ROM_DATA_LMA = 0x0
                0x00000000                __ROM_DATA_VMA = 0x0
                0x00000000                __ROM_DATA_LEN = 0x0
                0x00000000                __ROM_BSS_START = 0x0
                0x00000000                __ROM_BSS_LEN = 0x0

.mp_sector      0x00081000     0x1000
 *(.mp_sector)
 .mp_sector     0x00081000     0x1000 /cygdrive/c/Airoha/AiroBlueSDK/AB1600_1_0_5_0/projects/SmartRemote/output/pj/components/Device/AB1600/cfg_sector.o
                0x00081000                mp_sector

.cfg_sector     0x00082000     0x1000
 *(.cfg_sector)
 .cfg_sector    0x00082000     0x1000 /cygdrive/c/Airoha/AiroBlueSDK/AB1600_1_0_5_0/projects/SmartRemote/output/pj/components/Device/AB1600/cfg_sector.o
                0x00082000                cfg_sector

.sm_sector      0x00083000     0x1000
 *(.sm_sector)
 .sm_sector     0x00083000     0x1000 components/BT/release/\libbtcore.a(sm_hal.o)
                0x00083000                sm_data

.dfu_sector     0x00084000     0x1000
 *(.dfu_sector)
 .dfu_sector    0x00084000     0x1000 output/\lib1600.a(dfu.o)

.ap_sectors     0x00085000        0x0
 *(.ap_sector)
                0x00081000                __FLASH_DATA_START = ADDR (.mp_sector)
                0x00081000                __MP_SECTOR_ADDR = ADDR (.mp_sector)
                0x00001000                __MP_SECTOR_LEN = SIZEOF (.mp_sector)
                0x00082000                __DIS_SECTOR_ADDR = ADDR (.cfg_sector)
                0x00001000                __DIS_SECTOR_LEN = SIZEOF (.cfg_sector)
                0x00083000                __SM_SECTOR_ADDR = ADDR (.sm_sector)
                0x00001000                __SM_SECTOR_LEN = SIZEOF (.sm_sector)
                0x00084000                __DFU_SECTOR_ADDR = ADDR (.dfu_sector)
                0x00001000                __DFU_SECTOR_LEN = SIZEOF (.dfu_sector)
                0x00085000                __AP_SECTOR_ADDR = ADDR (.ap_sectors)
                0x00000000                __AP_SECTOR_LEN = SIZEOF (.ap_sectors)
                0x00085000                __FLASH_DATA_END = (ADDR (.ap_sectors) + SIZEOF (.ap_sectors))

.run_time       0x00090000       0x30
 *(.dfu_mark)
 .dfu_mark      0x00090000       0x20 /cygdrive/c/Airoha/AiroBlueSDK/AB1600_1_0_5_0/projects/SmartRemote/output/pj/components/Device/AB1600/cfg_sector.o
                0x00090000                tag
 *(.module_start)
 .module_start  0x00090020        0x4 output/\lib1600.a(ab_module.o)
                0x00090020                head
 *(.module)
 .module        0x00090024        0x4 /cygdrive/c/Airoha/AiroBlueSDK/AB1600_1_0_5_0/projects/SmartRemote/output/pj/components/Libraries/hci_devices/hci_spi_1602.o
                0x00090024                phci_builtin_ab1602
 .module        0x00090028        0x4 components/BT/release/hci_protocol_1602.o
                0x00090028                phci_h4_ab1602
 *(.module_end)
 .module_end    0x0009002c        0x4 output/\lib1600.a(ab_module.o)
                0x0009002c                end

.text           0x00090030    0x12dd8
 *(.text)
 .text          0x00090030      0x320 /cygdrive/c/Airoha/AiroBlueSDK/AB1600_1_0_5_0/projects/SmartRemote/output/spl/components/Libraries/external/ADPCM/g726_enc_32.o
                0x000901b4                adpcm_encode_proc
                0x0009020c                adpcm_encode_proc_halfrate
                0x00090060                g726_32_encoder
                0x00090030                adpcm_encode_init
 .text          0x00090350     0x14c0 /cygdrive/c/Airoha/AiroBlueSDK/AB1600_1_0_5_0/projects/SmartRemote/output/spl/components/Libraries/external/ADPCM/g72x.o
                0x0009050c                reconstruct
                0x000903b0                step_size
                0x00090350                g726_init_state
                0x00090e4c                predictor_zero
                0x000915a4                predictor_pole
                0x000903e4                quantize
                0x00090548                update
 .text          0x00091810      0x678 /cygdrive/c/Airoha/AiroBlueSDK/AB1600_1_0_5_0/projects/SmartRemote/output/spl/components/Libraries/external/ima_adpcm/ima_enc.o
                0x00091b50                ima_adpcm_encode_proc_halfrate
                0x00091810                ima_adpcm_encode_init
                0x00091834                ima_32_encoder
                0x00091928                ima_adpcm_encode_proc
 .text          0x00091e88       0x18 C:\Andestech\AndeSight211RDS\toolchains\nds32le-elf-mculib-v3m\nds32le-elf\libc\mculib\usr\lib\libc.a(lib_a-memcmp.o)
                0x00091e88                memcmp
 .text          0x00091ea0       0x14 C:\Andestech\AndeSight211RDS\toolchains\nds32le-elf-mculib-v3m\nds32le-elf\libc\mculib\usr\lib\libc.a(lib_a-memcpy.o)
                0x00091ea0                memcpy
 .text          0x00091eb4       0x2c C:\Andestech\AndeSight211RDS\toolchains\nds32le-elf-mculib-v3m\nds32le-elf\libc\mculib\usr\lib\libc.a(lib_a-memmove.o)
                0x00091eb4                memmove
 .text          0x00091ee0       0x10 C:\Andestech\AndeSight211RDS\toolchains\nds32le-elf-mculib-v3m\nds32le-elf\libc\mculib\usr\lib\libc.a(lib_a-memset.o)
                0x00091ee0                memset
 .text          0x00091ef0       0x50 C:\Andestech\AndeSight211RDS\toolchains\nds32le-elf-mculib-v3m\nds32le-elf\libc\mculib\usr\lib\libc.a(lib_a-strcmp.o)
                0x00091ef0                strcmp
 .text          0x00091f40       0x10 C:\Andestech\AndeSight211RDS\toolchains\nds32le-elf-mculib-v3m\nds32le-elf\libc\mculib\usr\lib\libc.a(lib_a-strcpy.o)
                0x00091f40                strcpy
 .text          0x00091f50        0xc C:\Andestech\AndeSight211RDS\toolchains\nds32le-elf-mculib-v3m\nds32le-elf\libc\mculib\usr\lib\libc.a(lib_a-strlen.o)
                0x00091f50                strlen
 .text          0x00091f5c       0x18 C:\Andestech\AndeSight211RDS\toolchains\nds32le-elf-mculib-v3m\nds32le-elf\libc\mculib\usr\lib\libc.a(lib_a-strncmp.o)
                0x00091f5c                strncmp
 .text          0x00091f74       0x2c C:\Andestech\AndeSight211RDS\toolchains\nds32le-elf-mculib-v3m\lib\gcc\nds32le-elf\4.4.4\mculib\libgcc.a(_lshrdi3.o)
                0x00091f74                __lshrdi3
 .text          0x00091fa0       0x2c C:\Andestech\AndeSight211RDS\toolchains\nds32le-elf-mculib-v3m\lib\gcc\nds32le-elf\4.4.4\mculib\libgcc.a(_ashldi3.o)
                0x00091fa0                __ashldi3
 *(.text.*)
 .text.hci_spi1602_check_data
                0x00091fcc       0x2c /cygdrive/c/Airoha/AiroBlueSDK/AB1600_1_0_5_0/projects/SmartRemote/output/pj/components/Libraries/hci_devices/hci_spi_1602.o
 .text.hci_spi1602_read_data
                0x00091ff8       0x46 /cygdrive/c/Airoha/AiroBlueSDK/AB1600_1_0_5_0/projects/SmartRemote/output/pj/components/Libraries/hci_devices/hci_spi_1602.o
 .text.read_trxlen_compl_int
                0x0009203e       0xdc /cygdrive/c/Airoha/AiroBlueSDK/AB1600_1_0_5_0/projects/SmartRemote/output/pj/components/Libraries/hci_devices/hci_spi_1602.o
 .text.send_tx_compl_int
                0x0009211a        0xe /cygdrive/c/Airoha/AiroBlueSDK/AB1600_1_0_5_0/projects/SmartRemote/output/pj/components/Libraries/hci_devices/hci_spi_1602.o
 .text.read_rx_compl_int
                0x00092128       0x2a /cygdrive/c/Airoha/AiroBlueSDK/AB1600_1_0_5_0/projects/SmartRemote/output/pj/components/Libraries/hci_devices/hci_spi_1602.o
 .text.data_ready_int
                0x00092152        0xe /cygdrive/c/Airoha/AiroBlueSDK/AB1600_1_0_5_0/projects/SmartRemote/output/pj/components/Libraries/hci_devices/hci_spi_1602.o
 .text.hci_spi1602_send_data
                0x00092160       0x90 /cygdrive/c/Airoha/AiroBlueSDK/AB1600_1_0_5_0/projects/SmartRemote/output/pj/components/Libraries/hci_devices/hci_spi_1602.o
 .text.hci_spi1602_deinit
                0x000921f0       0x20 /cygdrive/c/Airoha/AiroBlueSDK/AB1600_1_0_5_0/projects/SmartRemote/output/pj/components/Libraries/hci_devices/hci_spi_1602.o
 .text.hci_spi1602_init
                0x00092210       0x58 /cygdrive/c/Airoha/AiroBlueSDK/AB1600_1_0_5_0/projects/SmartRemote/output/pj/components/Libraries/hci_devices/hci_spi_1602.o
 .text.CPU_Exception
                0x00092268       0x14 /cygdrive/c/Airoha/AiroBlueSDK/AB1600_1_0_5_0/projects/SmartRemote/output/main.o
 .text.main     0x0009227c       0x86 /cygdrive/c/Airoha/AiroBlueSDK/AB1600_1_0_5_0/projects/SmartRemote/output/main.o
                0x0009227c                main
 .text.Timer_ReleaseIdleConnTimeout
                0x00092302        0xa /cygdrive/c/Airoha/AiroBlueSDK/AB1600_1_0_5_0/projects/SmartRemote/output/smartRemote.o
                0x00092302                Timer_ReleaseIdleConnTimeout
 .text.Timer_SetIdleConnTimeout
                0x0009230c       0x24 /cygdrive/c/Airoha/AiroBlueSDK/AB1600_1_0_5_0/projects/SmartRemote/output/smartRemote.o
                0x0009230c                Timer_SetIdleConnTimeout
 .text.Remote_IdleConnTimeoutCB
                0x00092330       0x14 /cygdrive/c/Airoha/AiroBlueSDK/AB1600_1_0_5_0/projects/SmartRemote/output/smartRemote.o
 .text.Remote_MainLoop
                0x00092344       0x84 /cygdrive/c/Airoha/AiroBlueSDK/AB1600_1_0_5_0/projects/SmartRemote/output/smartRemote.o
                0x00092344                Remote_MainLoop
 .text.Battery_CheckLevel
                0x000923c8       0xcc /cygdrive/c/Airoha/AiroBlueSDK/AB1600_1_0_5_0/projects/SmartRemote/output/smartRemote.o
 .text.Remote_Init
                0x00092494       0x2a /cygdrive/c/Airoha/AiroBlueSDK/AB1600_1_0_5_0/projects/SmartRemote/output/smartRemote.o
                0x00092494                Remote_Init
 .text.APP_InitBeforeBt
                0x000924be       0x16 /cygdrive/c/Airoha/AiroBlueSDK/AB1600_1_0_5_0/projects/SmartRemote/output/smartRemote.o
                0x000924be                APP_InitBeforeBt
 .text.GAP_GetGapStatus
                0x000924d4        0x8 /cygdrive/c/Airoha/AiroBlueSDK/AB1600_1_0_5_0/projects/SmartRemote/output/peripheral.o
                0x000924d4                GAP_GetGapStatus
 .text.GAP_IsLinkEncrypted
                0x000924dc        0x8 /cygdrive/c/Airoha/AiroBlueSDK/AB1600_1_0_5_0/projects/SmartRemote/output/peripheral.o
                0x000924dc                GAP_IsLinkEncrypted
 .text.GAP_IsBonded
                0x000924e4        0x8 /cygdrive/c/Airoha/AiroBlueSDK/AB1600_1_0_5_0/projects/SmartRemote/output/peripheral.o
                0x000924e4                GAP_IsBonded
 .text.GapTimer_Release
                0x000924ec        0xa /cygdrive/c/Airoha/AiroBlueSDK/AB1600_1_0_5_0/projects/SmartRemote/output/peripheral.o
                0x000924ec                GapTimer_Release
 .text.GapTimer_Set
                0x000924f6       0x14 /cygdrive/c/Airoha/AiroBlueSDK/AB1600_1_0_5_0/projects/SmartRemote/output/peripheral.o
                0x000924f6                GapTimer_Set
 .text.GAP_TerminateConnection
                0x0009250a       0x2a /cygdrive/c/Airoha/AiroBlueSDK/AB1600_1_0_5_0/projects/SmartRemote/output/peripheral.o
                0x0009250a                GAP_TerminateConnection
 .text.GAP_UpdateConnParam4OTA
                0x00092534       0x30 /cygdrive/c/Airoha/AiroBlueSDK/AB1600_1_0_5_0/projects/SmartRemote/output/peripheral.o
                0x00092534                GAP_UpdateConnParam4OTA
 .text.GAP_ConnParaUpdate_TimerHandler
                0x00092564       0x2c /cygdrive/c/Airoha/AiroBlueSDK/AB1600_1_0_5_0/projects/SmartRemote/output/peripheral.o
 .text.GAP_CheckBondingState
                0x00092590       0x34 /cygdrive/c/Airoha/AiroBlueSDK/AB1600_1_0_5_0/projects/SmartRemote/output/peripheral.o
 .text.GAP_StartAdvertising_CB
                0x000925c4       0x42 /cygdrive/c/Airoha/AiroBlueSDK/AB1600_1_0_5_0/projects/SmartRemote/output/peripheral.o
 .text.GAP_BDAddressSet_CB
                0x00092606       0x38 /cygdrive/c/Airoha/AiroBlueSDK/AB1600_1_0_5_0/projects/SmartRemote/output/peripheral.o
 .text.GAP_AdvDataSet_CB
                0x0009263e       0x38 /cygdrive/c/Airoha/AiroBlueSDK/AB1600_1_0_5_0/projects/SmartRemote/output/peripheral.o
 .text.GAP_ScanResDataSet_CB
                0x00092676       0x70 /cygdrive/c/Airoha/AiroBlueSDK/AB1600_1_0_5_0/projects/SmartRemote/output/peripheral.o
 .text.GAP_StopAdvertising_CB
                0x000926e6       0x6c /cygdrive/c/Airoha/AiroBlueSDK/AB1600_1_0_5_0/projects/SmartRemote/output/peripheral.o
 .text.GAP_AdvOvertime_TimerHandler
                0x00092752       0x24 /cygdrive/c/Airoha/AiroBlueSDK/AB1600_1_0_5_0/projects/SmartRemote/output/peripheral.o
 .text.gapRole_GapEventHandle
                0x00092776      0x2fc /cygdrive/c/Airoha/AiroBlueSDK/AB1600_1_0_5_0/projects/SmartRemote/output/peripheral.o
                0x00092776                gapRole_GapEventHandle
 .text.MP_DataInit
                0x00092a72       0x14 /cygdrive/c/Airoha/AiroBlueSDK/AB1600_1_0_5_0/projects/SmartRemote/output/peripheral.o
                0x00092a72                MP_DataInit
 .text.HOGP_SetMouseButton
                0x00092a86        0x8 /cygdrive/c/Airoha/AiroBlueSDK/AB1600_1_0_5_0/projects/SmartRemote/output/service.o
                0x00092a86                HOGP_SetMouseButton
 .text.Gas_DeviceName_Written_CB
                0x00092a8e        0x4 /cygdrive/c/Airoha/AiroBlueSDK/AB1600_1_0_5_0/projects/SmartRemote/output/service.o
 .text.HOGP_SendKeyboard
                0x00092a92       0x1a /cygdrive/c/Airoha/AiroBlueSDK/AB1600_1_0_5_0/projects/SmartRemote/output/service.o
                0x00092a92                HOGP_SendKeyboard
 .text.HOGP_SendConsumerKey
                0x00092aac       0x1a /cygdrive/c/Airoha/AiroBlueSDK/AB1600_1_0_5_0/projects/SmartRemote/output/service.o
                0x00092aac                HOGP_SendConsumerKey
 .text.HOGP_SendReport
                0x00092ac6       0x22 /cygdrive/c/Airoha/AiroBlueSDK/AB1600_1_0_5_0/projects/SmartRemote/output/service.o
                0x00092ac6                HOGP_SendReport
 .text.Voice_CodecSel_CB
                0x00092ae8       0x3c /cygdrive/c/Airoha/AiroBlueSDK/AB1600_1_0_5_0/projects/SmartRemote/output/service.o
 .text.OTA_Status_CB
                0x00092b24       0x66 /cygdrive/c/Airoha/AiroBlueSDK/AB1600_1_0_5_0/projects/SmartRemote/output/service.o
 .text.GATT_ServiceInit
                0x00092b8a      0x234 /cygdrive/c/Airoha/AiroBlueSDK/AB1600_1_0_5_0/projects/SmartRemote/output/service.o
                0x00092b8a                GATT_ServiceInit
 .text.Board_SoftResetEnable
                0x00092dbe       0x14 /cygdrive/c/Airoha/AiroBlueSDK/AB1600_1_0_5_0/projects/SmartRemote/output/board.o
                0x00092dbe                Board_SoftResetEnable
 .text.Board_DeepSleepEnable
                0x00092dd2       0x14 /cygdrive/c/Airoha/AiroBlueSDK/AB1600_1_0_5_0/projects/SmartRemote/output/board.o
                0x00092dd2                Board_DeepSleepEnable
 .text.Board_SetModuleWorkState
                0x00092de6       0x36 /cygdrive/c/Airoha/AiroBlueSDK/AB1600_1_0_5_0/projects/SmartRemote/output/board.o
                0x00092de6                Board_SetModuleWorkState
 .text.Board_GetModuelWorkState
                0x00092e1c        0x8 /cygdrive/c/Airoha/AiroBlueSDK/AB1600_1_0_5_0/projects/SmartRemote/output/board.o
                0x00092e1c                Board_GetModuelWorkState
 .text.Board_PowerManagement
                0x00092e24      0x130 /cygdrive/c/Airoha/AiroBlueSDK/AB1600_1_0_5_0/projects/SmartRemote/output/board.o
                0x00092e24                Board_PowerManagement
 .text.Board_Init
                0x00092f54       0x82 /cygdrive/c/Airoha/AiroBlueSDK/AB1600_1_0_5_0/projects/SmartRemote/output/board.o
                0x00092f54                Board_Init
 .text.Keyboard_ColumnInterruptEnable
                0x00092fd6       0x28 /cygdrive/c/Airoha/AiroBlueSDK/AB1600_1_0_5_0/projects/SmartRemote/output/keyboard.o
                0x00092fd6                Keyboard_ColumnInterruptEnable
 .text.Keyboard_Polling
                0x00092ffe      0x188 /cygdrive/c/Airoha/AiroBlueSDK/AB1600_1_0_5_0/projects/SmartRemote/output/keyboard.o
                0x00092ffe                Keyboard_Polling
 .text.Keyboard_Init
                0x00093186       0x46 /cygdrive/c/Airoha/AiroBlueSDK/AB1600_1_0_5_0/projects/SmartRemote/output/keyboard.o
                0x00093186                Keyboard_Init
 .text.Keyboard_KeyScanIntHandler
                0x000931cc      0x142 /cygdrive/c/Airoha/AiroBlueSDK/AB1600_1_0_5_0/projects/SmartRemote/output/keyboard.o
 .text.Keyboard_ComboKeyProcess
                0x0009330e       0x1c /cygdrive/c/Airoha/AiroBlueSDK/AB1600_1_0_5_0/projects/SmartRemote/output/keyboard.o
 .text.MIC_CodecSel_IMA
                0x0009332a       0x1c /cygdrive/c/Airoha/AiroBlueSDK/AB1600_1_0_5_0/projects/SmartRemote/output/microphone.o
                0x0009332a                MIC_CodecSel_IMA
 .text.MIC_CodecSel_G726
                0x00093346       0x1c /cygdrive/c/Airoha/AiroBlueSDK/AB1600_1_0_5_0/projects/SmartRemote/output/microphone.o
                0x00093346                MIC_CodecSel_G726
 .text.MIC_Polling
                0x00093362       0x18 /cygdrive/c/Airoha/AiroBlueSDK/AB1600_1_0_5_0/projects/SmartRemote/output/microphone.o
                0x00093362                MIC_Polling
 .text.MIC_Enable
                0x0009337a       0x14 /cygdrive/c/Airoha/AiroBlueSDK/AB1600_1_0_5_0/projects/SmartRemote/output/microphone.o
                0x0009337a                MIC_Enable
 .text.MIC_Disable
                0x0009338e       0x16 /cygdrive/c/Airoha/AiroBlueSDK/AB1600_1_0_5_0/projects/SmartRemote/output/microphone.o
                0x0009338e                MIC_Disable
 .text.MIC_StandbyProcess
                0x000933a4        0x4 /cygdrive/c/Airoha/AiroBlueSDK/AB1600_1_0_5_0/projects/SmartRemote/output/microphone.o
 .text.MIC_InterruptHandle
                0x000933a8       0x2c /cygdrive/c/Airoha/AiroBlueSDK/AB1600_1_0_5_0/projects/SmartRemote/output/microphone.o
 .text.MIC_WorkOvertimeCB
                0x000933d4       0x16 /cygdrive/c/Airoha/AiroBlueSDK/AB1600_1_0_5_0/projects/SmartRemote/output/microphone.o
 .text.MIC_WorkingProcess
                0x000933ea      0x112 /cygdrive/c/Airoha/AiroBlueSDK/AB1600_1_0_5_0/projects/SmartRemote/output/microphone.o
 .text.MIC_DisableProcess
                0x000934fc       0x8a /cygdrive/c/Airoha/AiroBlueSDK/AB1600_1_0_5_0/projects/SmartRemote/output/microphone.o
 .text.MIC_Init
                0x00093586       0x58 /cygdrive/c/Airoha/AiroBlueSDK/AB1600_1_0_5_0/projects/SmartRemote/output/microphone.o
                0x00093586                MIC_Init
 .text.MIC_EnableProcess
                0x000935de       0x98 /cygdrive/c/Airoha/AiroBlueSDK/AB1600_1_0_5_0/projects/SmartRemote/output/microphone.o
 .text.VCMD_MouseCalibrate_ISR
                0x00093676        0xe /cygdrive/c/Airoha/AiroBlueSDK/AB1600_1_0_5_0/projects/SmartRemote/output/vcmd.o
 .text.VCMD_Response
                0x00093684       0x50 /cygdrive/c/Airoha/AiroBlueSDK/AB1600_1_0_5_0/projects/SmartRemote/output/vcmd.o
 .text.VCMD_MouseCalibrateInLoop
                0x000936d4       0x22 /cygdrive/c/Airoha/AiroBlueSDK/AB1600_1_0_5_0/projects/SmartRemote/output/vcmd.o
                0x000936d4                VCMD_MouseCalibrateInLoop
 .text.VCMD_Handler
                0x000936f6       0x66 /cygdrive/c/Airoha/AiroBlueSDK/AB1600_1_0_5_0/projects/SmartRemote/output/vcmd.o
                0x000936f6                VCMD_Handler
 .text.LED_SetEvent
                0x0009375c       0x12 /cygdrive/c/Airoha/AiroBlueSDK/AB1600_1_0_5_0/projects/SmartRemote/output/led.o
                0x0009375c                LED_SetEvent
 .text.LED_Init
                0x0009376e       0x1a /cygdrive/c/Airoha/AiroBlueSDK/AB1600_1_0_5_0/projects/SmartRemote/output/led.o
                0x0009376e                LED_Init
 .text.IR_KeyReleased
                0x00093788       0x68 /cygdrive/c/Airoha/AiroBlueSDK/AB1600_1_0_5_0/projects/SmartRemote/output/irTx.o
                0x00093788                IR_KeyReleased
 .text.IR_Send  0x000937f0       0xec /cygdrive/c/Airoha/AiroBlueSDK/AB1600_1_0_5_0/projects/SmartRemote/output/irTx.o
                0x000937f0                IR_Send
 .text.IR_TimerHandle
                0x000938dc      0x164 /cygdrive/c/Airoha/AiroBlueSDK/AB1600_1_0_5_0/projects/SmartRemote/output/irTx.o
 .text.IRTX_Init
                0x00093a40       0x68 /cygdrive/c/Airoha/AiroBlueSDK/AB1600_1_0_5_0/projects/SmartRemote/output/irTx.o
                0x00093a40                IRTX_Init
 .text.chip_1602_is_vcmd_complete_event
                0x00093aa8       0x50 components/BT/release/hci_protocol_1602.o
 .text.chip_1602_is_boot_complete_event
                0x00093af8       0x76 components/BT/release/hci_protocol_1602.o
 .text.chip_1602_init
                0x00093b6e       0x32 components/BT/release/hci_protocol_1602.o
 .text.hci_1602_lens_ind_cb
                0x00093ba0       0x16 components/BT/release/hci_protocol_1602.o
 .text.chip_1602_send_acl_data
                0x00093bb6       0xbc components/BT/release/hci_protocol_1602.o
 .text.make_command_complete_ex
                0x00093c72       0x74 components/BT/release/hci_protocol_1602.o
 .text.make_command_complete
                0x00093ce6       0x10 components/BT/release/hci_protocol_1602.o
 .text.chip_1602_check_chip_cmd_permission
                0x00093cf6       0x36 components/BT/release/hci_protocol_1602.o
                0x00093cf6                chip_1602_check_chip_cmd_permission
 .text.chip_1602_send_hci_command
                0x00093d2c      0x18e components/BT/release/hci_protocol_1602.o
 .text.chip_1602_init_adopt_mp
                0x00093eba      0x150 components/BT/release/hci_protocol_1602.o
 .text.chip_1602_init_config
                0x0009400a      0x17e components/BT/release/hci_protocol_1602.o
 .text.chip_1602_init_sw_reset
                0x00094188       0xca components/BT/release/hci_protocol_1602.o
 .text.chip_1602_init_patching
                0x00094252      0x216 components/BT/release/hci_protocol_1602.o
 .text.hci_rx_recv
                0x00094468      0x1be components/BT/release/hci_protocol_1602.o
 .text.hci_1602_read_cfm_cb
                0x00094626       0x4e components/BT/release/hci_protocol_1602.o
 .text.AB_ADC_Init
                0x00094674       0x6a output/\lib1600.a(ab_adc.o)
                0x00094674                AB_ADC_Init
 .text.AB_ADC_Get_Voltage
                0x000946de       0x2a output/\lib1600.a(ab_adc.o)
                0x000946de                AB_ADC_Get_Voltage
 .text.AB_CLK_Switch
                0x00094708       0xec output/\lib1600.a(ab_clk.o)
                0x00094708                AB_CLK_Switch
 .text.assert_ab_callback_verbose
                0x000947f4       0x20 output/\lib1600.a(ab_assert.o)
                0x000947f4                assert_ab_callback_verbose
 .text.assert_ab_callback
                0x00094814       0x1e output/\lib1600.a(ab_assert.o)
                0x00094814                assert_ab_callback
 .text.AB_LED_stop
                0x00094832        0x8 output/\lib1600.a(ab_led.o)
                0x00094832                AB_LED_stop
 .text.AB_LED_set_rawdata
                0x0009483a       0xb0 output/\lib1600.a(ab_led.o)
                0x0009483a                AB_LED_set_rawdata
 .text.AB_LED_set_breath
                0x000948ea       0x2a output/\lib1600.a(ab_led.o)
                0x000948ea                AB_LED_set_breath
 .text.AB_LED_set_blink
                0x00094914       0x30 output/\lib1600.a(ab_led.o)
                0x00094914                AB_LED_set_blink
 .text.AB_LED_start
                0x00094944       0x12 output/\lib1600.a(ab_led.o)
                0x00094944                AB_LED_start
 .text.AB_LED_init
                0x00094956       0x38 output/\lib1600.a(ab_led.o)
                0x00094956                AB_LED_init
 .text._sbrk    0x0009498e       0x22 output/\lib1600.a(ab_malloc_hook.o)
                0x0009498e                _sbrk
 .text.free     0x000949b0       0x5a output/\lib1600.a(ab_malloc_hook.o)
                0x000949b0                free
 .text.ab_malloc_info_printf
                0x00094a0a       0x98 output/\lib1600.a(ab_malloc_hook.o)
                0x00094a0a                ab_malloc_info_printf
 .text.malloc   0x00094aa2       0x78 output/\lib1600.a(ab_malloc_hook.o)
                0x00094aa2                malloc
 .text.Ab_printf_init
                0x00094b1a        0x8 output/\lib1600.a(ab_printf_hook.o)
                0x00094b1a                Ab_printf_init
 .text.printf   0x00094b22       0x68 output/\lib1600.a(ab_printf_hook.o)
                0x00094b22                printf
 .text.nds_write
                0x00094b8a       0x18 output/\lib1600.a(ab_printf_hook.o)
                0x00094b8a                nds_write
 .text.Ab_printf_blocking
                0x00094ba2       0x92 output/\lib1600.a(ab_printf_hook.o)
                0x00094ba2                Ab_printf_blocking
 .text.putchar  0x00094c34       0x1e output/\lib1600.a(ab_printf_hook.o)
                0x00094c34                putchar
 .text.AB_PWR_GetWakeLock
                0x00094c52       0x28 output/\lib1600.a(ab_pwr.o)
                0x00094c52                AB_PWR_GetWakeLock
 .text.AB_PWR_WakeLocked
                0x00094c7a       0x12 output/\lib1600.a(ab_pwr.o)
                0x00094c7a                AB_PWR_WakeLocked
 .text.AB_PWR_WakeUnlocked
                0x00094c8c       0x14 output/\lib1600.a(ab_pwr.o)
                0x00094c8c                AB_PWR_WakeUnlocked
 .text.AB_PWR_ReturnWakeLock
                0x00094ca0       0x16 output/\lib1600.a(ab_pwr.o)
                0x00094ca0                AB_PWR_ReturnWakeLock
 .text.AB_PWR_Stanby
                0x00094cb6        0x8 output/\lib1600.a(ab_pwr.o)
                0x00094cb6                AB_PWR_Stanby
 .text.AB_PWR_Rst
                0x00094cbe        0xa output/\lib1600.a(ab_pwr.o)
                0x00094cbe                AB_PWR_Rst
 .text.AB_PWR_Sleep
                0x00094cc8       0x78 output/\lib1600.a(ab_pwr.o)
                0x00094cc8                AB_PWR_Sleep
 .text.AB_queue_push
                0x00094d40       0x34 output/\lib1600.a(ab_queue.o)
                0x00094d40                AB_queue_push
 .text.AB_queue_push_front
                0x00094d74       0x34 output/\lib1600.a(ab_queue.o)
                0x00094d74                AB_queue_push_front
 .text.AB_queue_pop
                0x00094da8       0x1a output/\lib1600.a(ab_queue.o)
                0x00094da8                AB_queue_pop
 .text.AB_queue_count
                0x00094dc2       0x18 output/\lib1600.a(ab_queue.o)
                0x00094dc2                AB_queue_count
 .text.AB_queue_entry_free
                0x00094dda       0x1a output/\lib1600.a(ab_queue.o)
                0x00094dda                AB_queue_entry_free
 .text.AB_queue_free
                0x00094df4       0x1a output/\lib1600.a(ab_queue.o)
                0x00094df4                AB_queue_free
 .text.AB_queue_entry_alloc
                0x00094e0e       0x18 output/\lib1600.a(ab_queue.o)
                0x00094e0e                AB_queue_entry_alloc
 .text.AB_queue_alloc
                0x00094e26       0x1e output/\lib1600.a(ab_queue.o)
                0x00094e26                AB_queue_alloc
 .text.AB_SECTOR_GetMpParameter
                0x00094e44      0x158 output/\lib1600.a(ab_mp_sector.o)
                0x00094e44                AB_SECTOR_GetMpParameter
 .text.alloc_spi_tran_entry
                0x00094f9c       0x52 output/\lib1600.a(ab_spi.o)
 .text.AB_SPI_WriteAndRead
                0x00094fee       0x5e output/\lib1600.a(ab_spi.o)
                0x00094fee                AB_SPI_WriteAndRead
 .text.AB_SPI_WriteThenRead
                0x0009504c       0x6a output/\lib1600.a(ab_spi.o)
                0x0009504c                AB_SPI_WriteThenRead
 .text.AB_SPI_Close
                0x000950b6       0x2c output/\lib1600.a(ab_spi.o)
                0x000950b6                AB_SPI_Close
 .text.AB_SPI_Open
                0x000950e2       0x5a output/\lib1600.a(ab_spi.o)
                0x000950e2                AB_SPI_Open
 .text.Spi_drv_complete_cb
                0x0009513c       0x62 output/\lib1600.a(ab_spi.o)
 .text.AB_BSP_initEx
                0x0009519e      0x1e0 output/\lib1600.a(bsp_generic.o)
                0x0009519e                AB_BSP_initEx
 .text.uart1_rx_ind
                0x0009537e       0x50 output/\lib1600.a(bsp_generic.o)
 .text.uart2_rx_ind
                0x000953ce       0x58 output/\lib1600.a(bsp_generic.o)
 .text.bsp_mp_uart_tx
                0x00095426       0x12 output/\lib1600.a(bsp_generic.o)
 .text.bsp_console_uart_tx
                0x00095438       0x12 output/\lib1600.a(bsp_generic.o)
 .text.bsp_bt_event_hanlder
                0x0009544a       0x3e output/\lib1600.a(bsp_generic.o)
 .text.timer32_cb
                0x00095488       0xf6 output/\lib1600.a(ab_timer.o)
 .text.AB_Timer_AlertUnset
                0x0009557e       0xb2 output/\lib1600.a(ab_timer.o)
                0x0009557e                AB_Timer_AlertUnset
 .text.AB_Timer_AlertSet
                0x00095630      0x106 output/\lib1600.a(ab_timer.o)
                0x00095630                AB_Timer_AlertSet
 .text.AB_Timer_Disable
                0x00095736       0x58 output/\lib1600.a(ab_timer.o)
                0x00095736                AB_Timer_Disable
 .text.AB_Timer_Enable_Ext
                0x0009578e       0x1e output/\lib1600.a(ab_timer.o)
                0x0009578e                AB_Timer_Enable_Ext
 .text.AB_UART_Read
                0x000957ac       0x38 output/\lib1600.a(ab_uart.o)
                0x000957ac                AB_UART_Read
 .text.AB_UART_Write
                0x000957e4       0x62 output/\lib1600.a(ab_uart.o)
                0x000957e4                AB_UART_Write
 .text.AB_UART_Close
                0x00095846       0x1c output/\lib1600.a(ab_uart.o)
                0x00095846                AB_UART_Close
 .text.AB_UART_Flush
                0x00095862        0xe output/\lib1600.a(ab_uart.o)
                0x00095862                AB_UART_Flush
 .text.AB_UART_Open
                0x00095870       0x86 output/\lib1600.a(ab_uart.o)
                0x00095870                AB_UART_Open
 .text.driver_tx_complete
                0x000958f6       0x30 output/\lib1600.a(ab_uart.o)
 .text.Send2MP  0x00095926        0xe output/\lib1600.a(ab_airoha_vcmd.o)
 .text.dev_1602_lens_ind_cb
                0x00095934       0x16 output/\lib1600.a(ab_airoha_vcmd.o)
 .text.ab_airoha_vcmd_Bdie_reset_enable
                0x0009594a        0xa output/\lib1600.a(ab_airoha_vcmd.o)
                0x0009594a                ab_airoha_vcmd_Bdie_reset_enable
 .text.ab_airoha_vcmd_extend_reg
                0x00095954        0x8 output/\lib1600.a(ab_airoha_vcmd.o)
                0x00095954                ab_airoha_vcmd_extend_reg
 .text.ab_airoha_vcmd_mp_ongoing
                0x0009595c       0x18 output/\lib1600.a(ab_airoha_vcmd.o)
                0x0009595c                ab_airoha_vcmd_mp_ongoing
 .text.ab_airoha_vcmd_compl_encode
                0x00095974       0x2a output/\lib1600.a(ab_airoha_vcmd.o)
 .text.ab_airoha_send_1byte_vcmd_compl
                0x0009599e       0x22 output/\lib1600.a(ab_airoha_vcmd.o)
 .text.ISPSwitchArea
                0x000959c0       0x22 output/\lib1600.a(ab_airoha_vcmd.o)
 .text._HC_HciRejectVCmdHdlr
                0x000959e2       0x10 output/\lib1600.a(ab_airoha_vcmd.o)
 .text.ab_airoha_vcmd34_compl_encode
                0x000959f2       0x20 output/\lib1600.a(ab_airoha_vcmd.o)
 .text.ISPWriteData
                0x00095a12       0x7c output/\lib1600.a(ab_airoha_vcmd.o)
 .text.ab_airoha_send_nbyte_vcmd_compl
                0x00095a8e       0x3a output/\lib1600.a(ab_airoha_vcmd.o)
 .text.ISPGetDeviceStatusVCmdHdlr
                0x00095ac8       0x98 output/\lib1600.a(ab_airoha_vcmd.o)
 .text.ab_airoha_send_nbyte_vcmd34_compl
                0x00095b60       0x3a output/\lib1600.a(ab_airoha_vcmd.o)
 .text.FlashReadCSRVCmdHdlr
                0x00095b9a       0x58 output/\lib1600.a(ab_airoha_vcmd.o)
 .text.ab_airoha_vcmd_dispatch
                0x00095bf2      0x13c output/\lib1600.a(ab_airoha_vcmd.o)
                0x00095bf2                ab_airoha_vcmd_dispatch
 .text.HC_HciLabTestWrThreeWiredVCmdHdlr
                0x00095d2e       0x20 output/\lib1600.a(ab_airoha_vcmd.o)
 .text.FlashReadThreeWireVCmdHdlr
                0x00095d4e       0x22 output/\lib1600.a(ab_airoha_vcmd.o)
 .text.HC_HciLabTestRdThreeWiredVCmdHdlr
                0x00095d70       0x22 output/\lib1600.a(ab_airoha_vcmd.o)
 .text.mount_1602
                0x00095d92       0x46 output/\lib1600.a(ab_airoha_vcmd.o)
 .text.HC_HciLabTestBDieCommandModeVCmdHdlr
                0x00095dd8       0x4c output/\lib1600.a(ab_airoha_vcmd.o)
 .text.ab_airoha_vcmd_enable
                0x00095e24       0x38 output/\lib1600.a(ab_airoha_vcmd.o)
                0x00095e24                ab_airoha_vcmd_enable
 .text.ab_airoha_vcmd_uart_hci_mode_enable
                0x00095e5c       0x34 output/\lib1600.a(ab_airoha_vcmd.o)
                0x00095e5c                ab_airoha_vcmd_uart_hci_mode_enable
 .text.dev_1602_read_cfm_cb
                0x00095e90       0x34 output/\lib1600.a(ab_airoha_vcmd.o)
 .text.T.37     0x00095ec4       0x24 output/\lib1600.a(ab_airoha_vcmd.o)
 .text.FlashWriteThreeWireVCmdHdlr
                0x00095ee8       0x22 output/\lib1600.a(ab_airoha_vcmd.o)
 .text.FlashWriteCSRVCmdHdlr
                0x00095f0a       0x58 output/\lib1600.a(ab_airoha_vcmd.o)
 .text.DRV_ADC_Calibration
                0x00095f62       0x5e output/\lib1600.a(drv_adc.o)
                0x00095f62                DRV_ADC_Calibration
 .text.DRV_ADC_Read
                0x00095fc0       0xa8 output/\lib1600.a(drv_adc.o)
                0x00095fc0                DRV_ADC_Read
 .text.DRV_CLK_SysSel
                0x00096068       0x58 output/\lib1600.a(drv_clk.o)
                0x00096068                DRV_CLK_SysSel
 .text.DRV_CLK_16MSel
                0x000960c0       0x1c output/\lib1600.a(drv_clk.o)
                0x000960c0                DRV_CLK_16MSel
 .text.DRV_CLK_32KSel
                0x000960dc       0x20 output/\lib1600.a(drv_clk.o)
                0x000960dc                DRV_CLK_32KSel
 .text.DRV_CLK_PLLEn
                0x000960fc       0x34 output/\lib1600.a(drv_clk.o)
                0x000960fc                DRV_CLK_PLLEn
 .text.DRV_CLK_En
                0x00096130       0xa4 output/\lib1600.a(drv_clk.o)
                0x00096130                DRV_CLK_En
 .text.DRV_CLK_Calibration
                0x000961d4       0xe2 output/\lib1600.a(drv_clk.o)
                0x000961d4                DRV_CLK_Calibration
 .text.DRV_CLK_TMR0Sel
                0x000962b6       0x30 output/\lib1600.a(drv_clk.o)
                0x000962b6                DRV_CLK_TMR0Sel
 .text.DRV_Gpio_IntrHandler
                0x000962e6       0x38 output/\lib1600.a(drv_gpio.o)
 .text.DRV_Gpio_IntDis
                0x0009631e       0x24 output/\lib1600.a(drv_gpio.o)
                0x0009631e                DRV_Gpio_IntDis
 .text.DRV_Gpio_DirSet
                0x00096342       0x22 output/\lib1600.a(drv_gpio.o)
                0x00096342                DRV_Gpio_DirSet
 .text.DRV_Gpio_ValSet
                0x00096364       0x22 output/\lib1600.a(drv_gpio.o)
                0x00096364                DRV_Gpio_ValSet
 .text.DRV_Gpio_PinValGet
                0x00096386       0x1a output/\lib1600.a(drv_gpio.o)
                0x00096386                DRV_Gpio_PinValGet
 .text.DRV_Gpio_PullSet
                0x000963a0       0x62 output/\lib1600.a(drv_gpio.o)
                0x000963a0                DRV_Gpio_PullSet
 .text.DRV_Gpio_IntEn
                0x00096402       0x36 output/\lib1600.a(drv_gpio.o)
                0x00096402                DRV_Gpio_IntEn
 .text.DRV_Gpio_IntReg
                0x00096438       0x66 output/\lib1600.a(drv_gpio.o)
                0x00096438                DRV_Gpio_IntReg
 .text.DRV_OdGpio_IeSet
                0x0009649e       0x1e output/\lib1600.a(drv_odgpio.o)
                0x0009649e                DRV_OdGpio_IeSet
 .text.DRV_KeyScan_Dis
                0x000964bc       0x20 output/\lib1600.a(drv_keyscan.o)
                0x000964bc                DRV_KeyScan_Dis
 .text.DRV_KeyScan_En
                0x000964dc       0x2e output/\lib1600.a(drv_keyscan.o)
                0x000964dc                DRV_KeyScan_En
 .text.KeyScanIsr
                0x0009650a       0x74 output/\lib1600.a(drv_keyscan.o)
 .text.DRV_KeyScan_Init
                0x0009657e       0xee output/\lib1600.a(drv_keyscan.o)
                0x0009657e                DRV_KeyScan_Init
 .text.DRV_Led_Set
                0x0009666c      0x174 output/\lib1600.a(drv_led.o)
                0x0009666c                DRV_Led_Set
 .text.DRV_Led_Start
                0x000967e0       0x18 output/\lib1600.a(drv_led.o)
                0x000967e0                DRV_Led_Start
 .text.DRV_Led_StartFollow
                0x000967f8       0x42 output/\lib1600.a(drv_led.o)
                0x000967f8                DRV_Led_StartFollow
 .text.DRV_Led_Stop
                0x0009683a       0x22 output/\lib1600.a(drv_led.o)
                0x0009683a                DRV_Led_Stop
 .text.MIC_IntHandler
                0x0009685c       0x40 output/\lib1600.a(drv_mic.o)
                0x0009685c                MIC_IntHandler
 .text.DRV_Mic_Disable
                0x0009689c       0x42 output/\lib1600.a(drv_mic.o)
                0x0009689c                DRV_Mic_Disable
 .text.DRV_Mic_Enable
                0x000968de       0x36 output/\lib1600.a(drv_mic.o)
                0x000968de                DRV_Mic_Enable
 .text.DRV_Mic_Init
                0x00096914       0xb2 output/\lib1600.a(drv_mic.o)
                0x00096914                DRV_Mic_Init
 .text.DRV_OdPinMux_GrpSet
                0x000969c6       0x50 output/\lib1600.a(drv_odpinmux.o)
                0x000969c6                DRV_OdPinMux_GrpSet
 .text.DRV_OdPinMux_SigSet
                0x00096a16       0x3a output/\lib1600.a(drv_odpinmux.o)
                0x00096a16                DRV_OdPinMux_SigSet
 .text.set_aio  0x00096a50       0x66 output/\lib1600.a(drv_pinmux.o)
 .text.DRV_PinMux_GrpSet
                0x00096ab6      0x134 output/\lib1600.a(drv_pinmux.o)
                0x00096ab6                DRV_PinMux_GrpSet
 .text.DRV_PinMux_SigSet
                0x00096bea       0x8e output/\lib1600.a(drv_pinmux.o)
                0x00096bea                DRV_PinMux_SigSet
 .text.DRV_Pwr_EnterMode
                0x00096c78       0x7c output/\lib1600.a(drv_pwr.o)
                0x00096c78                DRV_Pwr_EnterMode
 .text.DRV_Pwr_BootFrom
                0x00096cf4       0xce output/\lib1600.a(drv_pwr.o)
                0x00096cf4                DRV_Pwr_BootFrom
 .text.SPI1_InterruptHandler
                0x00096dc2       0x40 output/\lib1600.a(drv_spi.o)
 .text.SPI2_InterruptHandler
                0x00096e02       0x40 output/\lib1600.a(drv_spi.o)
 .text.DRV_SPI_Deinit
                0x00096e42       0x20 output/\lib1600.a(drv_spi.o)
                0x00096e42                DRV_SPI_Deinit
 .text.DRV_SPI_WriteRead
                0x00096e62       0xa0 output/\lib1600.a(drv_spi.o)
                0x00096e62                DRV_SPI_WriteRead
 .text.DRV_SPI_IsReady
                0x00096f02       0x10 output/\lib1600.a(drv_spi.o)
                0x00096f02                DRV_SPI_IsReady
 .text.DRV_SPI_ChangeDuplex
                0x00096f12       0x28 output/\lib1600.a(drv_spi.o)
                0x00096f12                DRV_SPI_ChangeDuplex
 .text.DRV_SPI_Int
                0x00096f3a       0x60 output/\lib1600.a(drv_spi.o)
                0x00096f3a                DRV_SPI_Int
 .text.DRV_SPI_Init
                0x00096f9a      0x184 output/\lib1600.a(drv_spi.o)
                0x00096f9a                DRV_SPI_Init
 .text.Timer32B0InterruptHandler
                0x0009711e       0xde output/\lib1600.a(drv_timer32b0.o)
 .text.DRV_TMR32B0_Disable
                0x000971fc       0x18 output/\lib1600.a(drv_timer32b0.o)
                0x000971fc                DRV_TMR32B0_Disable
 .text.DRV_TMR32B0_TickGet
                0x00097214        0xc output/\lib1600.a(drv_timer32b0.o)
                0x00097214                DRV_TMR32B0_TickGet
 .text.DRV_TMR32B0_NotifyEnable
                0x00097220       0xb0 output/\lib1600.a(drv_timer32b0.o)
                0x00097220                DRV_TMR32B0_NotifyEnable
 .text.DRV_TMR32B0_NotifyDisable
                0x000972d0       0x86 output/\lib1600.a(drv_timer32b0.o)
                0x000972d0                DRV_TMR32B0_NotifyDisable
 .text.DRV_TMR32B0_Enable
                0x00097356       0x2c output/\lib1600.a(drv_timer32b0.o)
                0x00097356                DRV_TMR32B0_Enable
 .text.DRV_Uart_SetBaud
                0x00097382       0xc6 output/\lib1600.a(drv_uart.o)
                0x00097382                DRV_Uart_SetBaud
 .text.DRV_Uart_Recidue
                0x00097448       0x1a output/\lib1600.a(drv_uart.o)
                0x00097448                DRV_Uart_Recidue
 .text.DRV_Uart_IsIdle
                0x00097462       0x2e output/\lib1600.a(drv_uart.o)
                0x00097462                DRV_Uart_IsIdle
 .text.DRV_Uart_IntDis
                0x00097490       0x34 output/\lib1600.a(drv_uart.o)
                0x00097490                DRV_Uart_IntDis
 .text.DRV_Uart_IntEn
                0x000974c4       0x30 output/\lib1600.a(drv_uart.o)
                0x000974c4                DRV_Uart_IntEn
 .text.DRV_Uart_Flush
                0x000974f4      0x11a output/\lib1600.a(drv_uart.o)
                0x000974f4                DRV_Uart_Flush
 .text.DRV_Uart_Write
                0x0009760e       0xdc output/\lib1600.a(drv_uart.o)
                0x0009760e                DRV_Uart_Write
 .text.DRV_Uart_Read
                0x000976ea      0x104 output/\lib1600.a(drv_uart.o)
                0x000976ea                DRV_Uart_Read
 .text.DRV_Uart_Drop
                0x000977ee      0x106 output/\lib1600.a(drv_uart.o)
                0x000977ee                DRV_Uart_Drop
 .text.UART2_RxDmaHandler
                0x000978f4       0x6e output/\lib1600.a(drv_uart.o)
 .text.UART2InterruptHandler
                0x00097962       0x64 output/\lib1600.a(drv_uart.o)
 .text.UART_RxDmaHandler
                0x000979c6       0xc8 output/\lib1600.a(drv_uart.o)
 .text.UARTInterruptHandler
                0x00097a8e       0x62 output/\lib1600.a(drv_uart.o)
 .text.DRV_Uart_Deinit
                0x00097af0       0x70 output/\lib1600.a(drv_uart.o)
                0x00097af0                DRV_Uart_Deinit
 .text.DRV_Uart_Init
                0x00097b60      0x1d0 output/\lib1600.a(drv_uart.o)
                0x00097b60                DRV_Uart_Init
 .text.DRV_WDT_Kick
                0x00097d30       0x1c output/\lib1600.a(drv_wdt.o)
                0x00097d30                DRV_WDT_Kick
 .text.DRV_WDT_Enable
                0x00097d4c       0x62 output/\lib1600.a(drv_wdt.o)
                0x00097d4c                DRV_WDT_Enable
 .text.wdt_int  0x00097dae        0xc output/\lib1600.a(drv_wdt.o)
 .text.BAS_update_battery_level
                0x00097dba       0x1e output/\lib1600.a(service_battery.o)
                0x00097dba                BAS_update_battery_level
 .text.BAS_init
                0x00097dd8       0xb0 output/\lib1600.a(service_battery.o)
                0x00097dd8                BAS_init
 .text.OTA_change_permission
                0x00097e88       0x16 output/\lib1600.a(service_device_firmware_update_OTA.o)
                0x00097e88                OTA_change_permission
 .text.OTA_init
                0x00097e9e       0xaa output/\lib1600.a(service_device_firmware_update_OTA.o)
                0x00097e9e                OTA_init
 .text._OTA_read_bootcode_ver
                0x00097f48       0x48 output/\lib1600.a(service_device_firmware_update_OTA.o)
                0x00097f48                _OTA_read_bootcode_ver
 .text._OTA_change_area
                0x00097f90       0x42 output/\lib1600.a(service_device_firmware_update_OTA.o)
                0x00097f90                _OTA_change_area
 .text._OTA_write_flash
                0x00097fd2      0x110 output/\lib1600.a(service_device_firmware_update_OTA.o)
                0x00097fd2                _OTA_write_flash
 .text._OTA_erase_flash
                0x000980e2       0xb0 output/\lib1600.a(service_device_firmware_update_OTA.o)
                0x000980e2                _OTA_erase_flash
 .text._OTA_read_status_ex
                0x00098192       0xc0 output/\lib1600.a(service_device_firmware_update_OTA.o)
                0x00098192                _OTA_read_status_ex
 .text._OTA_read_status
                0x00098252       0xbc output/\lib1600.a(service_device_firmware_update_OTA.o)
                0x00098252                _OTA_read_status
 .text._OTA_command_CB
                0x0009830e       0x7a output/\lib1600.a(service_device_firmware_update_OTA.o)
                0x0009830e                _OTA_command_CB
 .text._dis_add_char
                0x00098388       0x4e output/\lib1600.a(service_device_information.o)
 .text.DIS_init
                0x000983d6       0x9e output/\lib1600.a(service_device_information.o)
                0x000983d6                DIS_init
 .text.GAS_init
                0x00098474      0x128 output/\lib1600.a(service_generic_access.o)
                0x00098474                GAS_init
 .text.GATT_init
                0x0009859c       0x9a output/\lib1600.a(service_generic_attribute.o)
                0x0009859c                GATT_init
 .text.HIDS_add_report
                0x00098636       0xd8 output/\lib1600.a(service_human_interface_device.o)
                0x00098636                HIDS_add_report
 .text.HIDS_init
                0x0009870e      0x146 output/\lib1600.a(service_human_interface_device.o)
                0x0009870e                HIDS_init
 .text.AB_console_handle
                0x00098854       0x24 output/\lib1600.a(console.o)
                0x00098854                AB_console_handle
 .text.AB_console_init
                0x00098878       0x70 output/\lib1600.a(console.o)
                0x00098878                AB_console_init
 .text.shell_parse_line
                0x000988e8       0x8a output/\lib1600.a(shell.o)
 .text.shell_history_save
                0x00098972       0x42 output/\lib1600.a(shell.o)
 .text.shell_find_cmd
                0x000989b4       0x4a output/\lib1600.a(shell.o)
 .text.shell_printf
                0x000989fe       0x2e output/\lib1600.a(shell.o)
 .text.shell_history_search
                0x00098a2c       0xe0 output/\lib1600.a(shell.o)
 .text.shell_show_title
                0x00098b0c      0x3a8 output/\lib1600.a(shell.o)
 .text.AB_shell_main_loop
                0x00098eb4      0x692 output/\lib1600.a(shell.o)
                0x00098eb4                AB_shell_main_loop
 .text.AB_shell_main_title
                0x00099546       0x38 output/\lib1600.a(shell.o)
                0x00099546                AB_shell_main_title
 .text.exceptf  0x0009957e        0xe output/\lib1600.a(ab_debug.o)
 .text.AB_Debug_CpuExceptionMonitor
                0x0009958c       0x78 output/\lib1600.a(ab_debug.o)
                0x0009958c                AB_Debug_CpuExceptionMonitor
 .text.exception8
                0x00099604       0x14 output/\lib1600.a(ab_debug.o)
 .text.exception7
                0x00099618       0x14 output/\lib1600.a(ab_debug.o)
 .text.exception6
                0x0009962c       0x14 output/\lib1600.a(ab_debug.o)
 .text.exception5
                0x00099640       0x14 output/\lib1600.a(ab_debug.o)
 .text.exception4
                0x00099654       0x14 output/\lib1600.a(ab_debug.o)
 .text.exception3
                0x00099668       0x14 output/\lib1600.a(ab_debug.o)
 .text.exception2
                0x0009967c       0x14 output/\lib1600.a(ab_debug.o)
 .text.exception1
                0x00099690       0x14 output/\lib1600.a(ab_debug.o)
 .text.AB_DFU_set_active_code_area
                0x000996a4       0xda output/\lib1600.a(dfu.o)
                0x000996a4                AB_DFU_set_active_code_area
 .text.AB_DFU_write_flash
                0x0009977e       0x16 output/\lib1600.a(dfu.o)
                0x0009977e                AB_DFU_write_flash
 .text.AB_DFU_erase_flash
                0x00099794       0x2c output/\lib1600.a(dfu.o)
                0x00099794                AB_DFU_erase_flash
 .text.ab_modue_enum
                0x000997c0       0x1e output/\lib1600.a(ab_module.o)
 .text.AB_module_count
                0x000997de       0x40 output/\lib1600.a(ab_module.o)
                0x000997de                AB_module_count
 .text.AB_module_get
                0x0009981e       0x24 output/\lib1600.a(ab_module.o)
                0x0009981e                AB_module_get
 .text.SERIALFLASH_SetPatternAndStart
                0x00099842       0x1e output/\lib1600.a(drv_flash.o)
 .text._MXIC_WB_Flash_WaitForReady
                0x00099860       0x50 output/\lib1600.a(drv_flash.o)
 .text.DRV_Flash_ByteProgram
                0x000998b0      0x104 output/\lib1600.a(drv_flash.o)
                0x000998b0                DRV_Flash_ByteProgram
 .text.DRV_Flash_PageProgram
                0x000999b4      0x1ac output/\lib1600.a(drv_flash.o)
                0x000999b4                DRV_Flash_PageProgram
 .text.Drv_Flash_BlockSectorErase
                0x00099b60       0x72 output/\lib1600.a(drv_flash.o)
 .text.DRV_Flash_Block_64KB_Erase
                0x00099bd2        0xa output/\lib1600.a(drv_flash.o)
                0x00099bd2                DRV_Flash_Block_64KB_Erase
 .text.DRV_Flash_Block_32KB_Erase
                0x00099bdc        0xa output/\lib1600.a(drv_flash.o)
                0x00099bdc                DRV_Flash_Block_32KB_Erase
 .text.DRV_Flash_SectorErase
                0x00099be6        0xa output/\lib1600.a(drv_flash.o)
                0x00099be6                DRV_Flash_SectorErase
 .text.hci_h4_decode
                0x00099bf0      0x172 components/BT/release/\libbtcore.a(hci_h4_parser.o)
                0x00099bf0                hci_h4_decode
 .text.hci_h4_encode_dat
                0x00099d62       0x42 components/BT/release/\libbtcore.a(hci_h4_parser.o)
                0x00099d62                hci_h4_encode_dat
 .text.hci_h4_encode_cmd
                0x00099da4       0x3c components/BT/release/\libbtcore.a(hci_h4_parser.o)
                0x00099da4                hci_h4_encode_cmd
 .text.bt_infom_ap
                0x00099de0        0xc components/BT/release/\libbtcore.a(bt.o)
                0x00099de0                bt_infom_ap
 .text.BT_Log_Enable
                0x00099dec        0xa components/BT/release/\libbtcore.a(bt.o)
                0x00099dec                BT_Log_Enable
 .text.BT_Pause_Tx
                0x00099df6        0xa components/BT/release/\libbtcore.a(bt.o)
                0x00099df6                BT_Pause_Tx
 .text.BT_Pending_TxCnt
                0x00099e00        0x8 components/BT/release/\libbtcore.a(bt.o)
                0x00099e00                BT_Pending_TxCnt
 .text.BT_InitEx2
                0x00099e08      0x174 components/BT/release/\libbtcore.a(bt.o)
                0x00099e08                BT_InitEx2
 .text.hci_init_done
                0x00099f7c       0x2e components/BT/release/\libbtcore.a(bt.o)
 .text.bt_init_read_buf_size
                0x00099faa       0x90 components/BT/release/\libbtcore.a(bt.o)
 .text.ble_gap_disconnect
                0x0009a03a       0x28 components/BT/release/\libbtcore.a(ble_gap.o)
                0x0009a03a                ble_gap_disconnect
 .text.generic_status_complete_cb
                0x0009a062       0x24 components/BT/release/\libbtcore.a(ble_gap.o)
 .text.generic_encrypt_cb
                0x0009a086       0x16 components/BT/release/\libbtcore.a(ble_gap.o)
 .text.generic_conn_update_cb
                0x0009a09c       0x16 components/BT/release/\libbtcore.a(ble_gap.o)
 .text.generic_disconnect_cb
                0x0009a0b2       0x16 components/BT/release/\libbtcore.a(ble_gap.o)
 .text.ble_gap_init
                0x0009a0c8       0x3a components/BT/release/\libbtcore.a(ble_gap.o)
                0x0009a0c8                ble_gap_init
 .text.ble_gap_adv_stop
                0x0009a102       0x24 components/BT/release/\libbtcore.a(ble_gap.o)
                0x0009a102                ble_gap_adv_stop
 .text.set_adv_parm_cb
                0x0009a126       0x2c components/BT/release/\libbtcore.a(ble_gap.o)
 .text.gap_init_cb
                0x0009a152       0x44 components/BT/release/\libbtcore.a(ble_gap.o)
 .text.generic_complete_cb
                0x0009a196       0xb8 components/BT/release/\libbtcore.a(ble_gap.o)
 .text.ble_gap_start_encrypt
                0x0009a24e       0x2c components/BT/release/\libbtcore.a(ble_gap.o)
                0x0009a24e                ble_gap_start_encrypt
 .text.ble_gap_address_set
                0x0009a27a       0x92 components/BT/release/\libbtcore.a(ble_gap.o)
                0x0009a27a                ble_gap_address_set
 .text.ble_gap_conn_param_update
                0x0009a30c       0x8c components/BT/release/\libbtcore.a(ble_gap.o)
                0x0009a30c                ble_gap_conn_param_update
 .text.ble_gap_adv_start
                0x0009a398       0xc8 components/BT/release/\libbtcore.a(ble_gap.o)
                0x0009a398                ble_gap_adv_start
 .text.ble_gap_scan_data_set
                0x0009a460       0x40 components/BT/release/\libbtcore.a(ble_gap.o)
                0x0009a460                ble_gap_scan_data_set
 .text.ble_gap_adv_data_set
                0x0009a4a0       0x40 components/BT/release/\libbtcore.a(ble_gap.o)
                0x0009a4a0                ble_gap_adv_data_set
 .text.ble_gap_event_handler
                0x0009a4e0      0x228 components/BT/release/\libbtcore.a(ble_gap.o)
                0x0009a4e0                ble_gap_event_handler
 .text.ble_gap_link_GetAttr_OwnerType
                0x0009a708       0x16 components/BT/release/\libbtcore.a(ble_gap_links.o)
                0x0009a708                ble_gap_link_GetAttr_OwnerType
 .text.ble_gap_link_GetAttr_OwnerAddr
                0x0009a71e       0x1e components/BT/release/\libbtcore.a(ble_gap_links.o)
                0x0009a71e                ble_gap_link_GetAttr_OwnerAddr
 .text.ble_gap_link_GetAttr_Handle
                0x0009a73c       0x26 components/BT/release/\libbtcore.a(ble_gap_links.o)
                0x0009a73c                ble_gap_link_GetAttr_Handle
 .text.ble_gap_link_GetIdx_ByHandle
                0x0009a762       0x30 components/BT/release/\libbtcore.a(ble_gap_links.o)
                0x0009a762                ble_gap_link_GetIdx_ByHandle
 .text.ble_gap_link_GetAttr_BdAddr
                0x0009a792       0x14 components/BT/release/\libbtcore.a(ble_gap_links.o)
                0x0009a792                ble_gap_link_GetAttr_BdAddr
 .text.ble_gap_link_GetAttr_BdAddrType
                0x0009a7a6       0x14 components/BT/release/\libbtcore.a(ble_gap_links.o)
                0x0009a7a6                ble_gap_link_GetAttr_BdAddrType
 .text.ble_gap_link_GetIdx_Empty
                0x0009a7ba       0x1e components/BT/release/\libbtcore.a(ble_gap_links.o)
                0x0009a7ba                ble_gap_link_GetIdx_Empty
 .text.ble_gap_link_SetAttr_Auth
                0x0009a7d8       0x16 components/BT/release/\libbtcore.a(ble_gap_links.o)
                0x0009a7d8                ble_gap_link_SetAttr_Auth
 .text.ble_gap_link_GetAttr_Auth
                0x0009a7ee       0x16 components/BT/release/\libbtcore.a(ble_gap_links.o)
                0x0009a7ee                ble_gap_link_GetAttr_Auth
 .text.ble_gap_link_SetAttr_Enc
                0x0009a804       0x16 components/BT/release/\libbtcore.a(ble_gap_links.o)
                0x0009a804                ble_gap_link_SetAttr_Enc
 .text.ble_gap_link_GetAttr_Enc
                0x0009a81a       0x16 components/BT/release/\libbtcore.a(ble_gap_links.o)
                0x0009a81a                ble_gap_link_GetAttr_Enc
 .text.ble_gap_link_SetAttr_State
                0x0009a830       0x16 components/BT/release/\libbtcore.a(ble_gap_links.o)
                0x0009a830                ble_gap_link_SetAttr_State
 .text.ble_gap_link_Del
                0x0009a846       0x1e components/BT/release/\libbtcore.a(ble_gap_links.o)
                0x0009a846                ble_gap_link_Del
 .text.ble_gap_link_Add
                0x0009a864       0x1c components/BT/release/\libbtcore.a(ble_gap_links.o)
                0x0009a864                ble_gap_link_Add
 .text.ble_gap_link_GetAttr_Role
                0x0009a880       0x14 components/BT/release/\libbtcore.a(ble_gap_links.o)
                0x0009a880                ble_gap_link_GetAttr_Role
 .text.ble_gap_link_SetAttr_Data
                0x0009a894       0x28 components/BT/release/\libbtcore.a(ble_gap_links.o)
                0x0009a894                ble_gap_link_SetAttr_Data
 .text.ble_gap_link_GetAttr_Data
                0x0009a8bc       0x30 components/BT/release/\libbtcore.a(ble_gap_links.o)
                0x0009a8bc                ble_gap_link_GetAttr_Data
 .text.ble_gap_link_GetIdx_ByBdAddr
                0x0009a8ec       0x30 components/BT/release/\libbtcore.a(ble_gap_links.o)
                0x0009a8ec                ble_gap_link_GetIdx_ByBdAddr
 .text.ble_gap_link_Add_Ex
                0x0009a91c       0x68 components/BT/release/\libbtcore.a(ble_gap_links.o)
                0x0009a91c                ble_gap_link_Add_Ex
 .text.ble_gap_link_Is_ValidAddr
                0x0009a984       0x12 components/BT/release/\libbtcore.a(ble_gap_links.o)
                0x0009a984                ble_gap_link_Is_ValidAddr
 .text.BLE_gap_sm_init
                0x0009a996        0x8 components/BT/release/\libbtcore.a(ble_gap_sm.o)
                0x0009a996                BLE_gap_sm_init
 .text.BLE_gap_sm_get_last_paired_device
                0x0009a99e        0x8 components/BT/release/\libbtcore.a(ble_gap_sm.o)
                0x0009a99e                BLE_gap_sm_get_last_paired_device
 .text.BLE_gap_sm_delete_paired_record
                0x0009a9a6        0xa components/BT/release/\libbtcore.a(ble_gap_sm.o)
                0x0009a9a6                BLE_gap_sm_delete_paired_record
 .text.BLE_gap_sm_set_security_param
                0x0009a9b0       0x38 components/BT/release/\libbtcore.a(ble_gap_sm.o)
                0x0009a9b0                BLE_gap_sm_set_security_param
 .text.BLE_gap_sm_disconnected
                0x0009a9e8        0xe components/BT/release/\libbtcore.a(ble_gap_sm.o)
                0x0009a9e8                BLE_gap_sm_disconnected
 .text.BLE_gap_sm_set_link_auth
                0x0009a9f6       0x3e components/BT/release/\libbtcore.a(ble_gap_sm.o)
                0x0009a9f6                BLE_gap_sm_set_link_auth
 .text.BLE_gap_sm_authenticate
                0x0009aa34       0x2e components/BT/release/\libbtcore.a(ble_gap_sm.o)
                0x0009aa34                BLE_gap_sm_authenticate
 .text.BLE_gap_sm_encryption_change
                0x0009aa62       0x4e components/BT/release/\libbtcore.a(ble_gap_sm.o)
                0x0009aa62                BLE_gap_sm_encryption_change
 .text.BLE_gap_sm_ltk_request
                0x0009aab0       0x1c components/BT/release/\libbtcore.a(ble_gap_sm.o)
                0x0009aab0                BLE_gap_sm_ltk_request
 .text.BLE_gap_sm_gen_dhkey_complete
                0x0009aacc        0x8 components/BT/release/\libbtcore.a(ble_gap_sm.o)
                0x0009aacc                BLE_gap_sm_gen_dhkey_complete
 .text.BLE_gap_sm_read_public_key_complete
                0x0009aad4        0x8 components/BT/release/\libbtcore.a(ble_gap_sm.o)
                0x0009aad4                BLE_gap_sm_read_public_key_complete
 .text.l2cap_find_cidcb
                0x0009aadc       0x28 components/BT/release/\libbtcore.a(ble_l2cap.o)
 .text.l2cap_notify
                0x0009ab04       0x30 components/BT/release/\libbtcore.a(ble_l2cap.o)
                0x0009ab04                l2cap_notify
 .text.l2cap_pdu_dispatch
                0x0009ab34       0x24 components/BT/release/\libbtcore.a(ble_l2cap.o)
                0x0009ab34                l2cap_pdu_dispatch
 .text.BLE_l2cap_cid_register
                0x0009ab58       0x16 components/BT/release/\libbtcore.a(ble_l2cap.o)
                0x0009ab58                BLE_l2cap_cid_register
 .text.l2cap_init
                0x0009ab6e       0x12 components/BT/release/\libbtcore.a(ble_l2cap.o)
                0x0009ab6e                l2cap_init
 .text.l2cap_hci_fragment
                0x0009ab80       0x4e components/BT/release/\libbtcore.a(ble_l2cap.o)
                0x0009ab80                l2cap_hci_fragment
 .text.l2cap_hci_recombine
                0x0009abce      0x1d4 components/BT/release/\libbtcore.a(ble_l2cap.o)
                0x0009abce                l2cap_hci_recombine
 .text.l2cap_lesig_error_rsp
                0x0009ada2       0x32 components/BT/release/\libbtcore.a(l2cap_le_sig.o)
                0x0009ada2                l2cap_lesig_error_rsp
 .text.l2cap_lesig_conn_param_update_req
                0x0009add4       0x2c components/BT/release/\libbtcore.a(l2cap_le_sig.o)
                0x0009add4                l2cap_lesig_conn_param_update_req
 .text.l2cap_lesig_init
                0x0009ae00       0x12 components/BT/release/\libbtcore.a(l2cap_le_sig.o)
                0x0009ae00                l2cap_lesig_init
 .text.le_sig_cid_evt_cb
                0x0009ae12       0xa6 components/BT/release/\libbtcore.a(l2cap_le_sig.o)
                0x0009ae12                le_sig_cid_evt_cb
 .text.ATT_UnknownPduHadler
                0x0009aeb8        0x4 components/BT/release/\libbtcore.a(ble_att.o)
 .text.ATT_transaction_timeout_cb
                0x0009aebc       0x1a components/BT/release/\libbtcore.a(ble_att.o)
                0x0009aebc                ATT_transaction_timeout_cb
 .text.ATT_is_in_transaction
                0x0009aed6       0x10 components/BT/release/\libbtcore.a(ble_att.o)
                0x0009aed6                ATT_is_in_transaction
 .text.ATT_BinarySearchIndexByHandle
                0x0009aee6       0x5e components/BT/release/\libbtcore.a(ble_att.o)
 .text.ATT_CheckHandle
                0x0009af44       0x18 components/BT/release/\libbtcore.a(ble_att.o)
 .text.ATT_CALLBACK
                0x0009af5c       0x32 components/BT/release/\libbtcore.a(ble_att.o)
 .text.ATT_ReturnGroupEndIndex
                0x0009af8e       0x66 components/BT/release/\libbtcore.a(ble_att.o)
 .text.ATT_SetU16LE
                0x0009aff4        0xc components/BT/release/\libbtcore.a(ble_att.o)
                0x0009aff4                ATT_SetU16LE
 .text.ATT_GetU16LE
                0x0009b000       0x10 components/BT/release/\libbtcore.a(ble_att.o)
                0x0009b000                ATT_GetU16LE
 .text.BLE_att_get_attribute_length
                0x0009b010       0x2a components/BT/release/\libbtcore.a(ble_att.o)
                0x0009b010                BLE_att_get_attribute_length
 .text.ATT_ConvertToUUID128
                0x0009b03a       0x36 components/BT/release/\libbtcore.a(ble_att.o)
 .text.ATT_ReleasePWQ
                0x0009b070       0x2a components/BT/release/\libbtcore.a(ble_att.o)
 .text.ATT_AllocRspDataPdu
                0x0009b09a       0x28 components/BT/release/\libbtcore.a(ble_att.o)
 .text.ATT_CheckAccessPermission
                0x0009b0c2       0x70 components/BT/release/\libbtcore.a(ble_att.o)
 .text.ATT_CheckWritePermission
                0x0009b132       0x20 components/BT/release/\libbtcore.a(ble_att.o)
 .text.ATT_CheckReadPermission
                0x0009b152       0x1e components/BT/release/\libbtcore.a(ble_att.o)
 .text.ATT_IsSameValue
                0x0009b170        0xe components/BT/release/\libbtcore.a(ble_att.o)
 .text.BLE_att_set_attribute_length
                0x0009b17e       0x7c components/BT/release/\libbtcore.a(ble_att.o)
                0x0009b17e                BLE_att_set_attribute_length
 .text.ATT_end_transaction
                0x0009b1fa       0x26 components/BT/release/\libbtcore.a(ble_att.o)
                0x0009b1fa                ATT_end_transaction
 .text.ATT_ServerGetConfirmation
                0x0009b220       0x26 components/BT/release/\libbtcore.a(ble_att.o)
 .text.ATT_start_transaction
                0x0009b246       0x34 components/BT/release/\libbtcore.a(ble_att.o)
                0x0009b246                ATT_start_transaction
 .text.ATT_SendPduToL2CAP
                0x0009b27a       0x12 components/BT/release/\libbtcore.a(ble_att.o)
                0x0009b27a                ATT_SendPduToL2CAP
 .text.ATT_SendErrorRsp
                0x0009b28c       0x26 components/BT/release/\libbtcore.a(ble_att.o)
 .text.ATT_ServerGetExecuteWriteReq
                0x0009b2b2       0xde components/BT/release/\libbtcore.a(ble_att.o)
 .text.ATT_ServerGetPrepareWriteReq
                0x0009b390       0xb2 components/BT/release/\libbtcore.a(ble_att.o)
 .text.ATT_ServerGetWriteMux
                0x0009b442       0xf0 components/BT/release/\libbtcore.a(ble_att.o)
 .text.ATT_ServerGetReadByGroupTypeReq
                0x0009b532      0x18c components/BT/release/\libbtcore.a(ble_att.o)
 .text.ATT_ServerGetReadMultiReq
                0x0009b6be       0xfa components/BT/release/\libbtcore.a(ble_att.o)
 .text.ATT_ServerGetReadBlobReq
                0x0009b7b8       0xfa components/BT/release/\libbtcore.a(ble_att.o)
 .text.ATT_ServerGetReadValueReq
                0x0009b8b2       0xaa components/BT/release/\libbtcore.a(ble_att.o)
 .text.ATT_ServerGetReadByTypeReq
                0x0009b95c      0x222 components/BT/release/\libbtcore.a(ble_att.o)
 .text.ATT_ServerGetFindByTypeValueReq
                0x0009bb7e      0x160 components/BT/release/\libbtcore.a(ble_att.o)
 .text.ATT_ServerGetFindInfoReq
                0x0009bcde      0x1a0 components/BT/release/\libbtcore.a(ble_att.o)
 .text.ATT_ServerGetMtuExchangeReq
                0x0009be7e       0x76 components/BT/release/\libbtcore.a(ble_att.o)
 .text.ATT_HandleValueReportMux
                0x0009bef4       0xc2 components/BT/release/\libbtcore.a(ble_att.o)
                0x0009bef4                ATT_HandleValueReportMux
 .text.att_init
                0x0009bfb6       0x3e components/BT/release/\libbtcore.a(ble_att.o)
                0x0009bfb6                att_init
 .text.ATT_cid_evt_cb
                0x0009bff4       0xf4 components/BT/release/\libbtcore.a(ble_att.o)
                0x0009bff4                ATT_cid_evt_cb
 .text._ble_cccd_common_cb
                0x0009c0e8       0xe0 components/BT/release/\libbtcore.a(ble_gatt_server.o)
                0x0009c0e8                _ble_cccd_common_cb
 .text._ble_gatt_charact_notify_indicate
                0x0009c1c8       0x7c components/BT/release/\libbtcore.a(ble_gatt_server.o)
                0x0009c1c8                _ble_gatt_charact_notify_indicate
 .text.BLE_gatt_charact_notify
                0x0009c244       0x5c components/BT/release/\libbtcore.a(ble_gatt_server.o)
                0x0009c244                BLE_gatt_charact_notify
 .text._ble_gatt_set_uuid
                0x0009c2a0       0x48 components/BT/release/\libbtcore.a(ble_gatt_server.o)
                0x0009c2a0                _ble_gatt_set_uuid
 .text._ble_gatt_new_attribute
                0x0009c2e8       0xc8 components/BT/release/\libbtcore.a(ble_gatt_server.o)
                0x0009c2e8                _ble_gatt_new_attribute
 .text.BLE_gatt_add_charact
                0x0009c3b0       0xfa components/BT/release/\libbtcore.a(ble_gatt_server.o)
                0x0009c3b0                BLE_gatt_add_charact
 .text.BLE_gatt_add_include
                0x0009c4aa      0x102 components/BT/release/\libbtcore.a(ble_gatt_server.o)
                0x0009c4aa                BLE_gatt_add_include
 .text.BLE_gatt_add_service
                0x0009c5ac       0x5e components/BT/release/\libbtcore.a(ble_gatt_server.o)
                0x0009c5ac                BLE_gatt_add_service
 .text._ble_gatt_hook_cccd_and_char
                0x0009c60a       0xb4 components/BT/release/\libbtcore.a(ble_gatt_server.o)
                0x0009c60a                _ble_gatt_hook_cccd_and_char
 .text._ble_gatt_check_cccd
                0x0009c6be       0x64 components/BT/release/\libbtcore.a(ble_gatt_server.o)
                0x0009c6be                _ble_gatt_check_cccd
 .text.BLE_gatt_add_descrip
                0x0009c722       0x3c components/BT/release/\libbtcore.a(ble_gatt_server.o)
                0x0009c722                BLE_gatt_add_descrip
 .text.ATT_Client_GetHandleValueReport
                0x0009c75e       0x8c components/BT/release/\libbtcore.a(ble_gatt_client.o)
                0x0009c75e                ATT_Client_GetHandleValueReport
 .text.SM_GetPairingMethodByRole
                0x0009c7ea       0x22 components/BT/release/\libbtcore.a(sm.o)
                0x0009c7ea                SM_GetPairingMethodByRole
 .text.SM_GetPairingMethod
                0x0009c80c       0x56 components/BT/release/\libbtcore.a(sm.o)
                0x0009c80c                SM_GetPairingMethod
 .text.sm_init  0x0009c862       0x1c components/BT/release/\libbtcore.a(sm.o)
                0x0009c862                sm_init
 .text.SM_FinishPairing
                0x0009c87e       0x7c components/BT/release/\libbtcore.a(sm.o)
                0x0009c87e                SM_FinishPairing
 .text.SM_PairingFailed
                0x0009c8fa       0x1c components/BT/release/\libbtcore.a(sm.o)
                0x0009c8fa                SM_PairingFailed
 .text.SM_SetKeySize
                0x0009c916       0x3c components/BT/release/\libbtcore.a(sm.o)
                0x0009c916                SM_SetKeySize
 .text.SM_StartKeyDistribution
                0x0009c952       0xfc components/BT/release/\libbtcore.a(sm.o)
                0x0009c952                SM_StartKeyDistribution
 .text.SM_WaitKeyDistribution
                0x0009ca4e       0x7a components/BT/release/\libbtcore.a(sm.o)
                0x0009ca4e                SM_WaitKeyDistribution
 .text.SM_LinkDisconnected
                0x0009cac8       0x20 components/BT/release/\libbtcore.a(sm.o)
                0x0009cac8                SM_LinkDisconnected
 .text.SM_CryptoTool_16Byte_XOR
                0x0009cae8       0x1a components/BT/release/\libbtcore.a(sm_cryptotool.o)
 .text.SM_CryptoTool_LeftShiftOneBit
                0x0009cb02       0x28 components/BT/release/\libbtcore.a(sm_cryptotool.o)
 .text.SM_CryptoTool_init
                0x0009cb2a       0x2a components/BT/release/\libbtcore.a(sm_cryptotool.o)
                0x0009cb2a                SM_CryptoTool_init
 .text.f5_finish
                0x0009cb54       0x28 components/BT/release/\libbtcore.a(sm_cryptotool.o)
                0x0009cb54                f5_finish
 .text.f5_generate_ltk_cb
                0x0009cb7c       0x14 components/BT/release/\libbtcore.a(sm_cryptotool.o)
 .text.cmac_finish
                0x0009cb90       0x54 components/BT/release/\libbtcore.a(sm_cryptotool.o)
                0x0009cb90                cmac_finish
 .text.g2_generate_cb
                0x0009cbe4       0x3a components/BT/release/\libbtcore.a(sm_cryptotool.o)
                0x0009cbe4                g2_generate_cb
 .text.ah_generate_cb
                0x0009cc1e       0x34 components/BT/release/\libbtcore.a(sm_cryptotool.o)
                0x0009cc1e                ah_generate_cb
 .text.SM_CryptoTool_ReadLocalP256PublicKeyComplete
                0x0009cc52       0x3c components/BT/release/\libbtcore.a(sm_cryptotool.o)
                0x0009cc52                SM_CryptoTool_ReadLocalP256PublicKeyComplete
 .text.SM_CryptoTool_AES_Cipher
                0x0009cc8e       0x34 components/BT/release/\libbtcore.a(sm_cryptotool.o)
 .text.cmac_generate_SubKey
                0x0009ccc2       0x64 components/BT/release/\libbtcore.a(sm_cryptotool.o)
                0x0009ccc2                cmac_generate_SubKey
 .text.cmac_1   0x0009cd26       0xb2 components/BT/release/\libbtcore.a(sm_cryptotool.o)
                0x0009cd26                cmac_1
 .text.cmac_start
                0x0009cdd8       0x3a components/BT/release/\libbtcore.a(sm_cryptotool.o)
                0x0009cdd8                cmac_start
 .text.AES_CMAC
                0x0009ce12       0x5a components/BT/release/\libbtcore.a(sm_cryptotool.o)
 .text.g2       0x0009ce6c       0x76 components/BT/release/\libbtcore.a(sm_cryptotool.o)
                0x0009ce6c                g2
 .text.f6       0x0009cee2       0x8e components/BT/release/\libbtcore.a(sm_cryptotool.o)
                0x0009cee2                f6
 .text.f5       0x0009cf70       0xb2 components/BT/release/\libbtcore.a(sm_cryptotool.o)
                0x0009cf70                f5
 .text.f5_generate_t_cb
                0x0009d022       0x62 components/BT/release/\libbtcore.a(sm_cryptotool.o)
 .text.f5_generate_mac_key_cb
                0x0009d084       0x52 components/BT/release/\libbtcore.a(sm_cryptotool.o)
 .text.f4       0x0009d0d6       0x66 components/BT/release/\libbtcore.a(sm_cryptotool.o)
                0x0009d0d6                f4
 .text.cmac_generate_SubKey_cb
                0x0009d13c       0x4e components/BT/release/\libbtcore.a(sm_cryptotool.o)
 .text.cmac_1_cb
                0x0009d18a       0x3c components/BT/release/\libbtcore.a(sm_cryptotool.o)
 .text.s1       0x0009d1c6       0x5a components/BT/release/\libbtcore.a(sm_cryptotool.o)
                0x0009d1c6                s1
 .text.c1_2     0x0009d220       0x56 components/BT/release/\libbtcore.a(sm_cryptotool.o)
                0x0009d220                c1_2
 .text.c1_1     0x0009d276       0x56 components/BT/release/\libbtcore.a(sm_cryptotool.o)
                0x0009d276                c1_1
 .text.ah       0x0009d2cc       0x60 components/BT/release/\libbtcore.a(sm_cryptotool.o)
                0x0009d2cc                ah
 .text.SM_CryptoTool_GenerateDHKey
                0x0009d32c       0x5a components/BT/release/\libbtcore.a(sm_cryptotool.o)
                0x0009d32c                SM_CryptoTool_GenerateDHKey
 .text.SM_CryptoTool_ReadLocalP256PublicKey
                0x0009d386       0x66 components/BT/release/\libbtcore.a(sm_cryptotool.o)
                0x0009d386                SM_CryptoTool_ReadLocalP256PublicKey
 .text.SM_CryptoTool_CommandStatus
                0x0009d3ec       0x48 components/BT/release/\libbtcore.a(sm_cryptotool.o)
 .text.SM_CryptoTool_GenerateDHKeyComplete
                0x0009d434       0x22 components/BT/release/\libbtcore.a(sm_cryptotool.o)
                0x0009d434                SM_CryptoTool_GenerateDHKeyComplete
 .text.SM_CryptoTool_SendLTKNegativeReply
                0x0009d456       0x14 components/BT/release/\libbtcore.a(sm_cryptotool.o)
                0x0009d456                SM_CryptoTool_SendLTKNegativeReply
 .text.SM_CryptoTool_SendLTKReply
                0x0009d46a       0x1e components/BT/release/\libbtcore.a(sm_cryptotool.o)
                0x0009d46a                SM_CryptoTool_SendLTKReply
 .text.sm_hal_flash_get_paired_device_count
                0x0009d488       0x2c components/BT/release/\libbtcore.a(sm_hal.o)
                0x0009d488                sm_hal_flash_get_paired_device_count
 .text.sm_hal_flash_get_last_paired_device
                0x0009d4b4       0x4c components/BT/release/\libbtcore.a(sm_hal.o)
                0x0009d4b4                sm_hal_flash_get_last_paired_device
 .text.sm_hal_flash_isDevice_bonded
                0x0009d500       0x74 components/BT/release/\libbtcore.a(sm_hal.o)
                0x0009d500                sm_hal_flash_isDevice_bonded
 .text.sm_hal_flash_delete_paired_record
                0x0009d574       0x9c components/BT/release/\libbtcore.a(sm_hal.o)
                0x0009d574                sm_hal_flash_delete_paired_record
 .text.sm_hal_flash_load_data
                0x0009d610       0x56 components/BT/release/\libbtcore.a(sm_hal.o)
                0x0009d610                sm_hal_flash_load_data
 .text.sm_hal_protocol_cmd_factory
                0x0009d666       0x10 components/BT/release/\libbtcore.a(sm_hal.o)
                0x0009d666                sm_hal_protocol_cmd_factory
 .text.sm_hal_flash_check_master_info
                0x0009d676      0x188 components/BT/release/\libbtcore.a(sm_hal.o)
 .text.sm_hal_flash_get_ltk
                0x0009d7fe       0x48 components/BT/release/\libbtcore.a(sm_hal.o)
                0x0009d7fe                sm_hal_flash_get_ltk
 .text.SM_hal_flash_ah_cb
                0x0009d846       0xba components/BT/release/\libbtcore.a(sm_hal.o)
                0x0009d846                SM_hal_flash_ah_cb
 .text.sm_hal_cryptoTool_hci_cmd_complete
                0x0009d900       0x2c components/BT/release/\libbtcore.a(sm_hal.o)
 .text.sm_hal_flash_reset_data
                0x0009d92c       0x44 components/BT/release/\libbtcore.a(sm_hal.o)
                0x0009d92c                sm_hal_flash_reset_data
 .text.sm_hal_flash_init_data
                0x0009d970       0x18 components/BT/release/\libbtcore.a(sm_hal.o)
                0x0009d970                sm_hal_flash_init_data
 .text.sm_hal_flash_save_data
                0x0009d988      0x252 components/BT/release/\libbtcore.a(sm_hal.o)
                0x0009d988                sm_hal_flash_save_data
 .text.sm_hal_cryptoTool_hci_send_cmd_ex
                0x0009dbda       0x16 components/BT/release/\libbtcore.a(sm_hal.o)
                0x0009dbda                sm_hal_cryptoTool_hci_send_cmd_ex
 .text.sm_hal_cryptoTool_hci_send_cmd
                0x0009dbf0       0x14 components/BT/release/\libbtcore.a(sm_hal.o)
                0x0009dbf0                sm_hal_cryptoTool_hci_send_cmd
 .text.sm_hal_cryptoTool_init
                0x0009dc04       0x20 components/BT/release/\libbtcore.a(sm_hal.o)
                0x0009dc04                sm_hal_cryptoTool_init
 .text.sm_hal_protocol_init
                0x0009dc24       0x12 components/BT/release/\libbtcore.a(sm_hal.o)
                0x0009dc24                sm_hal_protocol_init
 .text.sm_hal_init
                0x0009dc36       0x18 components/BT/release/\libbtcore.a(sm_hal.o)
                0x0009dc36                sm_hal_init
 .text.sm_hal_protocol_cid_evt_cb
                0x0009dc4e       0x12 components/BT/release/\libbtcore.a(sm_hal.o)
 .text.sm_hal_protocol_send_l2cap_packet
                0x0009dc60       0x18 components/BT/release/\libbtcore.a(sm_hal.o)
                0x0009dc60                sm_hal_protocol_send_l2cap_packet
 .text.sm_hal_infom_auth_status
                0x0009dc78       0x20 components/BT/release/\libbtcore.a(sm_hal.o)
                0x0009dc78                sm_hal_infom_auth_status
 .text.sm_hal_infom_conn_sec_update
                0x0009dc98       0x20 components/BT/release/\libbtcore.a(sm_hal.o)
                0x0009dc98                sm_hal_infom_conn_sec_update
 .text.sm_hal_infom_recv_security_req
                0x0009dcb8       0x2e components/BT/release/\libbtcore.a(sm_hal.o)
                0x0009dcb8                sm_hal_infom_recv_security_req
 .text.sm_hal_infom_passkey_input_req
                0x0009dce6       0x22 components/BT/release/\libbtcore.a(sm_hal.o)
                0x0009dce6                sm_hal_infom_passkey_input_req
 .text.sm_hal_infom_passkey_display_req
                0x0009dd08       0x26 components/BT/release/\libbtcore.a(sm_hal.o)
                0x0009dd08                sm_hal_infom_passkey_display_req
 .text.sm_hal_infom_set_sec_param_req
                0x0009dd2e       0x1c components/BT/release/\libbtcore.a(sm_hal.o)
                0x0009dd2e                sm_hal_infom_set_sec_param_req
 .text.sm_hal_release_timer
                0x0009dd4a        0xa components/BT/release/\libbtcore.a(sm_hal.o)
                0x0009dd4a                sm_hal_release_timer
 .text.sm_hal_set_timer
                0x0009dd54       0x18 components/BT/release/\libbtcore.a(sm_hal.o)
                0x0009dd54                sm_hal_set_timer
 .text.sm_hal_timer_handler
                0x0009dd6c       0x2c components/BT/release/\libbtcore.a(sm_hal.o)
                0x0009dd6c                sm_hal_timer_handler
 .text.sm_hal_get_random_number
                0x0009dd98        0xa components/BT/release/\libbtcore.a(sm_hal.o)
                0x0009dd98                sm_hal_get_random_number
 .text.sm_hal_set_link_encrypted
                0x0009dda2        0xc components/BT/release/\libbtcore.a(sm_hal.o)
                0x0009dda2                sm_hal_set_link_encrypted
 .text.sm_hal_set_link_authenticated
                0x0009ddae        0xc components/BT/release/\libbtcore.a(sm_hal.o)
                0x0009ddae                sm_hal_set_link_authenticated
 .text.sm_hal_get_local_addr_Type
                0x0009ddba       0x10 components/BT/release/\libbtcore.a(sm_hal.o)
                0x0009ddba                sm_hal_get_local_addr_Type
 .text.sm_hal_get_local_addr
                0x0009ddca       0x12 components/BT/release/\libbtcore.a(sm_hal.o)
                0x0009ddca                sm_hal_get_local_addr
 .text.SM_Protocol_RegisterCallback
                0x0009dddc        0xe components/BT/release/\libbtcore.a(sm_protocol.o)
                0x0009dddc                SM_Protocol_RegisterCallback
 .text.SM_Protocol_L2capEventHandler
                0x0009ddea       0x24 components/BT/release/\libbtcore.a(sm_protocol.o)
                0x0009ddea                SM_Protocol_L2capEventHandler
 .text.SM_Protocol_PairingDHKeyCheck
                0x0009de0e       0x28 components/BT/release/\libbtcore.a(sm_protocol.o)
                0x0009de0e                SM_Protocol_PairingDHKeyCheck
 .text.SM_Protocol_PairingPublicKey
                0x0009de36       0x2e components/BT/release/\libbtcore.a(sm_protocol.o)
                0x0009de36                SM_Protocol_PairingPublicKey
 .text.SM_Protocol_PairingRequest
                0x0009de64       0x28 components/BT/release/\libbtcore.a(sm_protocol.o)
                0x0009de64                SM_Protocol_PairingRequest
 .text.SM_Protocol_SecurityRequest
                0x0009de8c       0x36 components/BT/release/\libbtcore.a(sm_protocol.o)
                0x0009de8c                SM_Protocol_SecurityRequest
 .text.SM_Protocol_SigningInfo
                0x0009dec2       0x34 components/BT/release/\libbtcore.a(sm_protocol.o)
                0x0009dec2                SM_Protocol_SigningInfo
 .text.SM_Protocol_IdentityInfo
                0x0009def6       0x34 components/BT/release/\libbtcore.a(sm_protocol.o)
                0x0009def6                SM_Protocol_IdentityInfo
 .text.SM_Protocol_MasterID
                0x0009df2a       0x34 components/BT/release/\libbtcore.a(sm_protocol.o)
                0x0009df2a                SM_Protocol_MasterID
 .text.SM_Protocol_EncryptionInfo
                0x0009df5e       0x34 components/BT/release/\libbtcore.a(sm_protocol.o)
                0x0009df5e                SM_Protocol_EncryptionInfo
 .text.SM_Protocol_PairingRandom
                0x0009df92       0x34 components/BT/release/\libbtcore.a(sm_protocol.o)
                0x0009df92                SM_Protocol_PairingRandom
 .text.SM_Protocol_PairingConfirm
                0x0009dfc6       0x34 components/BT/release/\libbtcore.a(sm_protocol.o)
                0x0009dfc6                SM_Protocol_PairingConfirm
 .text.SM_Protocol_PairingResponse
                0x0009dffa       0x34 components/BT/release/\libbtcore.a(sm_protocol.o)
                0x0009dffa                SM_Protocol_PairingResponse
 .text.SM_Protocol_IdentityAddressInfo
                0x0009e02e       0x82 components/BT/release/\libbtcore.a(sm_protocol.o)
                0x0009e02e                SM_Protocol_IdentityAddressInfo
 .text.SM_Protocol_PairingFailed
                0x0009e0b0      0x130 components/BT/release/\libbtcore.a(sm_protocol.o)
                0x0009e0b0                SM_Protocol_PairingFailed
 .text.SM_Slave_generate_DHKey_handler
                0x0009e1e0       0x34 components/BT/release/\libbtcore.a(sm_slave.o)
 .text.SM_Slave_f5_mac_handler
                0x0009e214       0x1e components/BT/release/\libbtcore.a(sm_slave.o)
 .text.SM_Slave_IdentityInformationHandler
                0x0009e232       0x14 components/BT/release/\libbtcore.a(sm_slave.o)
 .text.SM_Slave_EncryptionInformationHandler
                0x0009e246       0x14 components/BT/release/\libbtcore.a(sm_slave.o)
 .text.SM_Slave_check_Ea
                0x0009e25a       0x90 components/BT/release/\libbtcore.a(sm_slave.o)
 .text.SM_Slave_PairingDHKeyCheckHandler
                0x0009e2ea       0x42 components/BT/release/\libbtcore.a(sm_slave.o)
 .text.SM_Slave_f6_Eb_handler
                0x0009e32c       0x38 components/BT/release/\libbtcore.a(sm_slave.o)
 .text.SM_Slave_f5_ltk_handler
                0x0009e364       0xb2 components/BT/release/\libbtcore.a(sm_slave.o)
 .text.SM_Slave_f6_Ea_handler
                0x0009e416       0x40 components/BT/release/\libbtcore.a(sm_slave.o)
 .text.SM_Slave_PairingPublicKeyHandler
                0x0009e456       0x3e components/BT/release/\libbtcore.a(sm_slave.o)
 .text.SM_Slave_read_local_public_key_handler
                0x0009e494       0x34 components/BT/release/\libbtcore.a(sm_slave.o)
 .text.SM_Slave_SC_Unsupported
                0x0009e4c8       0x10 components/BT/release/\libbtcore.a(sm_slave.o)
 .text.SM_Slave_UnsupportedHandler
                0x0009e4d8       0x10 components/BT/release/\libbtcore.a(sm_slave.o)
 .text.SM_Slave_g2_handler
                0x0009e4e8       0x2c components/BT/release/\libbtcore.a(sm_slave.o)
 .text.SM_Slave_SC_rbValuePasskeyDisplay
                0x0009e514       0x82 components/BT/release/\libbtcore.a(sm_slave.o)
 .text.SM_Slave_SC_rbValueJustWork
                0x0009e596       0x28 components/BT/release/\libbtcore.a(sm_slave.o)
 .text.SM_Slave_f4_JW_handler
                0x0009e5be       0x26 components/BT/release/\libbtcore.a(sm_slave.o)
 .text.SM_Slave_PairingConfirmHandler
                0x0009e5e4       0x3e components/BT/release/\libbtcore.a(sm_slave.o)
 .text.SM_Slave_f5
                0x0009e622       0x72 components/BT/release/\libbtcore.a(sm_slave.o)
 .text.SM_Slave_f4_PKE_handler
                0x0009e694       0xd0 components/BT/release/\libbtcore.a(sm_slave.o)
 .text.SM_Slave_TKValueOOB
                0x0009e764       0x22 components/BT/release/\libbtcore.a(sm_slave.o)
 .text.SM_Slave_TKValuePasskeyInput
                0x0009e786       0x22 components/BT/release/\libbtcore.a(sm_slave.o)
 .text.SM_Slave_Legacy_GenConfirm
                0x0009e7a8       0x78 components/BT/release/\libbtcore.a(sm_slave.o)
 .text.SM_Slave_TKValuePasskeyDisplay
                0x0009e820       0x6c components/BT/release/\libbtcore.a(sm_slave.o)
 .text.SM_Slave_TKValueJustWork
                0x0009e88c       0x16 components/BT/release/\libbtcore.a(sm_slave.o)
 .text.SM_Slave_c1_1_handler
                0x0009e8a2       0x6e components/BT/release/\libbtcore.a(sm_slave.o)
 .text.SM_Slave_c1_2_handler
                0x0009e910       0x94 components/BT/release/\libbtcore.a(sm_slave.o)
 .text.SM_Slave_SigningInformationHandler
                0x0009e9a4       0x26 components/BT/release/\libbtcore.a(sm_slave.o)
 .text.SM_Slave_PairingFailedHandler
                0x0009e9ca       0x18 components/BT/release/\libbtcore.a(sm_slave.o)
 .text.SM_Slave_IdentityAddressInformationHandler
                0x0009e9e2       0x32 components/BT/release/\libbtcore.a(sm_slave.o)
 .text.SM_Slave_MasterIdentificationHandler
                0x0009ea14       0x2a components/BT/release/\libbtcore.a(sm_slave.o)
 .text.SM_Slave_PairingRandomHandler
                0x0009ea3e       0xca components/BT/release/\libbtcore.a(sm_slave.o)
 .text.SM_Slave_PairingRequestHandler
                0x0009eb08       0x68 components/BT/release/\libbtcore.a(sm_slave.o)
 .text.SM_Slave_L2capEventHandler
                0x0009eb70       0x48 components/BT/release/\libbtcore.a(sm_slave.o)
 .text.SM_Slave_Init
                0x0009ebb8       0x12 components/BT/release/\libbtcore.a(sm_slave.o)
                0x0009ebb8                SM_Slave_Init
 .text.SM_Slave_StartPairing
                0x0009ebca      0x126 components/BT/release/\libbtcore.a(sm_slave.o)
                0x0009ebca                SM_Slave_StartPairing
 .text.SM_Slave_EncryptionChange
                0x0009ecf0       0xa0 components/BT/release/\libbtcore.a(sm_slave.o)
                0x0009ecf0                SM_Slave_EncryptionChange
 .text.SM_Slave_get_ltk_handler
                0x0009ed90       0x3c components/BT/release/\libbtcore.a(sm_slave.o)
                0x0009ed90                SM_Slave_get_ltk_handler
 .text.SM_Slave_LTKRequestHandler
                0x0009edcc       0x4a components/BT/release/\libbtcore.a(sm_slave.o)
                0x0009edcc                SM_Slave_LTKRequestHandler
 .text.SM_Slave_s1_handler
                0x0009ee16       0x44 components/BT/release/\libbtcore.a(sm_slave.o)
 .text.SM_Slave_LTKRequest
                0x0009ee5a       0x34 components/BT/release/\libbtcore.a(sm_slave.o)
                0x0009ee5a                SM_Slave_LTKRequest
 .text.SM_Slave_SendSecurityRequest
                0x0009ee8e       0x3e components/BT/release/\libbtcore.a(sm_slave.o)
                0x0009ee8e                SM_Slave_SendSecurityRequest
 .text.SM_Master_SC_rbValueJustWork
                0x0009eecc        0x4 components/BT/release/\libbtcore.a(sm_master.o)
 .text.SM_Master_f5_mac_handler
                0x0009eed0       0x1e components/BT/release/\libbtcore.a(sm_master.o)
 .text.SM_Master_IdentityInformationHandler
                0x0009eeee       0x14 components/BT/release/\libbtcore.a(sm_master.o)
 .text.SM_Master_EncryptionInformationHandler
                0x0009ef02       0x14 components/BT/release/\libbtcore.a(sm_master.o)
 .text.SM_Master_PairingDHKeyCheckHandler
                0x0009ef16       0xa2 components/BT/release/\libbtcore.a(sm_master.o)
 .text.SM_Master_s1_handler
                0x0009efb8       0x4e components/BT/release/\libbtcore.a(sm_master.o)
 .text.SM_Master_f6_Eb_handler
                0x0009f006       0x50 components/BT/release/\libbtcore.a(sm_master.o)
 .text.SM_Master_PairingPublicKeyHandler
                0x0009f056       0x3e components/BT/release/\libbtcore.a(sm_master.o)
 .text.SM_Master_generate_DHKey_handler
                0x0009f094       0x54 components/BT/release/\libbtcore.a(sm_master.o)
 .text.SM_Master_SC_Unsupported
                0x0009f0e8       0x10 components/BT/release/\libbtcore.a(sm_master.o)
 .text.SM_Master_UnsupportedHandler
                0x0009f0f8       0x10 components/BT/release/\libbtcore.a(sm_master.o)
 .text.SM_Master_L2capEventHandler
                0x0009f108       0x32 components/BT/release/\libbtcore.a(sm_master.o)
 .text.SM_Master_g2_handler
                0x0009f13a       0x2c components/BT/release/\libbtcore.a(sm_master.o)
 .text.SM_Master_SC_rbValuePasskeyDisplay
                0x0009f166       0x82 components/BT/release/\libbtcore.a(sm_master.o)
 .text.SM_Master_f5
                0x0009f1e8       0x74 components/BT/release/\libbtcore.a(sm_master.o)
 .text.SM_Master_f4_PKE_handler
                0x0009f25c       0x9c components/BT/release/\libbtcore.a(sm_master.o)
 .text.SM_Master_f5_ltk_handler
                0x0009f2f8      0x11a components/BT/release/\libbtcore.a(sm_master.o)
 .text.SM_Master_f6_Ea_handler
                0x0009f412       0x18 components/BT/release/\libbtcore.a(sm_master.o)
 .text.SM_Master_TKValueOOB
                0x0009f42a       0x22 components/BT/release/\libbtcore.a(sm_master.o)
 .text.SM_Master_TKValuePasskeyInput
                0x0009f44c       0x22 components/BT/release/\libbtcore.a(sm_master.o)
 .text.SM_Master_Legacy_GenConfirm
                0x0009f46e       0x78 components/BT/release/\libbtcore.a(sm_master.o)
 .text.SM_Master_TKValuePasskeyDisplay
                0x0009f4e6       0x6c components/BT/release/\libbtcore.a(sm_master.o)
 .text.SM_Master_TKValueJustWork
                0x0009f552       0x16 components/BT/release/\libbtcore.a(sm_master.o)
 .text.SM_Master_c1_1_handler
                0x0009f568       0x70 components/BT/release/\libbtcore.a(sm_master.o)
 .text.SM_Master_PairingConfirmHandler
                0x0009f5d8       0x5e components/BT/release/\libbtcore.a(sm_master.o)
 .text.SM_Master_c1_2_handler
                0x0009f636       0x68 components/BT/release/\libbtcore.a(sm_master.o)
 .text.SM_Master_SecurityRequestHandler
                0x0009f69e       0x94 components/BT/release/\libbtcore.a(sm_master.o)
 .text.SM_Master_SigningInformationHandler
                0x0009f732       0x2e components/BT/release/\libbtcore.a(sm_master.o)
 .text.SM_Master_IdentityAddressInformationHandler
                0x0009f760       0x32 components/BT/release/\libbtcore.a(sm_master.o)
 .text.SM_Master_MasterIdentificationHandler
                0x0009f792       0x2a components/BT/release/\libbtcore.a(sm_master.o)
 .text.SM_Master_PairingFailedHandler
                0x0009f7bc       0x18 components/BT/release/\libbtcore.a(sm_master.o)
 .text.SM_Master_PairingRandomHandler
                0x0009f7d4       0x92 components/BT/release/\libbtcore.a(sm_master.o)
 .text.SM_Master_f4_JW_handler
                0x0009f866       0x58 components/BT/release/\libbtcore.a(sm_master.o)
 .text.SM_Master_PairingResponseHandler
                0x0009f8be       0x32 components/BT/release/\libbtcore.a(sm_master.o)
 .text.SM_Master_Init
                0x0009f8f0       0x12 components/BT/release/\libbtcore.a(sm_master.o)
                0x0009f8f0                SM_Master_Init
 .text.SM_Master_EncryptionChange
                0x0009f902       0xa6 components/BT/release/\libbtcore.a(sm_master.o)
                0x0009f902                SM_Master_EncryptionChange
 .text.SM_Master_StartPairing
                0x0009f9a8       0xba components/BT/release/\libbtcore.a(sm_master.o)
                0x0009f9a8                SM_Master_StartPairing
 .text.SM_Master_read_local_public_key_handler
                0x0009fa62        0xe components/BT/release/\libbtcore.a(sm_master.o)
 .text.SM_Master_SendPairingRequest
                0x0009fa70       0xac components/BT/release/\libbtcore.a(sm_master.o)
                0x0009fa70                SM_Master_SendPairingRequest
 .text.DRV_TRNG_Get
                0x0009fb1c       0x68 components/BT/release/\libbtcore.a(Drv_Trng.o)
                0x0009fb1c                DRV_TRNG_Get
 .text.PMU_IntrHandler
                0x0009fb84       0x20 components/BT/release/\libbtcore.a(Drv_MMITimer.o)
                0x0009fb84                PMU_IntrHandler
 .text.Drv_MMITimerDisable
                0x0009fba4        0xe components/BT/release/\libbtcore.a(Drv_MMITimer.o)
                0x0009fba4                Drv_MMITimerDisable
 .text.Drv_MMITimerEnable
                0x0009fbb2       0x52 components/BT/release/\libbtcore.a(Drv_MMITimer.o)
                0x0009fbb2                Drv_MMITimerEnable
 .text.Ab_MMITimerUnset
                0x0009fc04       0x9a components/BT/release/\libbtcore.a(Ab_MMITimer.o)
                0x0009fc04                Ab_MMITimerUnset
 .text.Ab_MMITimerSet
                0x0009fc9e       0xc0 components/BT/release/\libbtcore.a(Ab_MMITimer.o)
                0x0009fc9e                Ab_MMITimerSet
 .text.mmi_timer_isr
                0x0009fd5e       0xd6 components/BT/release/\libbtcore.a(Ab_MMITimer.o)
 .text.BTDataRdyInterruptHandler
                0x0009fe34       0x42 components/BT/release/\libbtcore.a(Drv_1602.o)
 .text.Drv_1602DataReady
                0x0009fe76        0xe components/BT/release/\libbtcore.a(Drv_1602.o)
                0x0009fe76                Drv_1602DataReady
 .text.Drv_1602DataReadyIntEn
                0x0009fe84       0x22 components/BT/release/\libbtcore.a(Drv_1602.o)
                0x0009fe84                Drv_1602DataReadyIntEn
 .text.Drv_1602DataReadyIntReg
                0x0009fea6       0x64 components/BT/release/\libbtcore.a(Drv_1602.o)
                0x0009fea6                Drv_1602DataReadyIntReg
 .text.Drv_1602Reset
                0x0009ff0a       0x22 components/BT/release/\libbtcore.a(Drv_1602.o)
                0x0009ff0a                Drv_1602Reset
 .text.Encrypt  0x0009ff2c      0x474 components/BT/release/\libbtcore.a(encrypt.o)
                0x0009ff2c                Encrypt
 .text.hci_log_set
                0x000a03a0        0x8 components/BT/release/\libbtcore.a(hci.o)
                0x000a03a0                hci_log_set
 .text.hci_acl_send
                0x000a03a8       0x2e components/BT/release/\libbtcore.a(hci.o)
                0x000a03a8                hci_acl_send
 .text.hci_cmd_send
                0x000a03d6       0x2e components/BT/release/\libbtcore.a(hci.o)
                0x000a03d6                hci_cmd_send
 .text.hci_init
                0x000a0404       0x8e components/BT/release/\libbtcore.a(hci.o)
                0x000a0404                hci_init
 .text.hci_pkt_recv
                0x000a0492       0x60 components/BT/release/\libbtcore.a(hci.o)
 .text.hci_dat_info_update
                0x000a04f2        0xc components/BT/release/\libbtcore.a(hci_cmd_evt_dat.o)
                0x000a04f2                hci_dat_info_update
 .text.hci_pending_acl
                0x000a04fe        0x8 components/BT/release/\libbtcore.a(hci_cmd_evt_dat.o)
                0x000a04fe                hci_pending_acl
 .text.hci_pause_acl
                0x000a0506       0x50 components/BT/release/\libbtcore.a(hci_cmd_evt_dat.o)
                0x000a0506                hci_pause_acl
 .text.hci_command_event
                0x000a0556       0x82 components/BT/release/\libbtcore.a(hci_cmd_evt_dat.o)
 .text.hci_evt_handler
                0x000a05d8       0xc2 components/BT/release/\libbtcore.a(hci_cmd_evt_dat.o)
 .text._hci_send_acl
                0x000a069a       0x66 components/BT/release/\libbtcore.a(hci_cmd_evt_dat.o)
 .text.hci_send_cmd_ex
                0x000a0700       0xd6 components/BT/release/\libbtcore.a(hci_cmd_evt_dat.o)
                0x000a0700                hci_send_cmd_ex
 .text.hci_send_cmd
                0x000a07d6        0xe components/BT/release/\libbtcore.a(hci_cmd_evt_dat.o)
                0x000a07d6                hci_send_cmd
 .text.hci_send_acl
                0x000a07e4       0xaa components/BT/release/\libbtcore.a(hci_cmd_evt_dat.o)
                0x000a07e4                hci_send_acl
 .text.hci_cmd_evt_dat_init
                0x000a088e       0x3e components/BT/release/\libbtcore.a(hci_cmd_evt_dat.o)
                0x000a088e                hci_cmd_evt_dat_init
 .text.SM_Common_ValueCompare
                0x000a08cc       0x22 components/BT/release/\libbtcore.a(sm_common.o)
                0x000a08cc                SM_Common_ValueCompare
 .text.SM_Common_GetRi
                0x000a08ee       0x2c components/BT/release/\libbtcore.a(sm_common.o)
                0x000a08ee                SM_Common_GetRi
 .text.SM_Common_AllocPairingData
                0x000a091a       0x3a components/BT/release/\libbtcore.a(sm_common.o)
                0x000a091a                SM_Common_AllocPairingData
 .text.AB_Log_HciEventStr
                0x000a0954       0x1e output/\lib1600.a(ab_log.o)
                0x000a0954                AB_Log_HciEventStr
 .text.AB_Log_HciCommandStr
                0x000a0972      0xce6 output/\lib1600.a(ab_log.o)
                0x000a0972                AB_Log_HciCommandStr
 .text.AB_Log_HciEventParseStr
                0x000a1658       0x70 output/\lib1600.a(ab_log.o)
                0x000a1658                AB_Log_HciEventParseStr
 .text.HexDisplay_internal
                0x000a16c8      0x104 output/\lib1600.a(ab_log.o)
                0x000a16c8                HexDisplay_internal
 .text.AB_Log_EvtShow
                0x000a17cc       0x6a output/\lib1600.a(ab_log.o)
                0x000a17cc                AB_Log_EvtShow
 .text.AB_Log_CmdShow
                0x000a1836       0x56 output/\lib1600.a(ab_log.o)
                0x000a1836                AB_Log_CmdShow
 .text.AB_Log_HexDisplay
                0x000a188c       0x18 output/\lib1600.a(ab_log.o)
                0x000a188c                AB_Log_HexDisplay
 .text.AB_Flash_ByteProgram
                0x000a18a4       0x2c output/\lib1600.a(ab_flash.o)
                0x000a18a4                AB_Flash_ByteProgram
 .text.AB_Flash_SectorErase
                0x000a18d0       0x26 output/\lib1600.a(ab_flash.o)
                0x000a18d0                AB_Flash_SectorErase
 .text._malloc_trim_r
                0x000a18f6       0xa2 C:\Andestech\AndeSight211RDS\toolchains\nds32le-elf-mculib-v3m\nds32le-elf\libc\mculib\usr\lib\libc.a(lib_a-freer.o)
                0x000a18f6                _malloc_trim_r
 .text._free_r  0x000a1998      0x17a C:\Andestech\AndeSight211RDS\toolchains\nds32le-elf-mculib-v3m\nds32le-elf\libc\mculib\usr\lib\libc.a(lib_a-freer.o)
                0x000a1998                _free_r
 .text._malloc_r
                0x000a1b12      0x442 C:\Andestech\AndeSight211RDS\toolchains\nds32le-elf-mculib-v3m\nds32le-elf\libc\mculib\usr\lib\libc.a(lib_a-mallocr.o)
                0x000a1b12                _malloc_r
 .text.__malloc_lock
                0x000a1f54        0x4 C:\Andestech\AndeSight211RDS\toolchains\nds32le-elf-mculib-v3m\nds32le-elf\libc\mculib\usr\lib\libc.a(lib_a-mlock.o)
                0x000a1f54                __malloc_lock
 .text.__malloc_unlock
                0x000a1f58        0x4 C:\Andestech\AndeSight211RDS\toolchains\nds32le-elf-mculib-v3m\nds32le-elf\libc\mculib\usr\lib\libc.a(lib_a-mlock.o)
                0x000a1f58                __malloc_unlock
 .text.mallinfo
                0x000a1f5c        0xe C:\Andestech\AndeSight211RDS\toolchains\nds32le-elf-mculib-v3m\nds32le-elf\libc\mculib\usr\lib\libc.a(lib_a-mstats.o)
                0x000a1f5c                mallinfo
 .text.puts     0x000a1f6a       0x46 C:\Andestech\AndeSight211RDS\toolchains\nds32le-elf-mculib-v3m\nds32le-elf\libc\mculib\usr\lib\libc.a(lib_a-puts.o)
                0x000a1f6a                puts
 .text._sbrk_r  0x000a1fb0       0x20 C:\Andestech\AndeSight211RDS\toolchains\nds32le-elf-mculib-v3m\nds32le-elf\libc\mculib\usr\lib\libc.a(lib_a-sbrkr.o)
                0x000a1fb0                _sbrk_r
 .text.sprintf  0x000a1fd0       0x18 C:\Andestech\AndeSight211RDS\toolchains\nds32le-elf-mculib-v3m\nds32le-elf\libc\mculib\usr\lib\libc.a(lib_a-sprintf.o)
                0x000a1fd0                sprintf
 .text.vprintf  0x000a1fe8       0x40 C:\Andestech\AndeSight211RDS\toolchains\nds32le-elf-mculib-v3m\nds32le-elf\libc\mculib\usr\lib\libc.a(lib_a-vprintf.o)
                0x000a1fe8                vprintf
 .text.vprintf_help
                0x000a2028       0x24 C:\Andestech\AndeSight211RDS\toolchains\nds32le-elf-mculib-v3m\nds32le-elf\libc\mculib\usr\lib\libc.a(lib_a-vprintf.o)
 .text.vsprintf_help
                0x000a204c        0xe C:\Andestech\AndeSight211RDS\toolchains\nds32le-elf-mculib-v3m\nds32le-elf\libc\mculib\usr\lib\libc.a(lib_a-vsprintf.o)
 .text.vsprintf
                0x000a205a       0x26 C:\Andestech\AndeSight211RDS\toolchains\nds32le-elf-mculib-v3m\nds32le-elf\libc\mculib\usr\lib\libc.a(lib_a-vsprintf.o)
                0x000a205a                vsprintf
 .text.do_printf
                0x000a2080      0x5a6 C:\Andestech\AndeSight211RDS\toolchains\nds32le-elf-mculib-v3m\nds32le-elf\libc\mculib\usr\lib\libc.a(do_printf.o)
                0x000a2080                do_printf
 .text.sep_int  0x000a2626       0x20 C:\Andestech\AndeSight211RDS\toolchains\nds32le-elf-mculib-v3m\nds32le-elf\libc\mculib\usr\lib\libc.a(xint2dec.o)
 .text.sep_frac
                0x000a2646       0x3c C:\Andestech\AndeSight211RDS\toolchains\nds32le-elf-mculib-v3m\nds32le-elf\libc\mculib\usr\lib\libc.a(xint2dec.o)
 .text.fill_0   0x000a2682       0x16 C:\Andestech\AndeSight211RDS\toolchains\nds32le-elf-mculib-v3m\nds32le-elf\libc\mculib\usr\lib\libc.a(xint2dec.o)
 .text.double2dec
                0x000a2698      0x6e2 C:\Andestech\AndeSight211RDS\toolchains\nds32le-elf-mculib-v3m\nds32le-elf\libc\mculib\usr\lib\libc.a(xint2dec.o)
                0x000a2698                double2dec
 .text.__malloc_update_mallinfo
                0x000a2d7a       0x50 C:\Andestech\AndeSight211RDS\toolchains\nds32le-elf-mculib-v3m\nds32le-elf\libc\mculib\usr\lib\libc.a(lib_a-mallinfor.o)
                0x000a2d7a                __malloc_update_mallinfo
 .text._mallinfo_r
                0x000a2dca       0x38 C:\Andestech\AndeSight211RDS\toolchains\nds32le-elf-mculib-v3m\nds32le-elf\libc\mculib\usr\lib\libc.a(lib_a-mallinfor.o)
                0x000a2dca                _mallinfo_r
 *(.ex9.itable)
 *fill*         0x000a2e02        0x2 00
 .ex9.itable    0x000a2e04        0x4 C:\Andestech\AndeSight211RDS\toolchains\nds32le-elf-mculib-v3m\lib\gcc\nds32le-elf\4.4.4\mculib\libgcc.a(_muldi3.o)

.rodata         0x000a2e08     0x4470
 *(.rodata)
 .rodata        0x000a2e08       0x20 /cygdrive/c/Airoha/AiroBlueSDK/AB1600_1_0_5_0/projects/SmartRemote/output/pj/components/Libraries/hci_devices/hci_spi_1602.o
                0x000a2e08                hci_builtin_ab1602
 .rodata        0x000a2e28      0xa5c /cygdrive/c/Airoha/AiroBlueSDK/AB1600_1_0_5_0/projects/SmartRemote/output/pj/components/BT/release/bt_patch/1602_patching.o
                0x000a2e28                gPatch_EdataInit
                0x000a387c                sizeof_gPatch_EdataInit
                0x000a36c8                gPatch_CsrInit
                0x000a3880                sizeof_gPatch_CsrInit
 .rodata        0x000a3884       0x30 /cygdrive/c/Airoha/AiroBlueSDK/AB1600_1_0_5_0/projects/SmartRemote/output/peripheral.o
 .rodata        0x000a38b4       0xd4 /cygdrive/c/Airoha/AiroBlueSDK/AB1600_1_0_5_0/projects/SmartRemote/output/service.o
 .rodata        0x000a3988       0x48 /cygdrive/c/Airoha/AiroBlueSDK/AB1600_1_0_5_0/projects/SmartRemote/output/keyboard.o
                0x000a39a0                ir_Matrix
                0x000a3988                key_Matrix
 .rodata        0x000a39d0       0x10 /cygdrive/c/Airoha/AiroBlueSDK/AB1600_1_0_5_0/projects/SmartRemote/output/microphone.o
 .rodata        0x000a39e0       0x10 /cygdrive/c/Airoha/AiroBlueSDK/AB1600_1_0_5_0/projects/SmartRemote/output/vcmd.o
                0x000a39e8                vcmd_HandlerList
                0x000a39e0                vcmd_RC_HandlerList
 .rodata        0x000a39f0       0x20 /cygdrive/c/Airoha/AiroBlueSDK/AB1600_1_0_5_0/projects/SmartRemote/output/irTx.o
 .rodata        0x000a3a10       0x88 /cygdrive/c/Airoha/AiroBlueSDK/AB1600_1_0_5_0/projects/SmartRemote/output/spl/components/Libraries/external/ADPCM/g726_enc_32.o
 .rodata        0x000a3a98       0xec /cygdrive/c/Airoha/AiroBlueSDK/AB1600_1_0_5_0/projects/SmartRemote/output/spl/components/Libraries/external/ima_adpcm/ima_enc.o
                0x000a3ad0                StepSizeTable
                0x000a3ac0                IndexTable
                0x000a3a98                filt_coef
 .rodata        0x000a3b84      0x13c components/BT/release/hci_protocol_1602.o
                0x000a3bcc                cvalue
                0x000a3b94                data_C52E
                0x000a3b90                data_C4AF
                0x000a3bc8                data_CSR3011
                0x000a3ba4                data_C4BA
                0x000a3b8c                data_C4A9
                0x000a3ba8                xvalue
                0x000a3b84                hci_h4_ab1602
 .rodata        0x000a3cc0       0x30 output/\lib1600.a(bsp_generic.o)
 .rodata        0x000a3cf0        0xc output/\lib1600.a(ab_uart.o)
 .rodata        0x000a3cfc       0xb0 output/\lib1600.a(ab_airoha_vcmd.o)
                0x000a3d80                g0x34GroupVendorCmdHdlr
                0x000a3cfc                gHciLabTestGroupVendorCmdHdlr
                0x000a3d98                gISPGroupVendorCmdHdlr
 .rodata        0x000a3dac        0x4 output/\lib1600.a(drv_odpinmux.o)
                0x000a3dac                od_grp_mask
 .rodata        0x000a3db0       0x18 output/\lib1600.a(drv_pinmux.o)
                0x000a3db0                grp_mask
 .rodata        0x000a3dc8       0x6c output/\lib1600.a(service_device_firmware_update_OTA.o)
 .rodata        0x000a3e34        0x8 output/\lib1600.a(ab_module.o)
                0x000a3e34                module_entry
 .rodata        0x000a3e3c       0x2c components/BT/release/\libbtcore.a(bt.o)
 .rodata        0x000a3e68       0x28 components/BT/release/\libbtcore.a(ble_gap.o)
                0x000a3e68                gErr_0x6
 .rodata        0x000a3e90       0x10 components/BT/release/\libbtcore.a(ble_att.o)
                0x000a3e90                BT_UUID_Base
 .rodata        0x000a3ea0       0x2c components/BT/release/\libbtcore.a(sm.o)
                0x000a3ebc                SM_SLAVE_PAIRING_METHOD
                0x000a3ea0                SM_PAIRING_METHOD_TABLE
                0x000a3ec4                SM_MASTER_PAIRING_METHOD
 .rodata        0x000a3ecc        0x8 components/BT/release/\libbtcore.a(sm_hal.o)
 .rodata        0x000a3ed4       0x24 components/BT/release/\libbtcore.a(sm_slave.o)
 .rodata        0x000a3ef8       0x24 components/BT/release/\libbtcore.a(sm_master.o)
 .rodata        0x000a3f1c      0x1f0 output/\lib1600.a(ab_log.o)
 *(.rodata.*)
 .rodata.str1.4
                0x000a410c       0x6f /cygdrive/c/Airoha/AiroBlueSDK/AB1600_1_0_5_0/projects/SmartRemote/output/pj/components/Libraries/hci_devices/hci_spi_1602.o
                                 0x70 (size before relaxing)
 *fill*         0x000a417b        0x1 00
 .rodata.str1.4
                0x000a417c       0x25 /cygdrive/c/Airoha/AiroBlueSDK/AB1600_1_0_5_0/projects/SmartRemote/output/main.o
                                 0x28 (size before relaxing)
 *fill*         0x000a41a1        0x3 00
 .rodata.str1.4
                0x000a41a4       0x74 /cygdrive/c/Airoha/AiroBlueSDK/AB1600_1_0_5_0/projects/SmartRemote/output/smartRemote.o
 .rodata.str1.4
                0x000a4218      0x33f /cygdrive/c/Airoha/AiroBlueSDK/AB1600_1_0_5_0/projects/SmartRemote/output/peripheral.o
                                0x350 (size before relaxing)
 *fill*         0x000a4557        0x1 00
 .rodata.str1.4
                0x000a4558       0x46 /cygdrive/c/Airoha/AiroBlueSDK/AB1600_1_0_5_0/projects/SmartRemote/output/service.o
                                 0x48 (size before relaxing)
 *fill*         0x000a459e        0x2 00
 .rodata.str1.4
                0x000a45a0       0x6d /cygdrive/c/Airoha/AiroBlueSDK/AB1600_1_0_5_0/projects/SmartRemote/output/board.o
                                 0x78 (size before relaxing)
 *fill*         0x000a460d        0x3 00
 .rodata.str1.4
                0x000a4610       0x67 /cygdrive/c/Airoha/AiroBlueSDK/AB1600_1_0_5_0/projects/SmartRemote/output/keyboard.o
                                 0x68 (size before relaxing)
 *fill*         0x000a4677        0x1 00
 .rodata.str1.4
                0x000a4678       0x74 /cygdrive/c/Airoha/AiroBlueSDK/AB1600_1_0_5_0/projects/SmartRemote/output/microphone.o
 .rodata.str1.4
                0x000a46ec       0x22 /cygdrive/c/Airoha/AiroBlueSDK/AB1600_1_0_5_0/projects/SmartRemote/output/irTx.o
                                 0x24 (size before relaxing)
 *fill*         0x000a470e        0x2 00
 .rodata.str1.4
                0x000a4710       0x81 components/BT/release/hci_protocol_1602.o
                                 0x8c (size before relaxing)
 *fill*         0x000a4791        0x3 00
 .rodata.str1.4
                0x000a4794       0x26 output/\lib1600.a(ab_adc.o)
                                 0x28 (size before relaxing)
 *fill*         0x000a47ba        0x2 00
 .rodata.str1.4
                0x000a47bc       0x61 output/\lib1600.a(ab_assert.o)
                                 0x64 (size before relaxing)
 *fill*         0x000a481d        0x3 00
 .rodata.str1.4
                0x000a4820      0x1db output/\lib1600.a(ab_malloc_hook.o)
                                0x1dc (size before relaxing)
 *fill*         0x000a49fb        0x1 00
 .rodata.str1.4
                0x000a49fc        0x5 output/\lib1600.a(ab_uart.o)
                                  0x8 (size before relaxing)
 .rodata.str1.4
                0x00000000        0x8 output/\lib1600.a(ab_airoha_vcmd.o)
 *fill*         0x000a4a01        0x3 00
 .rodata.str1.4
                0x000a4a04       0x11 output/\lib1600.a(drv_keyscan.o)
                                 0x14 (size before relaxing)
 *fill*         0x000a4a15        0x3 00
 .rodata.str1.4
                0x000a4a18       0x22 output/\lib1600.a(drv_uart.o)
                                 0x24 (size before relaxing)
 *fill*         0x000a4a3a        0x2 00
 .rodata.str1.4
                0x000a4a3c      0x19e output/\lib1600.a(service_device_firmware_update_OTA.o)
                                0x1a0 (size before relaxing)
 *fill*         0x000a4bda        0x2 00
 .rodata.str1.4
                0x000a4bdc      0x2e8 output/\lib1600.a(shell.o)
                                0x2f8 (size before relaxing)
 .rodata.str1.4
                0x000a4ec4       0x7b output/\lib1600.a(dfu.o)
                                 0x7c (size before relaxing)
 *fill*         0x000a4f3f        0x1 00
 .rodata.str1.4
                0x000a4f40        0x7 output/\lib1600.a(ab_module.o)
                                  0x8 (size before relaxing)
 *fill*         0x000a4f47        0x1 00
 .rodata.str1.4
                0x000a4f48       0x5e components/BT/release/\libbtcore.a(hci_h4_parser.o)
                                 0x64 (size before relaxing)
 *fill*         0x000a4fa6        0x2 00
 .rodata.str1.4
                0x000a4fa8       0x2d components/BT/release/\libbtcore.a(bt.o)
                                 0x30 (size before relaxing)
 *fill*         0x000a4fd5        0x3 00
 .rodata.str1.4
                0x000a4fd8       0x28 components/BT/release/\libbtcore.a(ble_gap.o)
 .rodata.str1.4
                0x000a5000       0x2d components/BT/release/\libbtcore.a(ble_gap_sm.o)
                                 0x30 (size before relaxing)
 *fill*         0x000a502d        0x3 00
 .rodata.str1.4
                0x000a5030       0x5f components/BT/release/\libbtcore.a(ble_att.o)
                                 0x60 (size before relaxing)
 *fill*         0x000a508f        0x1 00
 .rodata.str1.4
                0x000a5090        0x7 components/BT/release/\libbtcore.a(ble_gatt_server.o)
                                  0x8 (size before relaxing)
 *fill*         0x000a5097        0x1 00
 .rodata.str1.4
                0x000a5098       0x9f components/BT/release/\libbtcore.a(sm_cryptotool.o)
                                 0xa0 (size before relaxing)
 *fill*         0x000a5137        0x1 00
 .rodata.str1.4
                0x000a5138      0x314 components/BT/release/\libbtcore.a(sm_hal.o)
                                0x390 (size before relaxing)
 .rodata.str1.4
                0x000a544c      0x325 components/BT/release/\libbtcore.a(sm_protocol.o)
                                0x328 (size before relaxing)
 *fill*         0x000a5771        0x3 00
 .rodata.str1.4
                0x000a5774      0x102 components/BT/release/\libbtcore.a(sm_slave.o)
                                0x104 (size before relaxing)
 *fill*         0x000a5876        0x2 00
 .rodata.str1.4
                0x000a5878       0x8d components/BT/release/\libbtcore.a(sm_master.o)
                                 0xc4 (size before relaxing)
 .rodata.str1.4
                0x00000000       0x14 components/BT/release/\libbtcore.a(hci.o)
 *fill*         0x000a5905        0x3 00
 .rodata.str1.4
                0x000a5908     0x17e0 output/\lib1600.a(ab_log.o)
                               0x17f4 (size before relaxing)
 .rodata._ctype_b
                0x000a70e8      0x180 C:\Andestech\AndeSight211RDS\toolchains\nds32le-elf-mculib-v3m\nds32le-elf\libc\mculib\usr\lib\libc.a(lib_a-ctype_.o)
 .rodata.str1.4
                0x000a7268       0x10 C:\Andestech\AndeSight211RDS\toolchains\nds32le-elf-mculib-v3m\nds32le-elf\libc\mculib\usr\lib\libc.a(xint2dec.o)
                0x000a7278                text_end = .

.rela.dyn       0x00085000        0x0 load address 0x000a7278
 .rela.cfg_sector
                0x00000000        0x0 /cygdrive/c/Airoha/AiroBlueSDK/AB1600_1_0_5_0/projects/SmartRemote/output/pj/components/Device/AB1600/cfg_sector.o
 .rela.dfu_mark
                0x00000000        0x0 /cygdrive/c/Airoha/AiroBlueSDK/AB1600_1_0_5_0/projects/SmartRemote/output/pj/components/Device/AB1600/cfg_sector.o
 .rela.text.hci_spi1602_check_data
                0x00000000        0x0 /cygdrive/c/Airoha/AiroBlueSDK/AB1600_1_0_5_0/projects/SmartRemote/output/pj/components/Device/AB1600/cfg_sector.o
 .rela.text.hci_spi1602_read_data
                0x00000000        0x0 /cygdrive/c/Airoha/AiroBlueSDK/AB1600_1_0_5_0/projects/SmartRemote/output/pj/components/Device/AB1600/cfg_sector.o
 .rela.text.read_trxlen_compl_int
                0x00000000        0x0 /cygdrive/c/Airoha/AiroBlueSDK/AB1600_1_0_5_0/projects/SmartRemote/output/pj/components/Device/AB1600/cfg_sector.o
 .rela.text.send_tx_compl_int
                0x00000000        0x0 /cygdrive/c/Airoha/AiroBlueSDK/AB1600_1_0_5_0/projects/SmartRemote/output/pj/components/Device/AB1600/cfg_sector.o
 .rela.text.read_rx_compl_int
                0x00000000        0x0 /cygdrive/c/Airoha/AiroBlueSDK/AB1600_1_0_5_0/projects/SmartRemote/output/pj/components/Device/AB1600/cfg_sector.o
 .rela.text.data_ready_int
                0x00000000        0x0 /cygdrive/c/Airoha/AiroBlueSDK/AB1600_1_0_5_0/projects/SmartRemote/output/pj/components/Device/AB1600/cfg_sector.o
 .rela.text.hci_spi1602_send_data
                0x00000000        0x0 /cygdrive/c/Airoha/AiroBlueSDK/AB1600_1_0_5_0/projects/SmartRemote/output/pj/components/Device/AB1600/cfg_sector.o
 .rela.text.hci_spi1602_deinit
                0x00000000        0x0 /cygdrive/c/Airoha/AiroBlueSDK/AB1600_1_0_5_0/projects/SmartRemote/output/pj/components/Device/AB1600/cfg_sector.o
 .rela.text.hci_spi1602_init
                0x00000000        0x0 /cygdrive/c/Airoha/AiroBlueSDK/AB1600_1_0_5_0/projects/SmartRemote/output/pj/components/Device/AB1600/cfg_sector.o
 .rela.data     0x00000000        0x0 /cygdrive/c/Airoha/AiroBlueSDK/AB1600_1_0_5_0/projects/SmartRemote/output/pj/components/Device/AB1600/cfg_sector.o
 .rela.text.CPU_Exception
                0x00000000        0x0 /cygdrive/c/Airoha/AiroBlueSDK/AB1600_1_0_5_0/projects/SmartRemote/output/pj/components/Device/AB1600/cfg_sector.o
 .rela.text.main
                0x00000000        0x0 /cygdrive/c/Airoha/AiroBlueSDK/AB1600_1_0_5_0/projects/SmartRemote/output/pj/components/Device/AB1600/cfg_sector.o
 .rela.text.Timer_ReleaseIdleConnTimeout
                0x00000000        0x0 /cygdrive/c/Airoha/AiroBlueSDK/AB1600_1_0_5_0/projects/SmartRemote/output/pj/components/Device/AB1600/cfg_sector.o
 .rela.text.Timer_SetIdleConnTimeout
                0x00000000        0x0 /cygdrive/c/Airoha/AiroBlueSDK/AB1600_1_0_5_0/projects/SmartRemote/output/pj/components/Device/AB1600/cfg_sector.o
 .rela.text.Remote_IdleConnTimeoutCB
                0x00000000        0x0 /cygdrive/c/Airoha/AiroBlueSDK/AB1600_1_0_5_0/projects/SmartRemote/output/pj/components/Device/AB1600/cfg_sector.o
 .rela.text.Remote_MainLoop
                0x00000000        0x0 /cygdrive/c/Airoha/AiroBlueSDK/AB1600_1_0_5_0/projects/SmartRemote/output/pj/components/Device/AB1600/cfg_sector.o
 .rela.text.Battery_CheckLevel
                0x00000000        0x0 /cygdrive/c/Airoha/AiroBlueSDK/AB1600_1_0_5_0/projects/SmartRemote/output/pj/components/Device/AB1600/cfg_sector.o
 .rela.text.Remote_Init
                0x00000000        0x0 /cygdrive/c/Airoha/AiroBlueSDK/AB1600_1_0_5_0/projects/SmartRemote/output/pj/components/Device/AB1600/cfg_sector.o
 .rela.text.APP_InitBeforeBt
                0x00000000        0x0 /cygdrive/c/Airoha/AiroBlueSDK/AB1600_1_0_5_0/projects/SmartRemote/output/pj/components/Device/AB1600/cfg_sector.o
 .rela.text.GapTimer_Release
                0x00000000        0x0 /cygdrive/c/Airoha/AiroBlueSDK/AB1600_1_0_5_0/projects/SmartRemote/output/pj/components/Device/AB1600/cfg_sector.o
 .rela.text.GapTimer_Set
                0x00000000        0x0 /cygdrive/c/Airoha/AiroBlueSDK/AB1600_1_0_5_0/projects/SmartRemote/output/pj/components/Device/AB1600/cfg_sector.o
 .rela.text.GAP_TerminateConnection
                0x00000000        0x0 /cygdrive/c/Airoha/AiroBlueSDK/AB1600_1_0_5_0/projects/SmartRemote/output/pj/components/Device/AB1600/cfg_sector.o
 .rela.text.GAP_GetRandomAddress
                0x00000000        0x0 /cygdrive/c/Airoha/AiroBlueSDK/AB1600_1_0_5_0/projects/SmartRemote/output/pj/components/Device/AB1600/cfg_sector.o
 .rela.text.GAP_UpdateConnParam4OTA
                0x00000000        0x0 /cygdrive/c/Airoha/AiroBlueSDK/AB1600_1_0_5_0/projects/SmartRemote/output/pj/components/Device/AB1600/cfg_sector.o
 .rela.text.GAP_ConnParaUpdate_TimerHandler
                0x00000000        0x0 /cygdrive/c/Airoha/AiroBlueSDK/AB1600_1_0_5_0/projects/SmartRemote/output/pj/components/Device/AB1600/cfg_sector.o
 .rela.text.GAP_CheckBondingState
                0x00000000        0x0 /cygdrive/c/Airoha/AiroBlueSDK/AB1600_1_0_5_0/projects/SmartRemote/output/pj/components/Device/AB1600/cfg_sector.o
 .rela.text.GAP_StartAdvertising_CB
                0x00000000        0x0 /cygdrive/c/Airoha/AiroBlueSDK/AB1600_1_0_5_0/projects/SmartRemote/output/pj/components/Device/AB1600/cfg_sector.o
 .rela.text.GAP_BDAddressSet_CB
                0x00000000        0x0 /cygdrive/c/Airoha/AiroBlueSDK/AB1600_1_0_5_0/projects/SmartRemote/output/pj/components/Device/AB1600/cfg_sector.o
 .rela.text.GAP_AdvDataSet_CB
                0x00000000        0x0 /cygdrive/c/Airoha/AiroBlueSDK/AB1600_1_0_5_0/projects/SmartRemote/output/pj/components/Device/AB1600/cfg_sector.o
 .rela.text.GAP_ScanResDataSet_CB
                0x00000000        0x0 /cygdrive/c/Airoha/AiroBlueSDK/AB1600_1_0_5_0/projects/SmartRemote/output/pj/components/Device/AB1600/cfg_sector.o
 .rela.text.GAP_StopAdvertising_CB
                0x00000000        0x0 /cygdrive/c/Airoha/AiroBlueSDK/AB1600_1_0_5_0/projects/SmartRemote/output/pj/components/Device/AB1600/cfg_sector.o
 .rela.text.GAP_AdvOvertime_TimerHandler
                0x00000000        0x0 /cygdrive/c/Airoha/AiroBlueSDK/AB1600_1_0_5_0/projects/SmartRemote/output/pj/components/Device/AB1600/cfg_sector.o
 .rela.text.gapRole_GapEventHandle
                0x00000000        0x0 /cygdrive/c/Airoha/AiroBlueSDK/AB1600_1_0_5_0/projects/SmartRemote/output/pj/components/Device/AB1600/cfg_sector.o
 .rela.text.MP_DataInit
                0x00000000        0x0 /cygdrive/c/Airoha/AiroBlueSDK/AB1600_1_0_5_0/projects/SmartRemote/output/pj/components/Device/AB1600/cfg_sector.o
 .rela.text.HOGP_SetMouseButton
                0x00000000        0x0 /cygdrive/c/Airoha/AiroBlueSDK/AB1600_1_0_5_0/projects/SmartRemote/output/pj/components/Device/AB1600/cfg_sector.o
 .rela.text.HOGP_GetMouseButton
                0x00000000        0x0 /cygdrive/c/Airoha/AiroBlueSDK/AB1600_1_0_5_0/projects/SmartRemote/output/pj/components/Device/AB1600/cfg_sector.o
 .rela.text.HOGP_SendKeyboard
                0x00000000        0x0 /cygdrive/c/Airoha/AiroBlueSDK/AB1600_1_0_5_0/projects/SmartRemote/output/pj/components/Device/AB1600/cfg_sector.o
 .rela.text.HOGP_SendConsumerKey
                0x00000000        0x0 /cygdrive/c/Airoha/AiroBlueSDK/AB1600_1_0_5_0/projects/SmartRemote/output/pj/components/Device/AB1600/cfg_sector.o
 .rela.text.HOGP_SendReport
                0x00000000        0x0 /cygdrive/c/Airoha/AiroBlueSDK/AB1600_1_0_5_0/projects/SmartRemote/output/pj/components/Device/AB1600/cfg_sector.o
 .rela.text.HOGP_SendMouse
                0x00000000        0x0 /cygdrive/c/Airoha/AiroBlueSDK/AB1600_1_0_5_0/projects/SmartRemote/output/pj/components/Device/AB1600/cfg_sector.o
 .rela.text.Voice_CodecSel_CB
                0x00000000        0x0 /cygdrive/c/Airoha/AiroBlueSDK/AB1600_1_0_5_0/projects/SmartRemote/output/pj/components/Device/AB1600/cfg_sector.o
 .rela.text.OTA_Status_CB
                0x00000000        0x0 /cygdrive/c/Airoha/AiroBlueSDK/AB1600_1_0_5_0/projects/SmartRemote/output/pj/components/Device/AB1600/cfg_sector.o
 .rela.rodata   0x00000000        0x0 /cygdrive/c/Airoha/AiroBlueSDK/AB1600_1_0_5_0/projects/SmartRemote/output/pj/components/Device/AB1600/cfg_sector.o
 .rela.text.GATT_ServiceInit
                0x00000000        0x0 /cygdrive/c/Airoha/AiroBlueSDK/AB1600_1_0_5_0/projects/SmartRemote/output/pj/components/Device/AB1600/cfg_sector.o
 .rela.text.Board_PowerManagement
                0x00000000        0x0 /cygdrive/c/Airoha/AiroBlueSDK/AB1600_1_0_5_0/projects/SmartRemote/output/pj/components/Device/AB1600/cfg_sector.o
 .rela.text.Board_Init
                0x00000000        0x0 /cygdrive/c/Airoha/AiroBlueSDK/AB1600_1_0_5_0/projects/SmartRemote/output/pj/components/Device/AB1600/cfg_sector.o
 .rela.text.Keyboard_ColumnInterruptEnable
                0x00000000        0x0 /cygdrive/c/Airoha/AiroBlueSDK/AB1600_1_0_5_0/projects/SmartRemote/output/pj/components/Device/AB1600/cfg_sector.o
 .rela.text.Keyboard_Polling
                0x00000000        0x0 /cygdrive/c/Airoha/AiroBlueSDK/AB1600_1_0_5_0/projects/SmartRemote/output/pj/components/Device/AB1600/cfg_sector.o
 .rela.text.Keyboard_Init
                0x00000000        0x0 /cygdrive/c/Airoha/AiroBlueSDK/AB1600_1_0_5_0/projects/SmartRemote/output/pj/components/Device/AB1600/cfg_sector.o
 .rela.text.Keyboard_KeyScanIntHandler
                0x00000000        0x0 /cygdrive/c/Airoha/AiroBlueSDK/AB1600_1_0_5_0/projects/SmartRemote/output/pj/components/Device/AB1600/cfg_sector.o
 .rela.text.Keyboard_ComboKeyProcess
                0x00000000        0x0 /cygdrive/c/Airoha/AiroBlueSDK/AB1600_1_0_5_0/projects/SmartRemote/output/pj/components/Device/AB1600/cfg_sector.o
 .rela.text.MIC_CodecSel_IMA
                0x00000000        0x0 /cygdrive/c/Airoha/AiroBlueSDK/AB1600_1_0_5_0/projects/SmartRemote/output/pj/components/Device/AB1600/cfg_sector.o
 .rela.text.MIC_CodecSel_G726
                0x00000000        0x0 /cygdrive/c/Airoha/AiroBlueSDK/AB1600_1_0_5_0/projects/SmartRemote/output/pj/components/Device/AB1600/cfg_sector.o
 .rela.text.MIC_InterruptHandle
                0x00000000        0x0 /cygdrive/c/Airoha/AiroBlueSDK/AB1600_1_0_5_0/projects/SmartRemote/output/pj/components/Device/AB1600/cfg_sector.o
 .rela.text.MIC_WorkOvertimeCB
                0x00000000        0x0 /cygdrive/c/Airoha/AiroBlueSDK/AB1600_1_0_5_0/projects/SmartRemote/output/pj/components/Device/AB1600/cfg_sector.o
 .rela.text.MIC_WorkingProcess
                0x00000000        0x0 /cygdrive/c/Airoha/AiroBlueSDK/AB1600_1_0_5_0/projects/SmartRemote/output/pj/components/Device/AB1600/cfg_sector.o
 .rela.text.MIC_DisableProcess
                0x00000000        0x0 /cygdrive/c/Airoha/AiroBlueSDK/AB1600_1_0_5_0/projects/SmartRemote/output/pj/components/Device/AB1600/cfg_sector.o
 .rela.text.MIC_Init
                0x00000000        0x0 /cygdrive/c/Airoha/AiroBlueSDK/AB1600_1_0_5_0/projects/SmartRemote/output/pj/components/Device/AB1600/cfg_sector.o
 .rela.text.MIC_EnableProcess
                0x00000000        0x0 /cygdrive/c/Airoha/AiroBlueSDK/AB1600_1_0_5_0/projects/SmartRemote/output/pj/components/Device/AB1600/cfg_sector.o
 .rela.text.VCMD_Response
                0x00000000        0x0 /cygdrive/c/Airoha/AiroBlueSDK/AB1600_1_0_5_0/projects/SmartRemote/output/pj/components/Device/AB1600/cfg_sector.o
 .rela.text.LED_Process
                0x00000000        0x0 /cygdrive/c/Airoha/AiroBlueSDK/AB1600_1_0_5_0/projects/SmartRemote/output/pj/components/Device/AB1600/cfg_sector.o
 .rela.text.LED_DeInit
                0x00000000        0x0 /cygdrive/c/Airoha/AiroBlueSDK/AB1600_1_0_5_0/projects/SmartRemote/output/pj/components/Device/AB1600/cfg_sector.o
 .rela.text.LED_Init
                0x00000000        0x0 /cygdrive/c/Airoha/AiroBlueSDK/AB1600_1_0_5_0/projects/SmartRemote/output/pj/components/Device/AB1600/cfg_sector.o
 .rela.text.IR_KeyReleased
                0x00000000        0x0 /cygdrive/c/Airoha/AiroBlueSDK/AB1600_1_0_5_0/projects/SmartRemote/output/pj/components/Device/AB1600/cfg_sector.o
 .rela.text.IR_Send
                0x00000000        0x0 /cygdrive/c/Airoha/AiroBlueSDK/AB1600_1_0_5_0/projects/SmartRemote/output/pj/components/Device/AB1600/cfg_sector.o
 .rela.text.IR_TimerHandle
                0x00000000        0x0 /cygdrive/c/Airoha/AiroBlueSDK/AB1600_1_0_5_0/projects/SmartRemote/output/pj/components/Device/AB1600/cfg_sector.o
 .rela.text.IRTX_Init
                0x00000000        0x0 /cygdrive/c/Airoha/AiroBlueSDK/AB1600_1_0_5_0/projects/SmartRemote/output/pj/components/Device/AB1600/cfg_sector.o
 .rela.text     0x00000000        0x0 /cygdrive/c/Airoha/AiroBlueSDK/AB1600_1_0_5_0/projects/SmartRemote/output/pj/components/Device/AB1600/cfg_sector.o
 .rela.text.chip_1602_send_acl_data
                0x00000000        0x0 /cygdrive/c/Airoha/AiroBlueSDK/AB1600_1_0_5_0/projects/SmartRemote/output/pj/components/Device/AB1600/cfg_sector.o
 .rela.text.make_command_complete_ex
                0x00000000        0x0 /cygdrive/c/Airoha/AiroBlueSDK/AB1600_1_0_5_0/projects/SmartRemote/output/pj/components/Device/AB1600/cfg_sector.o
 .rela.text.chip_1602_check_chip_cmd_permission
                0x00000000        0x0 /cygdrive/c/Airoha/AiroBlueSDK/AB1600_1_0_5_0/projects/SmartRemote/output/pj/components/Device/AB1600/cfg_sector.o
 .rela.text.chip_1602_send_hci_command
                0x00000000        0x0 /cygdrive/c/Airoha/AiroBlueSDK/AB1600_1_0_5_0/projects/SmartRemote/output/pj/components/Device/AB1600/cfg_sector.o
 .rela.text.chip_1602_init_adopt_mp
                0x00000000        0x0 /cygdrive/c/Airoha/AiroBlueSDK/AB1600_1_0_5_0/projects/SmartRemote/output/pj/components/Device/AB1600/cfg_sector.o
 .rela.text.chip_1602_init_config
                0x00000000        0x0 /cygdrive/c/Airoha/AiroBlueSDK/AB1600_1_0_5_0/projects/SmartRemote/output/pj/components/Device/AB1600/cfg_sector.o
 .rela.text.chip_1602_init_patching
                0x00000000        0x0 /cygdrive/c/Airoha/AiroBlueSDK/AB1600_1_0_5_0/projects/SmartRemote/output/pj/components/Device/AB1600/cfg_sector.o
 .rela.text.hci_rx_recv
                0x00000000        0x0 /cygdrive/c/Airoha/AiroBlueSDK/AB1600_1_0_5_0/projects/SmartRemote/output/pj/components/Device/AB1600/cfg_sector.o
 .rela.text.hci_1602_read_cfm_cb
                0x00000000        0x0 /cygdrive/c/Airoha/AiroBlueSDK/AB1600_1_0_5_0/projects/SmartRemote/output/pj/components/Device/AB1600/cfg_sector.o
 .rela.text.PowerFail_IntrHandler
                0x00000000        0x0 /cygdrive/c/Airoha/AiroBlueSDK/AB1600_1_0_5_0/projects/SmartRemote/output/pj/components/Device/AB1600/cfg_sector.o
 .rela.text.AB_ADC_Init
                0x00000000        0x0 /cygdrive/c/Airoha/AiroBlueSDK/AB1600_1_0_5_0/projects/SmartRemote/output/pj/components/Device/AB1600/cfg_sector.o
 .rela.text.AB_ADC_PowerFail_Monitor
                0x00000000        0x0 /cygdrive/c/Airoha/AiroBlueSDK/AB1600_1_0_5_0/projects/SmartRemote/output/pj/components/Device/AB1600/cfg_sector.o
 .rela.text.AB_ADC_Get_Level
                0x00000000        0x0 /cygdrive/c/Airoha/AiroBlueSDK/AB1600_1_0_5_0/projects/SmartRemote/output/pj/components/Device/AB1600/cfg_sector.o
 .rela.text.AB_ADC_Get_Voltage
                0x00000000        0x0 /cygdrive/c/Airoha/AiroBlueSDK/AB1600_1_0_5_0/projects/SmartRemote/output/pj/components/Device/AB1600/cfg_sector.o
 .rela.text.AB_CLK_Switch
                0x00000000        0x0 /cygdrive/c/Airoha/AiroBlueSDK/AB1600_1_0_5_0/projects/SmartRemote/output/pj/components/Device/AB1600/cfg_sector.o
 .rela.text.assert_ab_callback_verbose
                0x00000000        0x0 /cygdrive/c/Airoha/AiroBlueSDK/AB1600_1_0_5_0/projects/SmartRemote/output/pj/components/Device/AB1600/cfg_sector.o
 .rela.text.assert_ab_callback
                0x00000000        0x0 /cygdrive/c/Airoha/AiroBlueSDK/AB1600_1_0_5_0/projects/SmartRemote/output/pj/components/Device/AB1600/cfg_sector.o
 .rela.text.AB_LED_stop
                0x00000000        0x0 /cygdrive/c/Airoha/AiroBlueSDK/AB1600_1_0_5_0/projects/SmartRemote/output/pj/components/Device/AB1600/cfg_sector.o
 .rela.text.AB_LED_set_rawdata
                0x00000000        0x0 /cygdrive/c/Airoha/AiroBlueSDK/AB1600_1_0_5_0/projects/SmartRemote/output/pj/components/Device/AB1600/cfg_sector.o
 .rela.text.AB_LED_start
                0x00000000        0x0 /cygdrive/c/Airoha/AiroBlueSDK/AB1600_1_0_5_0/projects/SmartRemote/output/pj/components/Device/AB1600/cfg_sector.o
 .rela.text.AB_LED_follow_start
                0x00000000        0x0 /cygdrive/c/Airoha/AiroBlueSDK/AB1600_1_0_5_0/projects/SmartRemote/output/pj/components/Device/AB1600/cfg_sector.o
 .rela.text.AB_LED_deinit
                0x00000000        0x0 /cygdrive/c/Airoha/AiroBlueSDK/AB1600_1_0_5_0/projects/SmartRemote/output/pj/components/Device/AB1600/cfg_sector.o
 .rela.text.AB_LED_init
                0x00000000        0x0 /cygdrive/c/Airoha/AiroBlueSDK/AB1600_1_0_5_0/projects/SmartRemote/output/pj/components/Device/AB1600/cfg_sector.o
 .rela.text._sbrk
                0x00000000        0x0 /cygdrive/c/Airoha/AiroBlueSDK/AB1600_1_0_5_0/projects/SmartRemote/output/pj/components/Device/AB1600/cfg_sector.o
 .rela.text.ab_malloc_total
                0x00000000        0x0 /cygdrive/c/Airoha/AiroBlueSDK/AB1600_1_0_5_0/projects/SmartRemote/output/pj/components/Device/AB1600/cfg_sector.o
 .rela.text.free
                0x00000000        0x0 /cygdrive/c/Airoha/AiroBlueSDK/AB1600_1_0_5_0/projects/SmartRemote/output/pj/components/Device/AB1600/cfg_sector.o
 .rela.text.ab_malloc_info_printf
                0x00000000        0x0 /cygdrive/c/Airoha/AiroBlueSDK/AB1600_1_0_5_0/projects/SmartRemote/output/pj/components/Device/AB1600/cfg_sector.o
 .rela.text.malloc
                0x00000000        0x0 /cygdrive/c/Airoha/AiroBlueSDK/AB1600_1_0_5_0/projects/SmartRemote/output/pj/components/Device/AB1600/cfg_sector.o
 .rela.text.ab_malloc_used
                0x00000000        0x0 /cygdrive/c/Airoha/AiroBlueSDK/AB1600_1_0_5_0/projects/SmartRemote/output/pj/components/Device/AB1600/cfg_sector.o
 .rela.text.ab_malloc_max_used
                0x00000000        0x0 /cygdrive/c/Airoha/AiroBlueSDK/AB1600_1_0_5_0/projects/SmartRemote/output/pj/components/Device/AB1600/cfg_sector.o
 .rela.sdata_w  0x00000000        0x0 /cygdrive/c/Airoha/AiroBlueSDK/AB1600_1_0_5_0/projects/SmartRemote/output/pj/components/Device/AB1600/cfg_sector.o
 .rela.text.printf
                0x00000000        0x0 /cygdrive/c/Airoha/AiroBlueSDK/AB1600_1_0_5_0/projects/SmartRemote/output/pj/components/Device/AB1600/cfg_sector.o
 .rela.text.nds_write
                0x00000000        0x0 /cygdrive/c/Airoha/AiroBlueSDK/AB1600_1_0_5_0/projects/SmartRemote/output/pj/components/Device/AB1600/cfg_sector.o
 .rela.text.Ab_printf_blocking
                0x00000000        0x0 /cygdrive/c/Airoha/AiroBlueSDK/AB1600_1_0_5_0/projects/SmartRemote/output/pj/components/Device/AB1600/cfg_sector.o
 .rela.text.putchar
                0x00000000        0x0 /cygdrive/c/Airoha/AiroBlueSDK/AB1600_1_0_5_0/projects/SmartRemote/output/pj/components/Device/AB1600/cfg_sector.o
 .rela.text.AB_PWR_Off
                0x00000000        0x0 /cygdrive/c/Airoha/AiroBlueSDK/AB1600_1_0_5_0/projects/SmartRemote/output/pj/components/Device/AB1600/cfg_sector.o
 .rela.text.AB_PWR_Rst
                0x00000000        0x0 /cygdrive/c/Airoha/AiroBlueSDK/AB1600_1_0_5_0/projects/SmartRemote/output/pj/components/Device/AB1600/cfg_sector.o
 .rela.text.AB_PWR_Sleep
                0x00000000        0x0 /cygdrive/c/Airoha/AiroBlueSDK/AB1600_1_0_5_0/projects/SmartRemote/output/pj/components/Device/AB1600/cfg_sector.o
 .rela.text.AB_SECTOR_GetMpParameter
                0x00000000        0x0 /cygdrive/c/Airoha/AiroBlueSDK/AB1600_1_0_5_0/projects/SmartRemote/output/pj/components/Device/AB1600/cfg_sector.o
 .rela.text.alloc_spi_tran_entry
                0x00000000        0x0 /cygdrive/c/Airoha/AiroBlueSDK/AB1600_1_0_5_0/projects/SmartRemote/output/pj/components/Device/AB1600/cfg_sector.o
 .rela.text.AB_SPI_WriteAndRead
                0x00000000        0x0 /cygdrive/c/Airoha/AiroBlueSDK/AB1600_1_0_5_0/projects/SmartRemote/output/pj/components/Device/AB1600/cfg_sector.o
 .rela.text.AB_SPI_WriteThenRead
                0x00000000        0x0 /cygdrive/c/Airoha/AiroBlueSDK/AB1600_1_0_5_0/projects/SmartRemote/output/pj/components/Device/AB1600/cfg_sector.o
 .rela.text.AB_SPI_Close
                0x00000000        0x0 /cygdrive/c/Airoha/AiroBlueSDK/AB1600_1_0_5_0/projects/SmartRemote/output/pj/components/Device/AB1600/cfg_sector.o
 .rela.text.AB_SPI_Open
                0x00000000        0x0 /cygdrive/c/Airoha/AiroBlueSDK/AB1600_1_0_5_0/projects/SmartRemote/output/pj/components/Device/AB1600/cfg_sector.o
 .rela.text.Spi_drv_complete_cb
                0x00000000        0x0 /cygdrive/c/Airoha/AiroBlueSDK/AB1600_1_0_5_0/projects/SmartRemote/output/pj/components/Device/AB1600/cfg_sector.o
 .rela.text.AB_BSP_init_with_console
                0x00000000        0x0 /cygdrive/c/Airoha/AiroBlueSDK/AB1600_1_0_5_0/projects/SmartRemote/output/pj/components/Device/AB1600/cfg_sector.o
 .rela.text.AB_BSP_init
                0x00000000        0x0 /cygdrive/c/Airoha/AiroBlueSDK/AB1600_1_0_5_0/projects/SmartRemote/output/pj/components/Device/AB1600/cfg_sector.o
 .rela.text.AB_BSP_initEx
                0x00000000        0x0 /cygdrive/c/Airoha/AiroBlueSDK/AB1600_1_0_5_0/projects/SmartRemote/output/pj/components/Device/AB1600/cfg_sector.o
 .rela.text.uart1_rx_ind
                0x00000000        0x0 /cygdrive/c/Airoha/AiroBlueSDK/AB1600_1_0_5_0/projects/SmartRemote/output/pj/components/Device/AB1600/cfg_sector.o
 .rela.text.uart2_rx_ind
                0x00000000        0x0 /cygdrive/c/Airoha/AiroBlueSDK/AB1600_1_0_5_0/projects/SmartRemote/output/pj/components/Device/AB1600/cfg_sector.o
 .rela.text.bsp_mp_uart_tx
                0x00000000        0x0 /cygdrive/c/Airoha/AiroBlueSDK/AB1600_1_0_5_0/projects/SmartRemote/output/pj/components/Device/AB1600/cfg_sector.o
 .rela.text.bsp_console_uart_tx
                0x00000000        0x0 /cygdrive/c/Airoha/AiroBlueSDK/AB1600_1_0_5_0/projects/SmartRemote/output/pj/components/Device/AB1600/cfg_sector.o
 .rela.text.bsp_bt_event_hanlder
                0x00000000        0x0 /cygdrive/c/Airoha/AiroBlueSDK/AB1600_1_0_5_0/projects/SmartRemote/output/pj/components/Device/AB1600/cfg_sector.o
 .rela.text.timer32_cb
                0x00000000        0x0 /cygdrive/c/Airoha/AiroBlueSDK/AB1600_1_0_5_0/projects/SmartRemote/output/pj/components/Device/AB1600/cfg_sector.o
 .rela.text.AB_Timer_AlertUnset
                0x00000000        0x0 /cygdrive/c/Airoha/AiroBlueSDK/AB1600_1_0_5_0/projects/SmartRemote/output/pj/components/Device/AB1600/cfg_sector.o
 .rela.text.AB_Timer_AlertSet
                0x00000000        0x0 /cygdrive/c/Airoha/AiroBlueSDK/AB1600_1_0_5_0/projects/SmartRemote/output/pj/components/Device/AB1600/cfg_sector.o
 .rela.text.AB_Timer_Disable
                0x00000000        0x0 /cygdrive/c/Airoha/AiroBlueSDK/AB1600_1_0_5_0/projects/SmartRemote/output/pj/components/Device/AB1600/cfg_sector.o
 .rela.text.AB_Timer_GetTick
                0x00000000        0x0 /cygdrive/c/Airoha/AiroBlueSDK/AB1600_1_0_5_0/projects/SmartRemote/output/pj/components/Device/AB1600/cfg_sector.o
 .rela.text.AB_Timer_Enable_Ext
                0x00000000        0x0 /cygdrive/c/Airoha/AiroBlueSDK/AB1600_1_0_5_0/projects/SmartRemote/output/pj/components/Device/AB1600/cfg_sector.o
 .rela.text.AB_Timer_Enable
                0x00000000        0x0 /cygdrive/c/Airoha/AiroBlueSDK/AB1600_1_0_5_0/projects/SmartRemote/output/pj/components/Device/AB1600/cfg_sector.o
 .rela.text.AB_UART_SetBaud
                0x00000000        0x0 /cygdrive/c/Airoha/AiroBlueSDK/AB1600_1_0_5_0/projects/SmartRemote/output/pj/components/Device/AB1600/cfg_sector.o
 .rela.text.AB_UART_RxRecidue
                0x00000000        0x0 /cygdrive/c/Airoha/AiroBlueSDK/AB1600_1_0_5_0/projects/SmartRemote/output/pj/components/Device/AB1600/cfg_sector.o
 .rela.text.AB_UART_Read
                0x00000000        0x0 /cygdrive/c/Airoha/AiroBlueSDK/AB1600_1_0_5_0/projects/SmartRemote/output/pj/components/Device/AB1600/cfg_sector.o
 .rela.text.AB_UART_Write
                0x00000000        0x0 /cygdrive/c/Airoha/AiroBlueSDK/AB1600_1_0_5_0/projects/SmartRemote/output/pj/components/Device/AB1600/cfg_sector.o
 .rela.text.AB_UART_Close
                0x00000000        0x0 /cygdrive/c/Airoha/AiroBlueSDK/AB1600_1_0_5_0/projects/SmartRemote/output/pj/components/Device/AB1600/cfg_sector.o
 .rela.text.AB_UART_Flush
                0x00000000        0x0 /cygdrive/c/Airoha/AiroBlueSDK/AB1600_1_0_5_0/projects/SmartRemote/output/pj/components/Device/AB1600/cfg_sector.o
 .rela.text.AB_UART_Open
                0x00000000        0x0 /cygdrive/c/Airoha/AiroBlueSDK/AB1600_1_0_5_0/projects/SmartRemote/output/pj/components/Device/AB1600/cfg_sector.o
 .rela.text.driver_tx_complete
                0x00000000        0x0 /cygdrive/c/Airoha/AiroBlueSDK/AB1600_1_0_5_0/projects/SmartRemote/output/pj/components/Device/AB1600/cfg_sector.o
 .rela.text.ab_airoha_vcmd_compl_encode
                0x00000000        0x0 /cygdrive/c/Airoha/AiroBlueSDK/AB1600_1_0_5_0/projects/SmartRemote/output/pj/components/Device/AB1600/cfg_sector.o
 .rela.text.ISPSwitchArea
                0x00000000        0x0 /cygdrive/c/Airoha/AiroBlueSDK/AB1600_1_0_5_0/projects/SmartRemote/output/pj/components/Device/AB1600/cfg_sector.o
 .rela.text.ab_airoha_vcmd34_compl_encode
                0x00000000        0x0 /cygdrive/c/Airoha/AiroBlueSDK/AB1600_1_0_5_0/projects/SmartRemote/output/pj/components/Device/AB1600/cfg_sector.o
 .rela.text.ISPWriteData
                0x00000000        0x0 /cygdrive/c/Airoha/AiroBlueSDK/AB1600_1_0_5_0/projects/SmartRemote/output/pj/components/Device/AB1600/cfg_sector.o
 .rela.text.ISPGetDeviceStatusVCmdHdlr
                0x00000000        0x0 /cygdrive/c/Airoha/AiroBlueSDK/AB1600_1_0_5_0/projects/SmartRemote/output/pj/components/Device/AB1600/cfg_sector.o
 .rela.text.HC_HciLabTestWrThreeWiredVCmdHdlr
                0x00000000        0x0 /cygdrive/c/Airoha/AiroBlueSDK/AB1600_1_0_5_0/projects/SmartRemote/output/pj/components/Device/AB1600/cfg_sector.o
 .rela.text.FlashReadThreeWireVCmdHdlr
                0x00000000        0x0 /cygdrive/c/Airoha/AiroBlueSDK/AB1600_1_0_5_0/projects/SmartRemote/output/pj/components/Device/AB1600/cfg_sector.o
 .rela.text.HC_HciLabTestRdThreeWiredVCmdHdlr
                0x00000000        0x0 /cygdrive/c/Airoha/AiroBlueSDK/AB1600_1_0_5_0/projects/SmartRemote/output/pj/components/Device/AB1600/cfg_sector.o
 .rela.text.mount_1602
                0x00000000        0x0 /cygdrive/c/Airoha/AiroBlueSDK/AB1600_1_0_5_0/projects/SmartRemote/output/pj/components/Device/AB1600/cfg_sector.o
 .rela.text.dev_1602_read_cfm_cb
                0x00000000        0x0 /cygdrive/c/Airoha/AiroBlueSDK/AB1600_1_0_5_0/projects/SmartRemote/output/pj/components/Device/AB1600/cfg_sector.o
 .rela.text.FlashWriteThreeWireVCmdHdlr
                0x00000000        0x0 /cygdrive/c/Airoha/AiroBlueSDK/AB1600_1_0_5_0/projects/SmartRemote/output/pj/components/Device/AB1600/cfg_sector.o
 .rela.text.DRV_ADC_Calibration
                0x00000000        0x0 /cygdrive/c/Airoha/AiroBlueSDK/AB1600_1_0_5_0/projects/SmartRemote/output/pj/components/Device/AB1600/cfg_sector.o
 .rela.text.DRV_ADC_Read
                0x00000000        0x0 /cygdrive/c/Airoha/AiroBlueSDK/AB1600_1_0_5_0/projects/SmartRemote/output/pj/components/Device/AB1600/cfg_sector.o
 .rela.text.DRV_CLK_SysSel
                0x00000000        0x0 /cygdrive/c/Airoha/AiroBlueSDK/AB1600_1_0_5_0/projects/SmartRemote/output/pj/components/Device/AB1600/cfg_sector.o
 .rela.text.DRV_CLK_16MSel
                0x00000000        0x0 /cygdrive/c/Airoha/AiroBlueSDK/AB1600_1_0_5_0/projects/SmartRemote/output/pj/components/Device/AB1600/cfg_sector.o
 .rela.text.DRV_CLK_32KSel
                0x00000000        0x0 /cygdrive/c/Airoha/AiroBlueSDK/AB1600_1_0_5_0/projects/SmartRemote/output/pj/components/Device/AB1600/cfg_sector.o
 .rela.text.DRV_CLK_PLLEn
                0x00000000        0x0 /cygdrive/c/Airoha/AiroBlueSDK/AB1600_1_0_5_0/projects/SmartRemote/output/pj/components/Device/AB1600/cfg_sector.o
 .rela.text.DRV_CLK_En
                0x00000000        0x0 /cygdrive/c/Airoha/AiroBlueSDK/AB1600_1_0_5_0/projects/SmartRemote/output/pj/components/Device/AB1600/cfg_sector.o
 .rela.text.DRV_CLK_Calibration
                0x00000000        0x0 /cygdrive/c/Airoha/AiroBlueSDK/AB1600_1_0_5_0/projects/SmartRemote/output/pj/components/Device/AB1600/cfg_sector.o
 .rela.text.DRV_CLK_TMR0Sel
                0x00000000        0x0 /cygdrive/c/Airoha/AiroBlueSDK/AB1600_1_0_5_0/projects/SmartRemote/output/pj/components/Device/AB1600/cfg_sector.o
 .rela.text.DRV_TRND_Get
                0x00000000        0x0 /cygdrive/c/Airoha/AiroBlueSDK/AB1600_1_0_5_0/projects/SmartRemote/output/pj/components/Device/AB1600/cfg_sector.o
 .rela.text.DRV_Gpio_IntrHandler
                0x00000000        0x0 /cygdrive/c/Airoha/AiroBlueSDK/AB1600_1_0_5_0/projects/SmartRemote/output/pj/components/Device/AB1600/cfg_sector.o
 .rela.text.DRV_Gpio_IntDis
                0x00000000        0x0 /cygdrive/c/Airoha/AiroBlueSDK/AB1600_1_0_5_0/projects/SmartRemote/output/pj/components/Device/AB1600/cfg_sector.o
 .rela.text.DRV_Gpio_DirSet
                0x00000000        0x0 /cygdrive/c/Airoha/AiroBlueSDK/AB1600_1_0_5_0/projects/SmartRemote/output/pj/components/Device/AB1600/cfg_sector.o
 .rela.text.DRV_Gpio_ValSet
                0x00000000        0x0 /cygdrive/c/Airoha/AiroBlueSDK/AB1600_1_0_5_0/projects/SmartRemote/output/pj/components/Device/AB1600/cfg_sector.o
 .rela.text.DRV_Gpio_PinValSet
                0x00000000        0x0 /cygdrive/c/Airoha/AiroBlueSDK/AB1600_1_0_5_0/projects/SmartRemote/output/pj/components/Device/AB1600/cfg_sector.o
 .rela.text.DRV_Gpio_InvSet
                0x00000000        0x0 /cygdrive/c/Airoha/AiroBlueSDK/AB1600_1_0_5_0/projects/SmartRemote/output/pj/components/Device/AB1600/cfg_sector.o
 .rela.text.DRV_Gpio_DirGet
                0x00000000        0x0 /cygdrive/c/Airoha/AiroBlueSDK/AB1600_1_0_5_0/projects/SmartRemote/output/pj/components/Device/AB1600/cfg_sector.o
 .rela.text.DRV_Gpio_ValGet
                0x00000000        0x0 /cygdrive/c/Airoha/AiroBlueSDK/AB1600_1_0_5_0/projects/SmartRemote/output/pj/components/Device/AB1600/cfg_sector.o
 .rela.text.DRV_Gpio_PinValGet
                0x00000000        0x0 /cygdrive/c/Airoha/AiroBlueSDK/AB1600_1_0_5_0/projects/SmartRemote/output/pj/components/Device/AB1600/cfg_sector.o
 .rela.text.DRV_Gpio_LatchedIntStsGet
                0x00000000        0x0 /cygdrive/c/Airoha/AiroBlueSDK/AB1600_1_0_5_0/projects/SmartRemote/output/pj/components/Device/AB1600/cfg_sector.o
 .rela.text.DRV_Gpio_PinLatchedIntStsGet
                0x00000000        0x0 /cygdrive/c/Airoha/AiroBlueSDK/AB1600_1_0_5_0/projects/SmartRemote/output/pj/components/Device/AB1600/cfg_sector.o
 .rela.text.DRV_Gpio_InvGet
                0x00000000        0x0 /cygdrive/c/Airoha/AiroBlueSDK/AB1600_1_0_5_0/projects/SmartRemote/output/pj/components/Device/AB1600/cfg_sector.o
 .rela.text.DRV_Gpio_PinPullGet
                0x00000000        0x0 /cygdrive/c/Airoha/AiroBlueSDK/AB1600_1_0_5_0/projects/SmartRemote/output/pj/components/Device/AB1600/cfg_sector.o
 .rela.text.DRV_Gpio_PullSet
                0x00000000        0x0 /cygdrive/c/Airoha/AiroBlueSDK/AB1600_1_0_5_0/projects/SmartRemote/output/pj/components/Device/AB1600/cfg_sector.o
 .rela.text.DRV_Gpio_WakeDis
                0x00000000        0x0 /cygdrive/c/Airoha/AiroBlueSDK/AB1600_1_0_5_0/projects/SmartRemote/output/pj/components/Device/AB1600/cfg_sector.o
 .rela.text.DRV_Gpio_DebEn
                0x00000000        0x0 /cygdrive/c/Airoha/AiroBlueSDK/AB1600_1_0_5_0/projects/SmartRemote/output/pj/components/Device/AB1600/cfg_sector.o
 .rela.text.DRV_Gpio_IntEn
                0x00000000        0x0 /cygdrive/c/Airoha/AiroBlueSDK/AB1600_1_0_5_0/projects/SmartRemote/output/pj/components/Device/AB1600/cfg_sector.o
 .rela.text.DRV_Gpio_IntReg
                0x00000000        0x0 /cygdrive/c/Airoha/AiroBlueSDK/AB1600_1_0_5_0/projects/SmartRemote/output/pj/components/Device/AB1600/cfg_sector.o
 .rela.text.DRV_OdGpio_OeSet
                0x00000000        0x0 /cygdrive/c/Airoha/AiroBlueSDK/AB1600_1_0_5_0/projects/SmartRemote/output/pj/components/Device/AB1600/cfg_sector.o
 .rela.text.DRV_OdGpio_ValSet
                0x00000000        0x0 /cygdrive/c/Airoha/AiroBlueSDK/AB1600_1_0_5_0/projects/SmartRemote/output/pj/components/Device/AB1600/cfg_sector.o
 .rela.text.Drv_OdGpioDirGet
                0x00000000        0x0 /cygdrive/c/Airoha/AiroBlueSDK/AB1600_1_0_5_0/projects/SmartRemote/output/pj/components/Device/AB1600/cfg_sector.o
 .rela.text.DRV_OdGpio_ValGet
                0x00000000        0x0 /cygdrive/c/Airoha/AiroBlueSDK/AB1600_1_0_5_0/projects/SmartRemote/output/pj/components/Device/AB1600/cfg_sector.o
 .rela.text.DRV_OdGpio_IeSet
                0x00000000        0x0 /cygdrive/c/Airoha/AiroBlueSDK/AB1600_1_0_5_0/projects/SmartRemote/output/pj/components/Device/AB1600/cfg_sector.o
 .rela.text.DRV_KeyScan_Dis
                0x00000000        0x0 /cygdrive/c/Airoha/AiroBlueSDK/AB1600_1_0_5_0/projects/SmartRemote/output/pj/components/Device/AB1600/cfg_sector.o
 .rela.text.DRV_KeyScan_En
                0x00000000        0x0 /cygdrive/c/Airoha/AiroBlueSDK/AB1600_1_0_5_0/projects/SmartRemote/output/pj/components/Device/AB1600/cfg_sector.o
 .rela.text.KeyScanIsr
                0x00000000        0x0 /cygdrive/c/Airoha/AiroBlueSDK/AB1600_1_0_5_0/projects/SmartRemote/output/pj/components/Device/AB1600/cfg_sector.o
 .rela.text.DRV_KeyScan_Init
                0x00000000        0x0 /cygdrive/c/Airoha/AiroBlueSDK/AB1600_1_0_5_0/projects/SmartRemote/output/pj/components/Device/AB1600/cfg_sector.o
 .rela.text.DRV_Led_Set
                0x00000000        0x0 /cygdrive/c/Airoha/AiroBlueSDK/AB1600_1_0_5_0/projects/SmartRemote/output/pj/components/Device/AB1600/cfg_sector.o
 .rela.text.DRV_Led_Start
                0x00000000        0x0 /cygdrive/c/Airoha/AiroBlueSDK/AB1600_1_0_5_0/projects/SmartRemote/output/pj/components/Device/AB1600/cfg_sector.o
 .rela.text.DRV_Led_StartFollow
                0x00000000        0x0 /cygdrive/c/Airoha/AiroBlueSDK/AB1600_1_0_5_0/projects/SmartRemote/output/pj/components/Device/AB1600/cfg_sector.o
 .rela.text.DRV_Led_Stop
                0x00000000        0x0 /cygdrive/c/Airoha/AiroBlueSDK/AB1600_1_0_5_0/projects/SmartRemote/output/pj/components/Device/AB1600/cfg_sector.o
 .rela.text.MIC_IntHandler
                0x00000000        0x0 /cygdrive/c/Airoha/AiroBlueSDK/AB1600_1_0_5_0/projects/SmartRemote/output/pj/components/Device/AB1600/cfg_sector.o
 .rela.text.DRV_Mic_DeInit
                0x00000000        0x0 /cygdrive/c/Airoha/AiroBlueSDK/AB1600_1_0_5_0/projects/SmartRemote/output/pj/components/Device/AB1600/cfg_sector.o
 .rela.text.DRV_Mic_Disable
                0x00000000        0x0 /cygdrive/c/Airoha/AiroBlueSDK/AB1600_1_0_5_0/projects/SmartRemote/output/pj/components/Device/AB1600/cfg_sector.o
 .rela.text.DRV_Mic_Enable
                0x00000000        0x0 /cygdrive/c/Airoha/AiroBlueSDK/AB1600_1_0_5_0/projects/SmartRemote/output/pj/components/Device/AB1600/cfg_sector.o
 .rela.text.DRV_Mic_Init
                0x00000000        0x0 /cygdrive/c/Airoha/AiroBlueSDK/AB1600_1_0_5_0/projects/SmartRemote/output/pj/components/Device/AB1600/cfg_sector.o
 .rela.text.DRV_OdPinMux_GrpSet
                0x00000000        0x0 /cygdrive/c/Airoha/AiroBlueSDK/AB1600_1_0_5_0/projects/SmartRemote/output/pj/components/Device/AB1600/cfg_sector.o
 .rela.text.DRV_OdPinMux_SigSet
                0x00000000        0x0 /cygdrive/c/Airoha/AiroBlueSDK/AB1600_1_0_5_0/projects/SmartRemote/output/pj/components/Device/AB1600/cfg_sector.o
 .rela.text.DRV_OdPinMux_GrpGet
                0x00000000        0x0 /cygdrive/c/Airoha/AiroBlueSDK/AB1600_1_0_5_0/projects/SmartRemote/output/pj/components/Device/AB1600/cfg_sector.o
 .rela.text.DRV_OdPinMux_SigGet
                0x00000000        0x0 /cygdrive/c/Airoha/AiroBlueSDK/AB1600_1_0_5_0/projects/SmartRemote/output/pj/components/Device/AB1600/cfg_sector.o
 .rela.text.DRV_PinMux_AioGet
                0x00000000        0x0 /cygdrive/c/Airoha/AiroBlueSDK/AB1600_1_0_5_0/projects/SmartRemote/output/pj/components/Device/AB1600/cfg_sector.o
 .rela.text.DRV_PinMux_GrpGet
                0x00000000        0x0 /cygdrive/c/Airoha/AiroBlueSDK/AB1600_1_0_5_0/projects/SmartRemote/output/pj/components/Device/AB1600/cfg_sector.o
 .rela.text.DRV_PinMux_SigGet
                0x00000000        0x0 /cygdrive/c/Airoha/AiroBlueSDK/AB1600_1_0_5_0/projects/SmartRemote/output/pj/components/Device/AB1600/cfg_sector.o
 .rela.text.set_aio
                0x00000000        0x0 /cygdrive/c/Airoha/AiroBlueSDK/AB1600_1_0_5_0/projects/SmartRemote/output/pj/components/Device/AB1600/cfg_sector.o
 .rela.text.DRV_PinMux_GrpSet
                0x00000000        0x0 /cygdrive/c/Airoha/AiroBlueSDK/AB1600_1_0_5_0/projects/SmartRemote/output/pj/components/Device/AB1600/cfg_sector.o
 .rela.text.DRV_PinMux_SigSet
                0x00000000        0x0 /cygdrive/c/Airoha/AiroBlueSDK/AB1600_1_0_5_0/projects/SmartRemote/output/pj/components/Device/AB1600/cfg_sector.o
 .rela.text.DRV_Pwr_SetRegenNoPull
                0x00000000        0x0 /cygdrive/c/Airoha/AiroBlueSDK/AB1600_1_0_5_0/projects/SmartRemote/output/pj/components/Device/AB1600/cfg_sector.o
 .rela.text.DRV_Pwr_EnterMode
                0x00000000        0x0 /cygdrive/c/Airoha/AiroBlueSDK/AB1600_1_0_5_0/projects/SmartRemote/output/pj/components/Device/AB1600/cfg_sector.o
 .rela.text.DRV_Pwr_BootFrom
                0x00000000        0x0 /cygdrive/c/Airoha/AiroBlueSDK/AB1600_1_0_5_0/projects/SmartRemote/output/pj/components/Device/AB1600/cfg_sector.o
 .rela.text.SPI1_InterruptHandler
                0x00000000        0x0 /cygdrive/c/Airoha/AiroBlueSDK/AB1600_1_0_5_0/projects/SmartRemote/output/pj/components/Device/AB1600/cfg_sector.o
 .rela.text.SPI2_InterruptHandler
                0x00000000        0x0 /cygdrive/c/Airoha/AiroBlueSDK/AB1600_1_0_5_0/projects/SmartRemote/output/pj/components/Device/AB1600/cfg_sector.o
 .rela.text.DRV_SPI_Deinit
                0x00000000        0x0 /cygdrive/c/Airoha/AiroBlueSDK/AB1600_1_0_5_0/projects/SmartRemote/output/pj/components/Device/AB1600/cfg_sector.o
 .rela.text.DRV_SPI_ClkRefresh
                0x00000000        0x0 /cygdrive/c/Airoha/AiroBlueSDK/AB1600_1_0_5_0/projects/SmartRemote/output/pj/components/Device/AB1600/cfg_sector.o
 .rela.text.DRV_SPI_WriteRead
                0x00000000        0x0 /cygdrive/c/Airoha/AiroBlueSDK/AB1600_1_0_5_0/projects/SmartRemote/output/pj/components/Device/AB1600/cfg_sector.o
 .rela.text.DRV_SPI_ChangeDuplex
                0x00000000        0x0 /cygdrive/c/Airoha/AiroBlueSDK/AB1600_1_0_5_0/projects/SmartRemote/output/pj/components/Device/AB1600/cfg_sector.o
 .rela.text.DRV_SPI_Init
                0x00000000        0x0 /cygdrive/c/Airoha/AiroBlueSDK/AB1600_1_0_5_0/projects/SmartRemote/output/pj/components/Device/AB1600/cfg_sector.o
 .rela.text.Timer32B0InterruptHandler
                0x00000000        0x0 /cygdrive/c/Airoha/AiroBlueSDK/AB1600_1_0_5_0/projects/SmartRemote/output/pj/components/Device/AB1600/cfg_sector.o
 .rela.text.DRV_TMR32B0_Disable
                0x00000000        0x0 /cygdrive/c/Airoha/AiroBlueSDK/AB1600_1_0_5_0/projects/SmartRemote/output/pj/components/Device/AB1600/cfg_sector.o
 .rela.text.DRV_TMR32B0_Reset
                0x00000000        0x0 /cygdrive/c/Airoha/AiroBlueSDK/AB1600_1_0_5_0/projects/SmartRemote/output/pj/components/Device/AB1600/cfg_sector.o
 .rela.text.DRV_TMR32B0_TickGet
                0x00000000        0x0 /cygdrive/c/Airoha/AiroBlueSDK/AB1600_1_0_5_0/projects/SmartRemote/output/pj/components/Device/AB1600/cfg_sector.o
 .rela.text.DRV_TMR32B0_NotifyEnable
                0x00000000        0x0 /cygdrive/c/Airoha/AiroBlueSDK/AB1600_1_0_5_0/projects/SmartRemote/output/pj/components/Device/AB1600/cfg_sector.o
 .rela.text.DRV_TMR32B0_NotifyDisable
                0x00000000        0x0 /cygdrive/c/Airoha/AiroBlueSDK/AB1600_1_0_5_0/projects/SmartRemote/output/pj/components/Device/AB1600/cfg_sector.o
 .rela.text.DRV_TMR32B0_Enable_Ext
                0x00000000        0x0 /cygdrive/c/Airoha/AiroBlueSDK/AB1600_1_0_5_0/projects/SmartRemote/output/pj/components/Device/AB1600/cfg_sector.o
 .rela.text.DRV_TMR32B0_Enable
                0x00000000        0x0 /cygdrive/c/Airoha/AiroBlueSDK/AB1600_1_0_5_0/projects/SmartRemote/output/pj/components/Device/AB1600/cfg_sector.o
 .rela.text.DRV_Uart_SetBaud
                0x00000000        0x0 /cygdrive/c/Airoha/AiroBlueSDK/AB1600_1_0_5_0/projects/SmartRemote/output/pj/components/Device/AB1600/cfg_sector.o
 .rela.text.DRV_Uart_IsIdle
                0x00000000        0x0 /cygdrive/c/Airoha/AiroBlueSDK/AB1600_1_0_5_0/projects/SmartRemote/output/pj/components/Device/AB1600/cfg_sector.o
 .rela.text.DRV_Uart_Flush
                0x00000000        0x0 /cygdrive/c/Airoha/AiroBlueSDK/AB1600_1_0_5_0/projects/SmartRemote/output/pj/components/Device/AB1600/cfg_sector.o
 .rela.text.DRV_Uart_Write
                0x00000000        0x0 /cygdrive/c/Airoha/AiroBlueSDK/AB1600_1_0_5_0/projects/SmartRemote/output/pj/components/Device/AB1600/cfg_sector.o
 .rela.text.DRV_Uart_Read
                0x00000000        0x0 /cygdrive/c/Airoha/AiroBlueSDK/AB1600_1_0_5_0/projects/SmartRemote/output/pj/components/Device/AB1600/cfg_sector.o
 .rela.text.DRV_Uart_Drop
                0x00000000        0x0 /cygdrive/c/Airoha/AiroBlueSDK/AB1600_1_0_5_0/projects/SmartRemote/output/pj/components/Device/AB1600/cfg_sector.o
 .rela.text.UART2_RxDmaHandler
                0x00000000        0x0 /cygdrive/c/Airoha/AiroBlueSDK/AB1600_1_0_5_0/projects/SmartRemote/output/pj/components/Device/AB1600/cfg_sector.o
 .rela.text.UART2InterruptHandler
                0x00000000        0x0 /cygdrive/c/Airoha/AiroBlueSDK/AB1600_1_0_5_0/projects/SmartRemote/output/pj/components/Device/AB1600/cfg_sector.o
 .rela.text.UART_RxDmaHandler
                0x00000000        0x0 /cygdrive/c/Airoha/AiroBlueSDK/AB1600_1_0_5_0/projects/SmartRemote/output/pj/components/Device/AB1600/cfg_sector.o
 .rela.text.UARTInterruptHandler
                0x00000000        0x0 /cygdrive/c/Airoha/AiroBlueSDK/AB1600_1_0_5_0/projects/SmartRemote/output/pj/components/Device/AB1600/cfg_sector.o
 .rela.text.DRV_Uart_Deinit
                0x00000000        0x0 /cygdrive/c/Airoha/AiroBlueSDK/AB1600_1_0_5_0/projects/SmartRemote/output/pj/components/Device/AB1600/cfg_sector.o
 .rela.text.DRV_Uart_Init
                0x00000000        0x0 /cygdrive/c/Airoha/AiroBlueSDK/AB1600_1_0_5_0/projects/SmartRemote/output/pj/components/Device/AB1600/cfg_sector.o
 .rela.text.DRV_WDT_Disable
                0x00000000        0x0 /cygdrive/c/Airoha/AiroBlueSDK/AB1600_1_0_5_0/projects/SmartRemote/output/pj/components/Device/AB1600/cfg_sector.o
 .rela.text.DRV_WDT_Kick
                0x00000000        0x0 /cygdrive/c/Airoha/AiroBlueSDK/AB1600_1_0_5_0/projects/SmartRemote/output/pj/components/Device/AB1600/cfg_sector.o
 .rela.text.DRV_WDT_LastPC
                0x00000000        0x0 /cygdrive/c/Airoha/AiroBlueSDK/AB1600_1_0_5_0/projects/SmartRemote/output/pj/components/Device/AB1600/cfg_sector.o
 .rela.text.DRV_WDT_Enable
                0x00000000        0x0 /cygdrive/c/Airoha/AiroBlueSDK/AB1600_1_0_5_0/projects/SmartRemote/output/pj/components/Device/AB1600/cfg_sector.o
 .rela.text.BAS_update_battery_level
                0x00000000        0x0 /cygdrive/c/Airoha/AiroBlueSDK/AB1600_1_0_5_0/projects/SmartRemote/output/pj/components/Device/AB1600/cfg_sector.o
 .rela.text.BAS_init
                0x00000000        0x0 /cygdrive/c/Airoha/AiroBlueSDK/AB1600_1_0_5_0/projects/SmartRemote/output/pj/components/Device/AB1600/cfg_sector.o
 .rela.text.OTA_init
                0x00000000        0x0 /cygdrive/c/Airoha/AiroBlueSDK/AB1600_1_0_5_0/projects/SmartRemote/output/pj/components/Device/AB1600/cfg_sector.o
 .rela.text._OTA_read_bootcode_ver
                0x00000000        0x0 /cygdrive/c/Airoha/AiroBlueSDK/AB1600_1_0_5_0/projects/SmartRemote/output/pj/components/Device/AB1600/cfg_sector.o
 .rela.text._OTA_change_area
                0x00000000        0x0 /cygdrive/c/Airoha/AiroBlueSDK/AB1600_1_0_5_0/projects/SmartRemote/output/pj/components/Device/AB1600/cfg_sector.o
 .rela.text._OTA_write_flash
                0x00000000        0x0 /cygdrive/c/Airoha/AiroBlueSDK/AB1600_1_0_5_0/projects/SmartRemote/output/pj/components/Device/AB1600/cfg_sector.o
 .rela.text._OTA_erase_flash
                0x00000000        0x0 /cygdrive/c/Airoha/AiroBlueSDK/AB1600_1_0_5_0/projects/SmartRemote/output/pj/components/Device/AB1600/cfg_sector.o
 .rela.text._OTA_read_status_ex
                0x00000000        0x0 /cygdrive/c/Airoha/AiroBlueSDK/AB1600_1_0_5_0/projects/SmartRemote/output/pj/components/Device/AB1600/cfg_sector.o
 .rela.text._OTA_read_status
                0x00000000        0x0 /cygdrive/c/Airoha/AiroBlueSDK/AB1600_1_0_5_0/projects/SmartRemote/output/pj/components/Device/AB1600/cfg_sector.o
 .rela.text._OTA_command_CB
                0x00000000        0x0 /cygdrive/c/Airoha/AiroBlueSDK/AB1600_1_0_5_0/projects/SmartRemote/output/pj/components/Device/AB1600/cfg_sector.o
 .rela.text._dis_add_char
                0x00000000        0x0 /cygdrive/c/Airoha/AiroBlueSDK/AB1600_1_0_5_0/projects/SmartRemote/output/pj/components/Device/AB1600/cfg_sector.o
 .rela.text.DIS_init
                0x00000000        0x0 /cygdrive/c/Airoha/AiroBlueSDK/AB1600_1_0_5_0/projects/SmartRemote/output/pj/components/Device/AB1600/cfg_sector.o
 .rela.text.GAS_support_privacy_feature
                0x00000000        0x0 /cygdrive/c/Airoha/AiroBlueSDK/AB1600_1_0_5_0/projects/SmartRemote/output/pj/components/Device/AB1600/cfg_sector.o
 .rela.text.GAS_init
                0x00000000        0x0 /cygdrive/c/Airoha/AiroBlueSDK/AB1600_1_0_5_0/projects/SmartRemote/output/pj/components/Device/AB1600/cfg_sector.o
 .rela.text.GATT_service_changed
                0x00000000        0x0 /cygdrive/c/Airoha/AiroBlueSDK/AB1600_1_0_5_0/projects/SmartRemote/output/pj/components/Device/AB1600/cfg_sector.o
 .rela.text.GATT_init
                0x00000000        0x0 /cygdrive/c/Airoha/AiroBlueSDK/AB1600_1_0_5_0/projects/SmartRemote/output/pj/components/Device/AB1600/cfg_sector.o
 .rela.text.HIDS_add_report
                0x00000000        0x0 /cygdrive/c/Airoha/AiroBlueSDK/AB1600_1_0_5_0/projects/SmartRemote/output/pj/components/Device/AB1600/cfg_sector.o
 .rela.text.HIDS_init
                0x00000000        0x0 /cygdrive/c/Airoha/AiroBlueSDK/AB1600_1_0_5_0/projects/SmartRemote/output/pj/components/Device/AB1600/cfg_sector.o
 .rela.text.AB_console_UserInput
                0x00000000        0x0 /cygdrive/c/Airoha/AiroBlueSDK/AB1600_1_0_5_0/projects/SmartRemote/output/pj/components/Device/AB1600/cfg_sector.o
 .rela.text.AB_console_handle
                0x00000000        0x0 /cygdrive/c/Airoha/AiroBlueSDK/AB1600_1_0_5_0/projects/SmartRemote/output/pj/components/Device/AB1600/cfg_sector.o
 .rela.text.AB_console_init
                0x00000000        0x0 /cygdrive/c/Airoha/AiroBlueSDK/AB1600_1_0_5_0/projects/SmartRemote/output/pj/components/Device/AB1600/cfg_sector.o
 .rela.text.shell_parse_line
                0x00000000        0x0 /cygdrive/c/Airoha/AiroBlueSDK/AB1600_1_0_5_0/projects/SmartRemote/output/pj/components/Device/AB1600/cfg_sector.o
 .rela.text.shell_history_save
                0x00000000        0x0 /cygdrive/c/Airoha/AiroBlueSDK/AB1600_1_0_5_0/projects/SmartRemote/output/pj/components/Device/AB1600/cfg_sector.o
 .rela.text.shell_find_cmd
                0x00000000        0x0 /cygdrive/c/Airoha/AiroBlueSDK/AB1600_1_0_5_0/projects/SmartRemote/output/pj/components/Device/AB1600/cfg_sector.o
 .rela.text.shell_printf
                0x00000000        0x0 /cygdrive/c/Airoha/AiroBlueSDK/AB1600_1_0_5_0/projects/SmartRemote/output/pj/components/Device/AB1600/cfg_sector.o
 .rela.text.shell_history_search
                0x00000000        0x0 /cygdrive/c/Airoha/AiroBlueSDK/AB1600_1_0_5_0/projects/SmartRemote/output/pj/components/Device/AB1600/cfg_sector.o
 .rela.text.shell_show_title
                0x00000000        0x0 /cygdrive/c/Airoha/AiroBlueSDK/AB1600_1_0_5_0/projects/SmartRemote/output/pj/components/Device/AB1600/cfg_sector.o
 .rela.text.AB_shell_main_loop
                0x00000000        0x0 /cygdrive/c/Airoha/AiroBlueSDK/AB1600_1_0_5_0/projects/SmartRemote/output/pj/components/Device/AB1600/cfg_sector.o
 .rela.text.AB_Debug_CpuExceptionMonitor
                0x00000000        0x0 /cygdrive/c/Airoha/AiroBlueSDK/AB1600_1_0_5_0/projects/SmartRemote/output/pj/components/Device/AB1600/cfg_sector.o
 .rela.text.exception8
                0x00000000        0x0 /cygdrive/c/Airoha/AiroBlueSDK/AB1600_1_0_5_0/projects/SmartRemote/output/pj/components/Device/AB1600/cfg_sector.o
 .rela.text.exception7
                0x00000000        0x0 /cygdrive/c/Airoha/AiroBlueSDK/AB1600_1_0_5_0/projects/SmartRemote/output/pj/components/Device/AB1600/cfg_sector.o
 .rela.text.exception6
                0x00000000        0x0 /cygdrive/c/Airoha/AiroBlueSDK/AB1600_1_0_5_0/projects/SmartRemote/output/pj/components/Device/AB1600/cfg_sector.o
 .rela.text.exception5
                0x00000000        0x0 /cygdrive/c/Airoha/AiroBlueSDK/AB1600_1_0_5_0/projects/SmartRemote/output/pj/components/Device/AB1600/cfg_sector.o
 .rela.text.exception4
                0x00000000        0x0 /cygdrive/c/Airoha/AiroBlueSDK/AB1600_1_0_5_0/projects/SmartRemote/output/pj/components/Device/AB1600/cfg_sector.o
 .rela.text.exception3
                0x00000000        0x0 /cygdrive/c/Airoha/AiroBlueSDK/AB1600_1_0_5_0/projects/SmartRemote/output/pj/components/Device/AB1600/cfg_sector.o
 .rela.text.exception2
                0x00000000        0x0 /cygdrive/c/Airoha/AiroBlueSDK/AB1600_1_0_5_0/projects/SmartRemote/output/pj/components/Device/AB1600/cfg_sector.o
 .rela.text.exception1
                0x00000000        0x0 /cygdrive/c/Airoha/AiroBlueSDK/AB1600_1_0_5_0/projects/SmartRemote/output/pj/components/Device/AB1600/cfg_sector.o
 .rela.text.AB_DFU_set_active_code_area
                0x00000000        0x0 /cygdrive/c/Airoha/AiroBlueSDK/AB1600_1_0_5_0/projects/SmartRemote/output/pj/components/Device/AB1600/cfg_sector.o
 .rela.text.AB_DFU_write_flash
                0x00000000        0x0 /cygdrive/c/Airoha/AiroBlueSDK/AB1600_1_0_5_0/projects/SmartRemote/output/pj/components/Device/AB1600/cfg_sector.o
 .rela.text.AB_DFU_erase_flash
                0x00000000        0x0 /cygdrive/c/Airoha/AiroBlueSDK/AB1600_1_0_5_0/projects/SmartRemote/output/pj/components/Device/AB1600/cfg_sector.o
 .rela.text.AB_module_enum_by_name_next
                0x00000000        0x0 /cygdrive/c/Airoha/AiroBlueSDK/AB1600_1_0_5_0/projects/SmartRemote/output/pj/components/Device/AB1600/cfg_sector.o
 .rela.text.AB_module_count
                0x00000000        0x0 /cygdrive/c/Airoha/AiroBlueSDK/AB1600_1_0_5_0/projects/SmartRemote/output/pj/components/Device/AB1600/cfg_sector.o
 .rela.text.SERIALFLASH_SetPatternAndStart
                0x00000000        0x0 /cygdrive/c/Airoha/AiroBlueSDK/AB1600_1_0_5_0/projects/SmartRemote/output/pj/components/Device/AB1600/cfg_sector.o
 .rela.text._MXIC_WB_Flash_WaitForReady
                0x00000000        0x0 /cygdrive/c/Airoha/AiroBlueSDK/AB1600_1_0_5_0/projects/SmartRemote/output/pj/components/Device/AB1600/cfg_sector.o
 .rela.text.DRV_Flash_ByteRead
                0x00000000        0x0 /cygdrive/c/Airoha/AiroBlueSDK/AB1600_1_0_5_0/projects/SmartRemote/output/pj/components/Device/AB1600/cfg_sector.o
 .rela.text.DRV_Flash_ByteProgram
                0x00000000        0x0 /cygdrive/c/Airoha/AiroBlueSDK/AB1600_1_0_5_0/projects/SmartRemote/output/pj/components/Device/AB1600/cfg_sector.o
 .rela.text.DRV_Flash_PageRead
                0x00000000        0x0 /cygdrive/c/Airoha/AiroBlueSDK/AB1600_1_0_5_0/projects/SmartRemote/output/pj/components/Device/AB1600/cfg_sector.o
 .rela.text.DRV_Flash_PageProgram
                0x00000000        0x0 /cygdrive/c/Airoha/AiroBlueSDK/AB1600_1_0_5_0/projects/SmartRemote/output/pj/components/Device/AB1600/cfg_sector.o
 .rela.text.DRV_Flash_Protection
                0x00000000        0x0 /cygdrive/c/Airoha/AiroBlueSDK/AB1600_1_0_5_0/projects/SmartRemote/output/pj/components/Device/AB1600/cfg_sector.o
 .rela.text.Drv_Flash_BlockSectorErase
                0x00000000        0x0 /cygdrive/c/Airoha/AiroBlueSDK/AB1600_1_0_5_0/projects/SmartRemote/output/pj/components/Device/AB1600/cfg_sector.o
 .rela.text.DRV_Flash_ChipErase
                0x00000000        0x0 /cygdrive/c/Airoha/AiroBlueSDK/AB1600_1_0_5_0/projects/SmartRemote/output/pj/components/Device/AB1600/cfg_sector.o
 .rela.text.hci_h4_decode
                0x00000000        0x0 /cygdrive/c/Airoha/AiroBlueSDK/AB1600_1_0_5_0/projects/SmartRemote/output/pj/components/Device/AB1600/cfg_sector.o
 .rela.text.hci_h4_encode_dat
                0x00000000        0x0 /cygdrive/c/Airoha/AiroBlueSDK/AB1600_1_0_5_0/projects/SmartRemote/output/pj/components/Device/AB1600/cfg_sector.o
 .rela.text.hci_h4_encode_cmd
                0x00000000        0x0 /cygdrive/c/Airoha/AiroBlueSDK/AB1600_1_0_5_0/projects/SmartRemote/output/pj/components/Device/AB1600/cfg_sector.o
 .rela.text.BT_Log_Enable
                0x00000000        0x0 /cygdrive/c/Airoha/AiroBlueSDK/AB1600_1_0_5_0/projects/SmartRemote/output/pj/components/Device/AB1600/cfg_sector.o
 .rela.text.BT_Pause_Tx
                0x00000000        0x0 /cygdrive/c/Airoha/AiroBlueSDK/AB1600_1_0_5_0/projects/SmartRemote/output/pj/components/Device/AB1600/cfg_sector.o
 .rela.text.BT_Pending_TxCnt
                0x00000000        0x0 /cygdrive/c/Airoha/AiroBlueSDK/AB1600_1_0_5_0/projects/SmartRemote/output/pj/components/Device/AB1600/cfg_sector.o
 .rela.text.BT_InitEx2
                0x00000000        0x0 /cygdrive/c/Airoha/AiroBlueSDK/AB1600_1_0_5_0/projects/SmartRemote/output/pj/components/Device/AB1600/cfg_sector.o
 .rela.text.hci_init_done
                0x00000000        0x0 /cygdrive/c/Airoha/AiroBlueSDK/AB1600_1_0_5_0/projects/SmartRemote/output/pj/components/Device/AB1600/cfg_sector.o
 .rela.text.bt_init_read_buf_size
                0x00000000        0x0 /cygdrive/c/Airoha/AiroBlueSDK/AB1600_1_0_5_0/projects/SmartRemote/output/pj/components/Device/AB1600/cfg_sector.o
 .rela.text.ble_gap_disable_latency
                0x00000000        0x0 /cygdrive/c/Airoha/AiroBlueSDK/AB1600_1_0_5_0/projects/SmartRemote/output/pj/components/Device/AB1600/cfg_sector.o
 .rela.text.ble_gap_remote_version
                0x00000000        0x0 /cygdrive/c/Airoha/AiroBlueSDK/AB1600_1_0_5_0/projects/SmartRemote/output/pj/components/Device/AB1600/cfg_sector.o
 .rela.text.ble_gap_disconnect
                0x00000000        0x0 /cygdrive/c/Airoha/AiroBlueSDK/AB1600_1_0_5_0/projects/SmartRemote/output/pj/components/Device/AB1600/cfg_sector.o
 .rela.text.ble_gap_init
                0x00000000        0x0 /cygdrive/c/Airoha/AiroBlueSDK/AB1600_1_0_5_0/projects/SmartRemote/output/pj/components/Device/AB1600/cfg_sector.o
 .rela.text.ble_gap_connect_cancel
                0x00000000        0x0 /cygdrive/c/Airoha/AiroBlueSDK/AB1600_1_0_5_0/projects/SmartRemote/output/pj/components/Device/AB1600/cfg_sector.o
 .rela.text.ble_gap_scan_stop
                0x00000000        0x0 /cygdrive/c/Airoha/AiroBlueSDK/AB1600_1_0_5_0/projects/SmartRemote/output/pj/components/Device/AB1600/cfg_sector.o
 .rela.text.ble_gap_tx_power_set
                0x00000000        0x0 /cygdrive/c/Airoha/AiroBlueSDK/AB1600_1_0_5_0/projects/SmartRemote/output/pj/components/Device/AB1600/cfg_sector.o
 .rela.text.ble_gap_adv_stop
                0x00000000        0x0 /cygdrive/c/Airoha/AiroBlueSDK/AB1600_1_0_5_0/projects/SmartRemote/output/pj/components/Device/AB1600/cfg_sector.o
 .rela.text.set_adv_parm_cb
                0x00000000        0x0 /cygdrive/c/Airoha/AiroBlueSDK/AB1600_1_0_5_0/projects/SmartRemote/output/pj/components/Device/AB1600/cfg_sector.o
 .rela.text.gap_init_cb
                0x00000000        0x0 /cygdrive/c/Airoha/AiroBlueSDK/AB1600_1_0_5_0/projects/SmartRemote/output/pj/components/Device/AB1600/cfg_sector.o
 .rela.text.ble_gap_scan_set_parameter
                0x00000000        0x0 /cygdrive/c/Airoha/AiroBlueSDK/AB1600_1_0_5_0/projects/SmartRemote/output/pj/components/Device/AB1600/cfg_sector.o
 .rela.text.ble_gap_start_encrypt
                0x00000000        0x0 /cygdrive/c/Airoha/AiroBlueSDK/AB1600_1_0_5_0/projects/SmartRemote/output/pj/components/Device/AB1600/cfg_sector.o
 .rela.text.ble_gap_pub_address_get
                0x00000000        0x0 /cygdrive/c/Airoha/AiroBlueSDK/AB1600_1_0_5_0/projects/SmartRemote/output/pj/components/Device/AB1600/cfg_sector.o
 .rela.text.ble_gap_add_whitelist
                0x00000000        0x0 /cygdrive/c/Airoha/AiroBlueSDK/AB1600_1_0_5_0/projects/SmartRemote/output/pj/components/Device/AB1600/cfg_sector.o
 .rela.text.ble_gap_scan_start
                0x00000000        0x0 /cygdrive/c/Airoha/AiroBlueSDK/AB1600_1_0_5_0/projects/SmartRemote/output/pj/components/Device/AB1600/cfg_sector.o
 .rela.text.ble_gap_address_set
                0x00000000        0x0 /cygdrive/c/Airoha/AiroBlueSDK/AB1600_1_0_5_0/projects/SmartRemote/output/pj/components/Device/AB1600/cfg_sector.o
 .rela.text.set_clear_wlst_cb
                0x00000000        0x0 /cygdrive/c/Airoha/AiroBlueSDK/AB1600_1_0_5_0/projects/SmartRemote/output/pj/components/Device/AB1600/cfg_sector.o
 .rela.text.set_add_wlst_cb
                0x00000000        0x0 /cygdrive/c/Airoha/AiroBlueSDK/AB1600_1_0_5_0/projects/SmartRemote/output/pj/components/Device/AB1600/cfg_sector.o
 .rela.text.set_scan_parm_cb
                0x00000000        0x0 /cygdrive/c/Airoha/AiroBlueSDK/AB1600_1_0_5_0/projects/SmartRemote/output/pj/components/Device/AB1600/cfg_sector.o
 .rela.text.ble_gap_connect
                0x00000000        0x0 /cygdrive/c/Airoha/AiroBlueSDK/AB1600_1_0_5_0/projects/SmartRemote/output/pj/components/Device/AB1600/cfg_sector.o
 .rela.text.ble_gap_conn_param_update
                0x00000000        0x0 /cygdrive/c/Airoha/AiroBlueSDK/AB1600_1_0_5_0/projects/SmartRemote/output/pj/components/Device/AB1600/cfg_sector.o
 .rela.text.ble_gap_adv_start
                0x00000000        0x0 /cygdrive/c/Airoha/AiroBlueSDK/AB1600_1_0_5_0/projects/SmartRemote/output/pj/components/Device/AB1600/cfg_sector.o
 .rela.text.ble_gap_adv_set_parameter
                0x00000000        0x0 /cygdrive/c/Airoha/AiroBlueSDK/AB1600_1_0_5_0/projects/SmartRemote/output/pj/components/Device/AB1600/cfg_sector.o
 .rela.text.ble_gap_scan_data_set
                0x00000000        0x0 /cygdrive/c/Airoha/AiroBlueSDK/AB1600_1_0_5_0/projects/SmartRemote/output/pj/components/Device/AB1600/cfg_sector.o
 .rela.text.ble_gap_adv_data_set
                0x00000000        0x0 /cygdrive/c/Airoha/AiroBlueSDK/AB1600_1_0_5_0/projects/SmartRemote/output/pj/components/Device/AB1600/cfg_sector.o
 .rela.text.ble_gap_random_address_get
                0x00000000        0x0 /cygdrive/c/Airoha/AiroBlueSDK/AB1600_1_0_5_0/projects/SmartRemote/output/pj/components/Device/AB1600/cfg_sector.o
 .rela.text.ble_gap_event_handler
                0x00000000        0x0 /cygdrive/c/Airoha/AiroBlueSDK/AB1600_1_0_5_0/projects/SmartRemote/output/pj/components/Device/AB1600/cfg_sector.o
 .rela.text.ble_gap_link_GetAttr_OwnerAddr
                0x00000000        0x0 /cygdrive/c/Airoha/AiroBlueSDK/AB1600_1_0_5_0/projects/SmartRemote/output/pj/components/Device/AB1600/cfg_sector.o
 .rela.text.ble_gap_link_SetAttr_Clear
                0x00000000        0x0 /cygdrive/c/Airoha/AiroBlueSDK/AB1600_1_0_5_0/projects/SmartRemote/output/pj/components/Device/AB1600/cfg_sector.o
 .rela.text.ble_gap_link_SetAttr_BdAddr
                0x00000000        0x0 /cygdrive/c/Airoha/AiroBlueSDK/AB1600_1_0_5_0/projects/SmartRemote/output/pj/components/Device/AB1600/cfg_sector.o
 .rela.text.ble_gap_link_GetIdx_ByBdAddr
                0x00000000        0x0 /cygdrive/c/Airoha/AiroBlueSDK/AB1600_1_0_5_0/projects/SmartRemote/output/pj/components/Device/AB1600/cfg_sector.o
 .rela.text.ble_gap_link_Add_Ex
                0x00000000        0x0 /cygdrive/c/Airoha/AiroBlueSDK/AB1600_1_0_5_0/projects/SmartRemote/output/pj/components/Device/AB1600/cfg_sector.o
 .rela.text.BLE_gap_sm_init
                0x00000000        0x0 /cygdrive/c/Airoha/AiroBlueSDK/AB1600_1_0_5_0/projects/SmartRemote/output/pj/components/Device/AB1600/cfg_sector.o
 .rela.text.BLE_gap_sm_get_peer_ltk
                0x00000000        0x0 /cygdrive/c/Airoha/AiroBlueSDK/AB1600_1_0_5_0/projects/SmartRemote/output/pj/components/Device/AB1600/cfg_sector.o
 .rela.text.BLE_gap_sm_get_ltk
                0x00000000        0x0 /cygdrive/c/Airoha/AiroBlueSDK/AB1600_1_0_5_0/projects/SmartRemote/output/pj/components/Device/AB1600/cfg_sector.o
 .rela.text.BLE_gap_sm_send_keypress_notification_request
                0x00000000        0x0 /cygdrive/c/Airoha/AiroBlueSDK/AB1600_1_0_5_0/projects/SmartRemote/output/pj/components/Device/AB1600/cfg_sector.o
 .rela.text.BLE_gap_sm_OOB_response
                0x00000000        0x0 /cygdrive/c/Airoha/AiroBlueSDK/AB1600_1_0_5_0/projects/SmartRemote/output/pj/components/Device/AB1600/cfg_sector.o
 .rela.text.BLE_gap_sm_passkey_response
                0x00000000        0x0 /cygdrive/c/Airoha/AiroBlueSDK/AB1600_1_0_5_0/projects/SmartRemote/output/pj/components/Device/AB1600/cfg_sector.o
 .rela.text.BLE_gap_sm_get_last_paired_device
                0x00000000        0x0 /cygdrive/c/Airoha/AiroBlueSDK/AB1600_1_0_5_0/projects/SmartRemote/output/pj/components/Device/AB1600/cfg_sector.o
 .rela.text.BLE_gap_sm_is_device_bonded
                0x00000000        0x0 /cygdrive/c/Airoha/AiroBlueSDK/AB1600_1_0_5_0/projects/SmartRemote/output/pj/components/Device/AB1600/cfg_sector.o
 .rela.text.BLE_gap_sm_delete_paired_record
                0x00000000        0x0 /cygdrive/c/Airoha/AiroBlueSDK/AB1600_1_0_5_0/projects/SmartRemote/output/pj/components/Device/AB1600/cfg_sector.o
 .rela.text.BLE_gap_sm_set_security_param
                0x00000000        0x0 /cygdrive/c/Airoha/AiroBlueSDK/AB1600_1_0_5_0/projects/SmartRemote/output/pj/components/Device/AB1600/cfg_sector.o
 .rela.text.BLE_gap_sm_disconnected
                0x00000000        0x0 /cygdrive/c/Airoha/AiroBlueSDK/AB1600_1_0_5_0/projects/SmartRemote/output/pj/components/Device/AB1600/cfg_sector.o
 .rela.text.BLE_gap_sm_set_link_auth
                0x00000000        0x0 /cygdrive/c/Airoha/AiroBlueSDK/AB1600_1_0_5_0/projects/SmartRemote/output/pj/components/Device/AB1600/cfg_sector.o
 .rela.text.BLE_gap_sm_authenticate
                0x00000000        0x0 /cygdrive/c/Airoha/AiroBlueSDK/AB1600_1_0_5_0/projects/SmartRemote/output/pj/components/Device/AB1600/cfg_sector.o
 .rela.text.BLE_gap_sm_encryption_change
                0x00000000        0x0 /cygdrive/c/Airoha/AiroBlueSDK/AB1600_1_0_5_0/projects/SmartRemote/output/pj/components/Device/AB1600/cfg_sector.o
 .rela.text.BLE_gap_sm_ltk_request
                0x00000000        0x0 /cygdrive/c/Airoha/AiroBlueSDK/AB1600_1_0_5_0/projects/SmartRemote/output/pj/components/Device/AB1600/cfg_sector.o
 .rela.text.BLE_gap_sm_gen_dhkey_complete
                0x00000000        0x0 /cygdrive/c/Airoha/AiroBlueSDK/AB1600_1_0_5_0/projects/SmartRemote/output/pj/components/Device/AB1600/cfg_sector.o
 .rela.text.BLE_gap_sm_read_public_key_complete
                0x00000000        0x0 /cygdrive/c/Airoha/AiroBlueSDK/AB1600_1_0_5_0/projects/SmartRemote/output/pj/components/Device/AB1600/cfg_sector.o
 .rela.text.l2cap_find_cidcb
                0x00000000        0x0 /cygdrive/c/Airoha/AiroBlueSDK/AB1600_1_0_5_0/projects/SmartRemote/output/pj/components/Device/AB1600/cfg_sector.o
 .rela.text.l2cap_notify
                0x00000000        0x0 /cygdrive/c/Airoha/AiroBlueSDK/AB1600_1_0_5_0/projects/SmartRemote/output/pj/components/Device/AB1600/cfg_sector.o
 .rela.text.l2cap_deinit
                0x00000000        0x0 /cygdrive/c/Airoha/AiroBlueSDK/AB1600_1_0_5_0/projects/SmartRemote/output/pj/components/Device/AB1600/cfg_sector.o
 .rela.text.l2cap_init
                0x00000000        0x0 /cygdrive/c/Airoha/AiroBlueSDK/AB1600_1_0_5_0/projects/SmartRemote/output/pj/components/Device/AB1600/cfg_sector.o
 .rela.text.l2cap_hci_fragment
                0x00000000        0x0 /cygdrive/c/Airoha/AiroBlueSDK/AB1600_1_0_5_0/projects/SmartRemote/output/pj/components/Device/AB1600/cfg_sector.o
 .rela.text.l2cap_hci_recombine
                0x00000000        0x0 /cygdrive/c/Airoha/AiroBlueSDK/AB1600_1_0_5_0/projects/SmartRemote/output/pj/components/Device/AB1600/cfg_sector.o
 .rela.text.l2cap_lesig_conn_param_update_req
                0x00000000        0x0 /cygdrive/c/Airoha/AiroBlueSDK/AB1600_1_0_5_0/projects/SmartRemote/output/pj/components/Device/AB1600/cfg_sector.o
 .rela.text.le_sig_cid_evt_cb
                0x00000000        0x0 /cygdrive/c/Airoha/AiroBlueSDK/AB1600_1_0_5_0/projects/SmartRemote/output/pj/components/Device/AB1600/cfg_sector.o
 .rela.text.ATT_transaction_timeout_cb
                0x00000000        0x0 /cygdrive/c/Airoha/AiroBlueSDK/AB1600_1_0_5_0/projects/SmartRemote/output/pj/components/Device/AB1600/cfg_sector.o
 .rela.text.ATT_is_transaction_TO
                0x00000000        0x0 /cygdrive/c/Airoha/AiroBlueSDK/AB1600_1_0_5_0/projects/SmartRemote/output/pj/components/Device/AB1600/cfg_sector.o
 .rela.text.ATT_is_in_transaction
                0x00000000        0x0 /cygdrive/c/Airoha/AiroBlueSDK/AB1600_1_0_5_0/projects/SmartRemote/output/pj/components/Device/AB1600/cfg_sector.o
 .rela.text.ATT_BinarySearchIndexByHandle
                0x00000000        0x0 /cygdrive/c/Airoha/AiroBlueSDK/AB1600_1_0_5_0/projects/SmartRemote/output/pj/components/Device/AB1600/cfg_sector.o
 .rela.text.ATT_CheckHandle
                0x00000000        0x0 /cygdrive/c/Airoha/AiroBlueSDK/AB1600_1_0_5_0/projects/SmartRemote/output/pj/components/Device/AB1600/cfg_sector.o
 .rela.text.ATT_CALLBACK
                0x00000000        0x0 /cygdrive/c/Airoha/AiroBlueSDK/AB1600_1_0_5_0/projects/SmartRemote/output/pj/components/Device/AB1600/cfg_sector.o
 .rela.text.ATT_ReturnGroupEndIndex
                0x00000000        0x0 /cygdrive/c/Airoha/AiroBlueSDK/AB1600_1_0_5_0/projects/SmartRemote/output/pj/components/Device/AB1600/cfg_sector.o
 .rela.text.ATT_FindServerIndexByAddr
                0x00000000        0x0 /cygdrive/c/Airoha/AiroBlueSDK/AB1600_1_0_5_0/projects/SmartRemote/output/pj/components/Device/AB1600/cfg_sector.o
 .rela.text.ATT_GetCurrentMTUSize
                0x00000000        0x0 /cygdrive/c/Airoha/AiroBlueSDK/AB1600_1_0_5_0/projects/SmartRemote/output/pj/components/Device/AB1600/cfg_sector.o
 .rela.text.BLE_att_get_attribute_length
                0x00000000        0x0 /cygdrive/c/Airoha/AiroBlueSDK/AB1600_1_0_5_0/projects/SmartRemote/output/pj/components/Device/AB1600/cfg_sector.o
 .rela.text.BLE_att_get_attribute_data_ptr
                0x00000000        0x0 /cygdrive/c/Airoha/AiroBlueSDK/AB1600_1_0_5_0/projects/SmartRemote/output/pj/components/Device/AB1600/cfg_sector.o
 .rela.text.ATT_ConvertToUUID128
                0x00000000        0x0 /cygdrive/c/Airoha/AiroBlueSDK/AB1600_1_0_5_0/projects/SmartRemote/output/pj/components/Device/AB1600/cfg_sector.o
 .rela.text.ATT_ReleasePWQ
                0x00000000        0x0 /cygdrive/c/Airoha/AiroBlueSDK/AB1600_1_0_5_0/projects/SmartRemote/output/pj/components/Device/AB1600/cfg_sector.o
 .rela.text.ATT_AllocRspDataPdu
                0x00000000        0x0 /cygdrive/c/Airoha/AiroBlueSDK/AB1600_1_0_5_0/projects/SmartRemote/output/pj/components/Device/AB1600/cfg_sector.o
 .rela.text.ATT_ChangeAttributeValueLength
                0x00000000        0x0 /cygdrive/c/Airoha/AiroBlueSDK/AB1600_1_0_5_0/projects/SmartRemote/output/pj/components/Device/AB1600/cfg_sector.o
 .rela.text.ATT_ChangeAttributeValueDataPtr
                0x00000000        0x0 /cygdrive/c/Airoha/AiroBlueSDK/AB1600_1_0_5_0/projects/SmartRemote/output/pj/components/Device/AB1600/cfg_sector.o
 .rela.text.ATT_GetAttributeValueCurrentLen
                0x00000000        0x0 /cygdrive/c/Airoha/AiroBlueSDK/AB1600_1_0_5_0/projects/SmartRemote/output/pj/components/Device/AB1600/cfg_sector.o
 .rela.text.ATT_CheckAccessPermission
                0x00000000        0x0 /cygdrive/c/Airoha/AiroBlueSDK/AB1600_1_0_5_0/projects/SmartRemote/output/pj/components/Device/AB1600/cfg_sector.o
 .rela.text.ATT_CheckWritePermission
                0x00000000        0x0 /cygdrive/c/Airoha/AiroBlueSDK/AB1600_1_0_5_0/projects/SmartRemote/output/pj/components/Device/AB1600/cfg_sector.o
 .rela.text.ATT_CheckReadPermission
                0x00000000        0x0 /cygdrive/c/Airoha/AiroBlueSDK/AB1600_1_0_5_0/projects/SmartRemote/output/pj/components/Device/AB1600/cfg_sector.o
 .rela.text.ATT_IsSameValue
                0x00000000        0x0 /cygdrive/c/Airoha/AiroBlueSDK/AB1600_1_0_5_0/projects/SmartRemote/output/pj/components/Device/AB1600/cfg_sector.o
 .rela.text.BLE_att_set_attribute_data_ptr
                0x00000000        0x0 /cygdrive/c/Airoha/AiroBlueSDK/AB1600_1_0_5_0/projects/SmartRemote/output/pj/components/Device/AB1600/cfg_sector.o
 .rela.text.BLE_att_set_attribute_length
                0x00000000        0x0 /cygdrive/c/Airoha/AiroBlueSDK/AB1600_1_0_5_0/projects/SmartRemote/output/pj/components/Device/AB1600/cfg_sector.o
 .rela.text.ATT_end_transaction
                0x00000000        0x0 /cygdrive/c/Airoha/AiroBlueSDK/AB1600_1_0_5_0/projects/SmartRemote/output/pj/components/Device/AB1600/cfg_sector.o
 .rela.text.ATT_ServerGetConfirmation
                0x00000000        0x0 /cygdrive/c/Airoha/AiroBlueSDK/AB1600_1_0_5_0/projects/SmartRemote/output/pj/components/Device/AB1600/cfg_sector.o
 .rela.text.ATT_start_transaction
                0x00000000        0x0 /cygdrive/c/Airoha/AiroBlueSDK/AB1600_1_0_5_0/projects/SmartRemote/output/pj/components/Device/AB1600/cfg_sector.o
 .rela.text.ATT_SendPduToL2CAP
                0x00000000        0x0 /cygdrive/c/Airoha/AiroBlueSDK/AB1600_1_0_5_0/projects/SmartRemote/output/pj/components/Device/AB1600/cfg_sector.o
 .rela.text.ATT_ServerGetExecuteWriteReq
                0x00000000        0x0 /cygdrive/c/Airoha/AiroBlueSDK/AB1600_1_0_5_0/projects/SmartRemote/output/pj/components/Device/AB1600/cfg_sector.o
 .rela.text.ATT_ServerGetPrepareWriteReq
                0x00000000        0x0 /cygdrive/c/Airoha/AiroBlueSDK/AB1600_1_0_5_0/projects/SmartRemote/output/pj/components/Device/AB1600/cfg_sector.o
 .rela.text.ATT_ServerGetWriteMux
                0x00000000        0x0 /cygdrive/c/Airoha/AiroBlueSDK/AB1600_1_0_5_0/projects/SmartRemote/output/pj/components/Device/AB1600/cfg_sector.o
 .rela.text.ATT_ServerGetReadByGroupTypeReq
                0x00000000        0x0 /cygdrive/c/Airoha/AiroBlueSDK/AB1600_1_0_5_0/projects/SmartRemote/output/pj/components/Device/AB1600/cfg_sector.o
 .rela.text.ATT_ServerGetReadMultiReq
                0x00000000        0x0 /cygdrive/c/Airoha/AiroBlueSDK/AB1600_1_0_5_0/projects/SmartRemote/output/pj/components/Device/AB1600/cfg_sector.o
 .rela.text.ATT_ServerGetReadBlobReq
                0x00000000        0x0 /cygdrive/c/Airoha/AiroBlueSDK/AB1600_1_0_5_0/projects/SmartRemote/output/pj/components/Device/AB1600/cfg_sector.o
 .rela.text.ATT_ServerGetReadValueReq
                0x00000000        0x0 /cygdrive/c/Airoha/AiroBlueSDK/AB1600_1_0_5_0/projects/SmartRemote/output/pj/components/Device/AB1600/cfg_sector.o
 .rela.text.ATT_ServerGetReadByTypeReq
                0x00000000        0x0 /cygdrive/c/Airoha/AiroBlueSDK/AB1600_1_0_5_0/projects/SmartRemote/output/pj/components/Device/AB1600/cfg_sector.o
 .rela.text.ATT_ServerGetFindByTypeValueReq
                0x00000000        0x0 /cygdrive/c/Airoha/AiroBlueSDK/AB1600_1_0_5_0/projects/SmartRemote/output/pj/components/Device/AB1600/cfg_sector.o
 .rela.text.ATT_ServerGetFindInfoReq
                0x00000000        0x0 /cygdrive/c/Airoha/AiroBlueSDK/AB1600_1_0_5_0/projects/SmartRemote/output/pj/components/Device/AB1600/cfg_sector.o
 .rela.text.ATT_ServerGetMtuExchangeReq
                0x00000000        0x0 /cygdrive/c/Airoha/AiroBlueSDK/AB1600_1_0_5_0/projects/SmartRemote/output/pj/components/Device/AB1600/cfg_sector.o
 .rela.text.ATT_HandleValueReportMux
                0x00000000        0x0 /cygdrive/c/Airoha/AiroBlueSDK/AB1600_1_0_5_0/projects/SmartRemote/output/pj/components/Device/AB1600/cfg_sector.o
 .rela.text.att_init
                0x00000000        0x0 /cygdrive/c/Airoha/AiroBlueSDK/AB1600_1_0_5_0/projects/SmartRemote/output/pj/components/Device/AB1600/cfg_sector.o
 .rela.text.ATT_cid_evt_cb
                0x00000000        0x0 /cygdrive/c/Airoha/AiroBlueSDK/AB1600_1_0_5_0/projects/SmartRemote/output/pj/components/Device/AB1600/cfg_sector.o
 .rela.text._ble_cccd_common_cb
                0x00000000        0x0 /cygdrive/c/Airoha/AiroBlueSDK/AB1600_1_0_5_0/projects/SmartRemote/output/pj/components/Device/AB1600/cfg_sector.o
 .rela.text.BLE_gatt_charact_indicate
                0x00000000        0x0 /cygdrive/c/Airoha/AiroBlueSDK/AB1600_1_0_5_0/projects/SmartRemote/output/pj/components/Device/AB1600/cfg_sector.o
 .rela.text.BLE_gatt_charact_notify
                0x00000000        0x0 /cygdrive/c/Airoha/AiroBlueSDK/AB1600_1_0_5_0/projects/SmartRemote/output/pj/components/Device/AB1600/cfg_sector.o
 .rela.text._ble_gatt_set_uuid
                0x00000000        0x0 /cygdrive/c/Airoha/AiroBlueSDK/AB1600_1_0_5_0/projects/SmartRemote/output/pj/components/Device/AB1600/cfg_sector.o
 .rela.text._ble_gatt_new_attribute
                0x00000000        0x0 /cygdrive/c/Airoha/AiroBlueSDK/AB1600_1_0_5_0/projects/SmartRemote/output/pj/components/Device/AB1600/cfg_sector.o
 .rela.text.BLE_gatt_add_charact
                0x00000000        0x0 /cygdrive/c/Airoha/AiroBlueSDK/AB1600_1_0_5_0/projects/SmartRemote/output/pj/components/Device/AB1600/cfg_sector.o
 .rela.text.BLE_gatt_add_include
                0x00000000        0x0 /cygdrive/c/Airoha/AiroBlueSDK/AB1600_1_0_5_0/projects/SmartRemote/output/pj/components/Device/AB1600/cfg_sector.o
 .rela.text.BLE_gatt_add_service
                0x00000000        0x0 /cygdrive/c/Airoha/AiroBlueSDK/AB1600_1_0_5_0/projects/SmartRemote/output/pj/components/Device/AB1600/cfg_sector.o
 .rela.text._ble_gatt_hook_cccd_and_char
                0x00000000        0x0 /cygdrive/c/Airoha/AiroBlueSDK/AB1600_1_0_5_0/projects/SmartRemote/output/pj/components/Device/AB1600/cfg_sector.o
 .rela.text._ble_gatt_check_cccd
                0x00000000        0x0 /cygdrive/c/Airoha/AiroBlueSDK/AB1600_1_0_5_0/projects/SmartRemote/output/pj/components/Device/AB1600/cfg_sector.o
 .rela.text.is_gatt_procedure_ongoing
                0x00000000        0x0 /cygdrive/c/Airoha/AiroBlueSDK/AB1600_1_0_5_0/projects/SmartRemote/output/pj/components/Device/AB1600/cfg_sector.o
 .rela.text.ble_gatt_evt_init
                0x00000000        0x0 /cygdrive/c/Airoha/AiroBlueSDK/AB1600_1_0_5_0/projects/SmartRemote/output/pj/components/Device/AB1600/cfg_sector.o
 .rela.text.ATT_Client_GetHandleValueReport
                0x00000000        0x0 /cygdrive/c/Airoha/AiroBlueSDK/AB1600_1_0_5_0/projects/SmartRemote/output/pj/components/Device/AB1600/cfg_sector.o
 .rela.text.ble_gatt_evt_extend
                0x00000000        0x0 /cygdrive/c/Airoha/AiroBlueSDK/AB1600_1_0_5_0/projects/SmartRemote/output/pj/components/Device/AB1600/cfg_sector.o
 .rela.text.ble_gatt_client_send_pdu
                0x00000000        0x0 /cygdrive/c/Airoha/AiroBlueSDK/AB1600_1_0_5_0/projects/SmartRemote/output/pj/components/Device/AB1600/cfg_sector.o
 .rela.text.ble_gatt_client_send_prepare_write_req
                0x00000000        0x0 /cygdrive/c/Airoha/AiroBlueSDK/AB1600_1_0_5_0/projects/SmartRemote/output/pj/components/Device/AB1600/cfg_sector.o
 .rela.text.ble_gatt_4_12_4_write_long_char_desc
                0x00000000        0x0 /cygdrive/c/Airoha/AiroBlueSDK/AB1600_1_0_5_0/projects/SmartRemote/output/pj/components/Device/AB1600/cfg_sector.o
 .rela.text.ble_gatt_4_9_5_reliable_writes
                0x00000000        0x0 /cygdrive/c/Airoha/AiroBlueSDK/AB1600_1_0_5_0/projects/SmartRemote/output/pj/components/Device/AB1600/cfg_sector.o
 .rela.text.ble_gatt_4_9_4_write_long_char_value
                0x00000000        0x0 /cygdrive/c/Airoha/AiroBlueSDK/AB1600_1_0_5_0/projects/SmartRemote/output/pj/components/Device/AB1600/cfg_sector.o
 .rela.text.ble_gatt_4_12_2_read_long_char_desc
                0x00000000        0x0 /cygdrive/c/Airoha/AiroBlueSDK/AB1600_1_0_5_0/projects/SmartRemote/output/pj/components/Device/AB1600/cfg_sector.o
 .rela.text.ble_gatt_4_8_3_read_long_char_value
                0x00000000        0x0 /cygdrive/c/Airoha/AiroBlueSDK/AB1600_1_0_5_0/projects/SmartRemote/output/pj/components/Device/AB1600/cfg_sector.o
 .rela.text.ble_gatt_4_12_1_read_char_desc
                0x00000000        0x0 /cygdrive/c/Airoha/AiroBlueSDK/AB1600_1_0_5_0/projects/SmartRemote/output/pj/components/Device/AB1600/cfg_sector.o
 .rela.text.ble_gatt_4_8_1_read_char_value
                0x00000000        0x0 /cygdrive/c/Airoha/AiroBlueSDK/AB1600_1_0_5_0/projects/SmartRemote/output/pj/components/Device/AB1600/cfg_sector.o
 .rela.text.ble_gatt_client_send_read_by_type_req
                0x00000000        0x0 /cygdrive/c/Airoha/AiroBlueSDK/AB1600_1_0_5_0/projects/SmartRemote/output/pj/components/Device/AB1600/cfg_sector.o
 .rela.text.ble_gatt_4_8_2_read_using_char_UUID
                0x00000000        0x0 /cygdrive/c/Airoha/AiroBlueSDK/AB1600_1_0_5_0/projects/SmartRemote/output/pj/components/Device/AB1600/cfg_sector.o
 .rela.text.ble_gatt_4_6_2_disc_chars_by_UUID
                0x00000000        0x0 /cygdrive/c/Airoha/AiroBlueSDK/AB1600_1_0_5_0/projects/SmartRemote/output/pj/components/Device/AB1600/cfg_sector.o
 .rela.text.ble_gatt_4_6_1_disc_all_chars
                0x00000000        0x0 /cygdrive/c/Airoha/AiroBlueSDK/AB1600_1_0_5_0/projects/SmartRemote/output/pj/components/Device/AB1600/cfg_sector.o
 .rela.text.ble_gatt_4_5_1_find_included_services
                0x00000000        0x0 /cygdrive/c/Airoha/AiroBlueSDK/AB1600_1_0_5_0/projects/SmartRemote/output/pj/components/Device/AB1600/cfg_sector.o
 .rela.text.ble_gatt_4_7_1_disc_all_char_descs
                0x00000000        0x0 /cygdrive/c/Airoha/AiroBlueSDK/AB1600_1_0_5_0/projects/SmartRemote/output/pj/components/Device/AB1600/cfg_sector.o
 .rela.text.ble_gatt_4_9_2_signed_write_no_rsp
                0x00000000        0x0 /cygdrive/c/Airoha/AiroBlueSDK/AB1600_1_0_5_0/projects/SmartRemote/output/pj/components/Device/AB1600/cfg_sector.o
 .rela.text.ble_gatt_terminate_procedure
                0x00000000        0x0 /cygdrive/c/Airoha/AiroBlueSDK/AB1600_1_0_5_0/projects/SmartRemote/output/pj/components/Device/AB1600/cfg_sector.o
 .rela.text.ble_gatt_4_9_1_write_no_rsp
                0x00000000        0x0 /cygdrive/c/Airoha/AiroBlueSDK/AB1600_1_0_5_0/projects/SmartRemote/output/pj/components/Device/AB1600/cfg_sector.o
 .rela.text.ble_gatt_write_long_char_value_cb
                0x00000000        0x0 /cygdrive/c/Airoha/AiroBlueSDK/AB1600_1_0_5_0/projects/SmartRemote/output/pj/components/Device/AB1600/cfg_sector.o
 .rela.text.ble_gatt_read_multi_char_values_cb
                0x00000000        0x0 /cygdrive/c/Airoha/AiroBlueSDK/AB1600_1_0_5_0/projects/SmartRemote/output/pj/components/Device/AB1600/cfg_sector.o
 .rela.text.ble_gatt_read_long_char_value_cb
                0x00000000        0x0 /cygdrive/c/Airoha/AiroBlueSDK/AB1600_1_0_5_0/projects/SmartRemote/output/pj/components/Device/AB1600/cfg_sector.o
 .rela.text.ble_gatt_read_using_char_UUID_cb
                0x00000000        0x0 /cygdrive/c/Airoha/AiroBlueSDK/AB1600_1_0_5_0/projects/SmartRemote/output/pj/components/Device/AB1600/cfg_sector.o
 .rela.text.ble_gatt_read_char_value_cb
                0x00000000        0x0 /cygdrive/c/Airoha/AiroBlueSDK/AB1600_1_0_5_0/projects/SmartRemote/output/pj/components/Device/AB1600/cfg_sector.o
 .rela.text.ble_gatt_disc_all_char_descs_cb
                0x00000000        0x0 /cygdrive/c/Airoha/AiroBlueSDK/AB1600_1_0_5_0/projects/SmartRemote/output/pj/components/Device/AB1600/cfg_sector.o
 .rela.text.ble_gatt_disc_all_chars_cb
                0x00000000        0x0 /cygdrive/c/Airoha/AiroBlueSDK/AB1600_1_0_5_0/projects/SmartRemote/output/pj/components/Device/AB1600/cfg_sector.o
 .rela.text.ble_gatt_find_included_services_cb
                0x00000000        0x0 /cygdrive/c/Airoha/AiroBlueSDK/AB1600_1_0_5_0/projects/SmartRemote/output/pj/components/Device/AB1600/cfg_sector.o
 .rela.text.ble_gatt_exchange_mtu_cb
                0x00000000        0x0 /cygdrive/c/Airoha/AiroBlueSDK/AB1600_1_0_5_0/projects/SmartRemote/output/pj/components/Device/AB1600/cfg_sector.o
 .rela.text.ble_gatt_reliable_writes_cb
                0x00000000        0x0 /cygdrive/c/Airoha/AiroBlueSDK/AB1600_1_0_5_0/projects/SmartRemote/output/pj/components/Device/AB1600/cfg_sector.o
 .rela.text.ble_gatt_disc_chars_by_UUID_cb
                0x00000000        0x0 /cygdrive/c/Airoha/AiroBlueSDK/AB1600_1_0_5_0/projects/SmartRemote/output/pj/components/Device/AB1600/cfg_sector.o
 .rela.text.T.119
                0x00000000        0x0 /cygdrive/c/Airoha/AiroBlueSDK/AB1600_1_0_5_0/projects/SmartRemote/output/pj/components/Device/AB1600/cfg_sector.o
 .rela.text.ble_gatt_4_9_3_write_char_value
                0x00000000        0x0 /cygdrive/c/Airoha/AiroBlueSDK/AB1600_1_0_5_0/projects/SmartRemote/output/pj/components/Device/AB1600/cfg_sector.o
 .rela.text.ble_gatt_4_12_3_write_char_desc
                0x00000000        0x0 /cygdrive/c/Airoha/AiroBlueSDK/AB1600_1_0_5_0/projects/SmartRemote/output/pj/components/Device/AB1600/cfg_sector.o
 .rela.text.ble_gatt_4_3_1_exchange_mtu
                0x00000000        0x0 /cygdrive/c/Airoha/AiroBlueSDK/AB1600_1_0_5_0/projects/SmartRemote/output/pj/components/Device/AB1600/cfg_sector.o
 .rela.text.ble_gatt_disc_all_primary_services_cb
                0x00000000        0x0 /cygdrive/c/Airoha/AiroBlueSDK/AB1600_1_0_5_0/projects/SmartRemote/output/pj/components/Device/AB1600/cfg_sector.o
 .rela.text.ble_gatt_4_4_1_disc_all_primary_services
                0x00000000        0x0 /cygdrive/c/Airoha/AiroBlueSDK/AB1600_1_0_5_0/projects/SmartRemote/output/pj/components/Device/AB1600/cfg_sector.o
 .rela.text.ble_gatt_4_8_4_read_multi_char_values
                0x00000000        0x0 /cygdrive/c/Airoha/AiroBlueSDK/AB1600_1_0_5_0/projects/SmartRemote/output/pj/components/Device/AB1600/cfg_sector.o
 .rela.text.T.123
                0x00000000        0x0 /cygdrive/c/Airoha/AiroBlueSDK/AB1600_1_0_5_0/projects/SmartRemote/output/pj/components/Device/AB1600/cfg_sector.o
 .rela.text.ble_gatt_disc_primary_service_by_UUID_cb
                0x00000000        0x0 /cygdrive/c/Airoha/AiroBlueSDK/AB1600_1_0_5_0/projects/SmartRemote/output/pj/components/Device/AB1600/cfg_sector.o
 .rela.text.ble_gatt_4_4_2_disc_primary_service_by_UUID
                0x00000000        0x0 /cygdrive/c/Airoha/AiroBlueSDK/AB1600_1_0_5_0/projects/SmartRemote/output/pj/components/Device/AB1600/cfg_sector.o
 .rela.text.sm_init
                0x00000000        0x0 /cygdrive/c/Airoha/AiroBlueSDK/AB1600_1_0_5_0/projects/SmartRemote/output/pj/components/Device/AB1600/cfg_sector.o
 .rela.text.SM_FinishPairing
                0x00000000        0x0 /cygdrive/c/Airoha/AiroBlueSDK/AB1600_1_0_5_0/projects/SmartRemote/output/pj/components/Device/AB1600/cfg_sector.o
 .rela.text.SM_PairingFailed
                0x00000000        0x0 /cygdrive/c/Airoha/AiroBlueSDK/AB1600_1_0_5_0/projects/SmartRemote/output/pj/components/Device/AB1600/cfg_sector.o
 .rela.text.SM_SetKeySize
                0x00000000        0x0 /cygdrive/c/Airoha/AiroBlueSDK/AB1600_1_0_5_0/projects/SmartRemote/output/pj/components/Device/AB1600/cfg_sector.o
 .rela.text.SM_StartKeyDistribution
                0x00000000        0x0 /cygdrive/c/Airoha/AiroBlueSDK/AB1600_1_0_5_0/projects/SmartRemote/output/pj/components/Device/AB1600/cfg_sector.o
 .rela.text.SM_WaitKeyDistribution
                0x00000000        0x0 /cygdrive/c/Airoha/AiroBlueSDK/AB1600_1_0_5_0/projects/SmartRemote/output/pj/components/Device/AB1600/cfg_sector.o
 .rela.text.SM_LinkDisconnected
                0x00000000        0x0 /cygdrive/c/Airoha/AiroBlueSDK/AB1600_1_0_5_0/projects/SmartRemote/output/pj/components/Device/AB1600/cfg_sector.o
 .rela.text.SM_GetPeerLTK
                0x00000000        0x0 /cygdrive/c/Airoha/AiroBlueSDK/AB1600_1_0_5_0/projects/SmartRemote/output/pj/components/Device/AB1600/cfg_sector.o
 .rela.text.SM_GetLTK
                0x00000000        0x0 /cygdrive/c/Airoha/AiroBlueSDK/AB1600_1_0_5_0/projects/SmartRemote/output/pj/components/Device/AB1600/cfg_sector.o
 .rela.text.SM_SendKeypressNotification
                0x00000000        0x0 /cygdrive/c/Airoha/AiroBlueSDK/AB1600_1_0_5_0/projects/SmartRemote/output/pj/components/Device/AB1600/cfg_sector.o
 .rela.text.SM_CryptoTool_init
                0x00000000        0x0 /cygdrive/c/Airoha/AiroBlueSDK/AB1600_1_0_5_0/projects/SmartRemote/output/pj/components/Device/AB1600/cfg_sector.o
 .rela.text.f5_finish
                0x00000000        0x0 /cygdrive/c/Airoha/AiroBlueSDK/AB1600_1_0_5_0/projects/SmartRemote/output/pj/components/Device/AB1600/cfg_sector.o
 .rela.text.cmac_finish
                0x00000000        0x0 /cygdrive/c/Airoha/AiroBlueSDK/AB1600_1_0_5_0/projects/SmartRemote/output/pj/components/Device/AB1600/cfg_sector.o
 .rela.text.g2_generate_cb
                0x00000000        0x0 /cygdrive/c/Airoha/AiroBlueSDK/AB1600_1_0_5_0/projects/SmartRemote/output/pj/components/Device/AB1600/cfg_sector.o
 .rela.text.ah_generate_cb
                0x00000000        0x0 /cygdrive/c/Airoha/AiroBlueSDK/AB1600_1_0_5_0/projects/SmartRemote/output/pj/components/Device/AB1600/cfg_sector.o
 .rela.text.SM_CryptoTool_ReadLocalP256PublicKeyComplete
                0x00000000        0x0 /cygdrive/c/Airoha/AiroBlueSDK/AB1600_1_0_5_0/projects/SmartRemote/output/pj/components/Device/AB1600/cfg_sector.o
 .rela.text.SM_CryptoTool_AES_Cipher
                0x00000000        0x0 /cygdrive/c/Airoha/AiroBlueSDK/AB1600_1_0_5_0/projects/SmartRemote/output/pj/components/Device/AB1600/cfg_sector.o
 .rela.text.cmac_generate_SubKey
                0x00000000        0x0 /cygdrive/c/Airoha/AiroBlueSDK/AB1600_1_0_5_0/projects/SmartRemote/output/pj/components/Device/AB1600/cfg_sector.o
 .rela.text.cmac_1
                0x00000000        0x0 /cygdrive/c/Airoha/AiroBlueSDK/AB1600_1_0_5_0/projects/SmartRemote/output/pj/components/Device/AB1600/cfg_sector.o
 .rela.text.cmac_start
                0x00000000        0x0 /cygdrive/c/Airoha/AiroBlueSDK/AB1600_1_0_5_0/projects/SmartRemote/output/pj/components/Device/AB1600/cfg_sector.o
 .rela.text.AES_CMAC
                0x00000000        0x0 /cygdrive/c/Airoha/AiroBlueSDK/AB1600_1_0_5_0/projects/SmartRemote/output/pj/components/Device/AB1600/cfg_sector.o
 .rela.text.h6  0x00000000        0x0 /cygdrive/c/Airoha/AiroBlueSDK/AB1600_1_0_5_0/projects/SmartRemote/output/pj/components/Device/AB1600/cfg_sector.o
 .rela.text.g2  0x00000000        0x0 /cygdrive/c/Airoha/AiroBlueSDK/AB1600_1_0_5_0/projects/SmartRemote/output/pj/components/Device/AB1600/cfg_sector.o
 .rela.text.f6  0x00000000        0x0 /cygdrive/c/Airoha/AiroBlueSDK/AB1600_1_0_5_0/projects/SmartRemote/output/pj/components/Device/AB1600/cfg_sector.o
 .rela.text.f5  0x00000000        0x0 /cygdrive/c/Airoha/AiroBlueSDK/AB1600_1_0_5_0/projects/SmartRemote/output/pj/components/Device/AB1600/cfg_sector.o
 .rela.text.f5_generate_t_cb
                0x00000000        0x0 /cygdrive/c/Airoha/AiroBlueSDK/AB1600_1_0_5_0/projects/SmartRemote/output/pj/components/Device/AB1600/cfg_sector.o
 .rela.text.f4  0x00000000        0x0 /cygdrive/c/Airoha/AiroBlueSDK/AB1600_1_0_5_0/projects/SmartRemote/output/pj/components/Device/AB1600/cfg_sector.o
 .rela.text.s1  0x00000000        0x0 /cygdrive/c/Airoha/AiroBlueSDK/AB1600_1_0_5_0/projects/SmartRemote/output/pj/components/Device/AB1600/cfg_sector.o
 .rela.text.c1_2
                0x00000000        0x0 /cygdrive/c/Airoha/AiroBlueSDK/AB1600_1_0_5_0/projects/SmartRemote/output/pj/components/Device/AB1600/cfg_sector.o
 .rela.text.c1_1
                0x00000000        0x0 /cygdrive/c/Airoha/AiroBlueSDK/AB1600_1_0_5_0/projects/SmartRemote/output/pj/components/Device/AB1600/cfg_sector.o
 .rela.text.ah  0x00000000        0x0 /cygdrive/c/Airoha/AiroBlueSDK/AB1600_1_0_5_0/projects/SmartRemote/output/pj/components/Device/AB1600/cfg_sector.o
 .rela.text.SM_CryptoTool_GenerateDHKey
                0x00000000        0x0 /cygdrive/c/Airoha/AiroBlueSDK/AB1600_1_0_5_0/projects/SmartRemote/output/pj/components/Device/AB1600/cfg_sector.o
 .rela.text.SM_CryptoTool_ReadLocalP256PublicKey
                0x00000000        0x0 /cygdrive/c/Airoha/AiroBlueSDK/AB1600_1_0_5_0/projects/SmartRemote/output/pj/components/Device/AB1600/cfg_sector.o
 .rela.text.SM_CryptoTool_StartEncryption
                0x00000000        0x0 /cygdrive/c/Airoha/AiroBlueSDK/AB1600_1_0_5_0/projects/SmartRemote/output/pj/components/Device/AB1600/cfg_sector.o
 .rela.text.SM_CryptoTool_SendLTKNegativeReply
                0x00000000        0x0 /cygdrive/c/Airoha/AiroBlueSDK/AB1600_1_0_5_0/projects/SmartRemote/output/pj/components/Device/AB1600/cfg_sector.o
 .rela.text.SM_CryptoTool_SendLTKReply
                0x00000000        0x0 /cygdrive/c/Airoha/AiroBlueSDK/AB1600_1_0_5_0/projects/SmartRemote/output/pj/components/Device/AB1600/cfg_sector.o
 .rela.text.sm_hal_verify_resolvable_addr
                0x00000000        0x0 /cygdrive/c/Airoha/AiroBlueSDK/AB1600_1_0_5_0/projects/SmartRemote/output/pj/components/Device/AB1600/cfg_sector.o
 .rela.text.sm_hal_verify_RPA_cb
                0x00000000        0x0 /cygdrive/c/Airoha/AiroBlueSDK/AB1600_1_0_5_0/projects/SmartRemote/output/pj/components/Device/AB1600/cfg_sector.o
 .rela.text.sm_hal_flash_get_last_paired_device
                0x00000000        0x0 /cygdrive/c/Airoha/AiroBlueSDK/AB1600_1_0_5_0/projects/SmartRemote/output/pj/components/Device/AB1600/cfg_sector.o
 .rela.text.sm_hal_flash_load_data_byIndex
                0x00000000        0x0 /cygdrive/c/Airoha/AiroBlueSDK/AB1600_1_0_5_0/projects/SmartRemote/output/pj/components/Device/AB1600/cfg_sector.o
 .rela.text.sm_hal_flash_dump_data
                0x00000000        0x0 /cygdrive/c/Airoha/AiroBlueSDK/AB1600_1_0_5_0/projects/SmartRemote/output/pj/components/Device/AB1600/cfg_sector.o
 .rela.text.sm_hal_flash_isDevice_bonded
                0x00000000        0x0 /cygdrive/c/Airoha/AiroBlueSDK/AB1600_1_0_5_0/projects/SmartRemote/output/pj/components/Device/AB1600/cfg_sector.o
 .rela.text.sm_hal_flash_delete_paired_record
                0x00000000        0x0 /cygdrive/c/Airoha/AiroBlueSDK/AB1600_1_0_5_0/projects/SmartRemote/output/pj/components/Device/AB1600/cfg_sector.o
 .rela.text.sm_hal_flash_search_byAddr
                0x00000000        0x0 /cygdrive/c/Airoha/AiroBlueSDK/AB1600_1_0_5_0/projects/SmartRemote/output/pj/components/Device/AB1600/cfg_sector.o
 .rela.text.sm_hal_flash_load_data
                0x00000000        0x0 /cygdrive/c/Airoha/AiroBlueSDK/AB1600_1_0_5_0/projects/SmartRemote/output/pj/components/Device/AB1600/cfg_sector.o
 .rela.text.sm_hal_flash_check_master_info
                0x00000000        0x0 /cygdrive/c/Airoha/AiroBlueSDK/AB1600_1_0_5_0/projects/SmartRemote/output/pj/components/Device/AB1600/cfg_sector.o
 .rela.text.sm_hal_flash_get_ltk
                0x00000000        0x0 /cygdrive/c/Airoha/AiroBlueSDK/AB1600_1_0_5_0/projects/SmartRemote/output/pj/components/Device/AB1600/cfg_sector.o
 .rela.text.SM_hal_flash_ah_cb
                0x00000000        0x0 /cygdrive/c/Airoha/AiroBlueSDK/AB1600_1_0_5_0/projects/SmartRemote/output/pj/components/Device/AB1600/cfg_sector.o
 .rela.text.sm_hal_flash_reset_data
                0x00000000        0x0 /cygdrive/c/Airoha/AiroBlueSDK/AB1600_1_0_5_0/projects/SmartRemote/output/pj/components/Device/AB1600/cfg_sector.o
 .rela.text.sm_hal_flash_init_data
                0x00000000        0x0 /cygdrive/c/Airoha/AiroBlueSDK/AB1600_1_0_5_0/projects/SmartRemote/output/pj/components/Device/AB1600/cfg_sector.o
 .rela.text.sm_hal_flash_save_data
                0x00000000        0x0 /cygdrive/c/Airoha/AiroBlueSDK/AB1600_1_0_5_0/projects/SmartRemote/output/pj/components/Device/AB1600/cfg_sector.o
 .rela.text.sm_hal_cryptoTool_hci_send_cmd_ex
                0x00000000        0x0 /cygdrive/c/Airoha/AiroBlueSDK/AB1600_1_0_5_0/projects/SmartRemote/output/pj/components/Device/AB1600/cfg_sector.o
 .rela.text.sm_hal_cryptoTool_hci_send_cmd
                0x00000000        0x0 /cygdrive/c/Airoha/AiroBlueSDK/AB1600_1_0_5_0/projects/SmartRemote/output/pj/components/Device/AB1600/cfg_sector.o
 .rela.text.sm_hal_init
                0x00000000        0x0 /cygdrive/c/Airoha/AiroBlueSDK/AB1600_1_0_5_0/projects/SmartRemote/output/pj/components/Device/AB1600/cfg_sector.o
 .rela.text.sm_hal_protocol_cid_evt_cb
                0x00000000        0x0 /cygdrive/c/Airoha/AiroBlueSDK/AB1600_1_0_5_0/projects/SmartRemote/output/pj/components/Device/AB1600/cfg_sector.o
 .rela.text.sm_hal_release_timer
                0x00000000        0x0 /cygdrive/c/Airoha/AiroBlueSDK/AB1600_1_0_5_0/projects/SmartRemote/output/pj/components/Device/AB1600/cfg_sector.o
 .rela.text.sm_hal_set_timer
                0x00000000        0x0 /cygdrive/c/Airoha/AiroBlueSDK/AB1600_1_0_5_0/projects/SmartRemote/output/pj/components/Device/AB1600/cfg_sector.o
 .rela.text.sm_hal_timer_handler
                0x00000000        0x0 /cygdrive/c/Airoha/AiroBlueSDK/AB1600_1_0_5_0/projects/SmartRemote/output/pj/components/Device/AB1600/cfg_sector.o
 .rela.text.sm_hal_get_random_number
                0x00000000        0x0 /cygdrive/c/Airoha/AiroBlueSDK/AB1600_1_0_5_0/projects/SmartRemote/output/pj/components/Device/AB1600/cfg_sector.o
 .rela.text.sm_hal_get_local_addr
                0x00000000        0x0 /cygdrive/c/Airoha/AiroBlueSDK/AB1600_1_0_5_0/projects/SmartRemote/output/pj/components/Device/AB1600/cfg_sector.o
 .rela.text.SM_Protocol_PairingDHKeyCheck
                0x00000000        0x0 /cygdrive/c/Airoha/AiroBlueSDK/AB1600_1_0_5_0/projects/SmartRemote/output/pj/components/Device/AB1600/cfg_sector.o
 .rela.text.SM_Protocol_PairingPublicKey
                0x00000000        0x0 /cygdrive/c/Airoha/AiroBlueSDK/AB1600_1_0_5_0/projects/SmartRemote/output/pj/components/Device/AB1600/cfg_sector.o
 .rela.text.SM_Protocol_PairingRequest
                0x00000000        0x0 /cygdrive/c/Airoha/AiroBlueSDK/AB1600_1_0_5_0/projects/SmartRemote/output/pj/components/Device/AB1600/cfg_sector.o
 .rela.text.SM_Protocol_SecurityRequest
                0x00000000        0x0 /cygdrive/c/Airoha/AiroBlueSDK/AB1600_1_0_5_0/projects/SmartRemote/output/pj/components/Device/AB1600/cfg_sector.o
 .rela.text.SM_Protocol_SigningInfo
                0x00000000        0x0 /cygdrive/c/Airoha/AiroBlueSDK/AB1600_1_0_5_0/projects/SmartRemote/output/pj/components/Device/AB1600/cfg_sector.o
 .rela.text.SM_Protocol_IdentityInfo
                0x00000000        0x0 /cygdrive/c/Airoha/AiroBlueSDK/AB1600_1_0_5_0/projects/SmartRemote/output/pj/components/Device/AB1600/cfg_sector.o
 .rela.text.SM_Protocol_MasterID
                0x00000000        0x0 /cygdrive/c/Airoha/AiroBlueSDK/AB1600_1_0_5_0/projects/SmartRemote/output/pj/components/Device/AB1600/cfg_sector.o
 .rela.text.SM_Protocol_EncryptionInfo
                0x00000000        0x0 /cygdrive/c/Airoha/AiroBlueSDK/AB1600_1_0_5_0/projects/SmartRemote/output/pj/components/Device/AB1600/cfg_sector.o
 .rela.text.SM_Protocol_PairingRandom
                0x00000000        0x0 /cygdrive/c/Airoha/AiroBlueSDK/AB1600_1_0_5_0/projects/SmartRemote/output/pj/components/Device/AB1600/cfg_sector.o
 .rela.text.SM_Protocol_PairingConfirm
                0x00000000        0x0 /cygdrive/c/Airoha/AiroBlueSDK/AB1600_1_0_5_0/projects/SmartRemote/output/pj/components/Device/AB1600/cfg_sector.o
 .rela.text.SM_Protocol_PairingResponse
                0x00000000        0x0 /cygdrive/c/Airoha/AiroBlueSDK/AB1600_1_0_5_0/projects/SmartRemote/output/pj/components/Device/AB1600/cfg_sector.o
 .rela.text.SM_Protocol_IdentityAddressInfo
                0x00000000        0x0 /cygdrive/c/Airoha/AiroBlueSDK/AB1600_1_0_5_0/projects/SmartRemote/output/pj/components/Device/AB1600/cfg_sector.o
 .rela.text.SM_Protocol_PairingFailed
                0x00000000        0x0 /cygdrive/c/Airoha/AiroBlueSDK/AB1600_1_0_5_0/projects/SmartRemote/output/pj/components/Device/AB1600/cfg_sector.o
 .rela.text.SM_Slave_generate_DHKey_handler
                0x00000000        0x0 /cygdrive/c/Airoha/AiroBlueSDK/AB1600_1_0_5_0/projects/SmartRemote/output/pj/components/Device/AB1600/cfg_sector.o
 .rela.text.SM_Slave_f5_mac_handler
                0x00000000        0x0 /cygdrive/c/Airoha/AiroBlueSDK/AB1600_1_0_5_0/projects/SmartRemote/output/pj/components/Device/AB1600/cfg_sector.o
 .rela.text.SM_Slave_IdentityInformationHandler
                0x00000000        0x0 /cygdrive/c/Airoha/AiroBlueSDK/AB1600_1_0_5_0/projects/SmartRemote/output/pj/components/Device/AB1600/cfg_sector.o
 .rela.text.SM_Slave_EncryptionInformationHandler
                0x00000000        0x0 /cygdrive/c/Airoha/AiroBlueSDK/AB1600_1_0_5_0/projects/SmartRemote/output/pj/components/Device/AB1600/cfg_sector.o
 .rela.text.SM_Slave_check_Ea
                0x00000000        0x0 /cygdrive/c/Airoha/AiroBlueSDK/AB1600_1_0_5_0/projects/SmartRemote/output/pj/components/Device/AB1600/cfg_sector.o
 .rela.text.SM_Slave_PairingDHKeyCheckHandler
                0x00000000        0x0 /cygdrive/c/Airoha/AiroBlueSDK/AB1600_1_0_5_0/projects/SmartRemote/output/pj/components/Device/AB1600/cfg_sector.o
 .rela.text.SM_Slave_f6_Eb_handler
                0x00000000        0x0 /cygdrive/c/Airoha/AiroBlueSDK/AB1600_1_0_5_0/projects/SmartRemote/output/pj/components/Device/AB1600/cfg_sector.o
 .rela.text.SM_Slave_f5_ltk_handler
                0x00000000        0x0 /cygdrive/c/Airoha/AiroBlueSDK/AB1600_1_0_5_0/projects/SmartRemote/output/pj/components/Device/AB1600/cfg_sector.o
 .rela.text.SM_Slave_f6_Ea_handler
                0x00000000        0x0 /cygdrive/c/Airoha/AiroBlueSDK/AB1600_1_0_5_0/projects/SmartRemote/output/pj/components/Device/AB1600/cfg_sector.o
 .rela.text.SM_Slave_PairingPublicKeyHandler
                0x00000000        0x0 /cygdrive/c/Airoha/AiroBlueSDK/AB1600_1_0_5_0/projects/SmartRemote/output/pj/components/Device/AB1600/cfg_sector.o
 .rela.text.SM_Slave_read_local_public_key_handler
                0x00000000        0x0 /cygdrive/c/Airoha/AiroBlueSDK/AB1600_1_0_5_0/projects/SmartRemote/output/pj/components/Device/AB1600/cfg_sector.o
 .rela.text.SM_Slave_SC_Unsupported
                0x00000000        0x0 /cygdrive/c/Airoha/AiroBlueSDK/AB1600_1_0_5_0/projects/SmartRemote/output/pj/components/Device/AB1600/cfg_sector.o
 .rela.text.SM_Slave_UnsupportedHandler
                0x00000000        0x0 /cygdrive/c/Airoha/AiroBlueSDK/AB1600_1_0_5_0/projects/SmartRemote/output/pj/components/Device/AB1600/cfg_sector.o
 .rela.text.SM_Slave_g2_handler
                0x00000000        0x0 /cygdrive/c/Airoha/AiroBlueSDK/AB1600_1_0_5_0/projects/SmartRemote/output/pj/components/Device/AB1600/cfg_sector.o
 .rela.text.SM_Slave_SC_rbValuePasskeyDisplay
                0x00000000        0x0 /cygdrive/c/Airoha/AiroBlueSDK/AB1600_1_0_5_0/projects/SmartRemote/output/pj/components/Device/AB1600/cfg_sector.o
 .rela.text.SM_Slave_SC_rbValueJustWork
                0x00000000        0x0 /cygdrive/c/Airoha/AiroBlueSDK/AB1600_1_0_5_0/projects/SmartRemote/output/pj/components/Device/AB1600/cfg_sector.o
 .rela.text.SM_Slave_f4_JW_handler
                0x00000000        0x0 /cygdrive/c/Airoha/AiroBlueSDK/AB1600_1_0_5_0/projects/SmartRemote/output/pj/components/Device/AB1600/cfg_sector.o
 .rela.text.SM_Slave_PairingConfirmHandler
                0x00000000        0x0 /cygdrive/c/Airoha/AiroBlueSDK/AB1600_1_0_5_0/projects/SmartRemote/output/pj/components/Device/AB1600/cfg_sector.o
 .rela.text.SM_Slave_f5
                0x00000000        0x0 /cygdrive/c/Airoha/AiroBlueSDK/AB1600_1_0_5_0/projects/SmartRemote/output/pj/components/Device/AB1600/cfg_sector.o
 .rela.text.SM_Slave_f4_PKE_handler
                0x00000000        0x0 /cygdrive/c/Airoha/AiroBlueSDK/AB1600_1_0_5_0/projects/SmartRemote/output/pj/components/Device/AB1600/cfg_sector.o
 .rela.text.SM_Slave_TKValueOOB
                0x00000000        0x0 /cygdrive/c/Airoha/AiroBlueSDK/AB1600_1_0_5_0/projects/SmartRemote/output/pj/components/Device/AB1600/cfg_sector.o
 .rela.text.SM_Slave_TKValuePasskeyInput
                0x00000000        0x0 /cygdrive/c/Airoha/AiroBlueSDK/AB1600_1_0_5_0/projects/SmartRemote/output/pj/components/Device/AB1600/cfg_sector.o
 .rela.text.SM_Slave_Legacy_GenConfirm
                0x00000000        0x0 /cygdrive/c/Airoha/AiroBlueSDK/AB1600_1_0_5_0/projects/SmartRemote/output/pj/components/Device/AB1600/cfg_sector.o
 .rela.text.SM_Slave_TKValuePasskeyDisplay
                0x00000000        0x0 /cygdrive/c/Airoha/AiroBlueSDK/AB1600_1_0_5_0/projects/SmartRemote/output/pj/components/Device/AB1600/cfg_sector.o
 .rela.text.SM_Slave_TKValueJustWork
                0x00000000        0x0 /cygdrive/c/Airoha/AiroBlueSDK/AB1600_1_0_5_0/projects/SmartRemote/output/pj/components/Device/AB1600/cfg_sector.o
 .rela.text.SM_Slave_OOBInputRsp
                0x00000000        0x0 /cygdrive/c/Airoha/AiroBlueSDK/AB1600_1_0_5_0/projects/SmartRemote/output/pj/components/Device/AB1600/cfg_sector.o
 .rela.text.SM_Slave_PasskeyInputRsp
                0x00000000        0x0 /cygdrive/c/Airoha/AiroBlueSDK/AB1600_1_0_5_0/projects/SmartRemote/output/pj/components/Device/AB1600/cfg_sector.o
 .rela.text.SM_Slave_c1_1_handler
                0x00000000        0x0 /cygdrive/c/Airoha/AiroBlueSDK/AB1600_1_0_5_0/projects/SmartRemote/output/pj/components/Device/AB1600/cfg_sector.o
 .rela.text.SM_Slave_c1_2_handler
                0x00000000        0x0 /cygdrive/c/Airoha/AiroBlueSDK/AB1600_1_0_5_0/projects/SmartRemote/output/pj/components/Device/AB1600/cfg_sector.o
 .rela.text.SM_Slave_SigningInformationHandler
                0x00000000        0x0 /cygdrive/c/Airoha/AiroBlueSDK/AB1600_1_0_5_0/projects/SmartRemote/output/pj/components/Device/AB1600/cfg_sector.o
 .rela.text.SM_Slave_IdentityAddressInformationHandler
                0x00000000        0x0 /cygdrive/c/Airoha/AiroBlueSDK/AB1600_1_0_5_0/projects/SmartRemote/output/pj/components/Device/AB1600/cfg_sector.o
 .rela.text.SM_Slave_MasterIdentificationHandler
                0x00000000        0x0 /cygdrive/c/Airoha/AiroBlueSDK/AB1600_1_0_5_0/projects/SmartRemote/output/pj/components/Device/AB1600/cfg_sector.o
 .rela.text.SM_Slave_PairingRandomHandler
                0x00000000        0x0 /cygdrive/c/Airoha/AiroBlueSDK/AB1600_1_0_5_0/projects/SmartRemote/output/pj/components/Device/AB1600/cfg_sector.o
 .rela.text.SM_Slave_PairingRequestHandler
                0x00000000        0x0 /cygdrive/c/Airoha/AiroBlueSDK/AB1600_1_0_5_0/projects/SmartRemote/output/pj/components/Device/AB1600/cfg_sector.o
 .rela.text.SM_Slave_L2capEventHandler
                0x00000000        0x0 /cygdrive/c/Airoha/AiroBlueSDK/AB1600_1_0_5_0/projects/SmartRemote/output/pj/components/Device/AB1600/cfg_sector.o
 .rela.text.SM_Slave_StartPairing
                0x00000000        0x0 /cygdrive/c/Airoha/AiroBlueSDK/AB1600_1_0_5_0/projects/SmartRemote/output/pj/components/Device/AB1600/cfg_sector.o
 .rela.text.SM_Slave_EncryptionChange
                0x00000000        0x0 /cygdrive/c/Airoha/AiroBlueSDK/AB1600_1_0_5_0/projects/SmartRemote/output/pj/components/Device/AB1600/cfg_sector.o
 .rela.text.SM_Slave_get_ltk_handler
                0x00000000        0x0 /cygdrive/c/Airoha/AiroBlueSDK/AB1600_1_0_5_0/projects/SmartRemote/output/pj/components/Device/AB1600/cfg_sector.o
 .rela.text.SM_Slave_LTKRequestHandler
                0x00000000        0x0 /cygdrive/c/Airoha/AiroBlueSDK/AB1600_1_0_5_0/projects/SmartRemote/output/pj/components/Device/AB1600/cfg_sector.o
 .rela.text.SM_Slave_s1_handler
                0x00000000        0x0 /cygdrive/c/Airoha/AiroBlueSDK/AB1600_1_0_5_0/projects/SmartRemote/output/pj/components/Device/AB1600/cfg_sector.o
 .rela.text.SM_Slave_LTKRequest
                0x00000000        0x0 /cygdrive/c/Airoha/AiroBlueSDK/AB1600_1_0_5_0/projects/SmartRemote/output/pj/components/Device/AB1600/cfg_sector.o
 .rela.text.SM_Slave_SendSecurityRequest
                0x00000000        0x0 /cygdrive/c/Airoha/AiroBlueSDK/AB1600_1_0_5_0/projects/SmartRemote/output/pj/components/Device/AB1600/cfg_sector.o
 .rela.text.SM_Master_f5_mac_handler
                0x00000000        0x0 /cygdrive/c/Airoha/AiroBlueSDK/AB1600_1_0_5_0/projects/SmartRemote/output/pj/components/Device/AB1600/cfg_sector.o
 .rela.text.SM_Master_IdentityInformationHandler
                0x00000000        0x0 /cygdrive/c/Airoha/AiroBlueSDK/AB1600_1_0_5_0/projects/SmartRemote/output/pj/components/Device/AB1600/cfg_sector.o
 .rela.text.SM_Master_EncryptionInformationHandler
                0x00000000        0x0 /cygdrive/c/Airoha/AiroBlueSDK/AB1600_1_0_5_0/projects/SmartRemote/output/pj/components/Device/AB1600/cfg_sector.o
 .rela.text.SM_Master_PairingDHKeyCheckHandler
                0x00000000        0x0 /cygdrive/c/Airoha/AiroBlueSDK/AB1600_1_0_5_0/projects/SmartRemote/output/pj/components/Device/AB1600/cfg_sector.o
 .rela.text.SM_Master_s1_handler
                0x00000000        0x0 /cygdrive/c/Airoha/AiroBlueSDK/AB1600_1_0_5_0/projects/SmartRemote/output/pj/components/Device/AB1600/cfg_sector.o
 .rela.text.SM_Master_f6_Eb_handler
                0x00000000        0x0 /cygdrive/c/Airoha/AiroBlueSDK/AB1600_1_0_5_0/projects/SmartRemote/output/pj/components/Device/AB1600/cfg_sector.o
 .rela.text.SM_Master_PairingPublicKeyHandler
                0x00000000        0x0 /cygdrive/c/Airoha/AiroBlueSDK/AB1600_1_0_5_0/projects/SmartRemote/output/pj/components/Device/AB1600/cfg_sector.o
 .rela.text.SM_Master_generate_DHKey_handler
                0x00000000        0x0 /cygdrive/c/Airoha/AiroBlueSDK/AB1600_1_0_5_0/projects/SmartRemote/output/pj/components/Device/AB1600/cfg_sector.o
 .rela.text.SM_Master_SC_Unsupported
                0x00000000        0x0 /cygdrive/c/Airoha/AiroBlueSDK/AB1600_1_0_5_0/projects/SmartRemote/output/pj/components/Device/AB1600/cfg_sector.o
 .rela.text.SM_Master_UnsupportedHandler
                0x00000000        0x0 /cygdrive/c/Airoha/AiroBlueSDK/AB1600_1_0_5_0/projects/SmartRemote/output/pj/components/Device/AB1600/cfg_sector.o
 .rela.text.SM_Master_L2capEventHandler
                0x00000000        0x0 /cygdrive/c/Airoha/AiroBlueSDK/AB1600_1_0_5_0/projects/SmartRemote/output/pj/components/Device/AB1600/cfg_sector.o
 .rela.text.SM_Master_g2_handler
                0x00000000        0x0 /cygdrive/c/Airoha/AiroBlueSDK/AB1600_1_0_5_0/projects/SmartRemote/output/pj/components/Device/AB1600/cfg_sector.o
 .rela.text.SM_Master_SC_rbValuePasskeyDisplay
                0x00000000        0x0 /cygdrive/c/Airoha/AiroBlueSDK/AB1600_1_0_5_0/projects/SmartRemote/output/pj/components/Device/AB1600/cfg_sector.o
 .rela.text.SM_Master_f5
                0x00000000        0x0 /cygdrive/c/Airoha/AiroBlueSDK/AB1600_1_0_5_0/projects/SmartRemote/output/pj/components/Device/AB1600/cfg_sector.o
 .rela.text.SM_Master_f4_PKE_handler
                0x00000000        0x0 /cygdrive/c/Airoha/AiroBlueSDK/AB1600_1_0_5_0/projects/SmartRemote/output/pj/components/Device/AB1600/cfg_sector.o
 .rela.text.SM_Master_f5_ltk_handler
                0x00000000        0x0 /cygdrive/c/Airoha/AiroBlueSDK/AB1600_1_0_5_0/projects/SmartRemote/output/pj/components/Device/AB1600/cfg_sector.o
 .rela.text.SM_Master_f6_Ea_handler
                0x00000000        0x0 /cygdrive/c/Airoha/AiroBlueSDK/AB1600_1_0_5_0/projects/SmartRemote/output/pj/components/Device/AB1600/cfg_sector.o
 .rela.text.SM_Master_TKValueOOB
                0x00000000        0x0 /cygdrive/c/Airoha/AiroBlueSDK/AB1600_1_0_5_0/projects/SmartRemote/output/pj/components/Device/AB1600/cfg_sector.o
 .rela.text.SM_Master_TKValuePasskeyInput
                0x00000000        0x0 /cygdrive/c/Airoha/AiroBlueSDK/AB1600_1_0_5_0/projects/SmartRemote/output/pj/components/Device/AB1600/cfg_sector.o
 .rela.text.SM_Master_Legacy_GenConfirm
                0x00000000        0x0 /cygdrive/c/Airoha/AiroBlueSDK/AB1600_1_0_5_0/projects/SmartRemote/output/pj/components/Device/AB1600/cfg_sector.o
 .rela.text.SM_Master_TKValuePasskeyDisplay
                0x00000000        0x0 /cygdrive/c/Airoha/AiroBlueSDK/AB1600_1_0_5_0/projects/SmartRemote/output/pj/components/Device/AB1600/cfg_sector.o
 .rela.text.SM_Master_TKValueJustWork
                0x00000000        0x0 /cygdrive/c/Airoha/AiroBlueSDK/AB1600_1_0_5_0/projects/SmartRemote/output/pj/components/Device/AB1600/cfg_sector.o
 .rela.text.SM_Master_OOBInputRsp
                0x00000000        0x0 /cygdrive/c/Airoha/AiroBlueSDK/AB1600_1_0_5_0/projects/SmartRemote/output/pj/components/Device/AB1600/cfg_sector.o
 .rela.text.SM_Master_PasskeyInputRsp
                0x00000000        0x0 /cygdrive/c/Airoha/AiroBlueSDK/AB1600_1_0_5_0/projects/SmartRemote/output/pj/components/Device/AB1600/cfg_sector.o
 .rela.text.SM_Master_c1_1_handler
                0x00000000        0x0 /cygdrive/c/Airoha/AiroBlueSDK/AB1600_1_0_5_0/projects/SmartRemote/output/pj/components/Device/AB1600/cfg_sector.o
 .rela.text.SM_Master_PairingConfirmHandler
                0x00000000        0x0 /cygdrive/c/Airoha/AiroBlueSDK/AB1600_1_0_5_0/projects/SmartRemote/output/pj/components/Device/AB1600/cfg_sector.o
 .rela.text.SM_Master_c1_2_handler
                0x00000000        0x0 /cygdrive/c/Airoha/AiroBlueSDK/AB1600_1_0_5_0/projects/SmartRemote/output/pj/components/Device/AB1600/cfg_sector.o
 .rela.text.SM_Master_SecurityRequestHandler
                0x00000000        0x0 /cygdrive/c/Airoha/AiroBlueSDK/AB1600_1_0_5_0/projects/SmartRemote/output/pj/components/Device/AB1600/cfg_sector.o
 .rela.text.SM_Master_SigningInformationHandler
                0x00000000        0x0 /cygdrive/c/Airoha/AiroBlueSDK/AB1600_1_0_5_0/projects/SmartRemote/output/pj/components/Device/AB1600/cfg_sector.o
 .rela.text.SM_Master_IdentityAddressInformationHandler
                0x00000000        0x0 /cygdrive/c/Airoha/AiroBlueSDK/AB1600_1_0_5_0/projects/SmartRemote/output/pj/components/Device/AB1600/cfg_sector.o
 .rela.text.SM_Master_MasterIdentificationHandler
                0x00000000        0x0 /cygdrive/c/Airoha/AiroBlueSDK/AB1600_1_0_5_0/projects/SmartRemote/output/pj/components/Device/AB1600/cfg_sector.o
 .rela.text.SM_Master_PairingRandomHandler
                0x00000000        0x0 /cygdrive/c/Airoha/AiroBlueSDK/AB1600_1_0_5_0/projects/SmartRemote/output/pj/components/Device/AB1600/cfg_sector.o
 .rela.text.SM_Master_f4_JW_handler
                0x00000000        0x0 /cygdrive/c/Airoha/AiroBlueSDK/AB1600_1_0_5_0/projects/SmartRemote/output/pj/components/Device/AB1600/cfg_sector.o
 .rela.text.SM_Master_PairingResponseHandler
                0x00000000        0x0 /cygdrive/c/Airoha/AiroBlueSDK/AB1600_1_0_5_0/projects/SmartRemote/output/pj/components/Device/AB1600/cfg_sector.o
 .rela.text.SM_Master_EncryptionChange
                0x00000000        0x0 /cygdrive/c/Airoha/AiroBlueSDK/AB1600_1_0_5_0/projects/SmartRemote/output/pj/components/Device/AB1600/cfg_sector.o
 .rela.text.SM_Master_StartPairing
                0x00000000        0x0 /cygdrive/c/Airoha/AiroBlueSDK/AB1600_1_0_5_0/projects/SmartRemote/output/pj/components/Device/AB1600/cfg_sector.o
 .rela.text.SM_Master_SendPairingRequest
                0x00000000        0x0 /cygdrive/c/Airoha/AiroBlueSDK/AB1600_1_0_5_0/projects/SmartRemote/output/pj/components/Device/AB1600/cfg_sector.o
 .rela.text.DRV_TRNG_Get
                0x00000000        0x0 /cygdrive/c/Airoha/AiroBlueSDK/AB1600_1_0_5_0/projects/SmartRemote/output/pj/components/Device/AB1600/cfg_sector.o
 .rela.text.PMU_IntrHandler
                0x00000000        0x0 /cygdrive/c/Airoha/AiroBlueSDK/AB1600_1_0_5_0/projects/SmartRemote/output/pj/components/Device/AB1600/cfg_sector.o
 .rela.text.Drv_MMITimerDisable
                0x00000000        0x0 /cygdrive/c/Airoha/AiroBlueSDK/AB1600_1_0_5_0/projects/SmartRemote/output/pj/components/Device/AB1600/cfg_sector.o
 .rela.text.Drv_MMITimerEnable
                0x00000000        0x0 /cygdrive/c/Airoha/AiroBlueSDK/AB1600_1_0_5_0/projects/SmartRemote/output/pj/components/Device/AB1600/cfg_sector.o
 .rela.text.Ab_MMITimerUnset
                0x00000000        0x0 /cygdrive/c/Airoha/AiroBlueSDK/AB1600_1_0_5_0/projects/SmartRemote/output/pj/components/Device/AB1600/cfg_sector.o
 .rela.text.BTDataRdyInterruptHandler
                0x00000000        0x0 /cygdrive/c/Airoha/AiroBlueSDK/AB1600_1_0_5_0/projects/SmartRemote/output/pj/components/Device/AB1600/cfg_sector.o
 .rela.text.Drv_1602DataReady
                0x00000000        0x0 /cygdrive/c/Airoha/AiroBlueSDK/AB1600_1_0_5_0/projects/SmartRemote/output/pj/components/Device/AB1600/cfg_sector.o
 .rela.text.Drv_1602DataReadyIntEn
                0x00000000        0x0 /cygdrive/c/Airoha/AiroBlueSDK/AB1600_1_0_5_0/projects/SmartRemote/output/pj/components/Device/AB1600/cfg_sector.o
 .rela.text.Drv_1602DataReadyIntReg
                0x00000000        0x0 /cygdrive/c/Airoha/AiroBlueSDK/AB1600_1_0_5_0/projects/SmartRemote/output/pj/components/Device/AB1600/cfg_sector.o
 .rela.text.Drv_1602Reset
                0x00000000        0x0 /cygdrive/c/Airoha/AiroBlueSDK/AB1600_1_0_5_0/projects/SmartRemote/output/pj/components/Device/AB1600/cfg_sector.o
 .rela.text.hci_acl_send
                0x00000000        0x0 /cygdrive/c/Airoha/AiroBlueSDK/AB1600_1_0_5_0/projects/SmartRemote/output/pj/components/Device/AB1600/cfg_sector.o
 .rela.text.hci_cmd_send
                0x00000000        0x0 /cygdrive/c/Airoha/AiroBlueSDK/AB1600_1_0_5_0/projects/SmartRemote/output/pj/components/Device/AB1600/cfg_sector.o
 .rela.text.hci_init
                0x00000000        0x0 /cygdrive/c/Airoha/AiroBlueSDK/AB1600_1_0_5_0/projects/SmartRemote/output/pj/components/Device/AB1600/cfg_sector.o
 .rela.text.hci_pkt_recv
                0x00000000        0x0 /cygdrive/c/Airoha/AiroBlueSDK/AB1600_1_0_5_0/projects/SmartRemote/output/pj/components/Device/AB1600/cfg_sector.o
 .rela.text._hci_send_acl
                0x00000000        0x0 /cygdrive/c/Airoha/AiroBlueSDK/AB1600_1_0_5_0/projects/SmartRemote/output/pj/components/Device/AB1600/cfg_sector.o
 .rela.text.hci_send_cmd_ex
                0x00000000        0x0 /cygdrive/c/Airoha/AiroBlueSDK/AB1600_1_0_5_0/projects/SmartRemote/output/pj/components/Device/AB1600/cfg_sector.o
 .rela.text.hci_send_acl
                0x00000000        0x0 /cygdrive/c/Airoha/AiroBlueSDK/AB1600_1_0_5_0/projects/SmartRemote/output/pj/components/Device/AB1600/cfg_sector.o
 .rela.text.SM_Common_AllocPairingData
                0x00000000        0x0 /cygdrive/c/Airoha/AiroBlueSDK/AB1600_1_0_5_0/projects/SmartRemote/output/pj/components/Device/AB1600/cfg_sector.o
 .rela.text.AB_Log_HciStatusStr
                0x00000000        0x0 /cygdrive/c/Airoha/AiroBlueSDK/AB1600_1_0_5_0/projects/SmartRemote/output/pj/components/Device/AB1600/cfg_sector.o
 .rela.text.AB_Log_HciEventParseStr
                0x00000000        0x0 /cygdrive/c/Airoha/AiroBlueSDK/AB1600_1_0_5_0/projects/SmartRemote/output/pj/components/Device/AB1600/cfg_sector.o
 .rela.text.HexDisplay_internal
                0x00000000        0x0 /cygdrive/c/Airoha/AiroBlueSDK/AB1600_1_0_5_0/projects/SmartRemote/output/pj/components/Device/AB1600/cfg_sector.o
 .rela.text.AB_Flash_ByteProgram
                0x00000000        0x0 /cygdrive/c/Airoha/AiroBlueSDK/AB1600_1_0_5_0/projects/SmartRemote/output/pj/components/Device/AB1600/cfg_sector.o
 .rela.text.AB_Flash_SectorErase
                0x00000000        0x0 /cygdrive/c/Airoha/AiroBlueSDK/AB1600_1_0_5_0/projects/SmartRemote/output/pj/components/Device/AB1600/cfg_sector.o
 .rela.text._malloc_trim_r
                0x00000000        0x0 /cygdrive/c/Airoha/AiroBlueSDK/AB1600_1_0_5_0/projects/SmartRemote/output/pj/components/Device/AB1600/cfg_sector.o
 .rela.text._free_r
                0x00000000        0x0 /cygdrive/c/Airoha/AiroBlueSDK/AB1600_1_0_5_0/projects/SmartRemote/output/pj/components/Device/AB1600/cfg_sector.o
 .rela.text._malloc_r
                0x00000000        0x0 /cygdrive/c/Airoha/AiroBlueSDK/AB1600_1_0_5_0/projects/SmartRemote/output/pj/components/Device/AB1600/cfg_sector.o
 .rela.text._mstats_r
                0x00000000        0x0 /cygdrive/c/Airoha/AiroBlueSDK/AB1600_1_0_5_0/projects/SmartRemote/output/pj/components/Device/AB1600/cfg_sector.o
 .rela.text.malloc_stats
                0x00000000        0x0 /cygdrive/c/Airoha/AiroBlueSDK/AB1600_1_0_5_0/projects/SmartRemote/output/pj/components/Device/AB1600/cfg_sector.o
 .rela.text.mallopt
                0x00000000        0x0 /cygdrive/c/Airoha/AiroBlueSDK/AB1600_1_0_5_0/projects/SmartRemote/output/pj/components/Device/AB1600/cfg_sector.o
 .rela.text.mallinfo
                0x00000000        0x0 /cygdrive/c/Airoha/AiroBlueSDK/AB1600_1_0_5_0/projects/SmartRemote/output/pj/components/Device/AB1600/cfg_sector.o
 .rela.text._sbrk_r
                0x00000000        0x0 /cygdrive/c/Airoha/AiroBlueSDK/AB1600_1_0_5_0/projects/SmartRemote/output/pj/components/Device/AB1600/cfg_sector.o
 .rela.text.sprintf
                0x00000000        0x0 /cygdrive/c/Airoha/AiroBlueSDK/AB1600_1_0_5_0/projects/SmartRemote/output/pj/components/Device/AB1600/cfg_sector.o
 .rela.text.vprintf
                0x00000000        0x0 /cygdrive/c/Airoha/AiroBlueSDK/AB1600_1_0_5_0/projects/SmartRemote/output/pj/components/Device/AB1600/cfg_sector.o
 .rela.text.vprintf_help
                0x00000000        0x0 /cygdrive/c/Airoha/AiroBlueSDK/AB1600_1_0_5_0/projects/SmartRemote/output/pj/components/Device/AB1600/cfg_sector.o
 .rela.text.vsprintf
                0x00000000        0x0 /cygdrive/c/Airoha/AiroBlueSDK/AB1600_1_0_5_0/projects/SmartRemote/output/pj/components/Device/AB1600/cfg_sector.o
 .rela.text.sep_frac
                0x00000000        0x0 /cygdrive/c/Airoha/AiroBlueSDK/AB1600_1_0_5_0/projects/SmartRemote/output/pj/components/Device/AB1600/cfg_sector.o
 .rela.text.double2dec
                0x00000000        0x0 /cygdrive/c/Airoha/AiroBlueSDK/AB1600_1_0_5_0/projects/SmartRemote/output/pj/components/Device/AB1600/cfg_sector.o
 .rela.data._NDS32_REENT__stdin
                0x00000000        0x0 /cygdrive/c/Airoha/AiroBlueSDK/AB1600_1_0_5_0/projects/SmartRemote/output/pj/components/Device/AB1600/cfg_sector.o
 .rela.data._NDS32_REENT__stdout
                0x00000000        0x0 /cygdrive/c/Airoha/AiroBlueSDK/AB1600_1_0_5_0/projects/SmartRemote/output/pj/components/Device/AB1600/cfg_sector.o
 .rela.data._NDS32_REENT__stderr
                0x00000000        0x0 /cygdrive/c/Airoha/AiroBlueSDK/AB1600_1_0_5_0/projects/SmartRemote/output/pj/components/Device/AB1600/cfg_sector.o
 .rela.text.fiprintf
                0x00000000        0x0 /cygdrive/c/Airoha/AiroBlueSDK/AB1600_1_0_5_0/projects/SmartRemote/output/pj/components/Device/AB1600/cfg_sector.o
 .rela.text._fiprintf_r
                0x00000000        0x0 /cygdrive/c/Airoha/AiroBlueSDK/AB1600_1_0_5_0/projects/SmartRemote/output/pj/components/Device/AB1600/cfg_sector.o
 .rela.text.__sprint_r
                0x00000000        0x0 /cygdrive/c/Airoha/AiroBlueSDK/AB1600_1_0_5_0/projects/SmartRemote/output/pj/components/Device/AB1600/cfg_sector.o
 .rela.text._vfiprintf_r
                0x00000000        0x0 /cygdrive/c/Airoha/AiroBlueSDK/AB1600_1_0_5_0/projects/SmartRemote/output/pj/components/Device/AB1600/cfg_sector.o
 .rela.text.__swsetup_r
                0x00000000        0x0 /cygdrive/c/Airoha/AiroBlueSDK/AB1600_1_0_5_0/projects/SmartRemote/output/pj/components/Device/AB1600/cfg_sector.o
 .rela.text._fflush_r
                0x00000000        0x0 /cygdrive/c/Airoha/AiroBlueSDK/AB1600_1_0_5_0/projects/SmartRemote/output/pj/components/Device/AB1600/cfg_sector.o
 .rela.text.fflush
                0x00000000        0x0 /cygdrive/c/Airoha/AiroBlueSDK/AB1600_1_0_5_0/projects/SmartRemote/output/pj/components/Device/AB1600/cfg_sector.o
 .rela.text.__fp_unlock_all
                0x00000000        0x0 /cygdrive/c/Airoha/AiroBlueSDK/AB1600_1_0_5_0/projects/SmartRemote/output/pj/components/Device/AB1600/cfg_sector.o
 .rela.text.__fp_lock_all
                0x00000000        0x0 /cygdrive/c/Airoha/AiroBlueSDK/AB1600_1_0_5_0/projects/SmartRemote/output/pj/components/Device/AB1600/cfg_sector.o
 .rela.text._cleanup_r
                0x00000000        0x0 /cygdrive/c/Airoha/AiroBlueSDK/AB1600_1_0_5_0/projects/SmartRemote/output/pj/components/Device/AB1600/cfg_sector.o
 .rela.text.std
                0x00000000        0x0 /cygdrive/c/Airoha/AiroBlueSDK/AB1600_1_0_5_0/projects/SmartRemote/output/pj/components/Device/AB1600/cfg_sector.o
 .rela.text.__sinit
                0x00000000        0x0 /cygdrive/c/Airoha/AiroBlueSDK/AB1600_1_0_5_0/projects/SmartRemote/output/pj/components/Device/AB1600/cfg_sector.o
 .rela.text._fputwc_r
                0x00000000        0x0 /cygdrive/c/Airoha/AiroBlueSDK/AB1600_1_0_5_0/projects/SmartRemote/output/pj/components/Device/AB1600/cfg_sector.o
 .rela.text.__sfvwrite_r
                0x00000000        0x0 /cygdrive/c/Airoha/AiroBlueSDK/AB1600_1_0_5_0/projects/SmartRemote/output/pj/components/Device/AB1600/cfg_sector.o
 .rela.text.__smakebuf_r
                0x00000000        0x0 /cygdrive/c/Airoha/AiroBlueSDK/AB1600_1_0_5_0/projects/SmartRemote/output/pj/components/Device/AB1600/cfg_sector.o
 .rela.text._realloc_r
                0x00000000        0x0 /cygdrive/c/Airoha/AiroBlueSDK/AB1600_1_0_5_0/projects/SmartRemote/output/pj/components/Device/AB1600/cfg_sector.o
 .rela.text.__sclose
                0x00000000        0x0 /cygdrive/c/Airoha/AiroBlueSDK/AB1600_1_0_5_0/projects/SmartRemote/output/pj/components/Device/AB1600/cfg_sector.o
 .rela.text.__sseek
                0x00000000        0x0 /cygdrive/c/Airoha/AiroBlueSDK/AB1600_1_0_5_0/projects/SmartRemote/output/pj/components/Device/AB1600/cfg_sector.o
 .rela.text.__swrite
                0x00000000        0x0 /cygdrive/c/Airoha/AiroBlueSDK/AB1600_1_0_5_0/projects/SmartRemote/output/pj/components/Device/AB1600/cfg_sector.o
 .rela.text.__sread
                0x00000000        0x0 /cygdrive/c/Airoha/AiroBlueSDK/AB1600_1_0_5_0/projects/SmartRemote/output/pj/components/Device/AB1600/cfg_sector.o
 .rela.text.__swbuf_r
                0x00000000        0x0 /cygdrive/c/Airoha/AiroBlueSDK/AB1600_1_0_5_0/projects/SmartRemote/output/pj/components/Device/AB1600/cfg_sector.o
 .rela.text._wcrtomb_r
                0x00000000        0x0 /cygdrive/c/Airoha/AiroBlueSDK/AB1600_1_0_5_0/projects/SmartRemote/output/pj/components/Device/AB1600/cfg_sector.o
 .rela.text._write_r
                0x00000000        0x0 /cygdrive/c/Airoha/AiroBlueSDK/AB1600_1_0_5_0/projects/SmartRemote/output/pj/components/Device/AB1600/cfg_sector.o
 .rela.text._close_r
                0x00000000        0x0 /cygdrive/c/Airoha/AiroBlueSDK/AB1600_1_0_5_0/projects/SmartRemote/output/pj/components/Device/AB1600/cfg_sector.o
 .rela.text._fstat_r
                0x00000000        0x0 /cygdrive/c/Airoha/AiroBlueSDK/AB1600_1_0_5_0/projects/SmartRemote/output/pj/components/Device/AB1600/cfg_sector.o
 .rela.text._isatty_r
                0x00000000        0x0 /cygdrive/c/Airoha/AiroBlueSDK/AB1600_1_0_5_0/projects/SmartRemote/output/pj/components/Device/AB1600/cfg_sector.o
 .rela.text._lseek_r
                0x00000000        0x0 /cygdrive/c/Airoha/AiroBlueSDK/AB1600_1_0_5_0/projects/SmartRemote/output/pj/components/Device/AB1600/cfg_sector.o
 .rela.text._read_r
                0x00000000        0x0 /cygdrive/c/Airoha/AiroBlueSDK/AB1600_1_0_5_0/projects/SmartRemote/output/pj/components/Device/AB1600/cfg_sector.o
                0x00100000                . = 0x100000
                0x000000c0                _BOOT_DATA_LEN = (_memory_top_BOOT - 0x100000)

.bootData       0x00100000       0xc0
                0x000000c0                . = _BOOT_DATA_LEN
 *fill*         0x00100000       0xc0 00

.data           0x001000c0      0x750 load address 0x000a7278
 *(.data)
 .data          0x001000c0       0x68 /cygdrive/c/Airoha/AiroBlueSDK/AB1600_1_0_5_0/projects/SmartRemote/output/main.o
                0x001000c0                remote_CPK
                0x001000c8                clock_param
                0x001000e8                uart_param
                0x001000d0                bt_param
                0x001000e0                mp_param
                0x00100104                cpu_param
                0x00100108                bsp_init_param
 .data          0x00100128       0x34 /cygdrive/c/Airoha/AiroBlueSDK/AB1600_1_0_5_0/projects/SmartRemote/output/peripheral.o
 .data          0x0010015c       0xb8 /cygdrive/c/Airoha/AiroBlueSDK/AB1600_1_0_5_0/projects/SmartRemote/output/service.o
 .data          0x00100214        0x4 /cygdrive/c/Airoha/AiroBlueSDK/AB1600_1_0_5_0/projects/SmartRemote/output/board.o
                0x00100214                boardManage
 .data          0x00100218       0x24 /cygdrive/c/Airoha/AiroBlueSDK/AB1600_1_0_5_0/projects/SmartRemote/output/irTx.o
 .data          0x0010023c       0x10 /cygdrive/c/Airoha/AiroBlueSDK/AB1600_1_0_5_0/projects/SmartRemote/output/spl/components/Libraries/external/ADPCM/g726_enc_32.o
 .data          0x0010024c       0x20 /cygdrive/c/Airoha/AiroBlueSDK/AB1600_1_0_5_0/projects/SmartRemote/output/spl/components/Libraries/external/ADPCM/g72x.o
 .data          0x0010026c        0x8 output/\lib1600.a(ab_airoha_vcmd.o)
                0x0010026c                ab1602_boot
 .data          0x00100274       0x10 components/BT/release/\libbtcore.a(ble_gap.o)
 .data          0x00100284       0x40 components/BT/release/\libbtcore.a(ble_att.o)
                0x00100284                ATT_ServerHandler
 .data          0x001002c4       0x20 components/BT/release/\libbtcore.a(sm.o)
                0x001002c4                gSM_IRK
                0x001002d4                gSM_Master_IRK
 .data          0x001002e4       0x28 components/BT/release/\libbtcore.a(sm_cryptotool.o)
 .data          0x0010030c       0x3c components/BT/release/\libbtcore.a(sm_slave.o)
                0x0010030c                SM_event_handler_table
 .data          0x00100348       0x3c components/BT/release/\libbtcore.a(sm_master.o)
                0x00100348                SM_event_handler_table_master
 *(.data.*)
 .data.__ctype_ptr__
                0x00100384        0x4 C:\Andestech\AndeSight211RDS\toolchains\nds32le-elf-mculib-v3m\nds32le-elf\libc\mculib\usr\lib\libc.a(lib_a-ctype_.o)
                0x00100384                __ctype_ptr__
 .data.__malloc_av_
                0x00100388      0x408 C:\Andestech\AndeSight211RDS\toolchains\nds32le-elf-mculib-v3m\nds32le-elf\libc\mculib\usr\lib\libc.a(lib_a-mallocr.o)
                0x00100388                __malloc_av_
 .data.__malloc_trim_threshold
                0x00100790        0x4 C:\Andestech\AndeSight211RDS\toolchains\nds32le-elf-mculib-v3m\nds32le-elf\libc\mculib\usr\lib\libc.a(lib_a-mallocr.o)
                0x00100790                __malloc_trim_threshold
 .data.__malloc_sbrk_base
                0x00100794        0x4 C:\Andestech\AndeSight211RDS\toolchains\nds32le-elf-mculib-v3m\nds32le-elf\libc\mculib\usr\lib\libc.a(lib_a-mallocr.o)
                0x00100794                __malloc_sbrk_base
 *(.sdata_w)
 .sdata_w       0x00100798       0x10 /cygdrive/c/Airoha/AiroBlueSDK/AB1600_1_0_5_0/projects/SmartRemote/output/pj/components/Libraries/hci_devices/hci_spi_1602.o
                0x0010079c                data_read
                0x001007a4                spi_send_waiting_queue
                0x001007a0                priv
                0x00100798                status_inform
 .sdata_w       0x001007a8        0xc /cygdrive/c/Airoha/AiroBlueSDK/AB1600_1_0_5_0/projects/SmartRemote/output/peripheral.o
                0x001007a8                mpData_BDAddress
 .sdata_w       0x001007b4        0x8 /cygdrive/c/Airoha/AiroBlueSDK/AB1600_1_0_5_0/projects/SmartRemote/output/microphone.o
                0x001007b8                _adpcm_encoder
                0x001007b4                _adpcm_init
 .sdata_w       0x001007bc        0x4 output/\lib1600.a(ab_malloc_hook.o)
 .sdata_w       0x001007c0        0x4 output/\lib1600.a(ab_pwr.o)
 .sdata_w       0x001007c4        0x8 output/\lib1600.a(bsp_generic.o)
 .sdata_w       0x001007cc        0x4 output/\lib1600.a(ab_timer.o)
 .sdata_w       0x001007d0        0xc output/\lib1600.a(ab_airoha_vcmd.o)
                0x001007d4                vcmd_ptr
                0x001007d8                extend_callback
                0x001007d0                vcmd_pkt
 .sdata_w       0x001007dc        0x4 output/\lib1600.a(ab_debug.o)
                0x001007dc                exception_cb
 .sdata_w       0x001007e0        0x4 components/BT/release/\libbtcore.a(hci_h4_parser.o)
                0x001007e0                decode_pkt
 .sdata_w       0x001007e4        0x4 components/BT/release/\libbtcore.a(sm_cryptotool.o)
                0x001007e4                localPk
 .sdata_w       0x001007e8        0xc components/BT/release/\libbtcore.a(hci.o)
                0x001007e8                module
                0x001007f0                dat_recv
                0x001007ec                evt_recv
 .sdata_w       0x001007f4        0x4 components/BT/release/\libbtcore.a(hci_cmd_evt_dat.o)
                0x001007f4                event_handler
 *(.sdata_h)
 .sdata_h       0x001007f8        0x6 /cygdrive/c/Airoha/AiroBlueSDK/AB1600_1_0_5_0/projects/SmartRemote/output/pj/components/Libraries/hci_devices/hci_spi_1602.o
                0x001007fc                cur_tx_ava
                0x001007fa                cur_rx_ongoing
                0x001007f8                cur_rx_residue
 .sdata_h       0x001007fe        0x2 /cygdrive/c/Airoha/AiroBlueSDK/AB1600_1_0_5_0/projects/SmartRemote/output/peripheral.o
 .sdata_h       0x00100800        0x4 output/\lib1600.a(ab_adc.o)
 .sdata_h       0x00100804        0x2 components/BT/release/\libbtcore.a(ble_att.o)
                0x00100804                ATT_DEFAULT_MTU_SIZE
 *(.sdata_b)
 .sdata_b       0x00100806        0x2 output/\lib1600.a(ab_led.o)
 .sdata_b       0x00100808        0x1 output/\lib1600.a(ab_printf_hook.o)
 .sdata_b       0x00100809        0x2 output/\lib1600.a(ab_airoha_vcmd.o)
                0x00100809                vcmd_state
                0x0010080a                vcmd_residue
 .sdata_b       0x0010080b        0x1 components/BT/release/\libbtcore.a(bt.o)
 .sdata_b       0x0010080c        0x1 components/BT/release/\libbtcore.a(ble_gap.o)
 .sdata_b       0x0010080d        0x1 components/BT/release/\libbtcore.a(hci.o)
                0x0010080d                log_level
 .sdata_b       0x0010080e        0x1 components/BT/release/\libbtcore.a(hci_cmd_evt_dat.o)
 FILL mask 0xff
                0x00100810                . = ALIGN (0x4)
 *fill*         0x0010080f        0x1 ff
                0x000179c8                _DFU_AREA_SIZE = ((text_end - 0x90000) + SIZEOF (.data))

.bss            0x00100810      0xc22
 *(COMMON)
 COMMON         0x00100810       0x14 /cygdrive/c/Airoha/AiroBlueSDK/AB1600_1_0_5_0/projects/SmartRemote/output/service.o
                0x00100810                hids_Report2
 COMMON         0x00100824       0xa0 /cygdrive/c/Airoha/AiroBlueSDK/AB1600_1_0_5_0/projects/SmartRemote/output/spl/components/Libraries/external/ADPCM/g726_enc_32.o
                0x00100824                filt_state
 COMMON         0x001008c4       0x80 components/BT/release/\libbtcore.a(ble_l2cap.o)
                0x001008c4                l2_ch
 COMMON         0x00100944       0xe8 components/BT/release/\libbtcore.a(ble_att.o)
                0x00100944                gATT_HeadPWQ
                0x00100984                gATT_ctl
                0x001009ec                gATT_TailPWQ
 COMMON         0x00100a2c       0x40 components/BT/release/\libbtcore.a(sm.o)
                0x00100a2c                gSMPairingData
 *(.bss)
 .bss           0x00100a6c        0x8 /cygdrive/c/Airoha/AiroBlueSDK/AB1600_1_0_5_0/projects/SmartRemote/output/main.o
                0x00100a6c                printf_param
 .bss           0x00100a74        0x8 /cygdrive/c/Airoha/AiroBlueSDK/AB1600_1_0_5_0/projects/SmartRemote/output/smartRemote.o
 .bss           0x00100a7c       0x1c /cygdrive/c/Airoha/AiroBlueSDK/AB1600_1_0_5_0/projects/SmartRemote/output/peripheral.o
 .bss           0x00100a98        0x4 /cygdrive/c/Airoha/AiroBlueSDK/AB1600_1_0_5_0/projects/SmartRemote/output/service.o
 .bss           0x00100a9c        0x8 /cygdrive/c/Airoha/AiroBlueSDK/AB1600_1_0_5_0/projects/SmartRemote/output/board.o
 .bss           0x00100aa4       0x50 /cygdrive/c/Airoha/AiroBlueSDK/AB1600_1_0_5_0/projects/SmartRemote/output/keyboard.o
 .bss           0x00100af4       0x18 /cygdrive/c/Airoha/AiroBlueSDK/AB1600_1_0_5_0/projects/SmartRemote/output/microphone.o
 .bss           0x00100b0c        0x1 /cygdrive/c/Airoha/AiroBlueSDK/AB1600_1_0_5_0/projects/SmartRemote/output/vcmd.o
                0x00100b0c                vcmd_MouseCalibrating
 *fill*         0x00100b0d        0x3 00
 .bss           0x00100b10        0x4 /cygdrive/c/Airoha/AiroBlueSDK/AB1600_1_0_5_0/projects/SmartRemote/output/led.o
 .bss           0x00100b14        0x1 /cygdrive/c/Airoha/AiroBlueSDK/AB1600_1_0_5_0/projects/SmartRemote/output/irTx.o
 *fill*         0x00100b15        0x3 00
 .bss           0x00100b18       0x54 /cygdrive/c/Airoha/AiroBlueSDK/AB1600_1_0_5_0/projects/SmartRemote/output/spl/components/Libraries/external/ADPCM/g726_enc_32.o
 .bss           0x00100b6c       0x28 components/BT/release/hci_protocol_1602.o
 .bss           0x00100b94        0x8 output/\lib1600.a(ab_adc.o)
 .bss           0x00100b9c        0x4 output/\lib1600.a(ab_pwr.o)
 .bss           0x00100ba0        0xc output/\lib1600.a(ab_spi.o)
 .bss           0x00100bac       0x10 output/\lib1600.a(bsp_generic.o)
 .bss           0x00100bbc        0x8 output/\lib1600.a(ab_timer.o)
 .bss           0x00100bc4        0xc output/\lib1600.a(ab_uart.o)
 .bss           0x00100bd0       0x10 output/\lib1600.a(ab_airoha_vcmd.o)
 .bss           0x00100be0        0x1 output/\lib1600.a(drv_adc.o)
 *fill*         0x00100be1        0x3 00
 .bss           0x00100be4       0x78 output/\lib1600.a(drv_gpio.o)
 .bss           0x00100c5c        0x4 output/\lib1600.a(drv_keyscan.o)
 .bss           0x00100c60       0x14 output/\lib1600.a(drv_mic.o)
 .bss           0x00100c74       0x14 output/\lib1600.a(drv_spi.o)
 .bss           0x00100c88       0x34 output/\lib1600.a(drv_timer32b0.o)
 .bss           0x00100cbc       0x44 output/\lib1600.a(drv_uart.o)
 .bss           0x00100d00        0xc output/\lib1600.a(service_battery.o)
 .bss           0x00100d0c      0x134 output/\lib1600.a(service_device_firmware_update_OTA.o)
 .bss           0x00100e40        0xc output/\lib1600.a(service_generic_attribute.o)
 .bss           0x00100e4c       0xec output/\lib1600.a(console.o)
 .bss           0x00100f38        0x8 components/BT/release/\libbtcore.a(hci_h4_parser.o)
 .bss           0x00100f40        0x4 components/BT/release/\libbtcore.a(bt.o)
 .bss           0x00100f44        0x8 components/BT/release/\libbtcore.a(ble_gap.o)
 .bss           0x00100f4c      0x3d4 components/BT/release/\libbtcore.a(ble_gap_links.o)
 .bss           0x00101320        0xc components/BT/release/\libbtcore.a(ble_gatt_server.o)
 .bss           0x0010132c       0x38 components/BT/release/\libbtcore.a(sm_cryptotool.o)
 .bss           0x00101364        0x4 components/BT/release/\libbtcore.a(sm_hal.o)
 .bss           0x00101368        0x8 components/BT/release/\libbtcore.a(sm_protocol.o)
 .bss           0x00101370        0x4 components/BT/release/\libbtcore.a(Drv_MMITimer.o)
 .bss           0x00101374        0x8 components/BT/release/\libbtcore.a(Ab_MMITimer.o)
 .bss           0x0010137c        0x8 components/BT/release/\libbtcore.a(Drv_1602.o)
 .bss           0x00101384       0x18 components/BT/release/\libbtcore.a(hci_cmd_evt_dat.o)
 .bss           0x0010139c        0x4 output/\lib1600.a(ab_log.o)
 *(.dwbss)
 *(.bss.*)
 .bss.__malloc_top_pad
                0x001013a0        0x4 C:\Andestech\AndeSight211RDS\toolchains\nds32le-elf-mculib-v3m\nds32le-elf\libc\mculib\usr\lib\libc.a(lib_a-mallocr.o)
                0x001013a0                __malloc_top_pad
 .bss.__malloc_max_sbrked_mem
                0x001013a4        0x4 C:\Andestech\AndeSight211RDS\toolchains\nds32le-elf-mculib-v3m\nds32le-elf\libc\mculib\usr\lib\libc.a(lib_a-mallocr.o)
                0x001013a4                __malloc_max_sbrked_mem
 .bss.__malloc_max_total_mem
                0x001013a8        0x4 C:\Andestech\AndeSight211RDS\toolchains\nds32le-elf-mculib-v3m\nds32le-elf\libc\mculib\usr\lib\libc.a(lib_a-mallocr.o)
                0x001013a8                __malloc_max_total_mem
 .bss.__malloc_current_mallinfo
                0x001013ac       0x28 C:\Andestech\AndeSight211RDS\toolchains\nds32le-elf-mculib-v3m\nds32le-elf\libc\mculib\usr\lib\libc.a(lib_a-mallocr.o)
                0x001013ac                __malloc_current_mallinfo
 .bss.output_buff
                0x001013d4        0x4 C:\Andestech\AndeSight211RDS\toolchains\nds32le-elf-mculib-v3m\nds32le-elf\libc\mculib\usr\lib\libc.a(lib_a-vprintf.o)
 .bss.output_idx
                0x001013d8        0x4 C:\Andestech\AndeSight211RDS\toolchains\nds32le-elf-mculib-v3m\nds32le-elf\libc\mculib\usr\lib\libc.a(lib_a-vprintf.o)
 .bss._NDS32_REENT__errno
                0x001013dc        0x4 C:\Andestech\AndeSight211RDS\toolchains\nds32le-elf-mculib-v3m\nds32le-elf\libc\mculib\usr\lib\libc.a(lib_a-data-errno.o)
                0x001013dc                _NDS32_REENT__errno
 *(.scommon_w)
 .scommon_w     0x001013e0       0x11 /cygdrive/c/Airoha/AiroBlueSDK/AB1600_1_0_5_0/projects/SmartRemote/output/service.o
                0x001013e0                hids_ControlPoint
                0x001013e4                hids_Report1
                0x001013e8                hids_Report5
                0x001013ec                hids_Report3
                0x001013f0                hids_Report4
 .scommon_w     0x001013f1        0x0 components/BT/release/hci_protocol_1602.o
 *fill*         0x001013f1        0x3 00
 .scommon_w     0x001013f4        0xc components/BT/release/\libbtcore.a(ble_att.o)
                0x001013f4                gAttClient
                0x001013fc                gATT_Server
 .scommon_w     0x00101400        0x8 components/BT/release/\libbtcore.a(ble_gatt_client.o)
                0x00101400                gatt_evt
                0x00101404                ppara
 .scommon_w     0x00101408        0x2 components/BT/release/\libbtcore.a(sm.o)
                0x00101408                gSM_ctl
 *fill*         0x0010140a        0x2 00
 .scommon_w     0x0010140c        0x6 components/BT/release/\libbtcore.a(sm_hal.o)
                0x0010140c                addr
 *fill*         0x00101412        0x2 00
 .scommon_w     0x00101414        0x4 C:\Andestech\AndeSight211RDS\toolchains\nds32le-elf-mculib-v3m\nds32le-elf\libc\mculib\usr\lib\libc.a(lib_a-reent_errno.o)
                0x00101414                errno
 *(.scommon_h)
 .scommon_h     0x00101418        0xa /cygdrive/c/Airoha/AiroBlueSDK/AB1600_1_0_5_0/projects/SmartRemote/output/service.o
                0x00101418                hids_HandleReport5
                0x0010141a                hids_HandleReport2
                0x0010141c                hids_HandleReport4
                0x0010141e                hids_HandleReport1
                0x00101420                hids_HandleReport3
 .scommon_h     0x00101422        0x2 /cygdrive/c/Airoha/AiroBlueSDK/AB1600_1_0_5_0/projects/SmartRemote/output/spl/components/Libraries/external/ADPCM/g726_enc_32.o
                0x00101422                idx
 .scommon_h     0x00101424        0x4 /cygdrive/c/Airoha/AiroBlueSDK/AB1600_1_0_5_0/projects/SmartRemote/output/spl/components/Libraries/external/ima_adpcm/ima_enc.o
                0x00101424                previndex
                0x00101426                prevsample
 .scommon_h     0x00101428        0x6 components/BT/release/\libbtcore.a(ble_att.o)
                0x00101428                att_transaction_mask
                0x0010142a                att_transaction_mask_TO
                0x0010142c                ATT_SDK_SERVER_SIZE
 .scommon_h     0x0010142e        0x2 components/BT/release/\libbtcore.a(ble_gatt_client.o)
                0x0010142e                gatt_evt_size
 *(.scommon_b)
 .scommon_b     0x00101430        0x1 /cygdrive/c/Airoha/AiroBlueSDK/AB1600_1_0_5_0/projects/SmartRemote/output/service.o
                0x00101430                voice_AdpcmCodecSel
 .scommon_b     0x00101431        0x1 /cygdrive/c/Airoha/AiroBlueSDK/AB1600_1_0_5_0/projects/SmartRemote/output/microphone.o
                0x00101431                mic_IgnoreCount
                0x00101432                _end = .
                0x00108000                __SYS_STACK_START = 0x108000
                0x00108000                _stack = __SYS_STACK_START
                0x000a7278                __DATA_SEC_LMA = LOADADDR (.data)
                0x001000c0                __DATA_SEC_VMA = ADDR (.data)
                0x00000750                __DATA_SEC_LEN = SIZEOF (.data)
                0x00100810                __BSS_SEC_START = ADDR (.bss)
                0x00000c22                __BSS_SEC_LEN = SIZEOF (.bss)
                0x00200000                MCU = 0x200000
                0x00201000                CMTFLASH = 0x201000
                0x00202000                SERIALFLASH = 0x202000
                0x00203000                CODEPATCH = 0x203000
                0x00204000                IOMUX = 0x204000
                0x00205000                PMU = 0x205000
                0x00206000                WIRE3 = 0x206000
                0x00208000                SRP = 0x208000
                0x00209000                FE25519 = 0x209000
                0x0020c000                SMARTCARD = 0x20c000
                0x00210000                UART = 0x210000
                0x00211000                UART2 = 0x211000
                0x00214000                I2C = 0x214000
                0x00218000                SPI = 0x218000
                0x00219000                SPI2 = 0x219000
                0x0021c000                AUDIO = 0x21c000
                0x0021d000                ADC = 0x21d000
                0x00220000                TMR32B0 = 0x220000
                0x00221000                TMR32B1 = 0x221000
                0x00222000                TMR16B0 = 0x222000
                0x00223000                TMR16B1 = 0x223000
                0x00224000                WDT = 0x224000
                0x00225000                LED = 0x225000
                0x00226000                KEYSCAN = 0x226000
                0x00227000                MOUSE = 0x227000
                0x0021c01c                _AUDIO = 0x21c01c
LOAD components/Libraries/external/AML/\libAML.a
LOAD components/Libraries/external/opus/\libopus.a
LOAD output/\lib1600.a
LOAD components/BT/release/\libbtcore.a
LOAD output/\lib1600.a
LOAD C:\Andestech\AndeSight211RDS\toolchains\nds32le-elf-mculib-v3m\nds32le-elf\libc\mculib\usr\lib\libm.a
LOAD C:\Andestech\AndeSight211RDS\toolchains\nds32le-elf-mculib-v3m\nds32le-elf\libc\mculib\usr\lib\libc.a
LOAD C:\Andestech\AndeSight211RDS\toolchains\nds32le-elf-mculib-v3m\nds32le-elf\libc\mculib\usr\lib\libg.a
LOAD C:\Andestech\AndeSight211RDS\toolchains\nds32le-elf-mculib-v3m\lib\gcc\nds32le-elf\4.4.4\mculib\libgcc.a
OUTPUT(/cygdrive/c/Airoha/AiroBlueSDK/AB1600_1_0_5_0/projects/SmartRemote/output/SmartRemote.out elf32-nds32)

.mdebug.abi_nds32
                0x00000000        0x0
 .mdebug.abi_nds32
                0x00000000        0x0 /cygdrive/c/Airoha/AiroBlueSDK/AB1600_1_0_5_0/projects/SmartRemote/output/pj/components/Device/AB1600/cfg_sector.o
 .mdebug.abi_nds32
                0x00000000        0x0 /cygdrive/c/Airoha/AiroBlueSDK/AB1600_1_0_5_0/projects/SmartRemote/output/pj/components/Libraries/hci_devices/hci_spi_1602.o
 .mdebug.abi_nds32
                0x00000000        0x0 /cygdrive/c/Airoha/AiroBlueSDK/AB1600_1_0_5_0/projects/SmartRemote/output/pj/components/BT/release/bt_patch/1602_patching.o
 .mdebug.abi_nds32
                0x00000000        0x0 /cygdrive/c/Airoha/AiroBlueSDK/AB1600_1_0_5_0/projects/SmartRemote/output/main.o
 .mdebug.abi_nds32
                0x00000000        0x0 /cygdrive/c/Airoha/AiroBlueSDK/AB1600_1_0_5_0/projects/SmartRemote/output/smartRemote.o
 .mdebug.abi_nds32
                0x00000000        0x0 /cygdrive/c/Airoha/AiroBlueSDK/AB1600_1_0_5_0/projects/SmartRemote/output/peripheral.o
 .mdebug.abi_nds32
                0x00000000        0x0 /cygdrive/c/Airoha/AiroBlueSDK/AB1600_1_0_5_0/projects/SmartRemote/output/service.o
 .mdebug.abi_nds32
                0x00000000        0x0 /cygdrive/c/Airoha/AiroBlueSDK/AB1600_1_0_5_0/projects/SmartRemote/output/board.o
 .mdebug.abi_nds32
                0x00000000        0x0 /cygdrive/c/Airoha/AiroBlueSDK/AB1600_1_0_5_0/projects/SmartRemote/output/keyboard.o
 .mdebug.abi_nds32
                0x00000000        0x0 /cygdrive/c/Airoha/AiroBlueSDK/AB1600_1_0_5_0/projects/SmartRemote/output/microphone.o
 .mdebug.abi_nds32
                0x00000000        0x0 /cygdrive/c/Airoha/AiroBlueSDK/AB1600_1_0_5_0/projects/SmartRemote/output/vcmd.o
 .mdebug.abi_nds32
                0x00000000        0x0 /cygdrive/c/Airoha/AiroBlueSDK/AB1600_1_0_5_0/projects/SmartRemote/output/led.o
 .mdebug.abi_nds32
                0x00000000        0x0 /cygdrive/c/Airoha/AiroBlueSDK/AB1600_1_0_5_0/projects/SmartRemote/output/irTx.o
 .mdebug.abi_nds32
                0x00000000        0x0 /cygdrive/c/Airoha/AiroBlueSDK/AB1600_1_0_5_0/projects/SmartRemote/output/irRx.o
 .mdebug.abi_nds32
                0x00000000        0x0 /cygdrive/c/Airoha/AiroBlueSDK/AB1600_1_0_5_0/projects/SmartRemote/output/spl/components/Libraries/external/ADPCM/g726_enc_32.o
 .mdebug.abi_nds32
                0x00000000        0x0 /cygdrive/c/Airoha/AiroBlueSDK/AB1600_1_0_5_0/projects/SmartRemote/output/spl/components/Libraries/external/ADPCM/g72x.o
 .mdebug.abi_nds32
                0x00000000        0x0 /cygdrive/c/Airoha/AiroBlueSDK/AB1600_1_0_5_0/projects/SmartRemote/output/spl/components/Libraries/external/ima_adpcm/ima_enc.o
 .mdebug.abi_nds32
                0x00000000        0x0 components/BT/release/hci_protocol_1602.o
 .mdebug.abi_nds32
                0x00000000        0x0 output/\lib1600.a(ab_adc.o)
 .mdebug.abi_nds32
                0x00000000        0x0 output/\lib1600.a(ab_clk.o)
 .mdebug.abi_nds32
                0x00000000        0x0 output/\lib1600.a(ab_assert.o)
 .mdebug.abi_nds32
                0x00000000        0x0 output/\lib1600.a(ab_led.o)
 .mdebug.abi_nds32
                0x00000000        0x0 output/\lib1600.a(ab_malloc_hook.o)
 .mdebug.abi_nds32
                0x00000000        0x0 output/\lib1600.a(ab_printf_hook.o)
 .mdebug.abi_nds32
                0x00000000        0x0 output/\lib1600.a(ab_pwr.o)
 .mdebug.abi_nds32
                0x00000000        0x0 output/\lib1600.a(ab_queue.o)
 .mdebug.abi_nds32
                0x00000000        0x0 output/\lib1600.a(ab_mp_sector.o)
 .mdebug.abi_nds32
                0x00000000        0x0 output/\lib1600.a(ab_spi.o)
 .mdebug.abi_nds32
                0x00000000        0x0 output/\lib1600.a(bsp_generic.o)
 .mdebug.abi_nds32
                0x00000000        0x0 output/\lib1600.a(ab_timer.o)
 .mdebug.abi_nds32
                0x00000000        0x0 output/\lib1600.a(ab_uart.o)
 .mdebug.abi_nds32
                0x00000000        0x0 output/\lib1600.a(ab_airoha_vcmd.o)
 .mdebug.abi_nds32
                0x00000000        0x0 output/\lib1600.a(drv_adc.o)
 .mdebug.abi_nds32
                0x00000000        0x0 output/\lib1600.a(drv_clk.o)
 .mdebug.abi_nds32
                0x00000000        0x0 output/\lib1600.a(drv_trnd.o)
 .mdebug.abi_nds32
                0x00000000        0x0 output/\lib1600.a(drv_gpio.o)
 .mdebug.abi_nds32
                0x00000000        0x0 output/\lib1600.a(drv_odgpio.o)
 .mdebug.abi_nds32
                0x00000000        0x0 output/\lib1600.a(drv_keyscan.o)
 .mdebug.abi_nds32
                0x00000000        0x0 output/\lib1600.a(drv_led.o)
 .mdebug.abi_nds32
                0x00000000        0x0 output/\lib1600.a(drv_mic.o)
 .mdebug.abi_nds32
                0x00000000        0x0 output/\lib1600.a(drv_odpinmux.o)
 .mdebug.abi_nds32
                0x00000000        0x0 output/\lib1600.a(drv_pinmux.o)
 .mdebug.abi_nds32
                0x00000000        0x0 output/\lib1600.a(drv_pwr.o)
 .mdebug.abi_nds32
                0x00000000        0x0 output/\lib1600.a(drv_spi.o)
 .mdebug.abi_nds32
                0x00000000        0x0 output/\lib1600.a(drv_timer32b0.o)
 .mdebug.abi_nds32
                0x00000000        0x0 output/\lib1600.a(drv_uart.o)
 .mdebug.abi_nds32
                0x00000000        0x0 output/\lib1600.a(drv_wdt.o)
 .mdebug.abi_nds32
                0x00000000        0x0 output/\lib1600.a(service_battery.o)
 .mdebug.abi_nds32
                0x00000000        0x0 output/\lib1600.a(service_device_firmware_update_OTA.o)
 .mdebug.abi_nds32
                0x00000000        0x0 output/\lib1600.a(service_device_information.o)
 .mdebug.abi_nds32
                0x00000000        0x0 output/\lib1600.a(service_generic_access.o)
 .mdebug.abi_nds32
                0x00000000        0x0 output/\lib1600.a(service_generic_attribute.o)
 .mdebug.abi_nds32
                0x00000000        0x0 output/\lib1600.a(service_human_interface_device.o)
 .mdebug.abi_nds32
                0x00000000        0x0 output/\lib1600.a(console.o)
 .mdebug.abi_nds32
                0x00000000        0x0 output/\lib1600.a(shell.o)
 .mdebug.abi_nds32
                0x00000000        0x0 output/\lib1600.a(ab_debug.o)
 .mdebug.abi_nds32
                0x00000000        0x0 output/\lib1600.a(dfu.o)
 .mdebug.abi_nds32
                0x00000000        0x0 output/\lib1600.a(ab_module.o)
 .mdebug.abi_nds32
                0x00000000        0x0 output/\lib1600.a(drv_flash.o)
 .mdebug.abi_nds32
                0x00000000        0x0 components/BT/release/\libbtcore.a(hci_h4_parser.o)
 .mdebug.abi_nds32
                0x00000000        0x0 components/BT/release/\libbtcore.a(bt.o)
 .mdebug.abi_nds32
                0x00000000        0x0 components/BT/release/\libbtcore.a(ble_gap.o)
 .mdebug.abi_nds32
                0x00000000        0x0 components/BT/release/\libbtcore.a(ble_gap_links.o)
 .mdebug.abi_nds32
                0x00000000        0x0 components/BT/release/\libbtcore.a(ble_gap_sm.o)
 .mdebug.abi_nds32
                0x00000000        0x0 components/BT/release/\libbtcore.a(ble_l2cap.o)
 .mdebug.abi_nds32
                0x00000000        0x0 components/BT/release/\libbtcore.a(l2cap_le_sig.o)
 .mdebug.abi_nds32
                0x00000000        0x0 components/BT/release/\libbtcore.a(ble_att.o)
 .mdebug.abi_nds32
                0x00000000        0x0 components/BT/release/\libbtcore.a(ble_gatt_server.o)
 .mdebug.abi_nds32
                0x00000000        0x0 components/BT/release/\libbtcore.a(ble_gatt_client.o)
 .mdebug.abi_nds32
                0x00000000        0x0 components/BT/release/\libbtcore.a(sm.o)
 .mdebug.abi_nds32
                0x00000000        0x0 components/BT/release/\libbtcore.a(sm_cryptotool.o)
 .mdebug.abi_nds32
                0x00000000        0x0 components/BT/release/\libbtcore.a(sm_hal.o)
 .mdebug.abi_nds32
                0x00000000        0x0 components/BT/release/\libbtcore.a(sm_protocol.o)
 .mdebug.abi_nds32
                0x00000000        0x0 components/BT/release/\libbtcore.a(sm_slave.o)
 .mdebug.abi_nds32
                0x00000000        0x0 components/BT/release/\libbtcore.a(sm_master.o)
 .mdebug.abi_nds32
                0x00000000        0x0 components/BT/release/\libbtcore.a(Drv_Trng.o)
 .mdebug.abi_nds32
                0x00000000        0x0 components/BT/release/\libbtcore.a(Drv_MMITimer.o)
 .mdebug.abi_nds32
                0x00000000        0x0 components/BT/release/\libbtcore.a(Ab_MMITimer.o)
 .mdebug.abi_nds32
                0x00000000        0x0 components/BT/release/\libbtcore.a(Drv_1602.o)
 .mdebug.abi_nds32
                0x00000000        0x0 components/BT/release/\libbtcore.a(encrypt.o)
 .mdebug.abi_nds32
                0x00000000        0x0 components/BT/release/\libbtcore.a(hci.o)
 .mdebug.abi_nds32
                0x00000000        0x0 components/BT/release/\libbtcore.a(hci_cmd_evt_dat.o)
 .mdebug.abi_nds32
                0x00000000        0x0 components/BT/release/\libbtcore.a(sm_common.o)
 .mdebug.abi_nds32
                0x00000000        0x0 output/\lib1600.a(ab_log.o)
 .mdebug.abi_nds32
                0x00000000        0x0 output/\lib1600.a(ab_flash.o)
 .mdebug.abi_nds32
                0x00000000        0x0 C:\Andestech\AndeSight211RDS\toolchains\nds32le-elf-mculib-v3m\nds32le-elf\libc\mculib\usr\lib\libc.a(lib_a-ctype_.o)
 .mdebug.abi_nds32
                0x00000000        0x0 C:\Andestech\AndeSight211RDS\toolchains\nds32le-elf-mculib-v3m\nds32le-elf\libc\mculib\usr\lib\libc.a(lib_a-freer.o)
 .mdebug.abi_nds32
                0x00000000        0x0 C:\Andestech\AndeSight211RDS\toolchains\nds32le-elf-mculib-v3m\nds32le-elf\libc\mculib\usr\lib\libc.a(lib_a-mallocr.o)
 .mdebug.abi_nds32
                0x00000000        0x0 C:\Andestech\AndeSight211RDS\toolchains\nds32le-elf-mculib-v3m\nds32le-elf\libc\mculib\usr\lib\libc.a(lib_a-mlock.o)
 .mdebug.abi_nds32
                0x00000000        0x0 C:\Andestech\AndeSight211RDS\toolchains\nds32le-elf-mculib-v3m\nds32le-elf\libc\mculib\usr\lib\libc.a(lib_a-mstats.o)
 .mdebug.abi_nds32
                0x00000000        0x0 C:\Andestech\AndeSight211RDS\toolchains\nds32le-elf-mculib-v3m\nds32le-elf\libc\mculib\usr\lib\libc.a(lib_a-puts.o)
 .mdebug.abi_nds32
                0x00000000        0x0 C:\Andestech\AndeSight211RDS\toolchains\nds32le-elf-mculib-v3m\nds32le-elf\libc\mculib\usr\lib\libc.a(lib_a-sbrkr.o)
 .mdebug.abi_nds32
                0x00000000        0x0 C:\Andestech\AndeSight211RDS\toolchains\nds32le-elf-mculib-v3m\nds32le-elf\libc\mculib\usr\lib\libc.a(lib_a-sprintf.o)
 .mdebug.abi_nds32
                0x00000000        0x0 C:\Andestech\AndeSight211RDS\toolchains\nds32le-elf-mculib-v3m\nds32le-elf\libc\mculib\usr\lib\libc.a(lib_a-vprintf.o)
 .mdebug.abi_nds32
                0x00000000        0x0 C:\Andestech\AndeSight211RDS\toolchains\nds32le-elf-mculib-v3m\nds32le-elf\libc\mculib\usr\lib\libc.a(lib_a-vsprintf.o)
 .mdebug.abi_nds32
                0x00000000        0x0 C:\Andestech\AndeSight211RDS\toolchains\nds32le-elf-mculib-v3m\nds32le-elf\libc\mculib\usr\lib\libc.a(do_printf.o)
 .mdebug.abi_nds32
                0x00000000        0x0 C:\Andestech\AndeSight211RDS\toolchains\nds32le-elf-mculib-v3m\nds32le-elf\libc\mculib\usr\lib\libc.a(xint2dec.o)
 .mdebug.abi_nds32
                0x00000000        0x0 C:\Andestech\AndeSight211RDS\toolchains\nds32le-elf-mculib-v3m\nds32le-elf\libc\mculib\usr\lib\libc.a(lib_a-data-errno.o)
 .mdebug.abi_nds32
                0x00000000        0x0 C:\Andestech\AndeSight211RDS\toolchains\nds32le-elf-mculib-v3m\nds32le-elf\libc\mculib\usr\lib\libc.a(lib_a-data-stdio.o)
 .mdebug.abi_nds32
                0x00000000        0x0 C:\Andestech\AndeSight211RDS\toolchains\nds32le-elf-mculib-v3m\nds32le-elf\libc\mculib\usr\lib\libc.a(lib_a-fiprintf.o)
 .mdebug.abi_nds32
                0x00000000        0x0 C:\Andestech\AndeSight211RDS\toolchains\nds32le-elf-mculib-v3m\nds32le-elf\libc\mculib\usr\lib\libc.a(lib_a-mallinfor.o)
 .mdebug.abi_nds32
                0x00000000        0x0 C:\Andestech\AndeSight211RDS\toolchains\nds32le-elf-mculib-v3m\nds32le-elf\libc\mculib\usr\lib\libc.a(lib_a-malloptr.o)
 .mdebug.abi_nds32
                0x00000000        0x0 C:\Andestech\AndeSight211RDS\toolchains\nds32le-elf-mculib-v3m\nds32le-elf\libc\mculib\usr\lib\libc.a(lib_a-mallstatsr.o)
 .mdebug.abi_nds32
                0x00000000        0x0 C:\Andestech\AndeSight211RDS\toolchains\nds32le-elf-mculib-v3m\nds32le-elf\libc\mculib\usr\lib\libc.a(lib_a-reent_errno.o)
 .mdebug.abi_nds32
                0x00000000        0x0 C:\Andestech\AndeSight211RDS\toolchains\nds32le-elf-mculib-v3m\nds32le-elf\libc\mculib\usr\lib\libc.a(lib_a-vfiprintf.o)
 .mdebug.abi_nds32
                0x00000000        0x0 C:\Andestech\AndeSight211RDS\toolchains\nds32le-elf-mculib-v3m\nds32le-elf\libc\mculib\usr\lib\libc.a(lib_a-wsetup.o)
 .mdebug.abi_nds32
                0x00000000        0x0 C:\Andestech\AndeSight211RDS\toolchains\nds32le-elf-mculib-v3m\nds32le-elf\libc\mculib\usr\lib\libc.a(lib_a-data-findfp.o)
 .mdebug.abi_nds32
                0x00000000        0x0 C:\Andestech\AndeSight211RDS\toolchains\nds32le-elf-mculib-v3m\nds32le-elf\libc\mculib\usr\lib\libc.a(lib_a-fflush.o)
 .mdebug.abi_nds32
                0x00000000        0x0 C:\Andestech\AndeSight211RDS\toolchains\nds32le-elf-mculib-v3m\nds32le-elf\libc\mculib\usr\lib\libc.a(lib_a-findfp.o)
 .mdebug.abi_nds32
                0x00000000        0x0 C:\Andestech\AndeSight211RDS\toolchains\nds32le-elf-mculib-v3m\nds32le-elf\libc\mculib\usr\lib\libc.a(lib_a-fputwc.o)
 .mdebug.abi_nds32
                0x00000000        0x0 C:\Andestech\AndeSight211RDS\toolchains\nds32le-elf-mculib-v3m\nds32le-elf\libc\mculib\usr\lib\libc.a(lib_a-fvwrite.o)
 .mdebug.abi_nds32
                0x00000000        0x0 C:\Andestech\AndeSight211RDS\toolchains\nds32le-elf-mculib-v3m\nds32le-elf\libc\mculib\usr\lib\libc.a(lib_a-fwalk.o)
 .mdebug.abi_nds32
                0x00000000        0x0 C:\Andestech\AndeSight211RDS\toolchains\nds32le-elf-mculib-v3m\nds32le-elf\libc\mculib\usr\lib\libc.a(lib_a-locale.o)
 .mdebug.abi_nds32
                0x00000000        0x0 C:\Andestech\AndeSight211RDS\toolchains\nds32le-elf-mculib-v3m\nds32le-elf\libc\mculib\usr\lib\libc.a(lib_a-makebuf.o)
 .mdebug.abi_nds32
                0x00000000        0x0 C:\Andestech\AndeSight211RDS\toolchains\nds32le-elf-mculib-v3m\nds32le-elf\libc\mculib\usr\lib\libc.a(lib_a-reallocr.o)
 .mdebug.abi_nds32
                0x00000000        0x0 C:\Andestech\AndeSight211RDS\toolchains\nds32le-elf-mculib-v3m\nds32le-elf\libc\mculib\usr\lib\libc.a(lib_a-stdio.o)
 .mdebug.abi_nds32
                0x00000000        0x0 C:\Andestech\AndeSight211RDS\toolchains\nds32le-elf-mculib-v3m\nds32le-elf\libc\mculib\usr\lib\libc.a(lib_a-wbuf.o)
 .mdebug.abi_nds32
                0x00000000        0x0 C:\Andestech\AndeSight211RDS\toolchains\nds32le-elf-mculib-v3m\nds32le-elf\libc\mculib\usr\lib\libc.a(lib_a-wcrtomb.o)
 .mdebug.abi_nds32
                0x00000000        0x0 C:\Andestech\AndeSight211RDS\toolchains\nds32le-elf-mculib-v3m\nds32le-elf\libc\mculib\usr\lib\libc.a(lib_a-wctomb_r.o)
 .mdebug.abi_nds32
                0x00000000        0x0 C:\Andestech\AndeSight211RDS\toolchains\nds32le-elf-mculib-v3m\nds32le-elf\libc\mculib\usr\lib\libc.a(lib_a-writer.o)
 .mdebug.abi_nds32
                0x00000000        0x0 C:\Andestech\AndeSight211RDS\toolchains\nds32le-elf-mculib-v3m\nds32le-elf\libc\mculib\usr\lib\libc.a(lib_a-closer.o)
 .mdebug.abi_nds32
                0x00000000        0x0 C:\Andestech\AndeSight211RDS\toolchains\nds32le-elf-mculib-v3m\nds32le-elf\libc\mculib\usr\lib\libc.a(lib_a-fclose.o)
 .mdebug.abi_nds32
                0x00000000        0x0 C:\Andestech\AndeSight211RDS\toolchains\nds32le-elf-mculib-v3m\nds32le-elf\libc\mculib\usr\lib\libc.a(lib_a-fstatr.o)
 .mdebug.abi_nds32
                0x00000000        0x0 C:\Andestech\AndeSight211RDS\toolchains\nds32le-elf-mculib-v3m\nds32le-elf\libc\mculib\usr\lib\libc.a(lib_a-isattyr.o)
 .mdebug.abi_nds32
                0x00000000        0x0 C:\Andestech\AndeSight211RDS\toolchains\nds32le-elf-mculib-v3m\nds32le-elf\libc\mculib\usr\lib\libc.a(lib_a-lseekr.o)
 .mdebug.abi_nds32
                0x00000000        0x0 C:\Andestech\AndeSight211RDS\toolchains\nds32le-elf-mculib-v3m\nds32le-elf\libc\mculib\usr\lib\libc.a(lib_a-readr.o)
 .mdebug.abi_nds32
                0x00000000        0x0 C:\Andestech\AndeSight211RDS\toolchains\nds32le-elf-mculib-v3m\lib\gcc\nds32le-elf\4.4.4\mculib\libgcc.a(_lshrdi3.o)
 .mdebug.abi_nds32
                0x00000000        0x0 C:\Andestech\AndeSight211RDS\toolchains\nds32le-elf-mculib-v3m\lib\gcc\nds32le-elf\4.4.4\mculib\libgcc.a(_ashldi3.o)
 .mdebug.abi_nds32
                0x00000000        0x0 C:\Andestech\AndeSight211RDS\toolchains\nds32le-elf-mculib-v3m\lib\gcc\nds32le-elf\4.4.4\mculib\libgcc.a(clz.o)
 .mdebug.abi_nds32
                0x00000000        0x0 C:\Andestech\AndeSight211RDS\toolchains\nds32le-elf-mculib-v3m\lib\gcc\nds32le-elf\4.4.4\mculib\libgcc.a(_muldi3.o)

.note.nds32     0x00000000    0x40a6d
 .note.nds32    0x00000000      0x984 /cygdrive/c/Airoha/AiroBlueSDK/AB1600_1_0_5_0/projects/SmartRemote/output/pj/components/Device/AB1600/cfg_sector.o
 .note.nds32    0x00000984      0x98e /cygdrive/c/Airoha/AiroBlueSDK/AB1600_1_0_5_0/projects/SmartRemote/output/pj/components/Libraries/hci_devices/hci_spi_1602.o
 .note.nds32    0x00001312      0x98d /cygdrive/c/Airoha/AiroBlueSDK/AB1600_1_0_5_0/projects/SmartRemote/output/pj/components/BT/release/bt_patch/1602_patching.o
 .note.nds32    0x00001c9f      0x962 /cygdrive/c/Airoha/AiroBlueSDK/AB1600_1_0_5_0/projects/SmartRemote/output/main.o
 .note.nds32    0x00002601      0x969 /cygdrive/c/Airoha/AiroBlueSDK/AB1600_1_0_5_0/projects/SmartRemote/output/smartRemote.o
 .note.nds32    0x00002f6a      0x968 /cygdrive/c/Airoha/AiroBlueSDK/AB1600_1_0_5_0/projects/SmartRemote/output/peripheral.o
 .note.nds32    0x000038d2      0x965 /cygdrive/c/Airoha/AiroBlueSDK/AB1600_1_0_5_0/projects/SmartRemote/output/service.o
 .note.nds32    0x00004237      0x963 /cygdrive/c/Airoha/AiroBlueSDK/AB1600_1_0_5_0/projects/SmartRemote/output/board.o
 .note.nds32    0x00004b9a      0x966 /cygdrive/c/Airoha/AiroBlueSDK/AB1600_1_0_5_0/projects/SmartRemote/output/keyboard.o
 .note.nds32    0x00005500      0x968 /cygdrive/c/Airoha/AiroBlueSDK/AB1600_1_0_5_0/projects/SmartRemote/output/microphone.o
 .note.nds32    0x00005e68      0x962 /cygdrive/c/Airoha/AiroBlueSDK/AB1600_1_0_5_0/projects/SmartRemote/output/vcmd.o
 .note.nds32    0x000067ca      0x961 /cygdrive/c/Airoha/AiroBlueSDK/AB1600_1_0_5_0/projects/SmartRemote/output/led.o
 .note.nds32    0x0000712b      0x962 /cygdrive/c/Airoha/AiroBlueSDK/AB1600_1_0_5_0/projects/SmartRemote/output/irTx.o
 .note.nds32    0x00007a8d      0x962 /cygdrive/c/Airoha/AiroBlueSDK/AB1600_1_0_5_0/projects/SmartRemote/output/irRx.o
 .note.nds32    0x000083ef      0x90f /cygdrive/c/Airoha/AiroBlueSDK/AB1600_1_0_5_0/projects/SmartRemote/output/spl/components/Libraries/external/ADPCM/g726_enc_32.o
 .note.nds32    0x00008cfe      0x908 /cygdrive/c/Airoha/AiroBlueSDK/AB1600_1_0_5_0/projects/SmartRemote/output/spl/components/Libraries/external/ADPCM/g72x.o
 .note.nds32    0x00009606      0x90f /cygdrive/c/Airoha/AiroBlueSDK/AB1600_1_0_5_0/projects/SmartRemote/output/spl/components/Libraries/external/ima_adpcm/ima_enc.o
 .note.nds32    0x00009f15      0x951 components/BT/release/hci_protocol_1602.o
 .note.nds32    0x0000a866      0x8b4 output/\lib1600.a(ab_adc.o)
 .note.nds32    0x0000b11a      0x8b4 output/\lib1600.a(ab_clk.o)
 .note.nds32    0x0000b9ce      0x8b9 output/\lib1600.a(ab_assert.o)
 .note.nds32    0x0000c287      0x8b4 output/\lib1600.a(ab_led.o)
 .note.nds32    0x0000cb3b      0x8bf output/\lib1600.a(ab_malloc_hook.o)
 .note.nds32    0x0000d3fa      0x8bf output/\lib1600.a(ab_printf_hook.o)
 .note.nds32    0x0000dcb9      0x8b4 output/\lib1600.a(ab_pwr.o)
 .note.nds32    0x0000e56d      0x8b8 output/\lib1600.a(ab_queue.o)
 .note.nds32    0x0000ee25      0x8c0 output/\lib1600.a(ab_mp_sector.o)
 .note.nds32    0x0000f6e5      0x8b4 output/\lib1600.a(ab_spi.o)
 .note.nds32    0x0000ff99      0x8b9 output/\lib1600.a(bsp_generic.o)
 .note.nds32    0x00010852      0x8b8 output/\lib1600.a(ab_timer.o)
 .note.nds32    0x0001110a      0x8b6 output/\lib1600.a(ab_uart.o)
 .note.nds32    0x000119c0      0x8bd output/\lib1600.a(ab_airoha_vcmd.o)
 .note.nds32    0x0001227d      0x8b2 output/\lib1600.a(drv_adc.o)
 .note.nds32    0x00012b2f      0x8b2 output/\lib1600.a(drv_clk.o)
 .note.nds32    0x000133e1      0x8b6 output/\lib1600.a(drv_trnd.o)
 .note.nds32    0x00013c97      0x8b4 output/\lib1600.a(drv_gpio.o)
 .note.nds32    0x0001454b      0x8b6 output/\lib1600.a(drv_odgpio.o)
 .note.nds32    0x00014e01      0x8ba output/\lib1600.a(drv_keyscan.o)
 .note.nds32    0x000156bb      0x8b2 output/\lib1600.a(drv_led.o)
 .note.nds32    0x00015f6d      0x8b2 output/\lib1600.a(drv_mic.o)
 .note.nds32    0x0001681f      0x8ba output/\lib1600.a(drv_odpinmux.o)
 .note.nds32    0x000170d9      0x8b8 output/\lib1600.a(drv_pinmux.o)
 .note.nds32    0x00017991      0x8b2 output/\lib1600.a(drv_pwr.o)
 .note.nds32    0x00018243      0x8b2 output/\lib1600.a(drv_spi.o)
 .note.nds32    0x00018af5      0x8ba output/\lib1600.a(drv_timer32b0.o)
 .note.nds32    0x000193af      0x8b4 output/\lib1600.a(drv_uart.o)
 .note.nds32    0x00019c63      0x8b2 output/\lib1600.a(drv_wdt.o)
 .note.nds32    0x0001a515      0x8bd output/\lib1600.a(service_battery.o)
 .note.nds32    0x0001add2      0x8d0 output/\lib1600.a(service_device_firmware_update_OTA.o)
 .note.nds32    0x0001b6a2      0x8c8 output/\lib1600.a(service_device_information.o)
 .note.nds32    0x0001bf6a      0x8c4 output/\lib1600.a(service_generic_access.o)
 .note.nds32    0x0001c82e      0x8c7 output/\lib1600.a(service_generic_attribute.o)
 .note.nds32    0x0001d0f5      0x8cc output/\lib1600.a(service_human_interface_device.o)
 .note.nds32    0x0001d9c1      0x8b9 output/\lib1600.a(console.o)
 .note.nds32    0x0001e27a      0x8b7 output/\lib1600.a(shell.o)
 .note.nds32    0x0001eb31      0x8b8 output/\lib1600.a(ab_debug.o)
 .note.nds32    0x0001f3e9      0x8b1 output/\lib1600.a(dfu.o)
 .note.nds32    0x0001fc9a      0x8ba output/\lib1600.a(ab_module.o)
 .note.nds32    0x00020554      0x8b6 output/\lib1600.a(drv_flash.o)
 .note.nds32    0x00020e0a      0x948 components/BT/release/\libbtcore.a(hci_h4_parser.o)
 .note.nds32    0x00021752      0x931 components/BT/release/\libbtcore.a(bt.o)
 .note.nds32    0x00022083      0x935 components/BT/release/\libbtcore.a(ble_gap.o)
 .note.nds32    0x000229b8      0x93b components/BT/release/\libbtcore.a(ble_gap_links.o)
 .note.nds32    0x000232f3      0x938 components/BT/release/\libbtcore.a(ble_gap_sm.o)
 .note.nds32    0x00023c2b      0x939 components/BT/release/\libbtcore.a(ble_l2cap.o)
 .note.nds32    0x00024564      0x93c components/BT/release/\libbtcore.a(l2cap_le_sig.o)
 .note.nds32    0x00024ea0      0x935 components/BT/release/\libbtcore.a(ble_att.o)
 .note.nds32    0x000257d5      0x93e components/BT/release/\libbtcore.a(ble_gatt_server.o)
 .note.nds32    0x00026113      0x93e components/BT/release/\libbtcore.a(ble_gatt_client.o)
 .note.nds32    0x00026a51      0x92f components/BT/release/\libbtcore.a(sm.o)
 .note.nds32    0x00027380      0x93a components/BT/release/\libbtcore.a(sm_cryptotool.o)
 .note.nds32    0x00027cba      0x933 components/BT/release/\libbtcore.a(sm_hal.o)
 .note.nds32    0x000285ed      0x938 components/BT/release/\libbtcore.a(sm_protocol.o)
 .note.nds32    0x00028f25      0x935 components/BT/release/\libbtcore.a(sm_slave.o)
 .note.nds32    0x0002985a      0x936 components/BT/release/\libbtcore.a(sm_master.o)
 .note.nds32    0x0002a190      0x93e components/BT/release/\libbtcore.a(Drv_Trng.o)
 .note.nds32    0x0002aace      0x942 components/BT/release/\libbtcore.a(Drv_MMITimer.o)
 .note.nds32    0x0002b410      0x941 components/BT/release/\libbtcore.a(Ab_MMITimer.o)
 .note.nds32    0x0002bd51      0x93e components/BT/release/\libbtcore.a(Drv_1602.o)
 .note.nds32    0x0002c68f      0x93d components/BT/release/\libbtcore.a(encrypt.o)
 .note.nds32    0x0002cfcc      0x931 components/BT/release/\libbtcore.a(hci.o)
 .note.nds32    0x0002d8fd      0x93d components/BT/release/\libbtcore.a(hci_cmd_evt_dat.o)
 .note.nds32    0x0002e23a      0x936 components/BT/release/\libbtcore.a(sm_common.o)
 .note.nds32    0x0002eb70      0x8b6 output/\lib1600.a(ab_log.o)
 .note.nds32    0x0002f426      0x8b8 output/\lib1600.a(ab_flash.o)
 .note.nds32    0x0002fcde      0x682 C:\Andestech\AndeSight211RDS\toolchains\nds32le-elf-mculib-v3m\nds32le-elf\libc\mculib\usr\lib\libc.a(lib_a-ctype_.o)
 .note.nds32    0x00030360      0x6a6 C:\Andestech\AndeSight211RDS\toolchains\nds32le-elf-mculib-v3m\nds32le-elf\libc\mculib\usr\lib\libc.a(lib_a-freer.o)
 .note.nds32    0x00030a06      0x6aa C:\Andestech\AndeSight211RDS\toolchains\nds32le-elf-mculib-v3m\nds32le-elf\libc\mculib\usr\lib\libc.a(lib_a-mallocr.o)
 .note.nds32    0x000310b0       0xeb C:\Andestech\AndeSight211RDS\toolchains\nds32le-elf-mculib-v3m\nds32le-elf\libc\mculib\usr\lib\libc.a(lib_a-memcmp.o)
 .note.nds32    0x0003119b       0xeb C:\Andestech\AndeSight211RDS\toolchains\nds32le-elf-mculib-v3m\nds32le-elf\libc\mculib\usr\lib\libc.a(lib_a-memcpy.o)
 .note.nds32    0x00031286       0xec C:\Andestech\AndeSight211RDS\toolchains\nds32le-elf-mculib-v3m\nds32le-elf\libc\mculib\usr\lib\libc.a(lib_a-memmove.o)
 .note.nds32    0x00031372       0xeb C:\Andestech\AndeSight211RDS\toolchains\nds32le-elf-mculib-v3m\nds32le-elf\libc\mculib\usr\lib\libc.a(lib_a-memset.o)
 .note.nds32    0x0003145d      0x682 C:\Andestech\AndeSight211RDS\toolchains\nds32le-elf-mculib-v3m\nds32le-elf\libc\mculib\usr\lib\libc.a(lib_a-mlock.o)
 .note.nds32    0x00031adf      0x683 C:\Andestech\AndeSight211RDS\toolchains\nds32le-elf-mculib-v3m\nds32le-elf\libc\mculib\usr\lib\libc.a(lib_a-mstats.o)
 .note.nds32    0x00032162       0xf6 C:\Andestech\AndeSight211RDS\toolchains\nds32le-elf-mculib-v3m\nds32le-elf\libc\mculib\usr\lib\libc.a(lib_a-puts.o)
 .note.nds32    0x00032258      0x681 C:\Andestech\AndeSight211RDS\toolchains\nds32le-elf-mculib-v3m\nds32le-elf\libc\mculib\usr\lib\libc.a(lib_a-sbrkr.o)
 .note.nds32    0x000328d9       0xf9 C:\Andestech\AndeSight211RDS\toolchains\nds32le-elf-mculib-v3m\nds32le-elf\libc\mculib\usr\lib\libc.a(lib_a-sprintf.o)
 .note.nds32    0x000329d2       0xeb C:\Andestech\AndeSight211RDS\toolchains\nds32le-elf-mculib-v3m\nds32le-elf\libc\mculib\usr\lib\libc.a(lib_a-strcmp.o)
 .note.nds32    0x00032abd       0xeb C:\Andestech\AndeSight211RDS\toolchains\nds32le-elf-mculib-v3m\nds32le-elf\libc\mculib\usr\lib\libc.a(lib_a-strcpy.o)
 .note.nds32    0x00032ba8       0xeb C:\Andestech\AndeSight211RDS\toolchains\nds32le-elf-mculib-v3m\nds32le-elf\libc\mculib\usr\lib\libc.a(lib_a-strlen.o)
 .note.nds32    0x00032c93       0xec C:\Andestech\AndeSight211RDS\toolchains\nds32le-elf-mculib-v3m\nds32le-elf\libc\mculib\usr\lib\libc.a(lib_a-strncmp.o)
 .note.nds32    0x00032d7f       0xf9 C:\Andestech\AndeSight211RDS\toolchains\nds32le-elf-mculib-v3m\nds32le-elf\libc\mculib\usr\lib\libc.a(lib_a-vprintf.o)
 .note.nds32    0x00032e78       0xfa C:\Andestech\AndeSight211RDS\toolchains\nds32le-elf-mculib-v3m\nds32le-elf\libc\mculib\usr\lib\libc.a(lib_a-vsprintf.o)
 .note.nds32    0x00032f72       0xf5 C:\Andestech\AndeSight211RDS\toolchains\nds32le-elf-mculib-v3m\nds32le-elf\libc\mculib\usr\lib\libc.a(do_printf.o)
 .note.nds32    0x00033067       0xf4 C:\Andestech\AndeSight211RDS\toolchains\nds32le-elf-mculib-v3m\nds32le-elf\libc\mculib\usr\lib\libc.a(xint2dec.o)
 .note.nds32    0x0003315b      0x686 C:\Andestech\AndeSight211RDS\toolchains\nds32le-elf-mculib-v3m\nds32le-elf\libc\mculib\usr\lib\libc.a(lib_a-data-errno.o)
 .note.nds32    0x000337e1      0x686 C:\Andestech\AndeSight211RDS\toolchains\nds32le-elf-mculib-v3m\nds32le-elf\libc\mculib\usr\lib\libc.a(lib_a-data-stdio.o)
 .note.nds32    0x00033e67      0x684 C:\Andestech\AndeSight211RDS\toolchains\nds32le-elf-mculib-v3m\nds32le-elf\libc\mculib\usr\lib\libc.a(lib_a-fiprintf.o)
 .note.nds32    0x000344eb      0x6ae C:\Andestech\AndeSight211RDS\toolchains\nds32le-elf-mculib-v3m\nds32le-elf\libc\mculib\usr\lib\libc.a(lib_a-mallinfor.o)
 .note.nds32    0x00034b99      0x6ac C:\Andestech\AndeSight211RDS\toolchains\nds32le-elf-mculib-v3m\nds32le-elf\libc\mculib\usr\lib\libc.a(lib_a-malloptr.o)
 .note.nds32    0x00035245      0x6b3 C:\Andestech\AndeSight211RDS\toolchains\nds32le-elf-mculib-v3m\nds32le-elf\libc\mculib\usr\lib\libc.a(lib_a-mallstatsr.o)
 .note.nds32    0x000358f8      0x687 C:\Andestech\AndeSight211RDS\toolchains\nds32le-elf-mculib-v3m\nds32le-elf\libc\mculib\usr\lib\libc.a(lib_a-reent_errno.o)
 .note.nds32    0x00035f7f      0x6a6 C:\Andestech\AndeSight211RDS\toolchains\nds32le-elf-mculib-v3m\nds32le-elf\libc\mculib\usr\lib\libc.a(lib_a-vfiprintf.o)
 .note.nds32    0x00036625      0x682 C:\Andestech\AndeSight211RDS\toolchains\nds32le-elf-mculib-v3m\nds32le-elf\libc\mculib\usr\lib\libc.a(lib_a-wsetup.o)
 .note.nds32    0x00036ca7      0x687 C:\Andestech\AndeSight211RDS\toolchains\nds32le-elf-mculib-v3m\nds32le-elf\libc\mculib\usr\lib\libc.a(lib_a-data-findfp.o)
 .note.nds32    0x0003732e      0x682 C:\Andestech\AndeSight211RDS\toolchains\nds32le-elf-mculib-v3m\nds32le-elf\libc\mculib\usr\lib\libc.a(lib_a-fflush.o)
 .note.nds32    0x000379b0      0x682 C:\Andestech\AndeSight211RDS\toolchains\nds32le-elf-mculib-v3m\nds32le-elf\libc\mculib\usr\lib\libc.a(lib_a-findfp.o)
 .note.nds32    0x00038032      0x682 C:\Andestech\AndeSight211RDS\toolchains\nds32le-elf-mculib-v3m\nds32le-elf\libc\mculib\usr\lib\libc.a(lib_a-fputwc.o)
 .note.nds32    0x000386b4      0x683 C:\Andestech\AndeSight211RDS\toolchains\nds32le-elf-mculib-v3m\nds32le-elf\libc\mculib\usr\lib\libc.a(lib_a-fvwrite.o)
 .note.nds32    0x00038d37      0x681 C:\Andestech\AndeSight211RDS\toolchains\nds32le-elf-mculib-v3m\nds32le-elf\libc\mculib\usr\lib\libc.a(lib_a-fwalk.o)
 .note.nds32    0x000393b8      0x683 C:\Andestech\AndeSight211RDS\toolchains\nds32le-elf-mculib-v3m\nds32le-elf\libc\mculib\usr\lib\libc.a(lib_a-locale.o)
 .note.nds32    0x00039a3b      0x683 C:\Andestech\AndeSight211RDS\toolchains\nds32le-elf-mculib-v3m\nds32le-elf\libc\mculib\usr\lib\libc.a(lib_a-makebuf.o)
 .note.nds32    0x0003a0be       0xeb C:\Andestech\AndeSight211RDS\toolchains\nds32le-elf-mculib-v3m\nds32le-elf\libc\mculib\usr\lib\libc.a(lib_a-memchr.o)
 .note.nds32    0x0003a1a9      0x6ac C:\Andestech\AndeSight211RDS\toolchains\nds32le-elf-mculib-v3m\nds32le-elf\libc\mculib\usr\lib\libc.a(lib_a-reallocr.o)
 .note.nds32    0x0003a855      0x681 C:\Andestech\AndeSight211RDS\toolchains\nds32le-elf-mculib-v3m\nds32le-elf\libc\mculib\usr\lib\libc.a(lib_a-stdio.o)
 .note.nds32    0x0003aed6      0x680 C:\Andestech\AndeSight211RDS\toolchains\nds32le-elf-mculib-v3m\nds32le-elf\libc\mculib\usr\lib\libc.a(lib_a-wbuf.o)
 .note.nds32    0x0003b556      0x684 C:\Andestech\AndeSight211RDS\toolchains\nds32le-elf-mculib-v3m\nds32le-elf\libc\mculib\usr\lib\libc.a(lib_a-wcrtomb.o)
 .note.nds32    0x0003bbda      0x685 C:\Andestech\AndeSight211RDS\toolchains\nds32le-elf-mculib-v3m\nds32le-elf\libc\mculib\usr\lib\libc.a(lib_a-wctomb_r.o)
 .note.nds32    0x0003c25f      0x682 C:\Andestech\AndeSight211RDS\toolchains\nds32le-elf-mculib-v3m\nds32le-elf\libc\mculib\usr\lib\libc.a(lib_a-writer.o)
 .note.nds32    0x0003c8e1      0x682 C:\Andestech\AndeSight211RDS\toolchains\nds32le-elf-mculib-v3m\nds32le-elf\libc\mculib\usr\lib\libc.a(lib_a-closer.o)
 .note.nds32    0x0003cf63      0x682 C:\Andestech\AndeSight211RDS\toolchains\nds32le-elf-mculib-v3m\nds32le-elf\libc\mculib\usr\lib\libc.a(lib_a-fclose.o)
 .note.nds32    0x0003d5e5      0x682 C:\Andestech\AndeSight211RDS\toolchains\nds32le-elf-mculib-v3m\nds32le-elf\libc\mculib\usr\lib\libc.a(lib_a-fstatr.o)
 .note.nds32    0x0003dc67      0x683 C:\Andestech\AndeSight211RDS\toolchains\nds32le-elf-mculib-v3m\nds32le-elf\libc\mculib\usr\lib\libc.a(lib_a-isattyr.o)
 .note.nds32    0x0003e2ea      0x682 C:\Andestech\AndeSight211RDS\toolchains\nds32le-elf-mculib-v3m\nds32le-elf\libc\mculib\usr\lib\libc.a(lib_a-lseekr.o)
 .note.nds32    0x0003e96c      0x681 C:\Andestech\AndeSight211RDS\toolchains\nds32le-elf-mculib-v3m\nds32le-elf\libc\mculib\usr\lib\libc.a(lib_a-readr.o)
 .note.nds32    0x0003efed      0x79f C:\Andestech\AndeSight211RDS\toolchains\nds32le-elf-mculib-v3m\lib\gcc\nds32le-elf\4.4.4\mculib\libgcc.a(_lshrdi3.o)
 .note.nds32    0x0003f78c      0x79f C:\Andestech\AndeSight211RDS\toolchains\nds32le-elf-mculib-v3m\lib\gcc\nds32le-elf\4.4.4\mculib\libgcc.a(_ashldi3.o)
 .note.nds32    0x0003ff2b       0xe7 C:\Andestech\AndeSight211RDS\toolchains\nds32le-elf-mculib-v3m\lib\gcc\nds32le-elf\4.4.4\mculib\libgcc.a(_udivdi3.o)
 .note.nds32    0x00040012       0xe7 C:\Andestech\AndeSight211RDS\toolchains\nds32le-elf-mculib-v3m\lib\gcc\nds32le-elf\4.4.4\mculib\libgcc.a(_umoddi3.o)
 .note.nds32    0x000400f9       0xea C:\Andestech\AndeSight211RDS\toolchains\nds32le-elf-mculib-v3m\lib\gcc\nds32le-elf\4.4.4\mculib\libgcc.a(_udivmoddi4.o)
 .note.nds32    0x000401e3       0xef C:\Andestech\AndeSight211RDS\toolchains\nds32le-elf-mculib-v3m\lib\gcc\nds32le-elf\4.4.4\mculib\libgcc.a(clz.o)
 .note.nds32    0x000402d2      0x79b C:\Andestech\AndeSight211RDS\toolchains\nds32le-elf-mculib-v3m\lib\gcc\nds32le-elf\4.4.4\mculib\libgcc.a(_muldi3.o)

.debug_abbrev   0x00000000     0x6488
 .debug_abbrev  0x00000000      0x170 /cygdrive/c/Airoha/AiroBlueSDK/AB1600_1_0_5_0/projects/SmartRemote/output/pj/components/Device/AB1600/cfg_sector.o
 .debug_abbrev  0x00000170      0x1d0 /cygdrive/c/Airoha/AiroBlueSDK/AB1600_1_0_5_0/projects/SmartRemote/output/pj/components/Libraries/hci_devices/hci_spi_1602.o
 .debug_abbrev  0x00000340       0xba /cygdrive/c/Airoha/AiroBlueSDK/AB1600_1_0_5_0/projects/SmartRemote/output/pj/components/BT/release/bt_patch/1602_patching.o
 .debug_abbrev  0x000003fa      0x200 /cygdrive/c/Airoha/AiroBlueSDK/AB1600_1_0_5_0/projects/SmartRemote/output/main.o
 .debug_abbrev  0x000005fa      0x14a /cygdrive/c/Airoha/AiroBlueSDK/AB1600_1_0_5_0/projects/SmartRemote/output/smartRemote.o
 .debug_abbrev  0x00000744      0x2f2 /cygdrive/c/Airoha/AiroBlueSDK/AB1600_1_0_5_0/projects/SmartRemote/output/peripheral.o
 .debug_abbrev  0x00000a36      0x20b /cygdrive/c/Airoha/AiroBlueSDK/AB1600_1_0_5_0/projects/SmartRemote/output/service.o
 .debug_abbrev  0x00000c41      0x1fa /cygdrive/c/Airoha/AiroBlueSDK/AB1600_1_0_5_0/projects/SmartRemote/output/board.o
 .debug_abbrev  0x00000e3b      0x1f4 /cygdrive/c/Airoha/AiroBlueSDK/AB1600_1_0_5_0/projects/SmartRemote/output/keyboard.o
 .debug_abbrev  0x0000102f      0x23d /cygdrive/c/Airoha/AiroBlueSDK/AB1600_1_0_5_0/projects/SmartRemote/output/microphone.o
 .debug_abbrev  0x0000126c      0x1ae /cygdrive/c/Airoha/AiroBlueSDK/AB1600_1_0_5_0/projects/SmartRemote/output/vcmd.o
 .debug_abbrev  0x0000141a      0x127 /cygdrive/c/Airoha/AiroBlueSDK/AB1600_1_0_5_0/projects/SmartRemote/output/led.o
 .debug_abbrev  0x00001541      0x2b0 /cygdrive/c/Airoha/AiroBlueSDK/AB1600_1_0_5_0/projects/SmartRemote/output/irTx.o
 .debug_abbrev  0x000017f1       0x58 /cygdrive/c/Airoha/AiroBlueSDK/AB1600_1_0_5_0/projects/SmartRemote/output/irRx.o
 .debug_abbrev  0x00001849      0x1ee /cygdrive/c/Airoha/AiroBlueSDK/AB1600_1_0_5_0/projects/SmartRemote/output/spl/components/Libraries/external/ADPCM/g726_enc_32.o
 .debug_abbrev  0x00001a37      0x28d /cygdrive/c/Airoha/AiroBlueSDK/AB1600_1_0_5_0/projects/SmartRemote/output/spl/components/Libraries/external/ADPCM/g72x.o
 .debug_abbrev  0x00001cc4      0x1df /cygdrive/c/Airoha/AiroBlueSDK/AB1600_1_0_5_0/projects/SmartRemote/output/spl/components/Libraries/external/ima_adpcm/ima_enc.o
 .debug_abbrev  0x00001ea3      0x1d1 output/\lib1600.a(ab_adc.o)
 .debug_abbrev  0x00002074       0xa5 output/\lib1600.a(ab_clk.o)
 .debug_abbrev  0x00002119       0x9c output/\lib1600.a(ab_assert.o)
 .debug_abbrev  0x000021b5      0x110 output/\lib1600.a(ab_led.o)
 .debug_abbrev  0x000022c5      0x1d9 output/\lib1600.a(ab_malloc_hook.o)
 .debug_abbrev  0x0000249e      0x1a3 output/\lib1600.a(ab_printf_hook.o)
 .debug_abbrev  0x00002641      0x27e output/\lib1600.a(ab_pwr.o)
 .debug_abbrev  0x000028bf      0x130 output/\lib1600.a(ab_queue.o)
 .debug_abbrev  0x000029ef      0x112 output/\lib1600.a(ab_mp_sector.o)
 .debug_abbrev  0x00002b01      0x1b5 output/\lib1600.a(ab_spi.o)
 .debug_abbrev  0x00002cb6      0x27f output/\lib1600.a(bsp_generic.o)
 .debug_abbrev  0x00002f35      0x1dc output/\lib1600.a(ab_timer.o)
 .debug_abbrev  0x00003111      0x2c2 output/\lib1600.a(ab_uart.o)
 .debug_abbrev  0x000033d3      0x36f output/\lib1600.a(ab_airoha_vcmd.o)
 .debug_abbrev  0x00003742      0x1cf output/\lib1600.a(drv_adc.o)
 .debug_abbrev  0x00003911       0xb4 output/\lib1600.a(drv_clk.o)
 .debug_abbrev  0x000039c5      0x15c output/\lib1600.a(drv_trnd.o)
 .debug_abbrev  0x00003b21      0x20c output/\lib1600.a(drv_gpio.o)
 .debug_abbrev  0x00003d2d      0x14e output/\lib1600.a(drv_odgpio.o)
 .debug_abbrev  0x00003e7b      0x1fa output/\lib1600.a(drv_keyscan.o)
 .debug_abbrev  0x00004075      0x1c1 output/\lib1600.a(drv_led.o)
 .debug_abbrev  0x00004236      0x1d2 output/\lib1600.a(drv_mic.o)
 .debug_abbrev  0x00004408      0x1c7 output/\lib1600.a(drv_odpinmux.o)
 .debug_abbrev  0x000045cf      0x1ee output/\lib1600.a(drv_pinmux.o)
 .debug_abbrev  0x000047bd      0x187 output/\lib1600.a(drv_pwr.o)
 .debug_abbrev  0x00004944      0x24a output/\lib1600.a(drv_spi.o)
 .debug_abbrev  0x00004b8e      0x1f9 output/\lib1600.a(drv_timer32b0.o)
 .debug_abbrev  0x00004d87      0x298 output/\lib1600.a(drv_uart.o)
 .debug_abbrev  0x0000501f      0x1b5 output/\lib1600.a(drv_wdt.o)
 .debug_abbrev  0x000051d4       0xe3 output/\lib1600.a(service_battery.o)
 .debug_abbrev  0x000052b7      0x17f output/\lib1600.a(service_device_firmware_update_OTA.o)
 .debug_abbrev  0x00005436      0x107 output/\lib1600.a(service_device_information.o)
 .debug_abbrev  0x0000553d      0x118 output/\lib1600.a(service_generic_access.o)
 .debug_abbrev  0x00005655      0x10d output/\lib1600.a(service_generic_attribute.o)
 .debug_abbrev  0x00005762      0x11f output/\lib1600.a(service_human_interface_device.o)
 .debug_abbrev  0x00005881      0x14d output/\lib1600.a(console.o)
 .debug_abbrev  0x000059ce      0x2d7 output/\lib1600.a(shell.o)
 .debug_abbrev  0x00005ca5       0xe8 output/\lib1600.a(ab_debug.o)
 .debug_abbrev  0x00005d8d      0x127 output/\lib1600.a(dfu.o)
 .debug_abbrev  0x00005eb4      0x11f output/\lib1600.a(ab_module.o)
 .debug_abbrev  0x00005fd3      0x2bc output/\lib1600.a(drv_flash.o)
 .debug_abbrev  0x0000628f      0x15c output/\lib1600.a(ab_log.o)
 .debug_abbrev  0x000063eb       0x9d output/\lib1600.a(ab_flash.o)

.debug_info     0x00000000    0x21ce0
 .debug_info    0x00000000      0xb20 /cygdrive/c/Airoha/AiroBlueSDK/AB1600_1_0_5_0/projects/SmartRemote/output/pj/components/Device/AB1600/cfg_sector.o
 .debug_info    0x00000b20      0x658 /cygdrive/c/Airoha/AiroBlueSDK/AB1600_1_0_5_0/projects/SmartRemote/output/pj/components/Libraries/hci_devices/hci_spi_1602.o
 .debug_info    0x00001178      0x19e /cygdrive/c/Airoha/AiroBlueSDK/AB1600_1_0_5_0/projects/SmartRemote/output/pj/components/BT/release/bt_patch/1602_patching.o
 .debug_info    0x00001316     0x15a1 /cygdrive/c/Airoha/AiroBlueSDK/AB1600_1_0_5_0/projects/SmartRemote/output/main.o
 .debug_info    0x000028b7      0x386 /cygdrive/c/Airoha/AiroBlueSDK/AB1600_1_0_5_0/projects/SmartRemote/output/smartRemote.o
 .debug_info    0x00002c3d     0x1c33 /cygdrive/c/Airoha/AiroBlueSDK/AB1600_1_0_5_0/projects/SmartRemote/output/peripheral.o
 .debug_info    0x00004870      0xce9 /cygdrive/c/Airoha/AiroBlueSDK/AB1600_1_0_5_0/projects/SmartRemote/output/service.o
 .debug_info    0x00005559      0x848 /cygdrive/c/Airoha/AiroBlueSDK/AB1600_1_0_5_0/projects/SmartRemote/output/board.o
 .debug_info    0x00005da1      0x5e2 /cygdrive/c/Airoha/AiroBlueSDK/AB1600_1_0_5_0/projects/SmartRemote/output/keyboard.o
 .debug_info    0x00006383      0x9db /cygdrive/c/Airoha/AiroBlueSDK/AB1600_1_0_5_0/projects/SmartRemote/output/microphone.o
 .debug_info    0x00006d5e      0x407 /cygdrive/c/Airoha/AiroBlueSDK/AB1600_1_0_5_0/projects/SmartRemote/output/vcmd.o
 .debug_info    0x00007165      0x296 /cygdrive/c/Airoha/AiroBlueSDK/AB1600_1_0_5_0/projects/SmartRemote/output/led.o
 .debug_info    0x000073fb      0xf4c /cygdrive/c/Airoha/AiroBlueSDK/AB1600_1_0_5_0/projects/SmartRemote/output/irTx.o
 .debug_info    0x00008347       0xa7 /cygdrive/c/Airoha/AiroBlueSDK/AB1600_1_0_5_0/projects/SmartRemote/output/irRx.o
 .debug_info    0x000083ee      0x5f8 /cygdrive/c/Airoha/AiroBlueSDK/AB1600_1_0_5_0/projects/SmartRemote/output/spl/components/Libraries/external/ADPCM/g726_enc_32.o
 .debug_info    0x000089e6      0x8c6 /cygdrive/c/Airoha/AiroBlueSDK/AB1600_1_0_5_0/projects/SmartRemote/output/spl/components/Libraries/external/ADPCM/g72x.o
 .debug_info    0x000092ac      0x5bc /cygdrive/c/Airoha/AiroBlueSDK/AB1600_1_0_5_0/projects/SmartRemote/output/spl/components/Libraries/external/ima_adpcm/ima_enc.o
 .debug_info    0x00009868      0xd38 output/\lib1600.a(ab_adc.o)
 .debug_info    0x0000a5a0      0x1a7 output/\lib1600.a(ab_clk.o)
 .debug_info    0x0000a747      0x121 output/\lib1600.a(ab_assert.o)
 .debug_info    0x0000a868      0x5fa output/\lib1600.a(ab_led.o)
 .debug_info    0x0000ae62      0x7a7 output/\lib1600.a(ab_malloc_hook.o)
 .debug_info    0x0000b609      0x697 output/\lib1600.a(ab_printf_hook.o)
 .debug_info    0x0000bca0      0xe68 output/\lib1600.a(ab_pwr.o)
 .debug_info    0x0000cb08      0x454 output/\lib1600.a(ab_queue.o)
 .debug_info    0x0000cf5c      0x407 output/\lib1600.a(ab_mp_sector.o)
 .debug_info    0x0000d363      0x5bd output/\lib1600.a(ab_spi.o)
 .debug_info    0x0000d920     0x1db5 output/\lib1600.a(bsp_generic.o)
 .debug_info    0x0000f6d5      0x7bb output/\lib1600.a(ab_timer.o)
 .debug_info    0x0000fe90      0xd5c output/\lib1600.a(ab_uart.o)
 .debug_info    0x00010bec     0x12a7 output/\lib1600.a(ab_airoha_vcmd.o)
 .debug_info    0x00011e93      0xa2b output/\lib1600.a(drv_adc.o)
 .debug_info    0x000128be      0x2de output/\lib1600.a(drv_clk.o)
 .debug_info    0x00012b9c      0x924 output/\lib1600.a(drv_trnd.o)
 .debug_info    0x000134c0     0x17c8 output/\lib1600.a(drv_gpio.o)
 .debug_info    0x00014c88      0xbc2 output/\lib1600.a(drv_odgpio.o)
 .debug_info    0x0001584a      0x612 output/\lib1600.a(drv_keyscan.o)
 .debug_info    0x00015e5c      0x5fc output/\lib1600.a(drv_led.o)
 .debug_info    0x00016458      0xf2e output/\lib1600.a(drv_mic.o)
 .debug_info    0x00017386      0xc99 output/\lib1600.a(drv_odpinmux.o)
 .debug_info    0x0001801f      0xdfb output/\lib1600.a(drv_pinmux.o)
 .debug_info    0x00018e1a      0xa5c output/\lib1600.a(drv_pwr.o)
 .debug_info    0x00019876      0xfa5 output/\lib1600.a(drv_spi.o)
 .debug_info    0x0001a81b      0xb1e output/\lib1600.a(drv_timer32b0.o)
 .debug_info    0x0001b339     0x1204 output/\lib1600.a(drv_uart.o)
 .debug_info    0x0001c53d      0x595 output/\lib1600.a(drv_wdt.o)
 .debug_info    0x0001cad2      0x41a output/\lib1600.a(service_battery.o)
 .debug_info    0x0001ceec      0xa01 output/\lib1600.a(service_device_firmware_update_OTA.o)
 .debug_info    0x0001d8ed      0x398 output/\lib1600.a(service_device_information.o)
 .debug_info    0x0001dc85      0x491 output/\lib1600.a(service_generic_access.o)
 .debug_info    0x0001e116      0x45f output/\lib1600.a(service_generic_attribute.o)
 .debug_info    0x0001e575      0x5f6 output/\lib1600.a(service_human_interface_device.o)
 .debug_info    0x0001eb6b      0x4d4 output/\lib1600.a(console.o)
 .debug_info    0x0001f03f      0x945 output/\lib1600.a(shell.o)
 .debug_info    0x0001f984      0x530 output/\lib1600.a(ab_debug.o)
 .debug_info    0x0001feb4      0x257 output/\lib1600.a(dfu.o)
 .debug_info    0x0002010b      0x226 output/\lib1600.a(ab_module.o)
 .debug_info    0x00020331     0x1476 output/\lib1600.a(drv_flash.o)
 .debug_info    0x000217a7      0x3c9 output/\lib1600.a(ab_log.o)
 .debug_info    0x00021b70      0x170 output/\lib1600.a(ab_flash.o)

.debug_line     0x00000000     0xd6fa
 .debug_line    0x00000000       0xe3 /cygdrive/c/Airoha/AiroBlueSDK/AB1600_1_0_5_0/projects/SmartRemote/output/pj/components/Device/AB1600/cfg_sector.o
 .debug_line    0x000000e3      0x41b /cygdrive/c/Airoha/AiroBlueSDK/AB1600_1_0_5_0/projects/SmartRemote/output/pj/components/Libraries/hci_devices/hci_spi_1602.o
 .debug_line    0x000004fe      0x106 /cygdrive/c/Airoha/AiroBlueSDK/AB1600_1_0_5_0/projects/SmartRemote/output/pj/components/BT/release/bt_patch/1602_patching.o
 .debug_line    0x00000604      0x3a4 /cygdrive/c/Airoha/AiroBlueSDK/AB1600_1_0_5_0/projects/SmartRemote/output/main.o
 .debug_line    0x000009a8      0x369 /cygdrive/c/Airoha/AiroBlueSDK/AB1600_1_0_5_0/projects/SmartRemote/output/smartRemote.o
 .debug_line    0x00000d11      0x6b7 /cygdrive/c/Airoha/AiroBlueSDK/AB1600_1_0_5_0/projects/SmartRemote/output/peripheral.o
 .debug_line    0x000013c8      0x57e /cygdrive/c/Airoha/AiroBlueSDK/AB1600_1_0_5_0/projects/SmartRemote/output/service.o
 .debug_line    0x00001946      0x42b /cygdrive/c/Airoha/AiroBlueSDK/AB1600_1_0_5_0/projects/SmartRemote/output/board.o
 .debug_line    0x00001d71      0x3cc /cygdrive/c/Airoha/AiroBlueSDK/AB1600_1_0_5_0/projects/SmartRemote/output/keyboard.o
 .debug_line    0x0000213d      0x52b /cygdrive/c/Airoha/AiroBlueSDK/AB1600_1_0_5_0/projects/SmartRemote/output/microphone.o
 .debug_line    0x00002668      0x287 /cygdrive/c/Airoha/AiroBlueSDK/AB1600_1_0_5_0/projects/SmartRemote/output/vcmd.o
 .debug_line    0x000028ef      0x231 /cygdrive/c/Airoha/AiroBlueSDK/AB1600_1_0_5_0/projects/SmartRemote/output/led.o
 .debug_line    0x00002b20      0x443 /cygdrive/c/Airoha/AiroBlueSDK/AB1600_1_0_5_0/projects/SmartRemote/output/irTx.o
 .debug_line    0x00002f63       0xbf /cygdrive/c/Airoha/AiroBlueSDK/AB1600_1_0_5_0/projects/SmartRemote/output/irRx.o
 .debug_line    0x00003022      0x32b /cygdrive/c/Airoha/AiroBlueSDK/AB1600_1_0_5_0/projects/SmartRemote/output/spl/components/Libraries/external/ADPCM/g726_enc_32.o
 .debug_line    0x0000334d      0xadb /cygdrive/c/Airoha/AiroBlueSDK/AB1600_1_0_5_0/projects/SmartRemote/output/spl/components/Libraries/external/ADPCM/g72x.o
 .debug_line    0x00003e28      0x7b5 /cygdrive/c/Airoha/AiroBlueSDK/AB1600_1_0_5_0/projects/SmartRemote/output/spl/components/Libraries/external/ima_adpcm/ima_enc.o
 .debug_line    0x000045dd      0x290 output/\lib1600.a(ab_adc.o)
 .debug_line    0x0000486d      0x1d1 output/\lib1600.a(ab_clk.o)
 .debug_line    0x00004a3e       0xf5 output/\lib1600.a(ab_assert.o)
 .debug_line    0x00004b33      0x3d6 output/\lib1600.a(ab_led.o)
 .debug_line    0x00004f09      0x34c output/\lib1600.a(ab_malloc_hook.o)
 .debug_line    0x00005255      0x2ba output/\lib1600.a(ab_printf_hook.o)
 .debug_line    0x0000550f      0x2f1 output/\lib1600.a(ab_pwr.o)
 .debug_line    0x00005800      0x2c5 output/\lib1600.a(ab_queue.o)
 .debug_line    0x00005ac5      0x176 output/\lib1600.a(ab_mp_sector.o)
 .debug_line    0x00005c3b      0x33d output/\lib1600.a(ab_spi.o)
 .debug_line    0x00005f78      0x6bc output/\lib1600.a(bsp_generic.o)
 .debug_line    0x00006634      0x434 output/\lib1600.a(ab_timer.o)
 .debug_line    0x00006a68      0x304 output/\lib1600.a(ab_uart.o)
 .debug_line    0x00006d6c      0xa07 output/\lib1600.a(ab_airoha_vcmd.o)
 .debug_line    0x00007773      0x1d7 output/\lib1600.a(drv_adc.o)
 .debug_line    0x0000794a      0x33e output/\lib1600.a(drv_clk.o)
 .debug_line    0x00007c88      0x19a output/\lib1600.a(drv_trnd.o)
 .debug_line    0x00007e22      0x457 output/\lib1600.a(drv_gpio.o)
 .debug_line    0x00008279      0x19e output/\lib1600.a(drv_odgpio.o)
 .debug_line    0x00008417      0x25a output/\lib1600.a(drv_keyscan.o)
 .debug_line    0x00008671      0x266 output/\lib1600.a(drv_led.o)
 .debug_line    0x000088d7      0x270 output/\lib1600.a(drv_mic.o)
 .debug_line    0x00008b47      0x20c output/\lib1600.a(drv_odpinmux.o)
 .debug_line    0x00008d53      0x3a9 output/\lib1600.a(drv_pinmux.o)
 .debug_line    0x000090fc      0x22b output/\lib1600.a(drv_pwr.o)
 .debug_line    0x00009327      0x429 output/\lib1600.a(drv_spi.o)
 .debug_line    0x00009750      0x3b9 output/\lib1600.a(drv_timer32b0.o)
 .debug_line    0x00009b09      0x786 output/\lib1600.a(drv_uart.o)
 .debug_line    0x0000a28f      0x1dc output/\lib1600.a(drv_wdt.o)
 .debug_line    0x0000a46b      0x1b2 output/\lib1600.a(service_battery.o)
 .debug_line    0x0000a61d      0x559 output/\lib1600.a(service_device_firmware_update_OTA.o)
 .debug_line    0x0000ab76      0x225 output/\lib1600.a(service_device_information.o)
 .debug_line    0x0000ad9b      0x2c8 output/\lib1600.a(service_generic_access.o)
 .debug_line    0x0000b063      0x1f5 output/\lib1600.a(service_generic_attribute.o)
 .debug_line    0x0000b258      0x34e output/\lib1600.a(service_human_interface_device.o)
 .debug_line    0x0000b5a6      0x1e7 output/\lib1600.a(console.o)
 .debug_line    0x0000b78d      0xa15 output/\lib1600.a(shell.o)
 .debug_line    0x0000c1a2      0x259 output/\lib1600.a(ab_debug.o)
 .debug_line    0x0000c3fb      0x210 output/\lib1600.a(dfu.o)
 .debug_line    0x0000c60b      0x19e output/\lib1600.a(ab_module.o)
 .debug_line    0x0000c7a9      0x724 output/\lib1600.a(drv_flash.o)
 .debug_line    0x0000cecd      0x6aa output/\lib1600.a(ab_log.o)
 .debug_line    0x0000d577      0x183 output/\lib1600.a(ab_flash.o)

.debug_pubnames
                0x00000000     0x209d
 .debug_pubnames
                0x00000000       0x37 /cygdrive/c/Airoha/AiroBlueSDK/AB1600_1_0_5_0/projects/SmartRemote/output/pj/components/Device/AB1600/cfg_sector.o
 .debug_pubnames
                0x00000037       0xba /cygdrive/c/Airoha/AiroBlueSDK/AB1600_1_0_5_0/projects/SmartRemote/output/pj/components/Libraries/hci_devices/hci_spi_1602.o
 .debug_pubnames
                0x000000f1       0x70 /cygdrive/c/Airoha/AiroBlueSDK/AB1600_1_0_5_0/projects/SmartRemote/output/pj/components/BT/release/bt_patch/1602_patching.o
 .debug_pubnames
                0x00000161       0x95 /cygdrive/c/Airoha/AiroBlueSDK/AB1600_1_0_5_0/projects/SmartRemote/output/main.o
 .debug_pubnames
                0x000001f6       0x89 /cygdrive/c/Airoha/AiroBlueSDK/AB1600_1_0_5_0/projects/SmartRemote/output/smartRemote.o
 .debug_pubnames
                0x0000027f      0x123 /cygdrive/c/Airoha/AiroBlueSDK/AB1600_1_0_5_0/projects/SmartRemote/output/peripheral.o
 .debug_pubnames
                0x000003a2      0x1a3 /cygdrive/c/Airoha/AiroBlueSDK/AB1600_1_0_5_0/projects/SmartRemote/output/service.o
 .debug_pubnames
                0x00000545       0xb9 /cygdrive/c/Airoha/AiroBlueSDK/AB1600_1_0_5_0/projects/SmartRemote/output/board.o
 .debug_pubnames
                0x000005fe       0x95 /cygdrive/c/Airoha/AiroBlueSDK/AB1600_1_0_5_0/projects/SmartRemote/output/keyboard.o
 .debug_pubnames
                0x00000693       0xb0 /cygdrive/c/Airoha/AiroBlueSDK/AB1600_1_0_5_0/projects/SmartRemote/output/microphone.o
 .debug_pubnames
                0x00000743       0x88 /cygdrive/c/Airoha/AiroBlueSDK/AB1600_1_0_5_0/projects/SmartRemote/output/vcmd.o
 .debug_pubnames
                0x000007cb       0x4f /cygdrive/c/Airoha/AiroBlueSDK/AB1600_1_0_5_0/projects/SmartRemote/output/led.o
 .debug_pubnames
                0x0000081a       0x3f /cygdrive/c/Airoha/AiroBlueSDK/AB1600_1_0_5_0/projects/SmartRemote/output/irTx.o
 .debug_pubnames
                0x00000859       0x88 /cygdrive/c/Airoha/AiroBlueSDK/AB1600_1_0_5_0/projects/SmartRemote/output/spl/components/Libraries/external/ADPCM/g726_enc_32.o
 .debug_pubnames
                0x000008e1       0x82 /cygdrive/c/Airoha/AiroBlueSDK/AB1600_1_0_5_0/projects/SmartRemote/output/spl/components/Libraries/external/ADPCM/g72x.o
 .debug_pubnames
                0x00000963       0xdf /cygdrive/c/Airoha/AiroBlueSDK/AB1600_1_0_5_0/projects/SmartRemote/output/spl/components/Libraries/external/ima_adpcm/ima_enc.o
 .debug_pubnames
                0x00000a42       0x85 output/\lib1600.a(ab_adc.o)
 .debug_pubnames
                0x00000ac7       0x24 output/\lib1600.a(ab_clk.o)
 .debug_pubnames
                0x00000aeb       0x48 output/\lib1600.a(ab_assert.o)
 .debug_pubnames
                0x00000b33       0xdb output/\lib1600.a(ab_led.o)
 .debug_pubnames
                0x00000c0e       0x88 output/\lib1600.a(ab_malloc_hook.o)
 .debug_pubnames
                0x00000c96       0x61 output/\lib1600.a(ab_printf_hook.o)
 .debug_pubnames
                0x00000cf7       0xb2 output/\lib1600.a(ab_pwr.o)
 .debug_pubnames
                0x00000da9       0xf5 output/\lib1600.a(ab_queue.o)
 .debug_pubnames
                0x00000e9e       0x2f output/\lib1600.a(ab_mp_sector.o)
 .debug_pubnames
                0x00000ecd       0x64 output/\lib1600.a(ab_spi.o)
 .debug_pubnames
                0x00000f31       0x51 output/\lib1600.a(bsp_generic.o)
 .debug_pubnames
                0x00000f82       0x96 output/\lib1600.a(ab_timer.o)
 .debug_pubnames
                0x00001018       0x94 output/\lib1600.a(ab_uart.o)
 .debug_pubnames
                0x000010ac      0x188 output/\lib1600.a(ab_airoha_vcmd.o)
 .debug_pubnames
                0x00001234       0x3b output/\lib1600.a(drv_adc.o)
 .debug_pubnames
                0x0000126f       0x98 output/\lib1600.a(drv_clk.o)
 .debug_pubnames
                0x00001307       0x23 output/\lib1600.a(drv_trnd.o)
 .debug_pubnames
                0x0000132a      0x187 output/\lib1600.a(drv_gpio.o)
 .debug_pubnames
                0x000014b1       0x7d output/\lib1600.a(drv_odgpio.o)
 .debug_pubnames
                0x0000152e       0x4e output/\lib1600.a(drv_keyscan.o)
 .debug_pubnames
                0x0000157c       0x5d output/\lib1600.a(drv_led.o)
 .debug_pubnames
                0x000015d9       0x70 output/\lib1600.a(drv_mic.o)
 .debug_pubnames
                0x00001649       0x82 output/\lib1600.a(drv_odpinmux.o)
 .debug_pubnames
                0x000016cb       0xa3 output/\lib1600.a(drv_pinmux.o)
 .debug_pubnames
                0x0000176e       0x58 output/\lib1600.a(drv_pwr.o)
 .debug_pubnames
                0x000017c6       0xa0 output/\lib1600.a(drv_spi.o)
 .debug_pubnames
                0x00001866       0xc5 output/\lib1600.a(drv_timer32b0.o)
 .debug_pubnames
                0x0000192b       0xfa output/\lib1600.a(drv_uart.o)
 .debug_pubnames
                0x00001a25       0x5d output/\lib1600.a(drv_wdt.o)
 .debug_pubnames
                0x00001a82       0x3c output/\lib1600.a(service_battery.o)
 .debug_pubnames
                0x00001abe       0xd4 output/\lib1600.a(service_device_firmware_update_OTA.o)
 .debug_pubnames
                0x00001b92       0x1f output/\lib1600.a(service_device_information.o)
 .debug_pubnames
                0x00001bb1       0x3f output/\lib1600.a(service_generic_access.o)
 .debug_pubnames
                0x00001bf0       0x39 output/\lib1600.a(service_generic_attribute.o)
 .debug_pubnames
                0x00001c29       0x34 output/\lib1600.a(service_human_interface_device.o)
 .debug_pubnames
                0x00001c5d       0x6d output/\lib1600.a(console.o)
 .debug_pubnames
                0x00001cca       0x41 output/\lib1600.a(shell.o)
 .debug_pubnames
                0x00001d0b       0x44 output/\lib1600.a(ab_debug.o)
 .debug_pubnames
                0x00001d4f       0x74 output/\lib1600.a(dfu.o)
 .debug_pubnames
                0x00001dc3       0xa9 output/\lib1600.a(ab_module.o)
 .debug_pubnames
                0x00001e6c       0xfd output/\lib1600.a(drv_flash.o)
 .debug_pubnames
                0x00001f69       0xca output/\lib1600.a(ab_log.o)
 .debug_pubnames
                0x00002033       0x6a output/\lib1600.a(ab_flash.o)

.debug_str      0x00000000     0xae4a
 .debug_str     0x00000000      0x98f /cygdrive/c/Airoha/AiroBlueSDK/AB1600_1_0_5_0/projects/SmartRemote/output/pj/components/Device/AB1600/cfg_sector.o
                                0xa0b (size before relaxing)
 .debug_str     0x0000098f      0x2b3 /cygdrive/c/Airoha/AiroBlueSDK/AB1600_1_0_5_0/projects/SmartRemote/output/pj/components/Libraries/hci_devices/hci_spi_1602.o
                                0x3de (size before relaxing)
 .debug_str     0x00000c42       0x8b /cygdrive/c/Airoha/AiroBlueSDK/AB1600_1_0_5_0/projects/SmartRemote/output/pj/components/BT/release/bt_patch/1602_patching.o
                                0x1b8 (size before relaxing)
 .debug_str     0x00000ccd      0xe2d /cygdrive/c/Airoha/AiroBlueSDK/AB1600_1_0_5_0/projects/SmartRemote/output/main.o
                               0x1008 (size before relaxing)
 .debug_str     0x00001afa      0x33c /cygdrive/c/Airoha/AiroBlueSDK/AB1600_1_0_5_0/projects/SmartRemote/output/smartRemote.o
                                0x481 (size before relaxing)
 .debug_str     0x00001e36      0xfdb /cygdrive/c/Airoha/AiroBlueSDK/AB1600_1_0_5_0/projects/SmartRemote/output/peripheral.o
                               0x1c40 (size before relaxing)
 .debug_str     0x00002e11      0x8d4 /cygdrive/c/Airoha/AiroBlueSDK/AB1600_1_0_5_0/projects/SmartRemote/output/service.o
                                0xb89 (size before relaxing)
 .debug_str     0x000036e5      0xd3d /cygdrive/c/Airoha/AiroBlueSDK/AB1600_1_0_5_0/projects/SmartRemote/output/board.o
                                0xecd (size before relaxing)
 .debug_str     0x00004422      0x387 /cygdrive/c/Airoha/AiroBlueSDK/AB1600_1_0_5_0/projects/SmartRemote/output/keyboard.o
                                0x63f (size before relaxing)
 .debug_str     0x000047a9      0x33c /cygdrive/c/Airoha/AiroBlueSDK/AB1600_1_0_5_0/projects/SmartRemote/output/microphone.o
                               0x1008 (size before relaxing)
 .debug_str     0x00004ae5      0x174 /cygdrive/c/Airoha/AiroBlueSDK/AB1600_1_0_5_0/projects/SmartRemote/output/vcmd.o
                                0x2cd (size before relaxing)
 .debug_str     0x00004c59       0xf8 /cygdrive/c/Airoha/AiroBlueSDK/AB1600_1_0_5_0/projects/SmartRemote/output/led.o
                                0x29a (size before relaxing)
 .debug_str     0x00004d51      0x4fd /cygdrive/c/Airoha/AiroBlueSDK/AB1600_1_0_5_0/projects/SmartRemote/output/irTx.o
                               0x10eb (size before relaxing)
 .debug_str     0x0000524e       0x4a /cygdrive/c/Airoha/AiroBlueSDK/AB1600_1_0_5_0/projects/SmartRemote/output/irRx.o
                                0x12b (size before relaxing)
 .debug_str     0x00005298       0xd2 /cygdrive/c/Airoha/AiroBlueSDK/AB1600_1_0_5_0/projects/SmartRemote/output/spl/components/Libraries/external/ADPCM/g726_enc_32.o
                                0x1f2 (size before relaxing)
 .debug_str     0x0000536a       0xe6 /cygdrive/c/Airoha/AiroBlueSDK/AB1600_1_0_5_0/projects/SmartRemote/output/spl/components/Libraries/external/ADPCM/g72x.o
                                0x212 (size before relaxing)
 .debug_str     0x00005450       0xd6 /cygdrive/c/Airoha/AiroBlueSDK/AB1600_1_0_5_0/projects/SmartRemote/output/spl/components/Libraries/external/ima_adpcm/ima_enc.o
                                0x1fe (size before relaxing)
 .debug_str     0x00005526      0x77e output/\lib1600.a(ab_adc.o)
                                0xa75 (size before relaxing)
 .debug_str     0x00005ca4      0x122 output/\lib1600.a(ab_clk.o)
                                0x24e (size before relaxing)
 .debug_str     0x00005dc6       0x68 output/\lib1600.a(ab_assert.o)
                                0x133 (size before relaxing)
 .debug_str     0x00005e2e      0x316 output/\lib1600.a(ab_led.o)
                                0x4ac (size before relaxing)
 .debug_str     0x00006144       0xec output/\lib1600.a(ab_malloc_hook.o)
                                0xc62 (size before relaxing)
 .debug_str     0x00006230       0x97 output/\lib1600.a(ab_printf_hook.o)
                                0xc34 (size before relaxing)
 .debug_str     0x000062c7      0x3f5 output/\lib1600.a(ab_pwr.o)
                                0xff5 (size before relaxing)
 .debug_str     0x000066bc      0x16a output/\lib1600.a(ab_queue.o)
                                0x25f (size before relaxing)
 .debug_str     0x00006826       0x9a output/\lib1600.a(ab_mp_sector.o)
                                0x303 (size before relaxing)
 .debug_str     0x000068c0      0x1a0 output/\lib1600.a(ab_spi.o)
                                0x346 (size before relaxing)
 .debug_str     0x00006a60      0x1d1 output/\lib1600.a(bsp_generic.o)
                               0x1445 (size before relaxing)
 .debug_str     0x00006c31       0xf6 output/\lib1600.a(ab_timer.o)
                                0xcd6 (size before relaxing)
 .debug_str     0x00006d27      0x181 output/\lib1600.a(ab_uart.o)
                                0x66f (size before relaxing)
 .debug_str     0x00006ea8      0x625 output/\lib1600.a(ab_airoha_vcmd.o)
                                0x9e1 (size before relaxing)
 .debug_str     0x000074cd      0x41e output/\lib1600.a(drv_adc.o)
                                0x64b (size before relaxing)
 .debug_str     0x000078eb      0x142 output/\lib1600.a(drv_clk.o)
                                0x2f2 (size before relaxing)
 .debug_str     0x00007a2d      0x5de output/\lib1600.a(drv_trnd.o)
                                0x729 (size before relaxing)
 .debug_str     0x0000800b      0x7e9 output/\lib1600.a(drv_gpio.o)
                               0x1092 (size before relaxing)
 .debug_str     0x000087f4       0x98 output/\lib1600.a(drv_odgpio.o)
                                0x7ad (size before relaxing)
 .debug_str     0x0000888c      0x277 output/\lib1600.a(drv_keyscan.o)
                                0x4f2 (size before relaxing)
 .debug_str     0x00008b03      0x217 output/\lib1600.a(drv_led.o)
                                0x3af (size before relaxing)
 .debug_str     0x00008d1a      0x2d4 output/\lib1600.a(drv_mic.o)
                                0x91b (size before relaxing)
 .debug_str     0x00008fee       0xb2 output/\lib1600.a(drv_odpinmux.o)
                                0x820 (size before relaxing)
 .debug_str     0x000090a0       0xdb output/\lib1600.a(drv_pinmux.o)
                                0x8a6 (size before relaxing)
 .debug_str     0x0000917b       0x65 output/\lib1600.a(drv_pwr.o)
                                0x967 (size before relaxing)
 .debug_str     0x000091e0      0x65a output/\lib1600.a(drv_spi.o)
                                0x872 (size before relaxing)
 .debug_str     0x0000983a      0x37a output/\lib1600.a(drv_timer32b0.o)
                                0x5ec (size before relaxing)
 .debug_str     0x00009bb4      0x29b output/\lib1600.a(drv_uart.o)
                                0x801 (size before relaxing)
 .debug_str     0x00009e4f      0x239 output/\lib1600.a(drv_wdt.o)
                                0x37a (size before relaxing)
 .debug_str     0x0000a088       0xb8 output/\lib1600.a(service_battery.o)
                                0x410 (size before relaxing)
 .debug_str     0x0000a140      0x27c output/\lib1600.a(service_device_firmware_update_OTA.o)
                                0x736 (size before relaxing)
 .debug_str     0x0000a3bc       0x4d output/\lib1600.a(service_device_information.o)
                                0x3d4 (size before relaxing)
 .debug_str     0x0000a409       0x94 output/\lib1600.a(service_generic_access.o)
                                0x43d (size before relaxing)
 .debug_str     0x0000a49d       0xd1 output/\lib1600.a(service_generic_attribute.o)
                                0x465 (size before relaxing)
 .debug_str     0x0000a56e       0x81 output/\lib1600.a(service_human_interface_device.o)
                                0x4e5 (size before relaxing)
 .debug_str     0x0000a5ef      0x213 output/\lib1600.a(console.o)
                                0x349 (size before relaxing)
 .debug_str     0x0000a802      0x13b output/\lib1600.a(shell.o)
                                0x40c (size before relaxing)
 .debug_str     0x0000a93d       0xa3 output/\lib1600.a(ab_debug.o)
                                0xbc0 (size before relaxing)
 .debug_str     0x0000a9e0       0x80 output/\lib1600.a(dfu.o)
                                0x1d8 (size before relaxing)
 .debug_str     0x0000aa60       0xaa output/\lib1600.a(ab_module.o)
                                0x196 (size before relaxing)
 .debug_str     0x0000ab0a      0x1ae output/\lib1600.a(drv_flash.o)
                               0x14c1 (size before relaxing)
 .debug_str     0x0000acb8      0x100 output/\lib1600.a(ab_log.o)
                                0x1eb (size before relaxing)
 .debug_str     0x0000adb8       0x92 output/\lib1600.a(ab_flash.o)
                                0x192 (size before relaxing)

.comment        0x00000000      0xcb2
 .comment       0x00000000       0x19 /cygdrive/c/Airoha/AiroBlueSDK/AB1600_1_0_5_0/projects/SmartRemote/output/pj/components/Device/AB1600/cfg_sector.o
 .comment       0x00000019       0x19 /cygdrive/c/Airoha/AiroBlueSDK/AB1600_1_0_5_0/projects/SmartRemote/output/pj/components/Libraries/hci_devices/hci_spi_1602.o
 .comment       0x00000032       0x19 /cygdrive/c/Airoha/AiroBlueSDK/AB1600_1_0_5_0/projects/SmartRemote/output/pj/components/BT/release/bt_patch/1602_patching.o
 .comment       0x0000004b       0x19 /cygdrive/c/Airoha/AiroBlueSDK/AB1600_1_0_5_0/projects/SmartRemote/output/main.o
 .comment       0x00000064       0x19 /cygdrive/c/Airoha/AiroBlueSDK/AB1600_1_0_5_0/projects/SmartRemote/output/smartRemote.o
 .comment       0x0000007d       0x19 /cygdrive/c/Airoha/AiroBlueSDK/AB1600_1_0_5_0/projects/SmartRemote/output/peripheral.o
 .comment       0x00000096       0x19 /cygdrive/c/Airoha/AiroBlueSDK/AB1600_1_0_5_0/projects/SmartRemote/output/service.o
 .comment       0x000000af       0x19 /cygdrive/c/Airoha/AiroBlueSDK/AB1600_1_0_5_0/projects/SmartRemote/output/board.o
 .comment       0x000000c8       0x19 /cygdrive/c/Airoha/AiroBlueSDK/AB1600_1_0_5_0/projects/SmartRemote/output/keyboard.o
 .comment       0x000000e1       0x19 /cygdrive/c/Airoha/AiroBlueSDK/AB1600_1_0_5_0/projects/SmartRemote/output/microphone.o
 .comment       0x000000fa       0x19 /cygdrive/c/Airoha/AiroBlueSDK/AB1600_1_0_5_0/projects/SmartRemote/output/vcmd.o
 .comment       0x00000113       0x19 /cygdrive/c/Airoha/AiroBlueSDK/AB1600_1_0_5_0/projects/SmartRemote/output/led.o
 .comment       0x0000012c       0x19 /cygdrive/c/Airoha/AiroBlueSDK/AB1600_1_0_5_0/projects/SmartRemote/output/irTx.o
 .comment       0x00000145       0x19 /cygdrive/c/Airoha/AiroBlueSDK/AB1600_1_0_5_0/projects/SmartRemote/output/irRx.o
 .comment       0x0000015e       0x19 /cygdrive/c/Airoha/AiroBlueSDK/AB1600_1_0_5_0/projects/SmartRemote/output/spl/components/Libraries/external/ADPCM/g726_enc_32.o
 .comment       0x00000177       0x19 /cygdrive/c/Airoha/AiroBlueSDK/AB1600_1_0_5_0/projects/SmartRemote/output/spl/components/Libraries/external/ADPCM/g72x.o
 .comment       0x00000190       0x19 /cygdrive/c/Airoha/AiroBlueSDK/AB1600_1_0_5_0/projects/SmartRemote/output/spl/components/Libraries/external/ima_adpcm/ima_enc.o
 .comment       0x000001a9       0x19 components/BT/release/hci_protocol_1602.o
 .comment       0x000001c2       0x19 output/\lib1600.a(ab_adc.o)
 .comment       0x000001db       0x19 output/\lib1600.a(ab_clk.o)
 .comment       0x000001f4       0x19 output/\lib1600.a(ab_assert.o)
 .comment       0x0000020d       0x19 output/\lib1600.a(ab_led.o)
 .comment       0x00000226       0x19 output/\lib1600.a(ab_malloc_hook.o)
 .comment       0x0000023f       0x19 output/\lib1600.a(ab_printf_hook.o)
 .comment       0x00000258       0x19 output/\lib1600.a(ab_pwr.o)
 .comment       0x00000271       0x19 output/\lib1600.a(ab_queue.o)
 .comment       0x0000028a       0x19 output/\lib1600.a(ab_mp_sector.o)
 .comment       0x000002a3       0x19 output/\lib1600.a(ab_spi.o)
 .comment       0x000002bc       0x19 output/\lib1600.a(bsp_generic.o)
 .comment       0x000002d5       0x19 output/\lib1600.a(ab_timer.o)
 .comment       0x000002ee       0x19 output/\lib1600.a(ab_uart.o)
 .comment       0x00000307       0x19 output/\lib1600.a(ab_airoha_vcmd.o)
 .comment       0x00000320       0x19 output/\lib1600.a(drv_adc.o)
 .comment       0x00000339       0x19 output/\lib1600.a(drv_clk.o)
 .comment       0x00000352       0x19 output/\lib1600.a(drv_trnd.o)
 .comment       0x0000036b       0x19 output/\lib1600.a(drv_gpio.o)
 .comment       0x00000384       0x19 output/\lib1600.a(drv_odgpio.o)
 .comment       0x0000039d       0x19 output/\lib1600.a(drv_keyscan.o)
 .comment       0x000003b6       0x19 output/\lib1600.a(drv_led.o)
 .comment       0x000003cf       0x19 output/\lib1600.a(drv_mic.o)
 .comment       0x000003e8       0x19 output/\lib1600.a(drv_odpinmux.o)
 .comment       0x00000401       0x19 output/\lib1600.a(drv_pinmux.o)
 .comment       0x0000041a       0x19 output/\lib1600.a(drv_pwr.o)
 .comment       0x00000433       0x19 output/\lib1600.a(drv_spi.o)
 .comment       0x0000044c       0x19 output/\lib1600.a(drv_timer32b0.o)
 .comment       0x00000465       0x19 output/\lib1600.a(drv_uart.o)
 .comment       0x0000047e       0x19 output/\lib1600.a(drv_wdt.o)
 .comment       0x00000497       0x19 output/\lib1600.a(service_battery.o)
 .comment       0x000004b0       0x19 output/\lib1600.a(service_device_firmware_update_OTA.o)
 .comment       0x000004c9       0x19 output/\lib1600.a(service_device_information.o)
 .comment       0x000004e2       0x19 output/\lib1600.a(service_generic_access.o)
 .comment       0x000004fb       0x19 output/\lib1600.a(service_generic_attribute.o)
 .comment       0x00000514       0x19 output/\lib1600.a(service_human_interface_device.o)
 .comment       0x0000052d       0x19 output/\lib1600.a(console.o)
 .comment       0x00000546       0x19 output/\lib1600.a(shell.o)
 .comment       0x0000055f       0x19 output/\lib1600.a(ab_debug.o)
 .comment       0x00000578       0x19 output/\lib1600.a(dfu.o)
 .comment       0x00000591       0x19 output/\lib1600.a(ab_module.o)
 .comment       0x000005aa       0x19 output/\lib1600.a(drv_flash.o)
 .comment       0x000005c3       0x19 components/BT/release/\libbtcore.a(hci_h4_parser.o)
 .comment       0x000005dc       0x19 components/BT/release/\libbtcore.a(bt.o)
 .comment       0x000005f5       0x19 components/BT/release/\libbtcore.a(ble_gap.o)
 .comment       0x0000060e       0x19 components/BT/release/\libbtcore.a(ble_gap_links.o)
 .comment       0x00000627       0x19 components/BT/release/\libbtcore.a(ble_gap_sm.o)
 .comment       0x00000640       0x19 components/BT/release/\libbtcore.a(ble_l2cap.o)
 .comment       0x00000659       0x19 components/BT/release/\libbtcore.a(l2cap_le_sig.o)
 .comment       0x00000672       0x19 components/BT/release/\libbtcore.a(ble_att.o)
 .comment       0x0000068b       0x19 components/BT/release/\libbtcore.a(ble_gatt_server.o)
 .comment       0x000006a4       0x19 components/BT/release/\libbtcore.a(ble_gatt_client.o)
 .comment       0x000006bd       0x19 components/BT/release/\libbtcore.a(sm.o)
 .comment       0x000006d6       0x19 components/BT/release/\libbtcore.a(sm_cryptotool.o)
 .comment       0x000006ef       0x19 components/BT/release/\libbtcore.a(sm_hal.o)
 .comment       0x00000708       0x19 components/BT/release/\libbtcore.a(sm_protocol.o)
 .comment       0x00000721       0x19 components/BT/release/\libbtcore.a(sm_slave.o)
 .comment       0x0000073a       0x19 components/BT/release/\libbtcore.a(sm_master.o)
 .comment       0x00000753       0x19 components/BT/release/\libbtcore.a(Drv_Trng.o)
 .comment       0x0000076c       0x19 components/BT/release/\libbtcore.a(Drv_MMITimer.o)
 .comment       0x00000785       0x19 components/BT/release/\libbtcore.a(Ab_MMITimer.o)
 .comment       0x0000079e       0x19 components/BT/release/\libbtcore.a(Drv_1602.o)
 .comment       0x000007b7       0x19 components/BT/release/\libbtcore.a(encrypt.o)
 .comment       0x000007d0       0x19 components/BT/release/\libbtcore.a(hci.o)
 .comment       0x000007e9       0x19 components/BT/release/\libbtcore.a(hci_cmd_evt_dat.o)
 .comment       0x00000802       0x19 components/BT/release/\libbtcore.a(sm_common.o)
 .comment       0x0000081b       0x19 output/\lib1600.a(ab_log.o)
 .comment       0x00000834       0x19 output/\lib1600.a(ab_flash.o)
 .comment       0x0000084d       0x19 C:\Andestech\AndeSight211RDS\toolchains\nds32le-elf-mculib-v3m\nds32le-elf\libc\mculib\usr\lib\libc.a(lib_a-ctype_.o)
 .comment       0x00000866       0x19 C:\Andestech\AndeSight211RDS\toolchains\nds32le-elf-mculib-v3m\nds32le-elf\libc\mculib\usr\lib\libc.a(lib_a-freer.o)
 .comment       0x0000087f       0x19 C:\Andestech\AndeSight211RDS\toolchains\nds32le-elf-mculib-v3m\nds32le-elf\libc\mculib\usr\lib\libc.a(lib_a-mallocr.o)
 .comment       0x00000898       0x19 C:\Andestech\AndeSight211RDS\toolchains\nds32le-elf-mculib-v3m\nds32le-elf\libc\mculib\usr\lib\libc.a(lib_a-mlock.o)
 .comment       0x000008b1       0x19 C:\Andestech\AndeSight211RDS\toolchains\nds32le-elf-mculib-v3m\nds32le-elf\libc\mculib\usr\lib\libc.a(lib_a-mstats.o)
 .comment       0x000008ca       0x19 C:\Andestech\AndeSight211RDS\toolchains\nds32le-elf-mculib-v3m\nds32le-elf\libc\mculib\usr\lib\libc.a(lib_a-puts.o)
 .comment       0x000008e3       0x19 C:\Andestech\AndeSight211RDS\toolchains\nds32le-elf-mculib-v3m\nds32le-elf\libc\mculib\usr\lib\libc.a(lib_a-sbrkr.o)
 .comment       0x000008fc       0x19 C:\Andestech\AndeSight211RDS\toolchains\nds32le-elf-mculib-v3m\nds32le-elf\libc\mculib\usr\lib\libc.a(lib_a-sprintf.o)
 .comment       0x00000915       0x19 C:\Andestech\AndeSight211RDS\toolchains\nds32le-elf-mculib-v3m\nds32le-elf\libc\mculib\usr\lib\libc.a(lib_a-vprintf.o)
 .comment       0x0000092e       0x19 C:\Andestech\AndeSight211RDS\toolchains\nds32le-elf-mculib-v3m\nds32le-elf\libc\mculib\usr\lib\libc.a(lib_a-vsprintf.o)
 .comment       0x00000947       0x19 C:\Andestech\AndeSight211RDS\toolchains\nds32le-elf-mculib-v3m\nds32le-elf\libc\mculib\usr\lib\libc.a(do_printf.o)
 .comment       0x00000960       0x19 C:\Andestech\AndeSight211RDS\toolchains\nds32le-elf-mculib-v3m\nds32le-elf\libc\mculib\usr\lib\libc.a(xint2dec.o)
 .comment       0x00000979       0x19 C:\Andestech\AndeSight211RDS\toolchains\nds32le-elf-mculib-v3m\nds32le-elf\libc\mculib\usr\lib\libc.a(lib_a-data-errno.o)
 .comment       0x00000992       0x19 C:\Andestech\AndeSight211RDS\toolchains\nds32le-elf-mculib-v3m\nds32le-elf\libc\mculib\usr\lib\libc.a(lib_a-data-stdio.o)
 .comment       0x000009ab       0x19 C:\Andestech\AndeSight211RDS\toolchains\nds32le-elf-mculib-v3m\nds32le-elf\libc\mculib\usr\lib\libc.a(lib_a-fiprintf.o)
 .comment       0x000009c4       0x19 C:\Andestech\AndeSight211RDS\toolchains\nds32le-elf-mculib-v3m\nds32le-elf\libc\mculib\usr\lib\libc.a(lib_a-mallinfor.o)
 .comment       0x000009dd       0x19 C:\Andestech\AndeSight211RDS\toolchains\nds32le-elf-mculib-v3m\nds32le-elf\libc\mculib\usr\lib\libc.a(lib_a-malloptr.o)
 .comment       0x000009f6       0x19 C:\Andestech\AndeSight211RDS\toolchains\nds32le-elf-mculib-v3m\nds32le-elf\libc\mculib\usr\lib\libc.a(lib_a-mallstatsr.o)
 .comment       0x00000a0f       0x19 C:\Andestech\AndeSight211RDS\toolchains\nds32le-elf-mculib-v3m\nds32le-elf\libc\mculib\usr\lib\libc.a(lib_a-reent_errno.o)
 .comment       0x00000a28       0x19 C:\Andestech\AndeSight211RDS\toolchains\nds32le-elf-mculib-v3m\nds32le-elf\libc\mculib\usr\lib\libc.a(lib_a-vfiprintf.o)
 .comment       0x00000a41       0x19 C:\Andestech\AndeSight211RDS\toolchains\nds32le-elf-mculib-v3m\nds32le-elf\libc\mculib\usr\lib\libc.a(lib_a-wsetup.o)
 .comment       0x00000a5a       0x19 C:\Andestech\AndeSight211RDS\toolchains\nds32le-elf-mculib-v3m\nds32le-elf\libc\mculib\usr\lib\libc.a(lib_a-data-findfp.o)
 .comment       0x00000a73       0x19 C:\Andestech\AndeSight211RDS\toolchains\nds32le-elf-mculib-v3m\nds32le-elf\libc\mculib\usr\lib\libc.a(lib_a-fflush.o)
 .comment       0x00000a8c       0x19 C:\Andestech\AndeSight211RDS\toolchains\nds32le-elf-mculib-v3m\nds32le-elf\libc\mculib\usr\lib\libc.a(lib_a-findfp.o)
 .comment       0x00000aa5       0x19 C:\Andestech\AndeSight211RDS\toolchains\nds32le-elf-mculib-v3m\nds32le-elf\libc\mculib\usr\lib\libc.a(lib_a-fputwc.o)
 .comment       0x00000abe       0x19 C:\Andestech\AndeSight211RDS\toolchains\nds32le-elf-mculib-v3m\nds32le-elf\libc\mculib\usr\lib\libc.a(lib_a-fvwrite.o)
 .comment       0x00000ad7       0x19 C:\Andestech\AndeSight211RDS\toolchains\nds32le-elf-mculib-v3m\nds32le-elf\libc\mculib\usr\lib\libc.a(lib_a-fwalk.o)
 .comment       0x00000af0       0x19 C:\Andestech\AndeSight211RDS\toolchains\nds32le-elf-mculib-v3m\nds32le-elf\libc\mculib\usr\lib\libc.a(lib_a-locale.o)
 .comment       0x00000b09       0x19 C:\Andestech\AndeSight211RDS\toolchains\nds32le-elf-mculib-v3m\nds32le-elf\libc\mculib\usr\lib\libc.a(lib_a-makebuf.o)
 .comment       0x00000b22       0x19 C:\Andestech\AndeSight211RDS\toolchains\nds32le-elf-mculib-v3m\nds32le-elf\libc\mculib\usr\lib\libc.a(lib_a-reallocr.o)
 .comment       0x00000b3b       0x19 C:\Andestech\AndeSight211RDS\toolchains\nds32le-elf-mculib-v3m\nds32le-elf\libc\mculib\usr\lib\libc.a(lib_a-stdio.o)
 .comment       0x00000b54       0x19 C:\Andestech\AndeSight211RDS\toolchains\nds32le-elf-mculib-v3m\nds32le-elf\libc\mculib\usr\lib\libc.a(lib_a-wbuf.o)
 .comment       0x00000b6d       0x19 C:\Andestech\AndeSight211RDS\toolchains\nds32le-elf-mculib-v3m\nds32le-elf\libc\mculib\usr\lib\libc.a(lib_a-wcrtomb.o)
 .comment       0x00000b86       0x19 C:\Andestech\AndeSight211RDS\toolchains\nds32le-elf-mculib-v3m\nds32le-elf\libc\mculib\usr\lib\libc.a(lib_a-wctomb_r.o)
 .comment       0x00000b9f       0x19 C:\Andestech\AndeSight211RDS\toolchains\nds32le-elf-mculib-v3m\nds32le-elf\libc\mculib\usr\lib\libc.a(lib_a-writer.o)
 .comment       0x00000bb8       0x19 C:\Andestech\AndeSight211RDS\toolchains\nds32le-elf-mculib-v3m\nds32le-elf\libc\mculib\usr\lib\libc.a(lib_a-closer.o)
 .comment       0x00000bd1       0x19 C:\Andestech\AndeSight211RDS\toolchains\nds32le-elf-mculib-v3m\nds32le-elf\libc\mculib\usr\lib\libc.a(lib_a-fclose.o)
 .comment       0x00000bea       0x19 C:\Andestech\AndeSight211RDS\toolchains\nds32le-elf-mculib-v3m\nds32le-elf\libc\mculib\usr\lib\libc.a(lib_a-fstatr.o)
 .comment       0x00000c03       0x19 C:\Andestech\AndeSight211RDS\toolchains\nds32le-elf-mculib-v3m\nds32le-elf\libc\mculib\usr\lib\libc.a(lib_a-isattyr.o)
 .comment       0x00000c1c       0x19 C:\Andestech\AndeSight211RDS\toolchains\nds32le-elf-mculib-v3m\nds32le-elf\libc\mculib\usr\lib\libc.a(lib_a-lseekr.o)
 .comment       0x00000c35       0x19 C:\Andestech\AndeSight211RDS\toolchains\nds32le-elf-mculib-v3m\nds32le-elf\libc\mculib\usr\lib\libc.a(lib_a-readr.o)
 .comment       0x00000c4e       0x19 C:\Andestech\AndeSight211RDS\toolchains\nds32le-elf-mculib-v3m\lib\gcc\nds32le-elf\4.4.4\mculib\libgcc.a(_lshrdi3.o)
 .comment       0x00000c67       0x19 C:\Andestech\AndeSight211RDS\toolchains\nds32le-elf-mculib-v3m\lib\gcc\nds32le-elf\4.4.4\mculib\libgcc.a(_ashldi3.o)
 .comment       0x00000c80       0x19 C:\Andestech\AndeSight211RDS\toolchains\nds32le-elf-mculib-v3m\lib\gcc\nds32le-elf\4.4.4\mculib\libgcc.a(clz.o)
 .comment       0x00000c99       0x19 C:\Andestech\AndeSight211RDS\toolchains\nds32le-elf-mculib-v3m\lib\gcc\nds32le-elf\4.4.4\mculib\libgcc.a(_muldi3.o)

.note.nds32.ld  0x00000000      0x960
 .note.nds32.ld
                0x00000000      0x960 /cygdrive/c/Airoha/AiroBlueSDK/AB1600_1_0_5_0/projects/SmartRemote/output/pj/components/Device/AB1600/cfg_sector.o

.debug_frame    0x00000000     0x3d2c
 .debug_frame   0x00000000      0x180 /cygdrive/c/Airoha/AiroBlueSDK/AB1600_1_0_5_0/projects/SmartRemote/output/pj/components/Libraries/hci_devices/hci_spi_1602.o
 .debug_frame   0x00000180       0x58 /cygdrive/c/Airoha/AiroBlueSDK/AB1600_1_0_5_0/projects/SmartRemote/output/main.o
 .debug_frame   0x000001d8      0x114 /cygdrive/c/Airoha/AiroBlueSDK/AB1600_1_0_5_0/projects/SmartRemote/output/smartRemote.o
 .debug_frame   0x000002ec      0x2d0 /cygdrive/c/Airoha/AiroBlueSDK/AB1600_1_0_5_0/projects/SmartRemote/output/peripheral.o
 .debug_frame   0x000005bc      0x18c /cygdrive/c/Airoha/AiroBlueSDK/AB1600_1_0_5_0/projects/SmartRemote/output/service.o
 .debug_frame   0x00000748       0xe8 /cygdrive/c/Airoha/AiroBlueSDK/AB1600_1_0_5_0/projects/SmartRemote/output/board.o
 .debug_frame   0x00000830      0x104 /cygdrive/c/Airoha/AiroBlueSDK/AB1600_1_0_5_0/projects/SmartRemote/output/keyboard.o
 .debug_frame   0x00000934      0x1d4 /cygdrive/c/Airoha/AiroBlueSDK/AB1600_1_0_5_0/projects/SmartRemote/output/microphone.o
 .debug_frame   0x00000b08       0xbc /cygdrive/c/Airoha/AiroBlueSDK/AB1600_1_0_5_0/projects/SmartRemote/output/vcmd.o
 .debug_frame   0x00000bc4       0xa0 /cygdrive/c/Airoha/AiroBlueSDK/AB1600_1_0_5_0/projects/SmartRemote/output/led.o
 .debug_frame   0x00000c64       0xa0 /cygdrive/c/Airoha/AiroBlueSDK/AB1600_1_0_5_0/projects/SmartRemote/output/irTx.o
 .debug_frame   0x00000d04      0x100 /cygdrive/c/Airoha/AiroBlueSDK/AB1600_1_0_5_0/projects/SmartRemote/output/spl/components/Libraries/external/ADPCM/g726_enc_32.o
 .debug_frame   0x00000e04       0xe8 /cygdrive/c/Airoha/AiroBlueSDK/AB1600_1_0_5_0/projects/SmartRemote/output/spl/components/Libraries/external/ADPCM/g72x.o
 .debug_frame   0x00000eec       0xa8 /cygdrive/c/Airoha/AiroBlueSDK/AB1600_1_0_5_0/projects/SmartRemote/output/spl/components/Libraries/external/ima_adpcm/ima_enc.o
 .debug_frame   0x00000f94       0xcc output/\lib1600.a(ab_adc.o)
 .debug_frame   0x00001060       0x3c output/\lib1600.a(ab_clk.o)
 .debug_frame   0x0000109c       0x58 output/\lib1600.a(ab_assert.o)
 .debug_frame   0x000010f4      0x194 output/\lib1600.a(ab_led.o)
 .debug_frame   0x00001288      0x114 output/\lib1600.a(ab_malloc_hook.o)
 .debug_frame   0x0000139c      0x100 output/\lib1600.a(ab_printf_hook.o)
 .debug_frame   0x0000149c      0x130 output/\lib1600.a(ab_pwr.o)
 .debug_frame   0x000015cc      0x19c output/\lib1600.a(ab_queue.o)
 .debug_frame   0x00001768       0x3c output/\lib1600.a(ab_mp_sector.o)
 .debug_frame   0x000017a4      0x118 output/\lib1600.a(ab_spi.o)
 .debug_frame   0x000018bc      0x15c output/\lib1600.a(bsp_generic.o)
 .debug_frame   0x00001a18      0x12c output/\lib1600.a(ab_timer.o)
 .debug_frame   0x00001b44      0x160 output/\lib1600.a(ab_uart.o)
 .debug_frame   0x00001ca4      0x438 output/\lib1600.a(ab_airoha_vcmd.o)
 .debug_frame   0x000020dc       0x64 output/\lib1600.a(drv_adc.o)
 .debug_frame   0x00002140      0x10c output/\lib1600.a(drv_clk.o)
 .debug_frame   0x0000224c       0x3c output/\lib1600.a(drv_trnd.o)
 .debug_frame   0x00002288      0x2bc output/\lib1600.a(drv_gpio.o)
 .debug_frame   0x00002544       0xc4 output/\lib1600.a(drv_odgpio.o)
 .debug_frame   0x00002608       0xcc output/\lib1600.a(drv_keyscan.o)
 .debug_frame   0x000026d4       0xa8 output/\lib1600.a(drv_led.o)
 .debug_frame   0x0000277c       0xc4 output/\lib1600.a(drv_mic.o)
 .debug_frame   0x00002840       0xa8 output/\lib1600.a(drv_odpinmux.o)
 .debug_frame   0x000028e8      0x130 output/\lib1600.a(drv_pinmux.o)
 .debug_frame   0x00002a18       0x88 output/\lib1600.a(drv_pwr.o)
 .debug_frame   0x00002aa0      0x184 output/\lib1600.a(drv_spi.o)
 .debug_frame   0x00002c24      0x138 output/\lib1600.a(drv_timer32b0.o)
 .debug_frame   0x00002d5c      0x280 output/\lib1600.a(drv_uart.o)
 .debug_frame   0x00002fdc       0xc4 output/\lib1600.a(drv_wdt.o)
 .debug_frame   0x000030a0       0x64 output/\lib1600.a(service_battery.o)
 .debug_frame   0x00003104      0x17c output/\lib1600.a(service_device_firmware_update_OTA.o)
 .debug_frame   0x00003280       0x6c output/\lib1600.a(service_device_information.o)
 .debug_frame   0x000032ec       0x70 output/\lib1600.a(service_generic_access.o)
 .debug_frame   0x0000335c       0x64 output/\lib1600.a(service_generic_attribute.o)
 .debug_frame   0x000033c0       0x70 output/\lib1600.a(service_human_interface_device.o)
 .debug_frame   0x00003430       0xb0 output/\lib1600.a(console.o)
 .debug_frame   0x000034e0      0x18c output/\lib1600.a(shell.o)
 .debug_frame   0x0000366c      0x178 output/\lib1600.a(ab_debug.o)
 .debug_frame   0x000037e4       0x84 output/\lib1600.a(dfu.o)
 .debug_frame   0x00003868       0xd4 output/\lib1600.a(ab_module.o)
 .debug_frame   0x0000393c      0x1f0 output/\lib1600.a(drv_flash.o)
 .debug_frame   0x00003b2c      0x160 output/\lib1600.a(ab_log.o)
 .debug_frame   0x00003c8c       0xa0 output/\lib1600.a(ab_flash.o)

.debug_loc      0x00000000     0x9bdc
 .debug_loc     0x00000000      0x2db /cygdrive/c/Airoha/AiroBlueSDK/AB1600_1_0_5_0/projects/SmartRemote/output/pj/components/Libraries/hci_devices/hci_spi_1602.o
 .debug_loc     0x000002db       0x7a /cygdrive/c/Airoha/AiroBlueSDK/AB1600_1_0_5_0/projects/SmartRemote/output/main.o
 .debug_loc     0x00000355      0x13e /cygdrive/c/Airoha/AiroBlueSDK/AB1600_1_0_5_0/projects/SmartRemote/output/smartRemote.o
 .debug_loc     0x00000493      0x427 /cygdrive/c/Airoha/AiroBlueSDK/AB1600_1_0_5_0/projects/SmartRemote/output/peripheral.o
 .debug_loc     0x000008ba      0x225 /cygdrive/c/Airoha/AiroBlueSDK/AB1600_1_0_5_0/projects/SmartRemote/output/service.o
 .debug_loc     0x00000adf      0x11c /cygdrive/c/Airoha/AiroBlueSDK/AB1600_1_0_5_0/projects/SmartRemote/output/board.o
 .debug_loc     0x00000bfb      0x145 /cygdrive/c/Airoha/AiroBlueSDK/AB1600_1_0_5_0/projects/SmartRemote/output/keyboard.o
 .debug_loc     0x00000d40      0x20a /cygdrive/c/Airoha/AiroBlueSDK/AB1600_1_0_5_0/projects/SmartRemote/output/microphone.o
 .debug_loc     0x00000f4a      0x1f9 /cygdrive/c/Airoha/AiroBlueSDK/AB1600_1_0_5_0/projects/SmartRemote/output/vcmd.o
 .debug_loc     0x00001143       0xef /cygdrive/c/Airoha/AiroBlueSDK/AB1600_1_0_5_0/projects/SmartRemote/output/led.o
 .debug_loc     0x00001232       0xad /cygdrive/c/Airoha/AiroBlueSDK/AB1600_1_0_5_0/projects/SmartRemote/output/irTx.o
 .debug_loc     0x000012df      0x3fb /cygdrive/c/Airoha/AiroBlueSDK/AB1600_1_0_5_0/projects/SmartRemote/output/spl/components/Libraries/external/ADPCM/g726_enc_32.o
 .debug_loc     0x000016da     0x1301 /cygdrive/c/Airoha/AiroBlueSDK/AB1600_1_0_5_0/projects/SmartRemote/output/spl/components/Libraries/external/ADPCM/g72x.o
 .debug_loc     0x000029db      0x8e2 /cygdrive/c/Airoha/AiroBlueSDK/AB1600_1_0_5_0/projects/SmartRemote/output/spl/components/Libraries/external/ima_adpcm/ima_enc.o
 .debug_loc     0x000032bd      0x196 output/\lib1600.a(ab_adc.o)
 .debug_loc     0x00003453       0x66 output/\lib1600.a(ab_clk.o)
 .debug_loc     0x000034b9       0xb3 output/\lib1600.a(ab_assert.o)
 .debug_loc     0x0000356c      0x3b6 output/\lib1600.a(ab_led.o)
 .debug_loc     0x00003922      0x128 output/\lib1600.a(ab_malloc_hook.o)
 .debug_loc     0x00003a4a      0x183 output/\lib1600.a(ab_printf_hook.o)
 .debug_loc     0x00003bcd      0x144 output/\lib1600.a(ab_pwr.o)
 .debug_loc     0x00003d11      0x2f0 output/\lib1600.a(ab_queue.o)
 .debug_loc     0x00004001       0x71 output/\lib1600.a(ab_mp_sector.o)
 .debug_loc     0x00004072      0x3ad output/\lib1600.a(ab_spi.o)
 .debug_loc     0x0000441f      0x437 output/\lib1600.a(bsp_generic.o)
 .debug_loc     0x00004856      0x218 output/\lib1600.a(ab_timer.o)
 .debug_loc     0x00004a6e      0x2b0 output/\lib1600.a(ab_uart.o)
 .debug_loc     0x00004d1e      0x8f5 output/\lib1600.a(ab_airoha_vcmd.o)
 .debug_loc     0x00005613       0xae output/\lib1600.a(drv_adc.o)
 .debug_loc     0x000056c1      0x323 output/\lib1600.a(drv_clk.o)
 .debug_loc     0x000059e4      0x113 output/\lib1600.a(drv_trnd.o)
 .debug_loc     0x00005af7      0x560 output/\lib1600.a(drv_gpio.o)
 .debug_loc     0x00006057      0x15a output/\lib1600.a(drv_odgpio.o)
 .debug_loc     0x000061b1      0x14c output/\lib1600.a(drv_keyscan.o)
 .debug_loc     0x000062fd      0x140 output/\lib1600.a(drv_led.o)
 .debug_loc     0x0000643d       0xb9 output/\lib1600.a(drv_mic.o)
 .debug_loc     0x000064f6      0x156 output/\lib1600.a(drv_odpinmux.o)
 .debug_loc     0x0000664c      0x341 output/\lib1600.a(drv_pinmux.o)
 .debug_loc     0x0000698d       0x9c output/\lib1600.a(drv_pwr.o)
 .debug_loc     0x00006a29      0x317 output/\lib1600.a(drv_spi.o)
 .debug_loc     0x00006d40      0x1d8 output/\lib1600.a(drv_timer32b0.o)
 .debug_loc     0x00006f18      0x6ca output/\lib1600.a(drv_uart.o)
 .debug_loc     0x000075e2       0xae output/\lib1600.a(drv_wdt.o)
 .debug_loc     0x00007690       0x8e output/\lib1600.a(service_battery.o)
 .debug_loc     0x0000771e      0x311 output/\lib1600.a(service_device_firmware_update_OTA.o)
 .debug_loc     0x00007a2f       0xb7 output/\lib1600.a(service_device_information.o)
 .debug_loc     0x00007ae6       0x7c output/\lib1600.a(service_generic_access.o)
 .debug_loc     0x00007b62       0xa4 output/\lib1600.a(service_generic_attribute.o)
 .debug_loc     0x00007c06       0xc3 output/\lib1600.a(service_human_interface_device.o)
 .debug_loc     0x00007cc9      0x138 output/\lib1600.a(console.o)
 .debug_loc     0x00007e01      0x91f output/\lib1600.a(shell.o)
 .debug_loc     0x00008720      0x185 output/\lib1600.a(ab_debug.o)
 .debug_loc     0x000088a5      0x23e output/\lib1600.a(dfu.o)
 .debug_loc     0x00008ae3      0x18e output/\lib1600.a(ab_module.o)
 .debug_loc     0x00008c71      0x36c output/\lib1600.a(drv_flash.o)
 .debug_loc     0x00008fdd      0xb0b output/\lib1600.a(ab_log.o)
 .debug_loc     0x00009ae8       0xf4 output/\lib1600.a(ab_flash.o)

.debug_aranges  0x00000000     0x10b0
 .debug_aranges
                0x00000000       0x60 /cygdrive/c/Airoha/AiroBlueSDK/AB1600_1_0_5_0/projects/SmartRemote/output/pj/components/Libraries/hci_devices/hci_spi_1602.o
 .debug_aranges
                0x00000060       0x28 /cygdrive/c/Airoha/AiroBlueSDK/AB1600_1_0_5_0/projects/SmartRemote/output/main.o
 .debug_aranges
                0x00000088       0x50 /cygdrive/c/Airoha/AiroBlueSDK/AB1600_1_0_5_0/projects/SmartRemote/output/smartRemote.o
 .debug_aranges
                0x000000d8       0xb0 /cygdrive/c/Airoha/AiroBlueSDK/AB1600_1_0_5_0/projects/SmartRemote/output/peripheral.o
 .debug_aranges
                0x00000188       0x68 /cygdrive/c/Airoha/AiroBlueSDK/AB1600_1_0_5_0/projects/SmartRemote/output/service.o
 .debug_aranges
                0x000001f0       0x48 /cygdrive/c/Airoha/AiroBlueSDK/AB1600_1_0_5_0/projects/SmartRemote/output/board.o
 .debug_aranges
                0x00000238       0x48 /cygdrive/c/Airoha/AiroBlueSDK/AB1600_1_0_5_0/projects/SmartRemote/output/keyboard.o
 .debug_aranges
                0x00000280       0x78 /cygdrive/c/Airoha/AiroBlueSDK/AB1600_1_0_5_0/projects/SmartRemote/output/microphone.o
 .debug_aranges
                0x000002f8       0x38 /cygdrive/c/Airoha/AiroBlueSDK/AB1600_1_0_5_0/projects/SmartRemote/output/vcmd.o
 .debug_aranges
                0x00000330       0x38 /cygdrive/c/Airoha/AiroBlueSDK/AB1600_1_0_5_0/projects/SmartRemote/output/led.o
 .debug_aranges
                0x00000368       0x38 /cygdrive/c/Airoha/AiroBlueSDK/AB1600_1_0_5_0/projects/SmartRemote/output/irTx.o
 .debug_aranges
                0x000003a0       0x20 /cygdrive/c/Airoha/AiroBlueSDK/AB1600_1_0_5_0/projects/SmartRemote/output/spl/components/Libraries/external/ADPCM/g726_enc_32.o
 .debug_aranges
                0x000003c0       0x20 /cygdrive/c/Airoha/AiroBlueSDK/AB1600_1_0_5_0/projects/SmartRemote/output/spl/components/Libraries/external/ADPCM/g72x.o
 .debug_aranges
                0x000003e0       0x20 /cygdrive/c/Airoha/AiroBlueSDK/AB1600_1_0_5_0/projects/SmartRemote/output/spl/components/Libraries/external/ima_adpcm/ima_enc.o
 .debug_aranges
                0x00000400       0x40 output/\lib1600.a(ab_adc.o)
 .debug_aranges
                0x00000440       0x20 output/\lib1600.a(ab_clk.o)
 .debug_aranges
                0x00000460       0x28 output/\lib1600.a(ab_assert.o)
 .debug_aranges
                0x00000488       0x68 output/\lib1600.a(ab_led.o)
 .debug_aranges
                0x000004f0       0x50 output/\lib1600.a(ab_malloc_hook.o)
 .debug_aranges
                0x00000540       0x40 output/\lib1600.a(ab_printf_hook.o)
 .debug_aranges
                0x00000580       0x58 output/\lib1600.a(ab_pwr.o)
 .debug_aranges
                0x000005d8       0x70 output/\lib1600.a(ab_queue.o)
 .debug_aranges
                0x00000648       0x20 output/\lib1600.a(ab_mp_sector.o)
 .debug_aranges
                0x00000668       0x48 output/\lib1600.a(ab_spi.o)
 .debug_aranges
                0x000006b0       0x58 output/\lib1600.a(bsp_generic.o)
 .debug_aranges
                0x00000708       0x50 output/\lib1600.a(ab_timer.o)
 .debug_aranges
                0x00000758       0x58 output/\lib1600.a(ab_uart.o)
 .debug_aranges
                0x000007b0       0xf0 output/\lib1600.a(ab_airoha_vcmd.o)
 .debug_aranges
                0x000008a0       0x28 output/\lib1600.a(drv_adc.o)
 .debug_aranges
                0x000008c8       0x50 output/\lib1600.a(drv_clk.o)
 .debug_aranges
                0x00000918       0x20 output/\lib1600.a(drv_trnd.o)
 .debug_aranges
                0x00000938       0xa8 output/\lib1600.a(drv_gpio.o)
 .debug_aranges
                0x000009e0       0x40 output/\lib1600.a(drv_odgpio.o)
 .debug_aranges
                0x00000a20       0x38 output/\lib1600.a(drv_keyscan.o)
 .debug_aranges
                0x00000a58       0x38 output/\lib1600.a(drv_led.o)
 .debug_aranges
                0x00000a90       0x40 output/\lib1600.a(drv_mic.o)
 .debug_aranges
                0x00000ad0       0x38 output/\lib1600.a(drv_odpinmux.o)
 .debug_aranges
                0x00000b08       0x50 output/\lib1600.a(drv_pinmux.o)
 .debug_aranges
                0x00000b58       0x30 output/\lib1600.a(drv_pwr.o)
 .debug_aranges
                0x00000b88       0x60 output/\lib1600.a(drv_spi.o)
 .debug_aranges
                0x00000be8       0x58 output/\lib1600.a(drv_timer32b0.o)
 .debug_aranges
                0x00000c40       0x98 output/\lib1600.a(drv_uart.o)
 .debug_aranges
                0x00000cd8       0x40 output/\lib1600.a(drv_wdt.o)
 .debug_aranges
                0x00000d18       0x28 output/\lib1600.a(service_battery.o)
 .debug_aranges
                0x00000d40       0x60 output/\lib1600.a(service_device_firmware_update_OTA.o)
 .debug_aranges
                0x00000da0       0x28 output/\lib1600.a(service_device_information.o)
 .debug_aranges
                0x00000dc8       0x28 output/\lib1600.a(service_generic_access.o)
 .debug_aranges
                0x00000df0       0x28 output/\lib1600.a(service_generic_attribute.o)
 .debug_aranges
                0x00000e18       0x28 output/\lib1600.a(service_human_interface_device.o)
 .debug_aranges
                0x00000e40       0x38 output/\lib1600.a(console.o)
 .debug_aranges
                0x00000e78       0x58 output/\lib1600.a(shell.o)
 .debug_aranges
                0x00000ed0       0x68 output/\lib1600.a(ab_debug.o)
 .debug_aranges
                0x00000f38       0x30 output/\lib1600.a(dfu.o)
 .debug_aranges
                0x00000f68       0x40 output/\lib1600.a(ab_module.o)
 .debug_aranges
                0x00000fa8       0x78 output/\lib1600.a(drv_flash.o)
 .debug_aranges
                0x00001020       0x58 output/\lib1600.a(ab_log.o)
 .debug_aranges
                0x00001078       0x38 output/\lib1600.a(ab_flash.o)

.debug_ranges   0x00000000     0x1540
 .debug_ranges  0x00000000       0x88 /cygdrive/c/Airoha/AiroBlueSDK/AB1600_1_0_5_0/projects/SmartRemote/output/pj/components/Libraries/hci_devices/hci_spi_1602.o
 .debug_ranges  0x00000088       0x20 /cygdrive/c/Airoha/AiroBlueSDK/AB1600_1_0_5_0/projects/SmartRemote/output/main.o
 .debug_ranges  0x000000a8       0x48 /cygdrive/c/Airoha/AiroBlueSDK/AB1600_1_0_5_0/projects/SmartRemote/output/smartRemote.o
 .debug_ranges  0x000000f0       0xa8 /cygdrive/c/Airoha/AiroBlueSDK/AB1600_1_0_5_0/projects/SmartRemote/output/peripheral.o
 .debug_ranges  0x00000198       0xf0 /cygdrive/c/Airoha/AiroBlueSDK/AB1600_1_0_5_0/projects/SmartRemote/output/service.o
 .debug_ranges  0x00000288       0x40 /cygdrive/c/Airoha/AiroBlueSDK/AB1600_1_0_5_0/projects/SmartRemote/output/board.o
 .debug_ranges  0x000002c8       0x40 /cygdrive/c/Airoha/AiroBlueSDK/AB1600_1_0_5_0/projects/SmartRemote/output/keyboard.o
 .debug_ranges  0x00000308       0x88 /cygdrive/c/Airoha/AiroBlueSDK/AB1600_1_0_5_0/projects/SmartRemote/output/microphone.o
 .debug_ranges  0x00000390       0x48 /cygdrive/c/Airoha/AiroBlueSDK/AB1600_1_0_5_0/projects/SmartRemote/output/vcmd.o
 .debug_ranges  0x000003d8       0x30 /cygdrive/c/Airoha/AiroBlueSDK/AB1600_1_0_5_0/projects/SmartRemote/output/led.o
 .debug_ranges  0x00000408       0x30 /cygdrive/c/Airoha/AiroBlueSDK/AB1600_1_0_5_0/projects/SmartRemote/output/irTx.o
 .debug_ranges  0x00000438       0x60 /cygdrive/c/Airoha/AiroBlueSDK/AB1600_1_0_5_0/projects/SmartRemote/output/spl/components/Libraries/external/ADPCM/g726_enc_32.o
 .debug_ranges  0x00000498      0x1c0 /cygdrive/c/Airoha/AiroBlueSDK/AB1600_1_0_5_0/projects/SmartRemote/output/spl/components/Libraries/external/ADPCM/g72x.o
 .debug_ranges  0x00000658      0x110 /cygdrive/c/Airoha/AiroBlueSDK/AB1600_1_0_5_0/projects/SmartRemote/output/spl/components/Libraries/external/ima_adpcm/ima_enc.o
 .debug_ranges  0x00000768       0x38 output/\lib1600.a(ab_adc.o)
 .debug_ranges  0x000007a0       0x18 output/\lib1600.a(ab_clk.o)
 .debug_ranges  0x000007b8       0x20 output/\lib1600.a(ab_assert.o)
 .debug_ranges  0x000007d8       0x60 output/\lib1600.a(ab_led.o)
 .debug_ranges  0x00000838       0x60 output/\lib1600.a(ab_malloc_hook.o)
 .debug_ranges  0x00000898       0x38 output/\lib1600.a(ab_printf_hook.o)
 .debug_ranges  0x000008d0       0x50 output/\lib1600.a(ab_pwr.o)
 .debug_ranges  0x00000920       0x68 output/\lib1600.a(ab_queue.o)
 .debug_ranges  0x00000988       0x48 output/\lib1600.a(ab_mp_sector.o)
 .debug_ranges  0x000009d0       0x40 output/\lib1600.a(ab_spi.o)
 .debug_ranges  0x00000a10       0x50 output/\lib1600.a(bsp_generic.o)
 .debug_ranges  0x00000a60       0x48 output/\lib1600.a(ab_timer.o)
 .debug_ranges  0x00000aa8       0x50 output/\lib1600.a(ab_uart.o)
 .debug_ranges  0x00000af8      0x118 output/\lib1600.a(ab_airoha_vcmd.o)
 .debug_ranges  0x00000c10       0x20 output/\lib1600.a(drv_adc.o)
 .debug_ranges  0x00000c30       0x48 output/\lib1600.a(drv_clk.o)
 .debug_ranges  0x00000c78       0x38 output/\lib1600.a(drv_trnd.o)
 .debug_ranges  0x00000cb0       0xa0 output/\lib1600.a(drv_gpio.o)
 .debug_ranges  0x00000d50       0x38 output/\lib1600.a(drv_odgpio.o)
 .debug_ranges  0x00000d88       0x48 output/\lib1600.a(drv_keyscan.o)
 .debug_ranges  0x00000dd0       0x30 output/\lib1600.a(drv_led.o)
 .debug_ranges  0x00000e00       0x38 output/\lib1600.a(drv_mic.o)
 .debug_ranges  0x00000e38       0x30 output/\lib1600.a(drv_odpinmux.o)
 .debug_ranges  0x00000e68       0x60 output/\lib1600.a(drv_pinmux.o)
 .debug_ranges  0x00000ec8       0x28 output/\lib1600.a(drv_pwr.o)
 .debug_ranges  0x00000ef0       0x58 output/\lib1600.a(drv_spi.o)
 .debug_ranges  0x00000f48       0x50 output/\lib1600.a(drv_timer32b0.o)
 .debug_ranges  0x00000f98       0x90 output/\lib1600.a(drv_uart.o)
 .debug_ranges  0x00001028       0x38 output/\lib1600.a(drv_wdt.o)
 .debug_ranges  0x00001060       0x20 output/\lib1600.a(service_battery.o)
 .debug_ranges  0x00001080       0xc0 output/\lib1600.a(service_device_firmware_update_OTA.o)
 .debug_ranges  0x00001140       0x20 output/\lib1600.a(service_device_information.o)
 .debug_ranges  0x00001160       0x50 output/\lib1600.a(service_generic_access.o)
 .debug_ranges  0x000011b0       0x38 output/\lib1600.a(service_generic_attribute.o)
 .debug_ranges  0x000011e8       0x20 output/\lib1600.a(service_human_interface_device.o)
 .debug_ranges  0x00001208       0x30 output/\lib1600.a(console.o)
 .debug_ranges  0x00001238       0x68 output/\lib1600.a(shell.o)
 .debug_ranges  0x000012a0       0x60 output/\lib1600.a(ab_debug.o)
 .debug_ranges  0x00001300       0x28 output/\lib1600.a(dfu.o)
 .debug_ranges  0x00001328       0x38 output/\lib1600.a(ab_module.o)
 .debug_ranges  0x00001360      0x160 output/\lib1600.a(drv_flash.o)
 .debug_ranges  0x000014c0       0x50 output/\lib1600.a(ab_log.o)
 .debug_ranges  0x00001510       0x30 output/\lib1600.a(ab_flash.o)
