
/cygdrive/c/Airoha/AiroBlueSDK/AB1600_1_0_5_0/projects/SmartRemote/output/SmartRemote.out:     file format elf32-nds32


Disassembly of section .text:

00090030 <adpcm_encode_init>:
   90030:	3b ff fc bc 	smw.adm $sp,[$sp],$sp,#0x2    ! {$lp}
   90034:	51 ff ff fc 	addi $sp,$sp,#-4
   90038:	3e 0f cb 18 	addi.gp $r0,#-13544
   9003c:	49 00 01 8a 	jal 90350 <g726_init_state>
   90040:	3e 0f c8 24 	addi.gp $r0,#-14300
   90044:	50 20 00 a0 	addi $r2,$r0,#160
   90048:	84 20       	movi55 $r1,#0
   9004a:	aa 41       	swi333.bi $r1,[$r0],#0x4
   9004c:	4c 01 7f ff 	bne $r0,$r2,9004a <adpcm_encode_init+0x1a>
   90050:	fa 16       	movpi45 $r0,#0x26
   90052:	3c 0b ea 11 	shi.gp $r0,[+#-11230]
   90056:	ec 04       	addi10.sp #4
   90058:	3b ff fc 84 	lmw.bim $sp,[$sp],$sp,#0x2    ! {$lp}
   9005c:	dd 9e       	ret5 $lp
   9005e:	92 00       	nop16

00090060 <g726_32_encoder>:
   90060:	3a 6f aa bc 	smw.adm $r6,[$sp],$r10,#0xa    ! {$r6~$r10, $fp, $lp}
   90064:	ef f4       	addi10.sp #-12
   90066:	83 80       	mov55 $fp,$r0
   90068:	80 01       	mov55 $r0,$r1
   9006a:	80 e1       	mov55 $r7,$r1
   9006c:	80 c2       	mov55 $r6,$r2
   9006e:	49 00 06 ef 	jal 90e4c <predictor_zero>
   90072:	81 40       	mov55 $r10,$r0
   90074:	50 03 80 00 	addi $r0,$r7,#0
   90078:	49 00 0a 96 	jal 915a4 <predictor_pole>
   9007c:	40 90 28 00 	add $r9,$r0,$r10
   90080:	80 07       	mov55 $r0,$r7
   90082:	49 00 01 97 	jal 903b0 <step_size>
   90086:	81 00       	mov55 $r8,$r0
   90088:	40 94 84 0a 	srai $r9,$r9,#1
   9008c:	40 0e 18 0e 	sra $r0,$fp,$r6
   90090:	80 28       	mov55 $r1,$r8
   90092:	3e 2f c2 3c 	addi.gp $r2,#-15812
   90096:	84 67       	movi55 $r3,#7
   90098:	8a 09       	sub45 $r0,$r9
   9009a:	49 00 01 a5 	jal 903e4 <quantize>
   9009e:	80 c0       	mov55 $r6,$r0
   900a0:	46 00 00 a3 	sethi $r0,#0xa3
   900a4:	58 00 0a 38 	ori $r0,$r0,#0xa38
   900a8:	38 10 19 11 	lhs $r1,[$r0+($r6<<#0x1)]
   900ac:	80 48       	mov55 $r2,$r8
   900ae:	54 03 00 08 	andi $r0,$r6,#0x8
   900b2:	49 00 02 2d 	jal 9050c <reconstruct>
   900b6:	80 80       	mov55 $r4,$r0
   900b8:	4e 04 00 08 	bgez $r0,900c8 <g726_32_encoder+0x68>
   900bc:	54 50 3f ff 	andi $r5,$r0,#0x3fff
   900c0:	40 54 94 01 	sub $r5,$r9,$r5
   900c4:	48 00 00 04 	j 900cc <g726_32_encoder+0x6c>
   900c8:	40 54 80 00 	add $r5,$r9,$r0
   900cc:	46 00 00 a3 	sethi $r0,#0xa3
   900d0:	58 00 0a 58 	ori $r0,$r0,#0xa58
   900d4:	38 20 19 11 	lhs $r2,[$r0+($r6<<#0x1)]
   900d8:	40 a5 04 0a 	srai $r10,$r10,#1
   900dc:	46 00 00 a3 	sethi $r0,#0xa3
   900e0:	58 00 0a 78 	ori $r0,$r0,#0xa78
   900e4:	38 30 19 11 	lhs $r3,[$r0+($r6<<#0x1)]
   900e8:	40 95 24 01 	sub $r9,$r10,$r9
   900ec:	89 25       	add45 $r9,$r5
   900ee:	80 28       	mov55 $r1,$r8
   900f0:	94 95       	slli333 $r2,$r2,#5
   900f2:	84 04       	movi55 $r0,#4
   900f4:	b7 3f       	swi450 $r9,[$sp]
   900f6:	f7 81       	swi37.sp $r7,[+#0x4]
   900f8:	49 00 02 28 	jal 90548 <update>
   900fc:	80 06       	mov55 $r0,$r6
   900fe:	ec 0c       	addi10.sp #12
   90100:	3a 6f aa 84 	lmw.bim $r6,[$sp],$r10,#0xa    ! {$r6~$r10, $fp, $lp}
   90104:	dd 9e       	ret5 $lp
   90106:	92 00       	nop16

00090108 <T.34>:
   90108:	3a 6f a8 bc 	smw.adm $r6,[$sp],$r10,#0x2    ! {$r6~$r10, $lp}
   9010c:	ef f8       	addi10.sp #-8
   9010e:	81 40       	mov55 $r10,$r0
   90110:	3e 0f cb 18 	addi.gp $r0,#-13544
   90114:	80 c1       	mov55 $r6,$r1
   90116:	49 00 06 9b 	jal 90e4c <predictor_zero>
   9011a:	81 20       	mov55 $r9,$r0
   9011c:	3e 0f cb 18 	addi.gp $r0,#-13544
   90120:	49 00 0a 42 	jal 915a4 <predictor_pole>
   90124:	40 80 24 00 	add $r8,$r0,$r9
   90128:	3e 0f cb 18 	addi.gp $r0,#-13544
   9012c:	49 00 01 42 	jal 903b0 <step_size>
   90130:	80 e0       	mov55 $r7,$r0
   90132:	91 01       	srai45 $r8,#1
   90134:	40 05 18 0e 	sra $r0,$r10,$r6
   90138:	80 27       	mov55 $r1,$r7
   9013a:	3e 2f c2 3c 	addi.gp $r2,#-15812
   9013e:	84 67       	movi55 $r3,#7
   90140:	8a 08       	sub45 $r0,$r8
   90142:	49 00 01 51 	jal 903e4 <quantize>
   90146:	80 c0       	mov55 $r6,$r0
   90148:	46 00 00 a3 	sethi $r0,#0xa3
   9014c:	58 00 0a 38 	ori $r0,$r0,#0xa38
   90150:	38 10 19 11 	lhs $r1,[$r0+($r6<<#0x1)]
   90154:	80 47       	mov55 $r2,$r7
   90156:	54 03 00 08 	andi $r0,$r6,#0x8
   9015a:	49 00 01 d9 	jal 9050c <reconstruct>
   9015e:	80 80       	mov55 $r4,$r0
   90160:	4e 04 00 08 	bgez $r0,90170 <T.34+0x68>
   90164:	54 50 3f ff 	andi $r5,$r0,#0x3fff
   90168:	40 54 14 01 	sub $r5,$r8,$r5
   9016c:	48 00 00 04 	j 90174 <T.34+0x6c>
   90170:	40 54 00 00 	add $r5,$r8,$r0
   90174:	46 00 00 a3 	sethi $r0,#0xa3
   90178:	58 00 0a 58 	ori $r0,$r0,#0xa58
   9017c:	38 20 19 11 	lhs $r2,[$r0+($r6<<#0x1)]
   90180:	40 94 84 0a 	srai $r9,$r9,#1
   90184:	46 00 00 a3 	sethi $r0,#0xa3
   90188:	58 00 0a 78 	ori $r0,$r0,#0xa78
   9018c:	38 30 19 11 	lhs $r3,[$r0+($r6<<#0x1)]
   90190:	40 84 a0 01 	sub $r8,$r9,$r8
   90194:	89 05       	add45 $r8,$r5
   90196:	80 27       	mov55 $r1,$r7
   90198:	94 95       	slli333 $r2,$r2,#5
   9019a:	84 04       	movi55 $r0,#4
   9019c:	3e 7f cb 18 	addi.gp $r7,#-13544
   901a0:	b7 1f       	swi450 $r8,[$sp]
   901a2:	f7 81       	swi37.sp $r7,[+#0x4]
   901a4:	49 00 01 d2 	jal 90548 <update>
   901a8:	80 06       	mov55 $r0,$r6
   901aa:	ec 08       	addi10.sp #8
   901ac:	3a 6f a8 84 	lmw.bim $r6,[$sp],$r10,#0x2    ! {$r6~$r10, $lp}
   901b0:	dd 9e       	ret5 $lp
   901b2:	92 00       	nop16

000901b4 <adpcm_encode_proc>:
   901b4:	3a 6f aa bc 	smw.adm $r6,[$sp],$r10,#0xa    ! {$r6~$r10, $fp, $lp}
   901b8:	ef fc       	addi10.sp #-4
   901ba:	81 42       	mov55 $r10,$r2
   901bc:	83 81       	mov55 $fp,$r1
   901be:	4e 26 00 04 	bgtz $r2,901c6 <adpcm_encode_proc+0x12>
   901c2:	84 00       	movi55 $r0,#0
   901c4:	d5 1f       	j8 90202 <adpcm_encode_proc+0x4e>
   901c6:	80 e0       	mov55 $r7,$r0
   901c8:	44 60 00 00 	movi $r6,#0
   901cc:	22 93 80 01 	lhsi $r9,[$r7+#0x2]
   901d0:	2a 03 80 02 	lhsi.bi $r0,[$r7],#0x4
   901d4:	44 10 00 02 	movi $r1,#2
   901d8:	49 ff ff 98 	jal 90108 <T.34>
   901dc:	54 80 00 ff 	andi $r8,$r0,#0xff
   901e0:	84 22       	movi55 $r1,#2
   901e2:	80 09       	mov55 $r0,$r9
   901e4:	49 ff ff 92 	jal 90108 <T.34>
   901e8:	94 04       	slli333 $r0,$r0,#4
   901ea:	40 04 00 04 	or $r0,$r8,$r0
   901ee:	38 0e 18 08 	sb $r0,[$fp+($r6<<#0x0)]
   901f2:	9d b1       	addi333 $r6,$r6,#1
   901f4:	98 36       	add333 $r0,$r6,$r6
   901f6:	e0 0a       	slts45 $r0,$r10
   901f8:	e9 ea       	bnezs8 901cc <adpcm_encode_proc+0x18>
   901fa:	50 05 7f ff 	addi $r0,$r10,#-1
   901fe:	92 01       	srli45 $r0,#1
   90200:	9c 01       	addi333 $r0,$r0,#1
   90202:	ec 04       	addi10.sp #4
   90204:	3a 6f aa 84 	lmw.bim $r6,[$sp],$r10,#0xa    ! {$r6~$r10, $fp, $lp}
   90208:	dd 9e       	ret5 $lp
   9020a:	92 00       	nop16

0009020c <adpcm_encode_proc_halfrate>:
   9020c:	3a 6f aa bc 	smw.adm $r6,[$sp],$r10,#0xa    ! {$r6~$r10, $fp, $lp}
   90210:	ef ec       	addi10.sp #-20
   90212:	f2 83       	swi37.sp $r2,[+#0xc]
   90214:	4e 26 00 06 	bgtz $r2,90220 <adpcm_encode_proc_halfrate+0x14>
   90218:	44 00 00 00 	movi $r0,#0
   9021c:	48 00 00 95 	j 90346 <adpcm_encode_proc_halfrate+0x13a>
   90220:	81 20       	mov55 $r9,$r0
   90222:	84 00       	movi55 $r0,#0
   90224:	f1 81       	swi37.sp $r1,[+#0x4]
   90226:	b6 1f       	swi450 $r0,[$sp]
   90228:	3f cf c8 24 	addi.gp $fp,#-14300
   9022c:	46 a0 00 a3 	sethi $r10,#0xa3
   90230:	58 a5 0a 10 	ori $r10,$r10,#0xa10
   90234:	3c 77 ea 11 	lhsi.gp $r7,[+#-11230]
   90238:	22 14 80 01 	lhsi $r1,[$r9+#0x2]
   9023c:	22 24 80 00 	lhsi $r2,[$r9+#0x0]
   90240:	90 22       	srai45 $r1,#2
   90242:	50 43 80 28 	addi $r4,$r7,#40
   90246:	38 1e 11 09 	sh $r1,[$fp+($r4<<#0x1)]
   9024a:	90 42       	srai45 $r2,#2
   9024c:	38 1e 1d 09 	sh $r1,[$fp+($r7<<#0x1)]
   90250:	50 33 80 29 	addi $r3,$r7,#41
   90254:	9c 39       	addi333 $r0,$r7,#1
   90256:	99 bf       	add333 $r6,$r7,$r7
   90258:	3e 1f c8 24 	addi.gp $r1,#-14300
   9025c:	38 2e 0d 09 	sh $r2,[$fp+($r3<<#0x1)]
   90260:	99 b1       	add333 $r6,$r6,$r1
   90262:	84 60       	movi55 $r3,#0
   90264:	38 2e 01 09 	sh $r2,[$fp+($r0<<#0x1)]
   90268:	50 53 00 4e 	addi $r5,$r6,#78
   9026c:	50 41 80 00 	addi $r4,$r3,#0
   90270:	38 03 0c 11 	lhs $r0,[$r6+($r3<<#0x0)]
   90274:	2a 12 ff ff 	lhsi.bi $r1,[$r5],#-0x2
   90278:	38 25 0c 11 	lhs $r2,[$r10+($r3<<#0x0)]
   9027c:	98 08       	add333 $r0,$r1,$r0
   9027e:	9c da       	addi333 $r3,$r3,#2
   90280:	42 40 08 73 	maddr32 $r4,$r0,$r2
   90284:	5a 38 28 f6 	bnec $r3,#40,90270 <adpcm_encode_proc_halfrate+0x64>
   90288:	9e 3a       	subi333 $r0,$r7,#2
   9028a:	96 03       	seh33 $r0,$r0
   9028c:	3c 0b ea 11 	shi.gp $r0,[+#-11230]
   90290:	4e 04 00 06 	bgez $r0,9029c <adpcm_encode_proc_halfrate+0x90>
   90294:	44 20 00 26 	movi $r2,#38
   90298:	3c 2b ea 11 	shi.gp $r2,[+#-11230]
   9029c:	40 02 3c 0a 	srai $r0,$r4,#15
   902a0:	96 03       	seh33 $r0,$r0
   902a2:	84 20       	movi55 $r1,#0
   902a4:	49 ff ff 32 	jal 90108 <T.34>
   902a8:	22 44 80 02 	lhsi $r4,[$r9+#0x4]
   902ac:	3c 87 ea 11 	lhsi.gp $r8,[+#-11230]
   902b0:	22 34 80 03 	lhsi $r3,[$r9+#0x6]
   902b4:	90 82       	srai45 $r4,#2
   902b6:	90 62       	srai45 $r3,#2
   902b8:	50 64 00 29 	addi $r6,$r8,#41
   902bc:	50 54 00 01 	addi $r5,$r8,#1
   902c0:	14 0f 80 02 	swi $r0,[$sp+#0x8]
   902c4:	50 24 00 28 	addi $r2,$r8,#40
   902c8:	40 74 20 00 	add $r7,$r8,$r8
   902cc:	3e 0f c8 24 	addi.gp $r0,#-14300
   902d0:	38 3e 09 09 	sh $r3,[$fp+($r2<<#0x1)]
   902d4:	40 73 80 00 	add $r7,$r7,$r0
   902d8:	38 3e 21 09 	sh $r3,[$fp+($r8<<#0x1)]
   902dc:	38 4e 19 09 	sh $r4,[$fp+($r6<<#0x1)]
   902e0:	38 4e 15 09 	sh $r4,[$fp+($r5<<#0x1)]
   902e4:	84 80       	movi55 $r4,#0
   902e6:	50 63 80 4e 	addi $r6,$r7,#78
   902ea:	80 a4       	mov55 $r5,$r4
   902ec:	38 23 90 11 	lhs $r2,[$r7+($r4<<#0x0)]
   902f0:	2a 03 7f ff 	lhsi.bi $r0,[$r6],#-0x2
   902f4:	38 15 10 11 	lhs $r1,[$r10+($r4<<#0x0)]
   902f8:	98 02       	add333 $r0,$r0,$r2
   902fa:	9d 22       	addi333 $r4,$r4,#2
   902fc:	42 50 04 73 	maddr32 $r5,$r0,$r1
   90300:	5a 48 28 f6 	bnec $r4,#40,902ec <adpcm_encode_proc_halfrate+0xe0>
   90304:	50 24 7f fe 	addi $r2,$r8,#-2
   90308:	96 53       	seh33 $r1,$r2
   9030a:	3c 1b ea 11 	shi.gp $r1,[+#-11230]
   9030e:	4e 14 00 05 	bgez $r1,90318 <adpcm_encode_proc_halfrate+0x10c>
   90312:	fa 36       	movpi45 $r1,#0x26
   90314:	3c 1b ea 11 	shi.gp $r1,[+#-11230]
   90318:	90 af       	srai45 $r5,#15
   9031a:	84 20       	movi55 $r1,#0
   9031c:	96 2b       	seh33 $r0,$r5
   9031e:	49 ff fe f5 	jal 90108 <T.34>
   90322:	f2 02       	lwi37.sp $r2,[+#0x8]
   90324:	94 44       	slli333 $r1,$r0,#4
   90326:	b4 1f       	lwi450 $r0,[$sp]
   90328:	fe 57       	or33 $r1,$r2
   9032a:	f2 01       	lwi37.sp $r2,[+#0x4]
   9032c:	9c 04       	addi333 $r0,$r0,#4
   9032e:	b6 1f       	swi450 $r0,[$sp]
   90330:	18 11 00 01 	sbi.bi $r1,[$r2],#0x1
   90334:	8d 28       	addi45 $r9,#8
   90336:	f1 03       	lwi37.sp $r1,[+#0xc]
   90338:	f2 81       	swi37.sp $r2,[+#0x4]
   9033a:	e0 01       	slts45 $r0,$r1
   9033c:	4e f3 ff 7c 	bnez $r15,90234 <adpcm_encode_proc_halfrate+0x28>
   90340:	9e 09       	subi333 $r0,$r1,#1
   90342:	92 02       	srli45 $r0,#2
   90344:	9c 01       	addi333 $r0,$r0,#1
   90346:	ec 14       	addi10.sp #20
   90348:	3a 6f aa 84 	lmw.bim $r6,[$sp],$r10,#0xa    ! {$r6~$r10, $fp, $lp}
   9034c:	dd 9e       	ret5 $lp
   9034e:	92 00       	nop16

00090350 <g726_init_state>:
   90350:	44 30 88 00 	movi $r3,#34816
   90354:	84 20       	movi55 $r1,#0
   90356:	fa 50       	movpi45 $r2,#0x20
   90358:	b6 60       	swi450 $r3,[$r0]
   9035a:	44 30 02 20 	movi $r3,#544
   9035e:	14 10 00 14 	swi $r1,[$r0+#0x50]
   90362:	a8 c1       	swi333 $r3,[$r0+#0x4]
   90364:	12 20 00 23 	shi $r2,[$r0+#0x46]
   90368:	a8 42       	swi333 $r1,[$r0+#0x8]
   9036a:	a8 43       	swi333 $r1,[$r0+#0xc]
   9036c:	a8 44       	swi333 $r1,[$r0+#0x10]
   9036e:	a8 45       	swi333 $r1,[$r0+#0x14]
   90370:	14 10 00 0d 	swi $r1,[$r0+#0x34]
   90374:	14 20 00 12 	swi $r2,[$r0+#0x48]
   90378:	a8 46       	swi333 $r1,[$r0+#0x18]
   9037a:	14 10 00 0e 	swi $r1,[$r0+#0x38]
   9037e:	14 20 00 13 	swi $r2,[$r0+#0x4c]
   90382:	a8 47       	swi333 $r1,[$r0+#0x1c]
   90384:	12 20 00 1e 	shi $r2,[$r0+#0x3c]
   90388:	14 10 00 08 	swi $r1,[$r0+#0x20]
   9038c:	12 20 00 1f 	shi $r2,[$r0+#0x3e]
   90390:	14 10 00 09 	swi $r1,[$r0+#0x24]
   90394:	12 20 00 20 	shi $r2,[$r0+#0x40]
   90398:	14 10 00 0a 	swi $r1,[$r0+#0x28]
   9039c:	12 20 00 21 	shi $r2,[$r0+#0x42]
   903a0:	14 10 00 0b 	swi $r1,[$r0+#0x2c]
   903a4:	12 20 00 22 	shi $r2,[$r0+#0x44]
   903a8:	14 10 00 0c 	swi $r1,[$r0+#0x30]
   903ac:	dd 9e       	ret5 $lp
   903ae:	92 00       	nop16

000903b0 <step_size>:
   903b0:	a0 84       	lwi333 $r2,[$r0+#0x10]
   903b2:	5e f1 01 00 	sltsi $r15,$r2,#256
   903b6:	e9 03       	bnezs8 903bc <step_size+0xc>
   903b8:	a0 01       	lwi333 $r0,[$r0+#0x4]
   903ba:	d5 13       	j8 903e0 <step_size+0x30>
   903bc:	b4 60       	lwi450 $r3,[$r0]
   903be:	a0 41       	lwi333 $r1,[$r0+#0x4]
   903c0:	40 01 98 0a 	srai $r0,$r3,#6
   903c4:	9a 48       	sub333 $r1,$r1,$r0
   903c6:	90 42       	srai45 $r2,#2
   903c8:	4e 17 00 06 	blez $r1,903d4 <step_size+0x24>
   903cc:	fe 8c       	mul33 $r2,$r1
   903ce:	90 46       	srai45 $r2,#6
   903d0:	98 02       	add333 $r0,$r0,$r2
   903d2:	d5 07       	j8 903e0 <step_size+0x30>
   903d4:	c1 06       	beqz38 $r1,903e0 <step_size+0x30>
   903d6:	fe 54       	mul33 $r1,$r2
   903d8:	50 10 80 3f 	addi $r1,$r1,#63
   903dc:	90 26       	srai45 $r1,#6
   903de:	98 01       	add333 $r0,$r0,$r1
   903e0:	dd 9e       	ret5 $lp
   903e2:	92 00       	nop16

000903e4 <quantize>:
   903e4:	3a 6f 9c 3c 	smw.adm $r6,[$sp],$r7,#0x0    ! {$r6~$r7}
   903e8:	80 c0       	mov55 $r6,$r0
   903ea:	4e 04 00 03 	bgez $r0,903f0 <quantize+0xc>
   903ee:	fe 02       	neg33 $r0,$r0
   903f0:	3c 57 e1 26 	lhsi.gp $r5,[+#-15796]
   903f4:	40 40 04 0a 	srai $r4,$r0,#1
   903f8:	e0 85       	slts45 $r4,$r5
   903fa:	e8 05       	beqzs8 90404 <quantize+0x20>
   903fc:	44 50 00 00 	movi $r5,#0
   90400:	48 00 00 5c 	j 904b8 <quantize+0xd4>
   90404:	3c 57 e1 27 	lhsi.gp $r5,[+#-15794]
   90408:	e0 85       	slts45 $r4,$r5
   9040a:	e8 05       	beqzs8 90414 <quantize+0x30>
   9040c:	44 50 00 01 	movi $r5,#1
   90410:	48 00 00 54 	j 904b8 <quantize+0xd4>
   90414:	3c 57 e1 28 	lhsi.gp $r5,[+#-15792]
   90418:	e0 85       	slts45 $r4,$r5
   9041a:	e8 03       	beqzs8 90420 <quantize+0x3c>
   9041c:	84 a2       	movi55 $r5,#2
   9041e:	d5 4d       	j8 904b8 <quantize+0xd4>
   90420:	3c 57 e1 29 	lhsi.gp $r5,[+#-15790]
   90424:	e0 85       	slts45 $r4,$r5
   90426:	e8 03       	beqzs8 9042c <quantize+0x48>
   90428:	84 a3       	movi55 $r5,#3
   9042a:	d5 47       	j8 904b8 <quantize+0xd4>
   9042c:	3c 57 e1 2a 	lhsi.gp $r5,[+#-15788]
   90430:	e0 85       	slts45 $r4,$r5
   90432:	e8 03       	beqzs8 90438 <quantize+0x54>
   90434:	84 a4       	movi55 $r5,#4
   90436:	d5 41       	j8 904b8 <quantize+0xd4>
   90438:	3c 57 e1 2b 	lhsi.gp $r5,[+#-15786]
   9043c:	e0 85       	slts45 $r4,$r5
   9043e:	e8 03       	beqzs8 90444 <quantize+0x60>
   90440:	84 a5       	movi55 $r5,#5
   90442:	d5 3b       	j8 904b8 <quantize+0xd4>
   90444:	3c 57 e1 2c 	lhsi.gp $r5,[+#-15784]
   90448:	e0 85       	slts45 $r4,$r5
   9044a:	e8 03       	beqzs8 90450 <quantize+0x6c>
   9044c:	84 a6       	movi55 $r5,#6
   9044e:	d5 35       	j8 904b8 <quantize+0xd4>
   90450:	3c 57 e1 2d 	lhsi.gp $r5,[+#-15782]
   90454:	e0 85       	slts45 $r4,$r5
   90456:	e8 03       	beqzs8 9045c <quantize+0x78>
   90458:	84 a7       	movi55 $r5,#7
   9045a:	d5 2f       	j8 904b8 <quantize+0xd4>
   9045c:	3c 57 e1 2e 	lhsi.gp $r5,[+#-15780]
   90460:	e0 85       	slts45 $r4,$r5
   90462:	e8 03       	beqzs8 90468 <quantize+0x84>
   90464:	84 a8       	movi55 $r5,#8
   90466:	d5 29       	j8 904b8 <quantize+0xd4>
   90468:	3c 57 e1 2f 	lhsi.gp $r5,[+#-15778]
   9046c:	e0 85       	slts45 $r4,$r5
   9046e:	e8 03       	beqzs8 90474 <quantize+0x90>
   90470:	84 a9       	movi55 $r5,#9
   90472:	d5 23       	j8 904b8 <quantize+0xd4>
   90474:	3c 57 e1 30 	lhsi.gp $r5,[+#-15776]
   90478:	e0 85       	slts45 $r4,$r5
   9047a:	e8 03       	beqzs8 90480 <quantize+0x9c>
   9047c:	84 aa       	movi55 $r5,#10
   9047e:	d5 1d       	j8 904b8 <quantize+0xd4>
   90480:	3c 57 e1 31 	lhsi.gp $r5,[+#-15774]
   90484:	e0 85       	slts45 $r4,$r5
   90486:	e8 03       	beqzs8 9048c <quantize+0xa8>
   90488:	84 ab       	movi55 $r5,#11
   9048a:	d5 17       	j8 904b8 <quantize+0xd4>
   9048c:	3c 57 e1 32 	lhsi.gp $r5,[+#-15772]
   90490:	e0 85       	slts45 $r4,$r5
   90492:	e8 03       	beqzs8 90498 <quantize+0xb4>
   90494:	84 ac       	movi55 $r5,#12
   90496:	d5 11       	j8 904b8 <quantize+0xd4>
   90498:	3c 57 e1 33 	lhsi.gp $r5,[+#-15770]
   9049c:	e0 85       	slts45 $r4,$r5
   9049e:	e8 03       	beqzs8 904a4 <quantize+0xc0>
   904a0:	84 ad       	movi55 $r5,#13
   904a2:	d5 0b       	j8 904b8 <quantize+0xd4>
   904a4:	3c 77 e1 34 	lhsi.gp $r7,[+#-15768]
   904a8:	44 50 00 0e 	movi $r5,#14
   904ac:	40 72 1c 07 	slts $r7,$r4,$r7
   904b0:	44 40 00 0f 	movi $r4,#15
   904b4:	40 52 1c 1a 	cmovz $r5,$r4,$r7
   904b8:	4e 37 00 1b 	blez $r3,904ee <quantize+0x10a>
   904bc:	95 07       	slli333 $r4,$r0,#7
   904be:	40 42 14 0e 	sra $r4,$r4,$r5
   904c2:	90 22       	srai45 $r1,#2
   904c4:	95 6f       	slli333 $r5,$r5,#7
   904c6:	9a 69       	sub333 $r1,$r5,$r1
   904c8:	54 42 00 7f 	andi $r4,$r4,#0x7f
   904cc:	22 01 00 00 	lhsi $r0,[$r2+#0x0]
   904d0:	99 0c       	add333 $r4,$r1,$r4
   904d2:	e0 80       	slts45 $r4,$r0
   904d4:	e9 0d       	bnezs8 904ee <quantize+0x10a>
   904d6:	9c 92       	addi333 $r2,$r2,#2
   904d8:	84 00       	movi55 $r0,#0
   904da:	d5 06       	j8 904e6 <quantize+0x102>
   904dc:	22 11 00 00 	lhsi $r1,[$r2+#0x0]
   904e0:	9c 92       	addi333 $r2,$r2,#2
   904e2:	e0 81       	slts45 $r4,$r1
   904e4:	e9 06       	bnezs8 904f0 <quantize+0x10c>
   904e6:	9c 01       	addi333 $r0,$r0,#1
   904e8:	e0 03       	slts45 $r0,$r3
   904ea:	e9 f9       	bnezs8 904dc <quantize+0xf8>
   904ec:	d5 02       	j8 904f0 <quantize+0x10c>
   904ee:	84 00       	movi55 $r0,#0
   904f0:	4e 64 00 06 	bgez $r6,904fc <quantize+0x118>
   904f4:	98 db       	add333 $r3,$r3,$r3
   904f6:	9c 59       	addi333 $r1,$r3,#1
   904f8:	9a 08       	sub333 $r0,$r1,$r0
   904fa:	d5 05       	j8 90504 <quantize+0x120>
   904fc:	c8 04       	bnez38 $r0,90504 <quantize+0x120>
   904fe:	98 db       	add333 $r3,$r3,$r3
   90500:	50 01 80 01 	addi $r0,$r3,#1
   90504:	3a 6f 9c 04 	lmw.bim $r6,[$sp],$r7,#0x0    ! {$r6~$r7}
   90508:	dd 9e       	ret5 $lp
   9050a:	92 00       	nop16

0009050c <reconstruct>:
   9050c:	90 42       	srai45 $r2,#2
   9050e:	98 51       	add333 $r1,$r2,$r1
   90510:	50 20 00 00 	addi $r2,$r0,#0
   90514:	4e 14 00 08 	bgez $r1,90524 <reconstruct+0x18>
   90518:	44 0f 80 00 	movi $r0,#-32768
   9051c:	40 01 08 1a 	cmovz $r0,$r2,$r2
   90520:	48 00 00 13 	j 90546 <reconstruct+0x3a>
   90524:	40 00 9c 0a 	srai $r0,$r1,#7
   90528:	54 10 80 7f 	andi $r1,$r1,#0x7f
   9052c:	50 10 80 80 	addi $r1,$r1,#128
   90530:	96 1f       	fexti33 $r0,#0x3
   90532:	94 4f       	slli333 $r1,$r1,#7
   90534:	52 00 00 0e 	subri $r0,$r0,#14
   90538:	40 00 80 0e 	sra $r0,$r1,$r0
   9053c:	96 03       	seh33 $r0,$r0
   9053e:	c2 04       	beqz38 $r2,90546 <reconstruct+0x3a>
   90540:	44 1f 80 00 	movi $r1,#-32768
   90544:	98 01       	add333 $r0,$r0,$r1
   90546:	dd 9e       	ret5 $lp

00090548 <update>:
   90548:	3a 6f aa bc 	smw.adm $r6,[$sp],$r10,#0xa    ! {$r6~$r10, $fp, $lp}
   9054c:	51 ff ff dc 	addi $sp,$sp,#-36
   90550:	05 cf 80 11 	lwi $fp,[$sp+#0x44]
   90554:	04 9f 80 10 	lwi $r9,[$sp+#0x40]
   90558:	b4 dc       	lwi450 $r6,[$fp]
   9055a:	f1 81       	swi37.sp $r1,[+#0x4]
   9055c:	40 73 3c 0a 	srai $r7,$r6,#15
   90560:	40 14 fc 09 	srli $r1,$r9,#31
   90564:	f3 84       	swi37.sp $r3,[+#0x10]
   90566:	f1 82       	swi37.sp $r1,[+#0x8]
   90568:	54 32 7f ff 	andi $r3,$r4,#0x7fff
   9056c:	e4 ea       	sltsi45 $r7,#10
   9056e:	e9 05       	bnezs8 90578 <update+0x30>
   90570:	44 80 5d 00 	movi $r8,#23808
   90574:	48 00 00 10 	j 90594 <update+0x4c>
   90578:	40 83 28 0a 	srai $r8,$r6,#10
   9057c:	54 84 00 1f 	andi $r8,$r8,#0x1f
   90580:	50 84 00 20 	addi $r8,$r8,#32
   90584:	40 74 1c 0c 	sll $r7,$r8,$r7
   90588:	40 83 84 0a 	srai $r8,$r7,#1
   9058c:	40 74 1c 00 	add $r7,$r8,$r7
   90590:	40 83 84 0a 	srai $r8,$r7,#1
   90594:	bf 14       	lwi37 $r7,[$fp+#0x50]
   90596:	cf 03       	bnez38 $r7,9059c <update+0x54>
   90598:	f7 83       	swi37.sp $r7,[+#0xc]
   9059a:	d5 05       	j8 905a4 <update+0x5c>
   9059c:	40 84 0c 07 	slts $r8,$r8,$r3
   905a0:	14 8f 80 03 	swi $r8,[$sp+#0xc]
   905a4:	05 ef 80 01 	lwi $lp,[$sp+#0x4]
   905a8:	8a 5e       	sub45 $r2,$lp
   905aa:	90 45       	srai45 $r2,#5
   905ac:	88 5e       	add45 $r2,$lp
   905ae:	ba 81       	swi37 $r2,[$fp+#0x4]
   905b0:	5e f1 02 20 	sltsi $r15,$r2,#544
   905b4:	e8 06       	beqzs8 905c0 <update+0x78>
   905b6:	44 20 02 20 	movi $r2,#544
   905ba:	14 2e 00 01 	swi $r2,[$fp+#0x4]
   905be:	d5 07       	j8 905cc <update+0x84>
   905c0:	5e f1 14 01 	sltsi $r15,$r2,#5121
   905c4:	e9 04       	bnezs8 905cc <update+0x84>
   905c6:	44 20 14 00 	movi $r2,#5120
   905ca:	ba 81       	swi37 $r2,[$fp+#0x4]
   905cc:	52 83 00 00 	subri $r8,$r6,#0
   905d0:	91 06       	srai45 $r8,#6
   905d2:	88 c8       	add45 $r6,$r8
   905d4:	f1 03       	lwi37.sp $r1,[+#0xc]
   905d6:	98 b2       	add333 $r2,$r6,$r2
   905d8:	14 2e 00 00 	swi $r2,[$fp+#0x0]
   905dc:	5a 18 01 24 	bnec $r1,#1,90624 <update+0xdc>
   905e0:	02 2e 00 22 	lhi $r2,[$fp+#0x44]
   905e4:	02 6e 00 21 	lhi $r6,[$fp+#0x42]
   905e8:	02 9e 00 20 	lhi $r9,[$fp+#0x40]
   905ec:	03 ee 00 1f 	lhi $lp,[$fp+#0x3e]
   905f0:	02 1e 00 1e 	lhi $r1,[$fp+#0x3c]
   905f4:	44 00 00 00 	movi $r0,#0
   905f8:	12 2e 00 23 	shi $r2,[$fp+#0x46]
   905fc:	b8 85       	swi37 $r0,[$fp+#0x14]
   905fe:	12 6e 00 22 	shi $r6,[$fp+#0x44]
   90602:	b8 86       	swi37 $r0,[$fp+#0x18]
   90604:	12 9e 00 21 	shi $r9,[$fp+#0x42]
   90608:	b8 87       	swi37 $r0,[$fp+#0x1c]
   9060a:	13 ee 00 20 	shi $lp,[$fp+#0x40]
   9060e:	b8 88       	swi37 $r0,[$fp+#0x20]
   90610:	b8 89       	swi37 $r0,[$fp+#0x24]
   90612:	b8 8a       	swi37 $r0,[$fp+#0x28]
   90614:	b8 8b       	swi37 $r0,[$fp+#0x2c]
   90616:	b8 8c       	swi37 $r0,[$fp+#0x30]
   90618:	12 1e 00 1f 	shi $r1,[$fp+#0x3e]
   9061c:	4e 32 02 05 	beqz $r3,90a26 <update+0x4de>
   90620:	48 00 02 11 	j 90a42 <update+0x4fa>
   90624:	04 8e 00 06 	lwi $r8,[$fp+#0x18]
   90628:	ba 0d       	lwi37 $r2,[$fp+#0x34]
   9062a:	40 64 1c 0a 	srai $r6,$r8,#7
   9062e:	f2 85       	swi37.sp $r2,[+#0x14]
   90630:	40 84 18 01 	sub $r8,$r8,$r6
   90634:	4e 92 00 44 	beqz $r9,906bc <update+0x174>
   90638:	04 6f 80 02 	lwi $r6,[$sp+#0x8]
   9063c:	40 73 08 03 	xor $r7,$r6,$r2
   90640:	4c 61 00 05 	beq $r6,$r2,9064a <update+0x102>
   90644:	ba 05       	lwi37 $r2,[$fp+#0x14]
   90646:	83 c2       	mov55 $lp,$r2
   90648:	d5 04       	j8 90650 <update+0x108>
   9064a:	ba 05       	lwi37 $r2,[$fp+#0x14]
   9064c:	53 e1 00 00 	subri $lp,$r2,#0
   90650:	5e ff 60 01 	sltsi $r15,$lp,#-8191
   90654:	e8 04       	beqzs8 9065c <update+0x114>
   90656:	50 64 7f 00 	addi $r6,$r8,#-256
   9065a:	d5 0b       	j8 90670 <update+0x128>
   9065c:	5e ff 20 00 	sltsi $r15,$lp,#8192
   90660:	e9 04       	bnezs8 90668 <update+0x120>
   90662:	50 64 00 ff 	addi $r6,$r8,#255
   90666:	d5 05       	j8 90670 <update+0x128>
   90668:	41 ef 14 0a 	srai $lp,$lp,#5
   9066c:	40 6f 20 00 	add $r6,$lp,$r8
   90670:	05 ee 00 0e 	lwi $lp,[$fp+#0x38]
   90674:	04 9f 80 02 	lwi $r9,[$sp+#0x8]
   90678:	4d e4 80 12 	beq $lp,$r9,9069c <update+0x154>
   9067c:	5e f3 50 81 	sltsi $r15,$r6,#-12159
   90680:	4e f3 03 8e 	bnez $r15,90d9c <update+0x854>
   90684:	5e f3 30 80 	sltsi $r15,$r6,#12416
   90688:	4e f2 03 92 	beqz $r15,90dac <update+0x864>
   9068c:	50 83 7f 80 	addi $r8,$r6,#-128
   90690:	53 e4 3c 00 	subri $lp,$r8,#15360
   90694:	52 9f 00 00 	subri $r9,$lp,#0
   90698:	48 00 03 90 	j 90db8 <update+0x870>
   9069c:	5e f3 4f 81 	sltsi $r15,$r6,#-12415
   906a0:	4e f3 03 7e 	bnez $r15,90d9c <update+0x854>
   906a4:	5e f3 2f 80 	sltsi $r15,$r6,#12160
   906a8:	4e f2 03 82 	beqz $r15,90dac <update+0x864>
   906ac:	50 83 00 80 	addi $r8,$r6,#128
   906b0:	53 e4 3c 00 	subri $lp,$r8,#15360
   906b4:	52 9f 00 00 	subri $r9,$lp,#0
   906b8:	48 00 03 80 	j 90db8 <update+0x870>
   906bc:	04 9e 00 05 	lwi $r9,[$fp+#0x14]
   906c0:	53 e4 3c 00 	subri $lp,$r8,#15360
   906c4:	40 a4 a0 0a 	srai $r10,$r9,#8
   906c8:	40 a4 a8 01 	sub $r10,$r9,$r10
   906cc:	14 8e 00 06 	swi $r8,[$fp+#0x18]
   906d0:	14 ae 00 05 	swi $r10,[$fp+#0x14]
   906d4:	52 9f 00 00 	subri $r9,$lp,#0
   906d8:	48 00 00 0c 	j 906f0 <update+0x1a8>
   906dc:	50 a5 00 c0 	addi $r10,$r10,#192
   906e0:	14 ae 00 05 	swi $r10,[$fp+#0x14]
   906e4:	48 00 00 06 	j 906f0 <update+0x1a8>
   906e8:	50 a5 7f 40 	addi $r10,$r10,#-192
   906ec:	14 ae 00 05 	swi $r10,[$fp+#0x14]
   906f0:	40 f5 24 07 	slts $r15,$r10,$r9
   906f4:	4e f2 01 86 	beqz $r15,90a00 <update+0x4b8>
   906f8:	14 9e 00 05 	swi $r9,[$fp+#0x14]
   906fc:	5a 00 05 04 	beqc $r0,#5,90704 <update+0x1bc>
   90700:	48 00 00 b0 	j 90860 <update+0x318>
   90704:	4e 32 00 7a 	beqz $r3,907f8 <update+0x2b0>
   90708:	04 ae 00 07 	lwi $r10,[$fp+#0x1c]
   9070c:	03 ee 00 1e 	lhi $lp,[$fp+#0x3c]
   90710:	40 05 24 0a 	srai $r0,$r10,#9
   90714:	40 9f 00 11 	seh $r9,$lp
   90718:	8b 40       	sub45 $r10,$r0
   9071a:	40 94 90 03 	xor $r9,$r9,$r4
   9071e:	13 ef 80 0d 	shi $lp,[$sp+#0x1a]
   90722:	14 ae 00 07 	swi $r10,[$fp+#0x1c]
   90726:	4e 94 00 07 	bgez $r9,90734 <update+0x1ec>
   9072a:	50 a5 7f 80 	addi $r10,$r10,#-128
   9072e:	14 ae 00 07 	swi $r10,[$fp+#0x1c]
   90732:	d5 05       	j8 9073c <update+0x1f4>
   90734:	50 a5 00 80 	addi $r10,$r10,#128
   90738:	14 ae 00 07 	swi $r10,[$fp+#0x1c]
   9073c:	02 0e 00 1f 	lhi $r0,[$fp+#0x3e]
   90740:	ba 08       	lwi37 $r2,[$fp+#0x20]
   90742:	12 0f 80 0e 	shi $r0,[$sp+#0x1c]
   90746:	40 01 24 0a 	srai $r0,$r2,#9
   9074a:	22 6f 80 0e 	lhsi $r6,[$sp+#0x1c]
   9074e:	9a 10       	sub333 $r0,$r2,$r0
   90750:	80 26       	mov55 $r1,$r6
   90752:	fe 65       	xor33 $r1,$r4
   90754:	b8 88       	swi37 $r0,[$fp+#0x20]
   90756:	4e 14 00 07 	bgez $r1,90764 <update+0x21c>
   9075a:	50 00 7f 80 	addi $r0,$r0,#-128
   9075e:	b8 88       	swi37 $r0,[$fp+#0x20]
   90760:	48 00 00 05 	j 9076a <update+0x222>
   90764:	50 00 00 80 	addi $r0,$r0,#128
   90768:	b8 88       	swi37 $r0,[$fp+#0x20]
   9076a:	ba 09       	lwi37 $r2,[$fp+#0x24]
   9076c:	02 9e 00 20 	lhi $r9,[$fp+#0x40]
   90770:	40 11 24 0a 	srai $r1,$r2,#9
   90774:	40 04 80 11 	seh $r0,$r9
   90778:	9a 51       	sub333 $r1,$r2,$r1
   9077a:	fe 25       	xor33 $r0,$r4
   9077c:	12 9f 80 0f 	shi $r9,[$sp+#0x1e]
   90780:	b9 89       	swi37 $r1,[$fp+#0x24]
   90782:	4e 04 00 07 	bgez $r0,90790 <update+0x248>
   90786:	50 10 ff 80 	addi $r1,$r1,#-128
   9078a:	b9 89       	swi37 $r1,[$fp+#0x24]
   9078c:	48 00 00 05 	j 90796 <update+0x24e>
   90790:	50 10 80 80 	addi $r1,$r1,#128
   90794:	b9 89       	swi37 $r1,[$fp+#0x24]
   90796:	ba 0a       	lwi37 $r2,[$fp+#0x28]
   90798:	02 7e 00 21 	lhi $r7,[$fp+#0x42]
   9079c:	40 11 24 0a 	srai $r1,$r2,#9
   907a0:	96 3b       	seh33 $r0,$r7
   907a2:	9a 51       	sub333 $r1,$r2,$r1
   907a4:	fe 25       	xor33 $r0,$r4
   907a6:	b9 8a       	swi37 $r1,[$fp+#0x28]
   907a8:	4e 04 00 06 	bgez $r0,907b4 <update+0x26c>
   907ac:	50 10 ff 80 	addi $r1,$r1,#-128
   907b0:	b9 8a       	swi37 $r1,[$fp+#0x28]
   907b2:	d5 04       	j8 907ba <update+0x272>
   907b4:	50 10 80 80 	addi $r1,$r1,#128
   907b8:	b9 8a       	swi37 $r1,[$fp+#0x28]
   907ba:	be 0b       	lwi37 $r6,[$fp+#0x2c]
   907bc:	02 2e 00 22 	lhi $r2,[$fp+#0x44]
   907c0:	40 13 24 0a 	srai $r1,$r6,#9
   907c4:	96 13       	seh33 $r0,$r2
   907c6:	9a 71       	sub333 $r1,$r6,$r1
   907c8:	fe 25       	xor33 $r0,$r4
   907ca:	b9 8b       	swi37 $r1,[$fp+#0x2c]
   907cc:	4e 04 00 06 	bgez $r0,907d8 <update+0x290>
   907d0:	50 10 ff 80 	addi $r1,$r1,#-128
   907d4:	b9 8b       	swi37 $r1,[$fp+#0x2c]
   907d6:	d5 04       	j8 907de <update+0x296>
   907d8:	50 10 80 80 	addi $r1,$r1,#128
   907dc:	b9 8b       	swi37 $r1,[$fp+#0x2c]
   907de:	be 0c       	lwi37 $r6,[$fp+#0x30]
   907e0:	22 1e 00 23 	lhsi $r1,[$fp+#0x46]
   907e4:	40 03 24 0a 	srai $r0,$r6,#9
   907e8:	9a 30       	sub333 $r0,$r6,$r0
   907ea:	fe 65       	xor33 $r1,$r4
   907ec:	14 0e 00 0c 	swi $r0,[$fp+#0x30]
   907f0:	4e 14 01 10 	bgez $r1,90a10 <update+0x4c8>
   907f4:	48 00 01 14 	j 90a1c <update+0x4d4>
   907f8:	05 ee 00 09 	lwi $lp,[$fp+#0x24]
   907fc:	04 9e 00 07 	lwi $r9,[$fp+#0x1c]
   90800:	40 3f 24 0a 	srai $r3,$lp,#9
   90804:	05 ee 00 0b 	lwi $lp,[$fp+#0x2c]
   90808:	04 0e 00 0a 	lwi $r0,[$fp+#0x28]
   9080c:	40 1f 24 0a 	srai $r1,$lp,#9
   90810:	05 ee 00 0c 	lwi $lp,[$fp+#0x30]
   90814:	40 74 a4 0a 	srai $r7,$r9,#9
   90818:	40 20 24 0a 	srai $r2,$r0,#9
   9081c:	40 74 9c 01 	sub $r7,$r9,$r7
   90820:	40 0f 24 0a 	srai $r0,$lp,#9
   90824:	04 9e 00 09 	lwi $r9,[$fp+#0x24]
   90828:	05 ee 00 0a 	lwi $lp,[$fp+#0x28]
   9082c:	04 ae 00 08 	lwi $r10,[$fp+#0x20]
   90830:	40 34 8c 01 	sub $r3,$r9,$r3
   90834:	40 2f 08 01 	sub $r2,$lp,$r2
   90838:	04 9e 00 0b 	lwi $r9,[$fp+#0x2c]
   9083c:	05 ee 00 0c 	lwi $lp,[$fp+#0x30]
   90840:	40 65 24 0a 	srai $r6,$r10,#9
   90844:	40 65 18 01 	sub $r6,$r10,$r6
   90848:	40 14 84 01 	sub $r1,$r9,$r1
   9084c:	40 0f 00 01 	sub $r0,$lp,$r0
   90850:	bf 87       	swi37 $r7,[$fp+#0x1c]
   90852:	be 88       	swi37 $r6,[$fp+#0x20]
   90854:	bb 89       	swi37 $r3,[$fp+#0x24]
   90856:	ba 8a       	swi37 $r2,[$fp+#0x28]
   90858:	b9 8b       	swi37 $r1,[$fp+#0x2c]
   9085a:	b8 8c       	swi37 $r0,[$fp+#0x30]
   9085c:	48 00 02 cc 	j 90df4 <update+0x8ac>
   90860:	cb 2e       	bnez38 $r3,908bc <update+0x374>
   90862:	b9 09       	lwi37 $r1,[$fp+#0x24]
   90864:	04 9e 00 0a 	lwi $r9,[$fp+#0x28]
   90868:	40 20 a0 0a 	srai $r2,$r1,#8
   9086c:	b9 0b       	lwi37 $r1,[$fp+#0x2c]
   9086e:	41 e4 a0 0a 	srai $lp,$r9,#8
   90872:	40 a0 a0 0a 	srai $r10,$r1,#8
   90876:	b9 0c       	lwi37 $r1,[$fp+#0x30]
   90878:	04 7e 00 07 	lwi $r7,[$fp+#0x1c]
   9087c:	40 90 a0 0a 	srai $r9,$r1,#8
   90880:	b9 09       	lwi37 $r1,[$fp+#0x24]
   90882:	bb 08       	lwi37 $r3,[$fp+#0x20]
   90884:	9a 8a       	sub333 $r2,$r1,$r2
   90886:	b9 0a       	lwi37 $r1,[$fp+#0x28]
   90888:	40 03 a0 0a 	srai $r0,$r7,#8
   9088c:	41 e0 f8 01 	sub $lp,$r1,$lp
   90890:	b9 0b       	lwi37 $r1,[$fp+#0x2c]
   90892:	40 61 a0 0a 	srai $r6,$r3,#8
   90896:	40 a0 a8 01 	sub $r10,$r1,$r10
   9089a:	b9 0c       	lwi37 $r1,[$fp+#0x30]
   9089c:	9a 38       	sub333 $r0,$r7,$r0
   9089e:	9b 9e       	sub333 $r6,$r3,$r6
   908a0:	40 90 a4 01 	sub $r9,$r1,$r9
   908a4:	b8 87       	swi37 $r0,[$fp+#0x1c]
   908a6:	be 88       	swi37 $r6,[$fp+#0x20]
   908a8:	14 2e 00 09 	swi $r2,[$fp+#0x24]
   908ac:	15 ee 00 0a 	swi $lp,[$fp+#0x28]
   908b0:	14 ae 00 0b 	swi $r10,[$fp+#0x2c]
   908b4:	14 9e 00 0c 	swi $r9,[$fp+#0x30]
   908b8:	48 00 02 9e 	j 90df4 <update+0x8ac>
   908bc:	05 ee 00 07 	lwi $lp,[$fp+#0x1c]
   908c0:	02 2e 00 1e 	lhi $r2,[$fp+#0x3c]
   908c4:	40 9f 20 0a 	srai $r9,$lp,#8
   908c8:	40 a1 00 11 	seh $r10,$r2
   908cc:	40 9f 24 01 	sub $r9,$lp,$r9
   908d0:	40 a5 10 03 	xor $r10,$r10,$r4
   908d4:	12 2f 80 0d 	shi $r2,[$sp+#0x1a]
   908d8:	14 9e 00 07 	swi $r9,[$fp+#0x1c]
   908dc:	4e a4 00 08 	bgez $r10,908ec <update+0x3a4>
   908e0:	50 94 ff 80 	addi $r9,$r9,#-128
   908e4:	14 9e 00 07 	swi $r9,[$fp+#0x1c]
   908e8:	48 00 00 06 	j 908f4 <update+0x3ac>
   908ec:	50 a4 80 80 	addi $r10,$r9,#128
   908f0:	14 ae 00 07 	swi $r10,[$fp+#0x1c]
   908f4:	04 9e 00 08 	lwi $r9,[$fp+#0x20]
   908f8:	02 6e 00 1f 	lhi $r6,[$fp+#0x3e]
   908fc:	40 a4 a0 0a 	srai $r10,$r9,#8
   90900:	41 e3 00 11 	seh $lp,$r6
   90904:	40 a4 a8 01 	sub $r10,$r9,$r10
   90908:	41 ef 10 03 	xor $lp,$lp,$r4
   9090c:	12 6f 80 0e 	shi $r6,[$sp+#0x1c]
   90910:	14 ae 00 08 	swi $r10,[$fp+#0x20]
   90914:	4f e4 00 08 	bgez $lp,90924 <update+0x3dc>
   90918:	50 a5 7f 80 	addi $r10,$r10,#-128
   9091c:	14 ae 00 08 	swi $r10,[$fp+#0x20]
   90920:	48 00 00 06 	j 9092c <update+0x3e4>
   90924:	50 a5 00 80 	addi $r10,$r10,#128
   90928:	14 ae 00 08 	swi $r10,[$fp+#0x20]
   9092c:	03 ee 00 20 	lhi $lp,[$fp+#0x40]
   90930:	04 9e 00 09 	lwi $r9,[$fp+#0x24]
   90934:	13 ef 80 0f 	shi $lp,[$sp+#0x1e]
   90938:	41 e4 a0 0a 	srai $lp,$r9,#8
   9093c:	22 0f 80 0f 	lhsi $r0,[$sp+#0x1e]
   90940:	41 e4 f8 01 	sub $lp,$r9,$lp
   90944:	81 40       	mov55 $r10,$r0
   90946:	40 a5 10 03 	xor $r10,$r10,$r4
   9094a:	15 ee 00 09 	swi $lp,[$fp+#0x24]
   9094e:	4e a4 00 07 	bgez $r10,9095c <update+0x414>
   90952:	51 ef 7f 80 	addi $lp,$lp,#-128
   90956:	15 ee 00 09 	swi $lp,[$fp+#0x24]
   9095a:	d5 05       	j8 90964 <update+0x41c>
   9095c:	50 9f 00 80 	addi $r9,$lp,#128
   90960:	14 9e 00 09 	swi $r9,[$fp+#0x24]
   90964:	04 9e 00 0a 	lwi $r9,[$fp+#0x28]
   90968:	02 7e 00 21 	lhi $r7,[$fp+#0x42]
   9096c:	41 e4 a0 0a 	srai $lp,$r9,#8
   90970:	40 a3 80 11 	seh $r10,$r7
   90974:	41 e4 f8 01 	sub $lp,$r9,$lp
   90978:	40 a5 10 03 	xor $r10,$r10,$r4
   9097c:	15 ee 00 0a 	swi $lp,[$fp+#0x28]
   90980:	4e a4 00 08 	bgez $r10,90990 <update+0x448>
   90984:	51 ef 7f 80 	addi $lp,$lp,#-128
   90988:	15 ee 00 0a 	swi $lp,[$fp+#0x28]
   9098c:	48 00 00 06 	j 90998 <update+0x450>
   90990:	50 9f 00 80 	addi $r9,$lp,#128
   90994:	14 9e 00 0a 	swi $r9,[$fp+#0x28]
   90998:	04 9e 00 0b 	lwi $r9,[$fp+#0x2c]
   9099c:	02 2e 00 22 	lhi $r2,[$fp+#0x44]
   909a0:	41 e4 a0 0a 	srai $lp,$r9,#8
   909a4:	40 a1 00 11 	seh $r10,$r2
   909a8:	41 e4 f8 01 	sub $lp,$r9,$lp
   909ac:	40 a5 10 03 	xor $r10,$r10,$r4
   909b0:	15 ee 00 0b 	swi $lp,[$fp+#0x2c]
   909b4:	4e a4 00 08 	bgez $r10,909c4 <update+0x47c>
   909b8:	51 ef 7f 80 	addi $lp,$lp,#-128
   909bc:	15 ee 00 0b 	swi $lp,[$fp+#0x2c]
   909c0:	48 00 00 06 	j 909cc <update+0x484>
   909c4:	50 9f 00 80 	addi $r9,$lp,#128
   909c8:	14 9e 00 0b 	swi $r9,[$fp+#0x2c]
   909cc:	04 9e 00 0c 	lwi $r9,[$fp+#0x30]
   909d0:	23 ee 00 23 	lhsi $lp,[$fp+#0x46]
   909d4:	40 a4 a0 0a 	srai $r10,$r9,#8
   909d8:	40 a4 a8 01 	sub $r10,$r9,$r10
   909dc:	41 ef 10 03 	xor $lp,$lp,$r4
   909e0:	14 ae 00 0c 	swi $r10,[$fp+#0x30]
   909e4:	4f e5 00 08 	bltz $lp,909f4 <update+0x4ac>
   909e8:	50 95 00 80 	addi $r9,$r10,#128
   909ec:	14 9e 00 0c 	swi $r9,[$fp+#0x30]
   909f0:	48 00 02 18 	j 90e20 <update+0x8d8>
   909f4:	50 a5 7f 80 	addi $r10,$r10,#-128
   909f8:	14 ae 00 0c 	swi $r10,[$fp+#0x30]
   909fc:	48 00 02 12 	j 90e20 <update+0x8d8>
   90a00:	40 ff 28 07 	slts $r15,$lp,$r10
   90a04:	4e f2 fe 7c 	beqz $r15,906fc <update+0x1b4>
   90a08:	15 ee 00 05 	swi $lp,[$fp+#0x14]
   90a0c:	48 ff fe 78 	j 906fc <update+0x1b4>
   90a10:	50 00 00 80 	addi $r0,$r0,#128
   90a14:	14 0e 00 0c 	swi $r0,[$fp+#0x30]
   90a18:	48 00 02 04 	j 90e20 <update+0x8d8>
   90a1c:	50 00 7f 80 	addi $r0,$r0,#-128
   90a20:	b8 8c       	swi37 $r0,[$fp+#0x30]
   90a22:	48 00 01 ff 	j 90e20 <update+0x8d8>
   90a26:	b9 0d       	lwi37 $r1,[$fp+#0x34]
   90a28:	81 03       	mov55 $r8,$r3
   90a2a:	f1 85       	swi37.sp $r1,[+#0x14]
   90a2c:	5e 42 00 00 	sltsi $r4,$r4,#0
   90a30:	fa 50       	movpi45 $r2,#0x20
   90a32:	44 9f fc 20 	movi $r9,#-992
   90a36:	40 24 90 1b 	cmovn $r2,$r9,$r4
   90a3a:	12 2e 00 1e 	shi $r2,[$fp+#0x3c]
   90a3e:	48 00 00 7d 	j 90b38 <update+0x5f0>
   90a42:	ba 0d       	lwi37 $r2,[$fp+#0x34]
   90a44:	81 00       	mov55 $r8,$r0
   90a46:	f2 85       	swi37.sp $r2,[+#0x14]
   90a48:	3c 97 e1 26 	lhsi.gp $r9,[+#-15796]
   90a4c:	e0 69       	slts45 $r3,$r9
   90a4e:	e8 05       	beqzs8 90a58 <update+0x510>
   90a50:	44 20 00 00 	movi $r2,#0
   90a54:	48 00 00 5c 	j 90b0c <update+0x5c4>
   90a58:	3c 97 e1 27 	lhsi.gp $r9,[+#-15794]
   90a5c:	e0 69       	slts45 $r3,$r9
   90a5e:	e8 05       	beqzs8 90a68 <update+0x520>
   90a60:	44 20 00 01 	movi $r2,#1
   90a64:	48 00 00 54 	j 90b0c <update+0x5c4>
   90a68:	3c 97 e1 28 	lhsi.gp $r9,[+#-15792]
   90a6c:	e0 69       	slts45 $r3,$r9
   90a6e:	e8 03       	beqzs8 90a74 <update+0x52c>
   90a70:	84 42       	movi55 $r2,#2
   90a72:	d5 4d       	j8 90b0c <update+0x5c4>
   90a74:	3c 97 e1 29 	lhsi.gp $r9,[+#-15790]
   90a78:	e0 69       	slts45 $r3,$r9
   90a7a:	e8 03       	beqzs8 90a80 <update+0x538>
   90a7c:	84 43       	movi55 $r2,#3
   90a7e:	d5 47       	j8 90b0c <update+0x5c4>
   90a80:	3c 97 e1 2a 	lhsi.gp $r9,[+#-15788]
   90a84:	e0 69       	slts45 $r3,$r9
   90a86:	e8 03       	beqzs8 90a8c <update+0x544>
   90a88:	84 44       	movi55 $r2,#4
   90a8a:	d5 41       	j8 90b0c <update+0x5c4>
   90a8c:	3c 97 e1 2b 	lhsi.gp $r9,[+#-15786]
   90a90:	e0 69       	slts45 $r3,$r9
   90a92:	e8 03       	beqzs8 90a98 <update+0x550>
   90a94:	84 45       	movi55 $r2,#5
   90a96:	d5 3b       	j8 90b0c <update+0x5c4>
   90a98:	3c 97 e1 2c 	lhsi.gp $r9,[+#-15784]
   90a9c:	e0 69       	slts45 $r3,$r9
   90a9e:	e8 03       	beqzs8 90aa4 <update+0x55c>
   90aa0:	84 46       	movi55 $r2,#6
   90aa2:	d5 35       	j8 90b0c <update+0x5c4>
   90aa4:	3c 97 e1 2d 	lhsi.gp $r9,[+#-15782]
   90aa8:	e0 69       	slts45 $r3,$r9
   90aaa:	e8 03       	beqzs8 90ab0 <update+0x568>
   90aac:	84 47       	movi55 $r2,#7
   90aae:	d5 2f       	j8 90b0c <update+0x5c4>
   90ab0:	3c 97 e1 2e 	lhsi.gp $r9,[+#-15780]
   90ab4:	e0 69       	slts45 $r3,$r9
   90ab6:	e8 03       	beqzs8 90abc <update+0x574>
   90ab8:	84 48       	movi55 $r2,#8
   90aba:	d5 29       	j8 90b0c <update+0x5c4>
   90abc:	3c 97 e1 2f 	lhsi.gp $r9,[+#-15778]
   90ac0:	e0 69       	slts45 $r3,$r9
   90ac2:	e8 03       	beqzs8 90ac8 <update+0x580>
   90ac4:	84 49       	movi55 $r2,#9
   90ac6:	d5 23       	j8 90b0c <update+0x5c4>
   90ac8:	3c 97 e1 30 	lhsi.gp $r9,[+#-15776]
   90acc:	e0 69       	slts45 $r3,$r9
   90ace:	e8 03       	beqzs8 90ad4 <update+0x58c>
   90ad0:	84 4a       	movi55 $r2,#10
   90ad2:	d5 1d       	j8 90b0c <update+0x5c4>
   90ad4:	3c 97 e1 31 	lhsi.gp $r9,[+#-15774]
   90ad8:	e0 69       	slts45 $r3,$r9
   90ada:	e8 03       	beqzs8 90ae0 <update+0x598>
   90adc:	84 4b       	movi55 $r2,#11
   90ade:	d5 17       	j8 90b0c <update+0x5c4>
   90ae0:	3c 97 e1 32 	lhsi.gp $r9,[+#-15772]
   90ae4:	e0 69       	slts45 $r3,$r9
   90ae6:	e8 03       	beqzs8 90aec <update+0x5a4>
   90ae8:	84 4c       	movi55 $r2,#12
   90aea:	d5 11       	j8 90b0c <update+0x5c4>
   90aec:	3c 97 e1 33 	lhsi.gp $r9,[+#-15770]
   90af0:	e0 69       	slts45 $r3,$r9
   90af2:	e8 03       	beqzs8 90af8 <update+0x5b0>
   90af4:	84 4d       	movi55 $r2,#13
   90af6:	d5 0b       	j8 90b0c <update+0x5c4>
   90af8:	3c a7 e1 34 	lhsi.gp $r10,[+#-15768]
   90afc:	44 20 00 0e 	movi $r2,#14
   90b00:	40 a1 a8 07 	slts $r10,$r3,$r10
   90b04:	44 90 00 0f 	movi $r9,#15
   90b08:	40 24 a8 1a 	cmovz $r2,$r9,$r10
   90b0c:	4e 45 00 0a 	bltz $r4,90b20 <update+0x5d8>
   90b10:	40 91 98 08 	slli $r9,$r3,#6
   90b14:	40 94 88 0e 	sra $r9,$r9,$r2
   90b18:	95 16       	slli333 $r4,$r2,#6
   90b1a:	88 89       	add45 $r4,$r9
   90b1c:	97 23       	seh33 $r4,$r4
   90b1e:	d5 0b       	j8 90b34 <update+0x5ec>
   90b20:	40 41 98 08 	slli $r4,$r3,#6
   90b24:	40 42 08 0e 	sra $r4,$r4,$r2
   90b28:	40 91 18 08 	slli $r9,$r2,#6
   90b2c:	88 89       	add45 $r4,$r9
   90b2e:	50 42 7c 00 	addi $r4,$r4,#-1024
   90b32:	97 23       	seh33 $r4,$r4
   90b34:	12 4e 00 1e 	shi $r4,[$fp+#0x3c]
   90b38:	be 12       	lwi37 $r6,[$fp+#0x48]
   90b3a:	be 93       	swi37 $r6,[$fp+#0x4c]
   90b3c:	cd 06       	bnez38 $r5,90b48 <update+0x600>
   90b3e:	fa 90       	movpi45 $r4,#0x20
   90b40:	14 4e 00 12 	swi $r4,[$fp+#0x48]
   90b44:	48 00 00 e4 	j 90d0c <update+0x7c4>
   90b48:	4e 57 00 6c 	blez $r5,90c20 <update+0x6d8>
   90b4c:	3c 47 e1 26 	lhsi.gp $r4,[+#-15796]
   90b50:	e0 a4       	slts45 $r5,$r4
   90b52:	e8 05       	beqzs8 90b5c <update+0x614>
   90b54:	44 20 00 00 	movi $r2,#0
   90b58:	48 00 00 5b 	j 90c0e <update+0x6c6>
   90b5c:	3c 47 e1 27 	lhsi.gp $r4,[+#-15794]
   90b60:	e0 a4       	slts45 $r5,$r4
   90b62:	e8 05       	beqzs8 90b6c <update+0x624>
   90b64:	44 20 00 01 	movi $r2,#1
   90b68:	48 00 00 53 	j 90c0e <update+0x6c6>
   90b6c:	3c 47 e1 28 	lhsi.gp $r4,[+#-15792]
   90b70:	e0 a4       	slts45 $r5,$r4
   90b72:	e8 03       	beqzs8 90b78 <update+0x630>
   90b74:	84 42       	movi55 $r2,#2
   90b76:	d5 4c       	j8 90c0e <update+0x6c6>
   90b78:	3c 47 e1 29 	lhsi.gp $r4,[+#-15790]
   90b7c:	e0 a4       	slts45 $r5,$r4
   90b7e:	e8 03       	beqzs8 90b84 <update+0x63c>
   90b80:	84 43       	movi55 $r2,#3
   90b82:	d5 46       	j8 90c0e <update+0x6c6>
   90b84:	3c 47 e1 2a 	lhsi.gp $r4,[+#-15788]
   90b88:	e0 a4       	slts45 $r5,$r4
   90b8a:	e8 03       	beqzs8 90b90 <update+0x648>
   90b8c:	84 44       	movi55 $r2,#4
   90b8e:	d5 40       	j8 90c0e <update+0x6c6>
   90b90:	3c 47 e1 2b 	lhsi.gp $r4,[+#-15786]
   90b94:	e0 a4       	slts45 $r5,$r4
   90b96:	e8 03       	beqzs8 90b9c <update+0x654>
   90b98:	84 45       	movi55 $r2,#5
   90b9a:	d5 3a       	j8 90c0e <update+0x6c6>
   90b9c:	3c 47 e1 2c 	lhsi.gp $r4,[+#-15784]
   90ba0:	e0 a4       	slts45 $r5,$r4
   90ba2:	e8 03       	beqzs8 90ba8 <update+0x660>
   90ba4:	84 46       	movi55 $r2,#6
   90ba6:	d5 34       	j8 90c0e <update+0x6c6>
   90ba8:	3c 47 e1 2d 	lhsi.gp $r4,[+#-15782]
   90bac:	e0 a4       	slts45 $r5,$r4
   90bae:	e8 03       	beqzs8 90bb4 <update+0x66c>
   90bb0:	84 47       	movi55 $r2,#7
   90bb2:	d5 2e       	j8 90c0e <update+0x6c6>
   90bb4:	3c 47 e1 2e 	lhsi.gp $r4,[+#-15780]
   90bb8:	e0 a4       	slts45 $r5,$r4
   90bba:	e8 03       	beqzs8 90bc0 <update+0x678>
   90bbc:	84 48       	movi55 $r2,#8
   90bbe:	d5 28       	j8 90c0e <update+0x6c6>
   90bc0:	3c 47 e1 2f 	lhsi.gp $r4,[+#-15778]
   90bc4:	e0 a4       	slts45 $r5,$r4
   90bc6:	e8 03       	beqzs8 90bcc <update+0x684>
   90bc8:	84 49       	movi55 $r2,#9
   90bca:	d5 22       	j8 90c0e <update+0x6c6>
   90bcc:	3c 47 e1 30 	lhsi.gp $r4,[+#-15776]
   90bd0:	e0 a4       	slts45 $r5,$r4
   90bd2:	e8 03       	beqzs8 90bd8 <update+0x690>
   90bd4:	84 4a       	movi55 $r2,#10
   90bd6:	d5 1c       	j8 90c0e <update+0x6c6>
   90bd8:	3c 47 e1 31 	lhsi.gp $r4,[+#-15774]
   90bdc:	e0 a4       	slts45 $r5,$r4
   90bde:	e8 03       	beqzs8 90be4 <update+0x69c>
   90be0:	84 4b       	movi55 $r2,#11
   90be2:	d5 16       	j8 90c0e <update+0x6c6>
   90be4:	3c 47 e1 32 	lhsi.gp $r4,[+#-15772]
   90be8:	e0 a4       	slts45 $r5,$r4
   90bea:	e8 03       	beqzs8 90bf0 <update+0x6a8>
   90bec:	84 4c       	movi55 $r2,#12
   90bee:	d5 10       	j8 90c0e <update+0x6c6>
   90bf0:	3c 47 e1 33 	lhsi.gp $r4,[+#-15770]
   90bf4:	e0 a4       	slts45 $r5,$r4
   90bf6:	e8 03       	beqzs8 90bfc <update+0x6b4>
   90bf8:	84 4d       	movi55 $r2,#13
   90bfa:	d5 0a       	j8 90c0e <update+0x6c6>
   90bfc:	3c 97 e1 34 	lhsi.gp $r9,[+#-15768]
   90c00:	44 20 00 0e 	movi $r2,#14
   90c04:	40 92 a4 07 	slts $r9,$r5,$r9
   90c08:	84 8f       	movi55 $r4,#15
   90c0a:	40 22 24 1a 	cmovz $r2,$r4,$r9
   90c0e:	95 6e       	slli333 $r5,$r5,#6
   90c10:	40 52 88 0e 	sra $r5,$r5,$r2
   90c14:	95 16       	slli333 $r4,$r2,#6
   90c16:	99 2c       	add333 $r4,$r5,$r4
   90c18:	14 4e 00 12 	swi $r4,[$fp+#0x48]
   90c1c:	48 00 00 78 	j 90d0c <update+0x7c4>
   90c20:	44 4f 80 01 	movi $r4,#-32767
   90c24:	40 f2 90 07 	slts $r15,$r5,$r4
   90c28:	4e f3 00 6e 	bnez $r15,90d04 <update+0x7bc>
   90c2c:	3c 47 e1 26 	lhsi.gp $r4,[+#-15796]
   90c30:	fe aa       	neg33 $r2,$r5
   90c32:	e0 44       	slts45 $r2,$r4
   90c34:	e8 04       	beqzs8 90c3c <update+0x6f4>
   90c36:	84 80       	movi55 $r4,#0
   90c38:	48 00 00 5c 	j 90cf0 <update+0x7a8>
   90c3c:	3c 47 e1 27 	lhsi.gp $r4,[+#-15794]
   90c40:	e0 44       	slts45 $r2,$r4
   90c42:	e8 05       	beqzs8 90c4c <update+0x704>
   90c44:	44 40 00 01 	movi $r4,#1
   90c48:	48 00 00 54 	j 90cf0 <update+0x7a8>
   90c4c:	3c 47 e1 28 	lhsi.gp $r4,[+#-15792]
   90c50:	e0 44       	slts45 $r2,$r4
   90c52:	e8 03       	beqzs8 90c58 <update+0x710>
   90c54:	84 82       	movi55 $r4,#2
   90c56:	d5 4d       	j8 90cf0 <update+0x7a8>
   90c58:	3c 47 e1 29 	lhsi.gp $r4,[+#-15790]
   90c5c:	e0 44       	slts45 $r2,$r4
   90c5e:	e8 03       	beqzs8 90c64 <update+0x71c>
   90c60:	84 83       	movi55 $r4,#3
   90c62:	d5 47       	j8 90cf0 <update+0x7a8>
   90c64:	3c 47 e1 2a 	lhsi.gp $r4,[+#-15788]
   90c68:	e0 44       	slts45 $r2,$r4
   90c6a:	e8 03       	beqzs8 90c70 <update+0x728>
   90c6c:	84 84       	movi55 $r4,#4
   90c6e:	d5 41       	j8 90cf0 <update+0x7a8>
   90c70:	3c 47 e1 2b 	lhsi.gp $r4,[+#-15786]
   90c74:	e0 44       	slts45 $r2,$r4
   90c76:	e8 03       	beqzs8 90c7c <update+0x734>
   90c78:	84 85       	movi55 $r4,#5
   90c7a:	d5 3b       	j8 90cf0 <update+0x7a8>
   90c7c:	3c 47 e1 2c 	lhsi.gp $r4,[+#-15784]
   90c80:	e0 44       	slts45 $r2,$r4
   90c82:	e8 03       	beqzs8 90c88 <update+0x740>
   90c84:	84 86       	movi55 $r4,#6
   90c86:	d5 35       	j8 90cf0 <update+0x7a8>
   90c88:	3c 47 e1 2d 	lhsi.gp $r4,[+#-15782]
   90c8c:	e0 44       	slts45 $r2,$r4
   90c8e:	e8 03       	beqzs8 90c94 <update+0x74c>
   90c90:	84 87       	movi55 $r4,#7
   90c92:	d5 2f       	j8 90cf0 <update+0x7a8>
   90c94:	3c 47 e1 2e 	lhsi.gp $r4,[+#-15780]
   90c98:	e0 44       	slts45 $r2,$r4
   90c9a:	e8 03       	beqzs8 90ca0 <update+0x758>
   90c9c:	84 88       	movi55 $r4,#8
   90c9e:	d5 29       	j8 90cf0 <update+0x7a8>
   90ca0:	3c 47 e1 2f 	lhsi.gp $r4,[+#-15778]
   90ca4:	e0 44       	slts45 $r2,$r4
   90ca6:	e8 03       	beqzs8 90cac <update+0x764>
   90ca8:	84 89       	movi55 $r4,#9
   90caa:	d5 23       	j8 90cf0 <update+0x7a8>
   90cac:	3c 47 e1 30 	lhsi.gp $r4,[+#-15776]
   90cb0:	e0 44       	slts45 $r2,$r4
   90cb2:	e8 03       	beqzs8 90cb8 <update+0x770>
   90cb4:	84 8a       	movi55 $r4,#10
   90cb6:	d5 1d       	j8 90cf0 <update+0x7a8>
   90cb8:	3c 47 e1 31 	lhsi.gp $r4,[+#-15774]
   90cbc:	e0 44       	slts45 $r2,$r4
   90cbe:	e8 03       	beqzs8 90cc4 <update+0x77c>
   90cc0:	84 8b       	movi55 $r4,#11
   90cc2:	d5 17       	j8 90cf0 <update+0x7a8>
   90cc4:	3c 47 e1 32 	lhsi.gp $r4,[+#-15772]
   90cc8:	e0 44       	slts45 $r2,$r4
   90cca:	e8 03       	beqzs8 90cd0 <update+0x788>
   90ccc:	84 8c       	movi55 $r4,#12
   90cce:	d5 11       	j8 90cf0 <update+0x7a8>
   90cd0:	3c 47 e1 33 	lhsi.gp $r4,[+#-15770]
   90cd4:	e0 44       	slts45 $r2,$r4
   90cd6:	e8 03       	beqzs8 90cdc <update+0x794>
   90cd8:	84 8d       	movi55 $r4,#13
   90cda:	d5 0b       	j8 90cf0 <update+0x7a8>
   90cdc:	3c 97 e1 34 	lhsi.gp $r9,[+#-15768]
   90ce0:	44 40 00 0e 	movi $r4,#14
   90ce4:	40 91 24 07 	slts $r9,$r2,$r9
   90ce8:	44 50 00 0f 	movi $r5,#15
   90cec:	40 42 a4 1a 	cmovz $r4,$r5,$r9
   90cf0:	40 51 18 08 	slli $r5,$r2,#6
   90cf4:	40 52 90 0e 	sra $r5,$r5,$r4
   90cf8:	95 26       	slli333 $r4,$r4,#6
   90cfa:	99 25       	add333 $r4,$r4,$r5
   90cfc:	50 42 7c 00 	addi $r4,$r4,#-1024
   90d00:	bc 92       	swi37 $r4,[$fp+#0x48]
   90d02:	d5 05       	j8 90d0c <update+0x7c4>
   90d04:	44 40 fc 20 	movi $r4,#64544
   90d08:	14 4e 00 12 	swi $r4,[$fp+#0x48]
   90d0c:	04 9f 80 05 	lwi $r9,[$sp+#0x14]
   90d10:	05 ef 80 02 	lwi $lp,[$sp+#0x8]
   90d14:	f0 03       	lwi37.sp $r0,[+#0xc]
   90d16:	14 9e 00 0e 	swi $r9,[$fp+#0x38]
   90d1a:	15 ee 00 0d 	swi $lp,[$fp+#0x34]
   90d1e:	5a 08 01 15 	bnec $r0,#1,90d48 <update+0x800>
   90d22:	f1 04       	lwi37.sp $r1,[+#0x10]
   90d24:	bd 02       	lwi37 $r5,[$fp+#0x8]
   90d26:	bc 03       	lwi37 $r4,[$fp+#0xc]
   90d28:	94 0a       	slli333 $r0,$r1,#2
   90d2a:	9a 04       	sub333 $r0,$r0,$r4
   90d2c:	9a 4d       	sub333 $r1,$r1,$r5
   90d2e:	44 20 01 00 	movi $r2,#256
   90d32:	90 25       	srai45 $r1,#5
   90d34:	90 07       	srai45 $r0,#7
   90d36:	98 4d       	add333 $r1,$r1,$r5
   90d38:	98 04       	add333 $r0,$r0,$r4
   90d3a:	ba 84       	swi37 $r2,[$fp+#0x10]
   90d3c:	84 40       	movi55 $r2,#0
   90d3e:	ba 94       	swi37 $r2,[$fp+#0x50]
   90d40:	b9 82       	swi37 $r1,[$fp+#0x8]
   90d42:	b8 83       	swi37 $r0,[$fp+#0xc]
   90d44:	48 00 00 80 	j 90e44 <update+0x8fc>
   90d48:	5e f4 52 00 	sltsi $r15,$r8,#-11776
   90d4c:	e8 04       	beqzs8 90d54 <update+0x80c>
   90d4e:	84 01       	movi55 $r0,#1
   90d50:	b8 94       	swi37 $r0,[$fp+#0x50]
   90d52:	d5 3f       	j8 90dd0 <update+0x888>
   90d54:	84 00       	movi55 $r0,#0
   90d56:	b8 94       	swi37 $r0,[$fp+#0x50]
   90d58:	d5 3c       	j8 90dd0 <update+0x888>
   90d5a:	b9 04       	lwi37 $r1,[$fp+#0x10]
   90d5c:	52 00 82 00 	subri $r0,$r1,#512
   90d60:	90 04       	srai45 $r0,#4
   90d62:	98 01       	add333 $r0,$r0,$r1
   90d64:	b8 84       	swi37 $r0,[$fp+#0x10]
   90d66:	d5 6f       	j8 90e44 <update+0x8fc>
   90d68:	04 1e 00 14 	lwi $r1,[$fp+#0x50]
   90d6c:	5a 18 01 03 	bnec $r1,#1,90d72 <update+0x82a>
   90d70:	d5 09       	j8 90d82 <update+0x83a>
   90d72:	94 52       	slli333 $r1,$r2,#2
   90d74:	9a 48       	sub333 $r1,$r1,$r0
   90d76:	4e 14 00 03 	bgez $r1,90d7c <update+0x834>
   90d7a:	fe 4a       	neg33 $r1,$r1
   90d7c:	90 03       	srai45 $r0,#3
   90d7e:	e0 20       	slts45 $r1,$r0
   90d80:	e9 08       	bnezs8 90d90 <update+0x848>
   90d82:	b8 04       	lwi37 $r0,[$fp+#0x10]
   90d84:	52 10 02 00 	subri $r1,$r0,#512
   90d88:	90 24       	srai45 $r1,#4
   90d8a:	98 08       	add333 $r0,$r1,$r0
   90d8c:	b8 84       	swi37 $r0,[$fp+#0x10]
   90d8e:	d5 5b       	j8 90e44 <update+0x8fc>
   90d90:	b9 04       	lwi37 $r1,[$fp+#0x10]
   90d92:	fe 0a       	neg33 $r0,$r1
   90d94:	90 04       	srai45 $r0,#4
   90d96:	98 01       	add333 $r0,$r0,$r1
   90d98:	b8 84       	swi37 $r0,[$fp+#0x10]
   90d9a:	d5 55       	j8 90e44 <update+0x8fc>
   90d9c:	44 9f 94 00 	movi $r9,#-27648
   90da0:	45 e0 6c 00 	movi $lp,#27648
   90da4:	44 8f d0 00 	movi $r8,#-12288
   90da8:	48 00 00 08 	j 90db8 <update+0x870>
   90dac:	44 9f f4 00 	movi $r9,#-3072
   90db0:	45 e0 0c 00 	movi $lp,#3072
   90db4:	40 8f 08 08 	slli $r8,$lp,#2
   90db8:	40 a1 20 0a 	srai $r10,$r2,#8
   90dbc:	40 a1 28 01 	sub $r10,$r2,$r10
   90dc0:	14 8e 00 06 	swi $r8,[$fp+#0x18]
   90dc4:	14 ae 00 05 	swi $r10,[$fp+#0x14]
   90dc8:	4e 72 fc 8a 	beqz $r7,906dc <update+0x194>
   90dcc:	48 ff fc 8e 	j 906e8 <update+0x1a0>
   90dd0:	f2 04       	lwi37.sp $r2,[+#0x10]
   90dd2:	bd 02       	lwi37 $r5,[$fp+#0x8]
   90dd4:	bc 03       	lwi37 $r4,[$fp+#0xc]
   90dd6:	94 12       	slli333 $r0,$r2,#2
   90dd8:	9a 04       	sub333 $r0,$r0,$r4
   90dda:	9a 95       	sub333 $r2,$r2,$r5
   90ddc:	90 45       	srai45 $r2,#5
   90dde:	90 07       	srai45 $r0,#7
   90de0:	f6 01       	lwi37.sp $r6,[+#0x4]
   90de2:	98 95       	add333 $r2,$r2,$r5
   90de4:	98 04       	add333 $r0,$r0,$r4
   90de6:	ba 82       	swi37 $r2,[$fp+#0x8]
   90de8:	b8 83       	swi37 $r0,[$fp+#0xc]
   90dea:	5e f3 06 00 	sltsi $r15,$r6,#1536
   90dee:	e8 bd       	beqzs8 90d68 <update+0x820>
   90df0:	48 ff ff b5 	j 90d5a <update+0x812>
   90df4:	02 9e 00 22 	lhi $r9,[$fp+#0x44]
   90df8:	03 ee 00 21 	lhi $lp,[$fp+#0x42]
   90dfc:	02 0e 00 20 	lhi $r0,[$fp+#0x40]
   90e00:	02 1e 00 1f 	lhi $r1,[$fp+#0x3e]
   90e04:	02 2e 00 1e 	lhi $r2,[$fp+#0x3c]
   90e08:	12 9e 00 23 	shi $r9,[$fp+#0x46]
   90e0c:	13 ee 00 22 	shi $lp,[$fp+#0x44]
   90e10:	12 0e 00 21 	shi $r0,[$fp+#0x42]
   90e14:	12 1e 00 20 	shi $r1,[$fp+#0x40]
   90e18:	12 2e 00 1f 	shi $r2,[$fp+#0x3e]
   90e1c:	48 ff fe 08 	j 90a2c <update+0x4e4>
   90e20:	02 6f 80 0f 	lhi $r6,[$sp+#0x1e]
   90e24:	02 9f 80 0e 	lhi $r9,[$sp+#0x1c]
   90e28:	03 ef 80 0d 	lhi $lp,[$sp+#0x1a]
   90e2c:	12 2e 00 23 	shi $r2,[$fp+#0x46]
   90e30:	12 7e 00 22 	shi $r7,[$fp+#0x44]
   90e34:	12 6e 00 21 	shi $r6,[$fp+#0x42]
   90e38:	12 9e 00 20 	shi $r9,[$fp+#0x40]
   90e3c:	13 ee 00 1f 	shi $lp,[$fp+#0x3e]
   90e40:	48 ff fe 04 	j 90a48 <update+0x500>
   90e44:	ec 24       	addi10.sp #36
   90e46:	3a 6f aa 84 	lmw.bim $r6,[$sp],$r10,#0xa    ! {$r6~$r10, $fp, $lp}
   90e4a:	dd 9e       	ret5 $lp

00090e4c <predictor_zero>:
   90e4c:	3a 6f aa bc 	smw.adm $r6,[$sp],$r10,#0xa    ! {$r6~$r10, $fp, $lp}
   90e50:	ef cc       	addi10.sp #-52
   90e52:	a0 c7       	lwi333 $r3,[$r0+#0x1c]
   90e54:	22 40 00 1e 	lhsi $r4,[$r0+#0x3c]
   90e58:	40 31 88 0a 	srai $r3,$r3,#2
   90e5c:	4e 37 00 04 	blez $r3,90e64 <predictor_zero+0x18>
   90e60:	80 23       	mov55 $r1,$r3
   90e62:	d5 05       	j8 90e6c <predictor_zero+0x20>
   90e64:	52 11 80 00 	subri $r1,$r3,#0
   90e68:	54 10 9f ff 	andi $r1,$r1,#0x1fff
   90e6c:	3c 97 e1 26 	lhsi.gp $r9,[+#-15796]
   90e70:	e0 29       	slts45 $r1,$r9
   90e72:	e8 05       	beqzs8 90e7c <predictor_zero+0x30>
   90e74:	44 20 00 00 	movi $r2,#0
   90e78:	48 00 00 5b 	j 90f2e <predictor_zero+0xe2>
   90e7c:	3c 27 e1 27 	lhsi.gp $r2,[+#-15794]
   90e80:	e0 22       	slts45 $r1,$r2
   90e82:	e8 05       	beqzs8 90e8c <predictor_zero+0x40>
   90e84:	44 20 00 01 	movi $r2,#1
   90e88:	48 00 00 53 	j 90f2e <predictor_zero+0xe2>
   90e8c:	3c 27 e1 28 	lhsi.gp $r2,[+#-15792]
   90e90:	e0 22       	slts45 $r1,$r2
   90e92:	e8 03       	beqzs8 90e98 <predictor_zero+0x4c>
   90e94:	84 42       	movi55 $r2,#2
   90e96:	d5 4c       	j8 90f2e <predictor_zero+0xe2>
   90e98:	3c 27 e1 29 	lhsi.gp $r2,[+#-15790]
   90e9c:	e0 22       	slts45 $r1,$r2
   90e9e:	e8 03       	beqzs8 90ea4 <predictor_zero+0x58>
   90ea0:	84 43       	movi55 $r2,#3
   90ea2:	d5 46       	j8 90f2e <predictor_zero+0xe2>
   90ea4:	3c 27 e1 2a 	lhsi.gp $r2,[+#-15788]
   90ea8:	e0 22       	slts45 $r1,$r2
   90eaa:	e8 03       	beqzs8 90eb0 <predictor_zero+0x64>
   90eac:	84 44       	movi55 $r2,#4
   90eae:	d5 40       	j8 90f2e <predictor_zero+0xe2>
   90eb0:	3c 27 e1 2b 	lhsi.gp $r2,[+#-15786]
   90eb4:	e0 22       	slts45 $r1,$r2
   90eb6:	e8 03       	beqzs8 90ebc <predictor_zero+0x70>
   90eb8:	84 45       	movi55 $r2,#5
   90eba:	d5 3a       	j8 90f2e <predictor_zero+0xe2>
   90ebc:	3c 27 e1 2c 	lhsi.gp $r2,[+#-15784]
   90ec0:	e0 22       	slts45 $r1,$r2
   90ec2:	e8 03       	beqzs8 90ec8 <predictor_zero+0x7c>
   90ec4:	84 46       	movi55 $r2,#6
   90ec6:	d5 34       	j8 90f2e <predictor_zero+0xe2>
   90ec8:	3c 27 e1 2d 	lhsi.gp $r2,[+#-15782]
   90ecc:	e0 22       	slts45 $r1,$r2
   90ece:	e8 03       	beqzs8 90ed4 <predictor_zero+0x88>
   90ed0:	84 47       	movi55 $r2,#7
   90ed2:	d5 2e       	j8 90f2e <predictor_zero+0xe2>
   90ed4:	3c 27 e1 2e 	lhsi.gp $r2,[+#-15780]
   90ed8:	e0 22       	slts45 $r1,$r2
   90eda:	e8 03       	beqzs8 90ee0 <predictor_zero+0x94>
   90edc:	84 48       	movi55 $r2,#8
   90ede:	d5 28       	j8 90f2e <predictor_zero+0xe2>
   90ee0:	3c 27 e1 2f 	lhsi.gp $r2,[+#-15778]
   90ee4:	e0 22       	slts45 $r1,$r2
   90ee6:	e8 03       	beqzs8 90eec <predictor_zero+0xa0>
   90ee8:	84 49       	movi55 $r2,#9
   90eea:	d5 22       	j8 90f2e <predictor_zero+0xe2>
   90eec:	3c 27 e1 30 	lhsi.gp $r2,[+#-15776]
   90ef0:	e0 22       	slts45 $r1,$r2
   90ef2:	e8 03       	beqzs8 90ef8 <predictor_zero+0xac>
   90ef4:	84 4a       	movi55 $r2,#10
   90ef6:	d5 1c       	j8 90f2e <predictor_zero+0xe2>
   90ef8:	3c 27 e1 31 	lhsi.gp $r2,[+#-15774]
   90efc:	e0 22       	slts45 $r1,$r2
   90efe:	e8 03       	beqzs8 90f04 <predictor_zero+0xb8>
   90f00:	84 4b       	movi55 $r2,#11
   90f02:	d5 16       	j8 90f2e <predictor_zero+0xe2>
   90f04:	3c 27 e1 32 	lhsi.gp $r2,[+#-15772]
   90f08:	e0 22       	slts45 $r1,$r2
   90f0a:	e8 03       	beqzs8 90f10 <predictor_zero+0xc4>
   90f0c:	84 4c       	movi55 $r2,#12
   90f0e:	d5 10       	j8 90f2e <predictor_zero+0xe2>
   90f10:	3c 27 e1 33 	lhsi.gp $r2,[+#-15770]
   90f14:	e0 22       	slts45 $r1,$r2
   90f16:	e8 03       	beqzs8 90f1c <predictor_zero+0xd0>
   90f18:	84 4d       	movi55 $r2,#13
   90f1a:	d5 0a       	j8 90f2e <predictor_zero+0xe2>
   90f1c:	3c 67 e1 34 	lhsi.gp $r6,[+#-15768]
   90f20:	44 20 00 0e 	movi $r2,#14
   90f24:	40 60 98 07 	slts $r6,$r1,$r6
   90f28:	84 af       	movi55 $r5,#15
   90f2a:	40 22 98 1a 	cmovz $r2,$r5,$r6
   90f2e:	9e 96       	subi333 $r2,$r2,#6
   90f30:	c9 04       	bnez38 $r1,90f38 <predictor_zero+0xec>
   90f32:	fa 30       	movpi45 $r1,#0x20
   90f34:	48 00 00 0c 	j 90f4c <predictor_zero+0x100>
   90f38:	4e 25 00 06 	bltz $r2,90f44 <predictor_zero+0xf8>
   90f3c:	40 10 88 0e 	sra $r1,$r1,$r2
   90f40:	48 00 00 06 	j 90f4c <predictor_zero+0x100>
   90f44:	52 51 00 00 	subri $r5,$r2,#0
   90f48:	40 10 94 0c 	sll $r1,$r1,$r5
   90f4c:	40 62 18 0a 	srai $r6,$r4,#6
   90f50:	97 9f       	fexti33 $r6,#0x3
   90f52:	54 52 00 3f 	andi $r5,$r4,#0x3f
   90f56:	ff 4c       	mul33 $r5,$r1
   90f58:	50 13 7f f3 	addi $r1,$r6,#-13
   90f5c:	40 10 88 00 	add $r1,$r1,$r2
   90f60:	50 22 80 30 	addi $r2,$r5,#48
   90f64:	40 21 10 0a 	srai $r2,$r2,#4
   90f68:	4e 15 00 08 	bltz $r1,90f78 <predictor_zero+0x12c>
   90f6c:	40 11 04 0c 	sll $r1,$r2,$r1
   90f70:	54 10 ff ff 	andi $r1,$r1,#0x7fff
   90f74:	48 00 00 06 	j 90f80 <predictor_zero+0x134>
   90f78:	52 10 80 00 	subri $r1,$r1,#0
   90f7c:	40 11 04 0e 	sra $r1,$r2,$r1
   90f80:	40 32 0c 03 	xor $r3,$r4,$r3
   90f84:	4e 34 00 04 	bgez $r3,90f8c <predictor_zero+0x140>
   90f88:	52 10 80 00 	subri $r1,$r1,#0
   90f8c:	3c 27 e1 2a 	lhsi.gp $r2,[+#-15788]
   90f90:	3c 47 e1 2b 	lhsi.gp $r4,[+#-15786]
   90f94:	f2 81       	swi37.sp $r2,[+#0x4]
   90f96:	3c 27 e1 2c 	lhsi.gp $r2,[+#-15784]
   90f9a:	f4 83       	swi37.sp $r4,[+#0xc]
   90f9c:	f2 82       	swi37.sp $r2,[+#0x8]
   90f9e:	3c 47 e1 2d 	lhsi.gp $r4,[+#-15782]
   90fa2:	3c 27 e1 2e 	lhsi.gp $r2,[+#-15780]
   90fa6:	f4 84       	swi37.sp $r4,[+#0x10]
   90fa8:	f2 86       	swi37.sp $r2,[+#0x18]
   90faa:	3c 47 e1 2f 	lhsi.gp $r4,[+#-15778]
   90fae:	3c 27 e1 30 	lhsi.gp $r2,[+#-15776]
   90fb2:	f4 85       	swi37.sp $r4,[+#0x14]
   90fb4:	14 2f 80 08 	swi $r2,[$sp+#0x20]
   90fb8:	3c 47 e1 31 	lhsi.gp $r4,[+#-15774]
   90fbc:	3c 27 e1 32 	lhsi.gp $r2,[+#-15772]
   90fc0:	04 30 00 08 	lwi $r3,[$r0+#0x20]
   90fc4:	f4 87       	swi37.sp $r4,[+#0x1c]
   90fc6:	f2 89       	swi37.sp $r2,[+#0x24]
   90fc8:	3c 47 e1 33 	lhsi.gp $r4,[+#-15770]
   90fcc:	3c 27 e1 34 	lhsi.gp $r2,[+#-15768]
   90fd0:	40 31 88 0a 	srai $r3,$r3,#2
   90fd4:	3c a7 e1 27 	lhsi.gp $r10,[+#-15794]
   90fd8:	3d c7 e1 28 	lhsi.gp $fp,[+#-15792]
   90fdc:	3d e7 e1 29 	lhsi.gp $lp,[+#-15790]
   90fe0:	f4 8b       	swi37.sp $r4,[+#0x2c]
   90fe2:	f2 8a       	swi37.sp $r2,[+#0x28]
   90fe4:	22 80 00 1f 	lhsi $r8,[$r0+#0x3e]
   90fe8:	4e 37 00 04 	blez $r3,90ff0 <predictor_zero+0x1a4>
   90fec:	80 43       	mov55 $r2,$r3
   90fee:	d5 04       	j8 90ff6 <predictor_zero+0x1aa>
   90ff0:	ff 5a       	neg33 $r5,$r3
   90ff2:	54 22 9f ff 	andi $r2,$r5,#0x1fff
   90ff6:	e0 49       	slts45 $r2,$r9
   90ff8:	e8 04       	beqzs8 91000 <predictor_zero+0x1b4>
   90ffa:	84 c6       	movi55 $r6,#6
   90ffc:	84 9a       	movi55 $r4,#-6
   90ffe:	d5 57       	j8 910ac <predictor_zero+0x260>
   91000:	e0 4a       	slts45 $r2,$r10
   91002:	e8 04       	beqzs8 9100a <predictor_zero+0x1be>
   91004:	84 c5       	movi55 $r6,#5
   91006:	84 9b       	movi55 $r4,#-5
   91008:	d5 52       	j8 910ac <predictor_zero+0x260>
   9100a:	e0 5c       	slts45 $r2,$fp
   9100c:	e8 04       	beqzs8 91014 <predictor_zero+0x1c8>
   9100e:	84 c4       	movi55 $r6,#4
   91010:	84 9c       	movi55 $r4,#-4
   91012:	d5 4d       	j8 910ac <predictor_zero+0x260>
   91014:	e0 5e       	slts45 $r2,$lp
   91016:	e8 04       	beqzs8 9101e <predictor_zero+0x1d2>
   91018:	84 c3       	movi55 $r6,#3
   9101a:	84 9d       	movi55 $r4,#-3
   9101c:	d5 48       	j8 910ac <predictor_zero+0x260>
   9101e:	f4 01       	lwi37.sp $r4,[+#0x4]
   91020:	e0 44       	slts45 $r2,$r4
   91022:	e8 04       	beqzs8 9102a <predictor_zero+0x1de>
   91024:	84 c2       	movi55 $r6,#2
   91026:	84 9e       	movi55 $r4,#-2
   91028:	d5 42       	j8 910ac <predictor_zero+0x260>
   9102a:	f4 03       	lwi37.sp $r4,[+#0xc]
   9102c:	e0 44       	slts45 $r2,$r4
   9102e:	e8 04       	beqzs8 91036 <predictor_zero+0x1ea>
   91030:	84 c1       	movi55 $r6,#1
   91032:	84 9f       	movi55 $r4,#-1
   91034:	d5 3c       	j8 910ac <predictor_zero+0x260>
   91036:	f4 02       	lwi37.sp $r4,[+#0x8]
   91038:	e0 44       	slts45 $r2,$r4
   9103a:	e8 04       	beqzs8 91042 <predictor_zero+0x1f6>
   9103c:	84 c0       	movi55 $r6,#0
   9103e:	80 86       	mov55 $r4,$r6
   91040:	d5 36       	j8 910ac <predictor_zero+0x260>
   91042:	f4 04       	lwi37.sp $r4,[+#0x10]
   91044:	e0 44       	slts45 $r2,$r4
   91046:	e8 04       	beqzs8 9104e <predictor_zero+0x202>
   91048:	84 df       	movi55 $r6,#-1
   9104a:	84 81       	movi55 $r4,#1
   9104c:	d5 30       	j8 910ac <predictor_zero+0x260>
   9104e:	f4 06       	lwi37.sp $r4,[+#0x18]
   91050:	e0 44       	slts45 $r2,$r4
   91052:	e8 04       	beqzs8 9105a <predictor_zero+0x20e>
   91054:	84 de       	movi55 $r6,#-2
   91056:	84 82       	movi55 $r4,#2
   91058:	d5 2a       	j8 910ac <predictor_zero+0x260>
   9105a:	f4 05       	lwi37.sp $r4,[+#0x14]
   9105c:	e0 44       	slts45 $r2,$r4
   9105e:	e8 04       	beqzs8 91066 <predictor_zero+0x21a>
   91060:	84 dd       	movi55 $r6,#-3
   91062:	84 83       	movi55 $r4,#3
   91064:	d5 24       	j8 910ac <predictor_zero+0x260>
   91066:	f4 08       	lwi37.sp $r4,[+#0x20]
   91068:	e0 44       	slts45 $r2,$r4
   9106a:	e8 04       	beqzs8 91072 <predictor_zero+0x226>
   9106c:	84 dc       	movi55 $r6,#-4
   9106e:	84 84       	movi55 $r4,#4
   91070:	d5 1e       	j8 910ac <predictor_zero+0x260>
   91072:	f4 07       	lwi37.sp $r4,[+#0x1c]
   91074:	e0 44       	slts45 $r2,$r4
   91076:	e8 04       	beqzs8 9107e <predictor_zero+0x232>
   91078:	84 db       	movi55 $r6,#-5
   9107a:	84 85       	movi55 $r4,#5
   9107c:	d5 18       	j8 910ac <predictor_zero+0x260>
   9107e:	f4 09       	lwi37.sp $r4,[+#0x24]
   91080:	e0 44       	slts45 $r2,$r4
   91082:	e8 04       	beqzs8 9108a <predictor_zero+0x23e>
   91084:	84 da       	movi55 $r6,#-6
   91086:	84 86       	movi55 $r4,#6
   91088:	d5 12       	j8 910ac <predictor_zero+0x260>
   9108a:	f4 0b       	lwi37.sp $r4,[+#0x2c]
   9108c:	e0 44       	slts45 $r2,$r4
   9108e:	e8 04       	beqzs8 91096 <predictor_zero+0x24a>
   91090:	84 d9       	movi55 $r6,#-7
   91092:	84 87       	movi55 $r4,#7
   91094:	d5 0c       	j8 910ac <predictor_zero+0x260>
   91096:	f4 0a       	lwi37.sp $r4,[+#0x28]
   91098:	84 a9       	movi55 $r5,#9
   9109a:	40 71 10 07 	slts $r7,$r2,$r4
   9109e:	84 88       	movi55 $r4,#8
   910a0:	84 d8       	movi55 $r6,#-8
   910a2:	40 42 9c 1a 	cmovz $r4,$r5,$r7
   910a6:	84 b7       	movi55 $r5,#-9
   910a8:	40 62 9c 1a 	cmovz $r6,$r5,$r7
   910ac:	ca 04       	bnez38 $r2,910b4 <predictor_zero+0x268>
   910ae:	fa 50       	movpi45 $r2,#0x20
   910b0:	48 00 00 0a 	j 910c4 <predictor_zero+0x278>
   910b4:	4e 44 00 06 	bgez $r4,910c0 <predictor_zero+0x274>
   910b8:	40 21 18 0c 	sll $r2,$r2,$r6
   910bc:	48 00 00 04 	j 910c4 <predictor_zero+0x278>
   910c0:	40 21 10 0e 	sra $r2,$r2,$r4
   910c4:	40 54 18 0a 	srai $r5,$r8,#6
   910c8:	54 62 80 0f 	andi $r6,$r5,#0xf
   910cc:	54 54 00 3f 	andi $r5,$r8,#0x3f
   910d0:	ff 54       	mul33 $r5,$r2
   910d2:	8e cd       	subi45 $r6,#13
   910d4:	50 52 80 30 	addi $r5,$r5,#48
   910d8:	99 b4       	add333 $r6,$r6,$r4
   910da:	90 a4       	srai45 $r5,#4
   910dc:	4e 64 00 08 	bgez $r6,910ec <predictor_zero+0x2a0>
   910e0:	52 63 00 00 	subri $r6,$r6,#0
   910e4:	40 52 98 0e 	sra $r5,$r5,$r6
   910e8:	48 00 00 06 	j 910f4 <predictor_zero+0x2a8>
   910ec:	40 52 98 0c 	sll $r5,$r5,$r6
   910f0:	54 52 ff ff 	andi $r5,$r5,#0x7fff
   910f4:	40 34 0c 03 	xor $r3,$r8,$r3
   910f8:	4e 34 00 04 	bgez $r3,91100 <predictor_zero+0x2b4>
   910fc:	52 52 80 00 	subri $r5,$r5,#0
   91100:	04 30 00 09 	lwi $r3,[$r0+#0x24]
   91104:	40 52 84 00 	add $r5,$r5,$r1
   91108:	40 81 88 0a 	srai $r8,$r3,#2
   9110c:	22 10 00 20 	lhsi $r1,[$r0+#0x40]
   91110:	4e 87 00 04 	blez $r8,91118 <predictor_zero+0x2cc>
   91114:	80 c8       	mov55 $r6,$r8
   91116:	d5 05       	j8 91120 <predictor_zero+0x2d4>
   91118:	52 24 00 00 	subri $r2,$r8,#0
   9111c:	54 61 1f ff 	andi $r6,$r2,#0x1fff
   91120:	e0 c9       	slts45 $r6,$r9
   91122:	e8 04       	beqzs8 9112a <predictor_zero+0x2de>
   91124:	84 66       	movi55 $r3,#6
   91126:	84 9a       	movi55 $r4,#-6
   91128:	d5 57       	j8 911d6 <predictor_zero+0x38a>
   9112a:	e0 ca       	slts45 $r6,$r10
   9112c:	e8 04       	beqzs8 91134 <predictor_zero+0x2e8>
   9112e:	84 65       	movi55 $r3,#5
   91130:	84 9b       	movi55 $r4,#-5
   91132:	d5 52       	j8 911d6 <predictor_zero+0x38a>
   91134:	e0 dc       	slts45 $r6,$fp
   91136:	e8 04       	beqzs8 9113e <predictor_zero+0x2f2>
   91138:	84 64       	movi55 $r3,#4
   9113a:	84 9c       	movi55 $r4,#-4
   9113c:	d5 4d       	j8 911d6 <predictor_zero+0x38a>
   9113e:	e0 de       	slts45 $r6,$lp
   91140:	e8 04       	beqzs8 91148 <predictor_zero+0x2fc>
   91142:	84 63       	movi55 $r3,#3
   91144:	84 9d       	movi55 $r4,#-3
   91146:	d5 48       	j8 911d6 <predictor_zero+0x38a>
   91148:	f2 01       	lwi37.sp $r2,[+#0x4]
   9114a:	e0 c2       	slts45 $r6,$r2
   9114c:	e8 04       	beqzs8 91154 <predictor_zero+0x308>
   9114e:	84 62       	movi55 $r3,#2
   91150:	84 9e       	movi55 $r4,#-2
   91152:	d5 42       	j8 911d6 <predictor_zero+0x38a>
   91154:	f4 03       	lwi37.sp $r4,[+#0xc]
   91156:	e0 c4       	slts45 $r6,$r4
   91158:	e8 04       	beqzs8 91160 <predictor_zero+0x314>
   9115a:	84 61       	movi55 $r3,#1
   9115c:	84 9f       	movi55 $r4,#-1
   9115e:	d5 3c       	j8 911d6 <predictor_zero+0x38a>
   91160:	f2 02       	lwi37.sp $r2,[+#0x8]
   91162:	e0 c2       	slts45 $r6,$r2
   91164:	e8 04       	beqzs8 9116c <predictor_zero+0x320>
   91166:	84 60       	movi55 $r3,#0
   91168:	80 83       	mov55 $r4,$r3
   9116a:	d5 36       	j8 911d6 <predictor_zero+0x38a>
   9116c:	f4 04       	lwi37.sp $r4,[+#0x10]
   9116e:	e0 c4       	slts45 $r6,$r4
   91170:	e8 04       	beqzs8 91178 <predictor_zero+0x32c>
   91172:	84 7f       	movi55 $r3,#-1
   91174:	84 81       	movi55 $r4,#1
   91176:	d5 30       	j8 911d6 <predictor_zero+0x38a>
   91178:	f2 06       	lwi37.sp $r2,[+#0x18]
   9117a:	e0 c2       	slts45 $r6,$r2
   9117c:	e8 04       	beqzs8 91184 <predictor_zero+0x338>
   9117e:	84 7e       	movi55 $r3,#-2
   91180:	84 82       	movi55 $r4,#2
   91182:	d5 2a       	j8 911d6 <predictor_zero+0x38a>
   91184:	f4 05       	lwi37.sp $r4,[+#0x14]
   91186:	e0 c4       	slts45 $r6,$r4
   91188:	e8 04       	beqzs8 91190 <predictor_zero+0x344>
   9118a:	84 7d       	movi55 $r3,#-3
   9118c:	84 83       	movi55 $r4,#3
   9118e:	d5 24       	j8 911d6 <predictor_zero+0x38a>
   91190:	f2 08       	lwi37.sp $r2,[+#0x20]
   91192:	e0 c2       	slts45 $r6,$r2
   91194:	e8 04       	beqzs8 9119c <predictor_zero+0x350>
   91196:	84 7c       	movi55 $r3,#-4
   91198:	84 84       	movi55 $r4,#4
   9119a:	d5 1e       	j8 911d6 <predictor_zero+0x38a>
   9119c:	f4 07       	lwi37.sp $r4,[+#0x1c]
   9119e:	e0 c4       	slts45 $r6,$r4
   911a0:	e8 04       	beqzs8 911a8 <predictor_zero+0x35c>
   911a2:	84 7b       	movi55 $r3,#-5
   911a4:	84 85       	movi55 $r4,#5
   911a6:	d5 18       	j8 911d6 <predictor_zero+0x38a>
   911a8:	f2 09       	lwi37.sp $r2,[+#0x24]
   911aa:	e0 c2       	slts45 $r6,$r2
   911ac:	e8 04       	beqzs8 911b4 <predictor_zero+0x368>
   911ae:	84 7a       	movi55 $r3,#-6
   911b0:	84 86       	movi55 $r4,#6
   911b2:	d5 12       	j8 911d6 <predictor_zero+0x38a>
   911b4:	f4 0b       	lwi37.sp $r4,[+#0x2c]
   911b6:	e0 c4       	slts45 $r6,$r4
   911b8:	e8 04       	beqzs8 911c0 <predictor_zero+0x374>
   911ba:	84 79       	movi55 $r3,#-7
   911bc:	84 87       	movi55 $r4,#7
   911be:	d5 0c       	j8 911d6 <predictor_zero+0x38a>
   911c0:	f2 0a       	lwi37.sp $r2,[+#0x28]
   911c2:	84 88       	movi55 $r4,#8
   911c4:	40 73 08 07 	slts $r7,$r6,$r2
   911c8:	84 49       	movi55 $r2,#9
   911ca:	84 78       	movi55 $r3,#-8
   911cc:	40 41 1c 1a 	cmovz $r4,$r2,$r7
   911d0:	84 57       	movi55 $r2,#-9
   911d2:	40 31 1c 1a 	cmovz $r3,$r2,$r7
   911d6:	ce 03       	bnez38 $r6,911dc <predictor_zero+0x390>
   911d8:	fa d0       	movpi45 $r6,#0x20
   911da:	d5 09       	j8 911ec <predictor_zero+0x3a0>
   911dc:	4e 44 00 06 	bgez $r4,911e8 <predictor_zero+0x39c>
   911e0:	40 63 0c 0c 	sll $r6,$r6,$r3
   911e4:	48 00 00 04 	j 911ec <predictor_zero+0x3a0>
   911e8:	40 63 10 0e 	sra $r6,$r6,$r4
   911ec:	40 20 98 0a 	srai $r2,$r1,#6
   911f0:	54 31 00 0f 	andi $r3,$r2,#0xf
   911f4:	54 20 80 3f 	andi $r2,$r1,#0x3f
   911f8:	fe b4       	mul33 $r2,$r6
   911fa:	8e 6d       	subi45 $r3,#13
   911fc:	50 21 00 30 	addi $r2,$r2,#48
   91200:	98 dc       	add333 $r3,$r3,$r4
   91202:	90 44       	srai45 $r2,#4
   91204:	4e 34 00 08 	bgez $r3,91214 <predictor_zero+0x3c8>
   91208:	52 31 80 00 	subri $r3,$r3,#0
   9120c:	40 21 0c 0e 	sra $r2,$r2,$r3
   91210:	48 00 00 06 	j 9121c <predictor_zero+0x3d0>
   91214:	40 21 0c 0c 	sll $r2,$r2,$r3
   91218:	54 21 7f ff 	andi $r2,$r2,#0x7fff
   9121c:	40 10 a0 03 	xor $r1,$r1,$r8
   91220:	4e 14 00 04 	bgez $r1,91228 <predictor_zero+0x3dc>
   91224:	52 21 00 00 	subri $r2,$r2,#0
   91228:	04 10 00 0a 	lwi $r1,[$r0+#0x28]
   9122c:	99 2a       	add333 $r4,$r5,$r2
   9122e:	90 22       	srai45 $r1,#2
   91230:	22 80 00 21 	lhsi $r8,[$r0+#0x42]
   91234:	4e 17 00 04 	blez $r1,9123c <predictor_zero+0x3f0>
   91238:	80 a1       	mov55 $r5,$r1
   9123a:	d5 05       	j8 91244 <predictor_zero+0x3f8>
   9123c:	52 20 80 00 	subri $r2,$r1,#0
   91240:	54 51 1f ff 	andi $r5,$r2,#0x1fff
   91244:	e0 a9       	slts45 $r5,$r9
   91246:	e8 04       	beqzs8 9124e <predictor_zero+0x402>
   91248:	84 66       	movi55 $r3,#6
   9124a:	84 fa       	movi55 $r7,#-6
   9124c:	d5 57       	j8 912fa <predictor_zero+0x4ae>
   9124e:	e0 aa       	slts45 $r5,$r10
   91250:	e8 04       	beqzs8 91258 <predictor_zero+0x40c>
   91252:	84 65       	movi55 $r3,#5
   91254:	84 fb       	movi55 $r7,#-5
   91256:	d5 52       	j8 912fa <predictor_zero+0x4ae>
   91258:	e0 bc       	slts45 $r5,$fp
   9125a:	e8 04       	beqzs8 91262 <predictor_zero+0x416>
   9125c:	84 64       	movi55 $r3,#4
   9125e:	84 fc       	movi55 $r7,#-4
   91260:	d5 4d       	j8 912fa <predictor_zero+0x4ae>
   91262:	e0 be       	slts45 $r5,$lp
   91264:	e8 04       	beqzs8 9126c <predictor_zero+0x420>
   91266:	84 63       	movi55 $r3,#3
   91268:	84 fd       	movi55 $r7,#-3
   9126a:	d5 48       	j8 912fa <predictor_zero+0x4ae>
   9126c:	f2 01       	lwi37.sp $r2,[+#0x4]
   9126e:	e0 a2       	slts45 $r5,$r2
   91270:	e8 04       	beqzs8 91278 <predictor_zero+0x42c>
   91272:	84 62       	movi55 $r3,#2
   91274:	84 fe       	movi55 $r7,#-2
   91276:	d5 42       	j8 912fa <predictor_zero+0x4ae>
   91278:	f2 03       	lwi37.sp $r2,[+#0xc]
   9127a:	e0 a2       	slts45 $r5,$r2
   9127c:	e8 04       	beqzs8 91284 <predictor_zero+0x438>
   9127e:	84 61       	movi55 $r3,#1
   91280:	84 ff       	movi55 $r7,#-1
   91282:	d5 3c       	j8 912fa <predictor_zero+0x4ae>
   91284:	f2 02       	lwi37.sp $r2,[+#0x8]
   91286:	e0 a2       	slts45 $r5,$r2
   91288:	e8 04       	beqzs8 91290 <predictor_zero+0x444>
   9128a:	84 60       	movi55 $r3,#0
   9128c:	80 e3       	mov55 $r7,$r3
   9128e:	d5 36       	j8 912fa <predictor_zero+0x4ae>
   91290:	f2 04       	lwi37.sp $r2,[+#0x10]
   91292:	e0 a2       	slts45 $r5,$r2
   91294:	e8 04       	beqzs8 9129c <predictor_zero+0x450>
   91296:	84 7f       	movi55 $r3,#-1
   91298:	84 e1       	movi55 $r7,#1
   9129a:	d5 30       	j8 912fa <predictor_zero+0x4ae>
   9129c:	f2 06       	lwi37.sp $r2,[+#0x18]
   9129e:	e0 a2       	slts45 $r5,$r2
   912a0:	e8 04       	beqzs8 912a8 <predictor_zero+0x45c>
   912a2:	84 7e       	movi55 $r3,#-2
   912a4:	84 e2       	movi55 $r7,#2
   912a6:	d5 2a       	j8 912fa <predictor_zero+0x4ae>
   912a8:	f2 05       	lwi37.sp $r2,[+#0x14]
   912aa:	e0 a2       	slts45 $r5,$r2
   912ac:	e8 04       	beqzs8 912b4 <predictor_zero+0x468>
   912ae:	84 7d       	movi55 $r3,#-3
   912b0:	84 e3       	movi55 $r7,#3
   912b2:	d5 24       	j8 912fa <predictor_zero+0x4ae>
   912b4:	f2 08       	lwi37.sp $r2,[+#0x20]
   912b6:	e0 a2       	slts45 $r5,$r2
   912b8:	e8 04       	beqzs8 912c0 <predictor_zero+0x474>
   912ba:	84 7c       	movi55 $r3,#-4
   912bc:	84 e4       	movi55 $r7,#4
   912be:	d5 1e       	j8 912fa <predictor_zero+0x4ae>
   912c0:	f2 07       	lwi37.sp $r2,[+#0x1c]
   912c2:	e0 a2       	slts45 $r5,$r2
   912c4:	e8 04       	beqzs8 912cc <predictor_zero+0x480>
   912c6:	84 7b       	movi55 $r3,#-5
   912c8:	84 e5       	movi55 $r7,#5
   912ca:	d5 18       	j8 912fa <predictor_zero+0x4ae>
   912cc:	f2 09       	lwi37.sp $r2,[+#0x24]
   912ce:	e0 a2       	slts45 $r5,$r2
   912d0:	e8 04       	beqzs8 912d8 <predictor_zero+0x48c>
   912d2:	84 7a       	movi55 $r3,#-6
   912d4:	84 e6       	movi55 $r7,#6
   912d6:	d5 12       	j8 912fa <predictor_zero+0x4ae>
   912d8:	f2 0b       	lwi37.sp $r2,[+#0x2c]
   912da:	e0 a2       	slts45 $r5,$r2
   912dc:	e8 04       	beqzs8 912e4 <predictor_zero+0x498>
   912de:	84 79       	movi55 $r3,#-7
   912e0:	84 e7       	movi55 $r7,#7
   912e2:	d5 0c       	j8 912fa <predictor_zero+0x4ae>
   912e4:	f2 0a       	lwi37.sp $r2,[+#0x28]
   912e6:	84 e8       	movi55 $r7,#8
   912e8:	40 62 88 07 	slts $r6,$r5,$r2
   912ec:	84 49       	movi55 $r2,#9
   912ee:	84 78       	movi55 $r3,#-8
   912f0:	40 71 18 1a 	cmovz $r7,$r2,$r6
   912f4:	84 57       	movi55 $r2,#-9
   912f6:	40 31 18 1a 	cmovz $r3,$r2,$r6
   912fa:	cd 03       	bnez38 $r5,91300 <predictor_zero+0x4b4>
   912fc:	fa b0       	movpi45 $r5,#0x20
   912fe:	d5 09       	j8 91310 <predictor_zero+0x4c4>
   91300:	4e 74 00 06 	bgez $r7,9130c <predictor_zero+0x4c0>
   91304:	40 52 8c 0c 	sll $r5,$r5,$r3
   91308:	48 00 00 04 	j 91310 <predictor_zero+0x4c4>
   9130c:	40 52 9c 0e 	sra $r5,$r5,$r7
   91310:	40 24 18 0a 	srai $r2,$r8,#6
   91314:	54 31 00 0f 	andi $r3,$r2,#0xf
   91318:	54 24 00 3f 	andi $r2,$r8,#0x3f
   9131c:	fe ac       	mul33 $r2,$r5
   9131e:	8e 6d       	subi45 $r3,#13
   91320:	50 21 00 30 	addi $r2,$r2,#48
   91324:	98 df       	add333 $r3,$r3,$r7
   91326:	90 44       	srai45 $r2,#4
   91328:	4e 34 00 08 	bgez $r3,91338 <predictor_zero+0x4ec>
   9132c:	52 31 80 00 	subri $r3,$r3,#0
   91330:	40 21 0c 0e 	sra $r2,$r2,$r3
   91334:	48 00 00 06 	j 91340 <predictor_zero+0x4f4>
   91338:	40 21 0c 0c 	sll $r2,$r2,$r3
   9133c:	54 21 7f ff 	andi $r2,$r2,#0x7fff
   91340:	40 14 04 03 	xor $r1,$r8,$r1
   91344:	4e 14 00 04 	bgez $r1,9134c <predictor_zero+0x500>
   91348:	52 21 00 00 	subri $r2,$r2,#0
   9134c:	04 10 00 0b 	lwi $r1,[$r0+#0x2c]
   91350:	40 82 08 00 	add $r8,$r4,$r2
   91354:	40 10 88 0a 	srai $r1,$r1,#2
   91358:	22 40 00 22 	lhsi $r4,[$r0+#0x44]
   9135c:	4e 17 00 04 	blez $r1,91364 <predictor_zero+0x518>
   91360:	80 a1       	mov55 $r5,$r1
   91362:	d5 05       	j8 9136c <predictor_zero+0x520>
   91364:	52 20 80 00 	subri $r2,$r1,#0
   91368:	54 51 1f ff 	andi $r5,$r2,#0x1fff
   9136c:	e0 a9       	slts45 $r5,$r9
   9136e:	e8 04       	beqzs8 91376 <predictor_zero+0x52a>
   91370:	84 66       	movi55 $r3,#6
   91372:	84 fa       	movi55 $r7,#-6
   91374:	d5 57       	j8 91422 <predictor_zero+0x5d6>
   91376:	e0 aa       	slts45 $r5,$r10
   91378:	e8 04       	beqzs8 91380 <predictor_zero+0x534>
   9137a:	84 65       	movi55 $r3,#5
   9137c:	84 fb       	movi55 $r7,#-5
   9137e:	d5 52       	j8 91422 <predictor_zero+0x5d6>
   91380:	e0 bc       	slts45 $r5,$fp
   91382:	e8 04       	beqzs8 9138a <predictor_zero+0x53e>
   91384:	84 64       	movi55 $r3,#4
   91386:	84 fc       	movi55 $r7,#-4
   91388:	d5 4d       	j8 91422 <predictor_zero+0x5d6>
   9138a:	e0 be       	slts45 $r5,$lp
   9138c:	e8 04       	beqzs8 91394 <predictor_zero+0x548>
   9138e:	84 63       	movi55 $r3,#3
   91390:	84 fd       	movi55 $r7,#-3
   91392:	d5 48       	j8 91422 <predictor_zero+0x5d6>
   91394:	f2 01       	lwi37.sp $r2,[+#0x4]
   91396:	e0 a2       	slts45 $r5,$r2
   91398:	e8 04       	beqzs8 913a0 <predictor_zero+0x554>
   9139a:	84 62       	movi55 $r3,#2
   9139c:	84 fe       	movi55 $r7,#-2
   9139e:	d5 42       	j8 91422 <predictor_zero+0x5d6>
   913a0:	f2 03       	lwi37.sp $r2,[+#0xc]
   913a2:	e0 a2       	slts45 $r5,$r2
   913a4:	e8 04       	beqzs8 913ac <predictor_zero+0x560>
   913a6:	84 61       	movi55 $r3,#1
   913a8:	84 ff       	movi55 $r7,#-1
   913aa:	d5 3c       	j8 91422 <predictor_zero+0x5d6>
   913ac:	f2 02       	lwi37.sp $r2,[+#0x8]
   913ae:	e0 a2       	slts45 $r5,$r2
   913b0:	e8 04       	beqzs8 913b8 <predictor_zero+0x56c>
   913b2:	84 60       	movi55 $r3,#0
   913b4:	80 e3       	mov55 $r7,$r3
   913b6:	d5 36       	j8 91422 <predictor_zero+0x5d6>
   913b8:	f2 04       	lwi37.sp $r2,[+#0x10]
   913ba:	e0 a2       	slts45 $r5,$r2
   913bc:	e8 04       	beqzs8 913c4 <predictor_zero+0x578>
   913be:	84 7f       	movi55 $r3,#-1
   913c0:	84 e1       	movi55 $r7,#1
   913c2:	d5 30       	j8 91422 <predictor_zero+0x5d6>
   913c4:	f2 06       	lwi37.sp $r2,[+#0x18]
   913c6:	e0 a2       	slts45 $r5,$r2
   913c8:	e8 04       	beqzs8 913d0 <predictor_zero+0x584>
   913ca:	84 7e       	movi55 $r3,#-2
   913cc:	84 e2       	movi55 $r7,#2
   913ce:	d5 2a       	j8 91422 <predictor_zero+0x5d6>
   913d0:	f2 05       	lwi37.sp $r2,[+#0x14]
   913d2:	e0 a2       	slts45 $r5,$r2
   913d4:	e8 04       	beqzs8 913dc <predictor_zero+0x590>
   913d6:	84 7d       	movi55 $r3,#-3
   913d8:	84 e3       	movi55 $r7,#3
   913da:	d5 24       	j8 91422 <predictor_zero+0x5d6>
   913dc:	f2 08       	lwi37.sp $r2,[+#0x20]
   913de:	e0 a2       	slts45 $r5,$r2
   913e0:	e8 04       	beqzs8 913e8 <predictor_zero+0x59c>
   913e2:	84 7c       	movi55 $r3,#-4
   913e4:	84 e4       	movi55 $r7,#4
   913e6:	d5 1e       	j8 91422 <predictor_zero+0x5d6>
   913e8:	f2 07       	lwi37.sp $r2,[+#0x1c]
   913ea:	e0 a2       	slts45 $r5,$r2
   913ec:	e8 04       	beqzs8 913f4 <predictor_zero+0x5a8>
   913ee:	84 7b       	movi55 $r3,#-5
   913f0:	84 e5       	movi55 $r7,#5
   913f2:	d5 18       	j8 91422 <predictor_zero+0x5d6>
   913f4:	f2 09       	lwi37.sp $r2,[+#0x24]
   913f6:	e0 a2       	slts45 $r5,$r2
   913f8:	e8 04       	beqzs8 91400 <predictor_zero+0x5b4>
   913fa:	84 7a       	movi55 $r3,#-6
   913fc:	84 e6       	movi55 $r7,#6
   913fe:	d5 12       	j8 91422 <predictor_zero+0x5d6>
   91400:	f2 0b       	lwi37.sp $r2,[+#0x2c]
   91402:	e0 a2       	slts45 $r5,$r2
   91404:	e8 04       	beqzs8 9140c <predictor_zero+0x5c0>
   91406:	84 79       	movi55 $r3,#-7
   91408:	84 e7       	movi55 $r7,#7
   9140a:	d5 0c       	j8 91422 <predictor_zero+0x5d6>
   9140c:	f2 0a       	lwi37.sp $r2,[+#0x28]
   9140e:	84 e8       	movi55 $r7,#8
   91410:	40 62 88 07 	slts $r6,$r5,$r2
   91414:	84 49       	movi55 $r2,#9
   91416:	84 78       	movi55 $r3,#-8
   91418:	40 71 18 1a 	cmovz $r7,$r2,$r6
   9141c:	84 57       	movi55 $r2,#-9
   9141e:	40 31 18 1a 	cmovz $r3,$r2,$r6
   91422:	cd 03       	bnez38 $r5,91428 <predictor_zero+0x5dc>
   91424:	fa b0       	movpi45 $r5,#0x20
   91426:	d5 09       	j8 91438 <predictor_zero+0x5ec>
   91428:	4e 74 00 06 	bgez $r7,91434 <predictor_zero+0x5e8>
   9142c:	40 52 8c 0c 	sll $r5,$r5,$r3
   91430:	48 00 00 04 	j 91438 <predictor_zero+0x5ec>
   91434:	40 52 9c 0e 	sra $r5,$r5,$r7
   91438:	40 22 18 0a 	srai $r2,$r4,#6
   9143c:	54 31 00 0f 	andi $r3,$r2,#0xf
   91440:	54 22 00 3f 	andi $r2,$r4,#0x3f
   91444:	fe ac       	mul33 $r2,$r5
   91446:	8e 6d       	subi45 $r3,#13
   91448:	50 21 00 30 	addi $r2,$r2,#48
   9144c:	98 df       	add333 $r3,$r3,$r7
   9144e:	90 44       	srai45 $r2,#4
   91450:	4e 34 00 08 	bgez $r3,91460 <predictor_zero+0x614>
   91454:	52 31 80 00 	subri $r3,$r3,#0
   91458:	40 21 0c 0e 	sra $r2,$r2,$r3
   9145c:	48 00 00 06 	j 91468 <predictor_zero+0x61c>
   91460:	40 21 0c 0c 	sll $r2,$r2,$r3
   91464:	54 21 7f ff 	andi $r2,$r2,#0x7fff
   91468:	40 12 04 03 	xor $r1,$r4,$r1
   9146c:	4e 14 00 04 	bgez $r1,91474 <predictor_zero+0x628>
   91470:	52 21 00 00 	subri $r2,$r2,#0
   91474:	04 10 00 0c 	lwi $r1,[$r0+#0x30]
   91478:	40 84 08 00 	add $r8,$r8,$r2
   9147c:	40 70 88 0a 	srai $r7,$r1,#2
   91480:	22 60 00 23 	lhsi $r6,[$r0+#0x46]
   91484:	4e 77 00 04 	blez $r7,9148c <predictor_zero+0x640>
   91488:	80 67       	mov55 $r3,$r7
   9148a:	d5 05       	j8 91494 <predictor_zero+0x648>
   9148c:	52 33 80 00 	subri $r3,$r7,#0
   91490:	54 31 9f ff 	andi $r3,$r3,#0x1fff
   91494:	e0 69       	slts45 $r3,$r9
   91496:	e8 04       	beqzs8 9149e <predictor_zero+0x652>
   91498:	84 46       	movi55 $r2,#6
   9149a:	84 3a       	movi55 $r1,#-6
   9149c:	d5 57       	j8 9154a <predictor_zero+0x6fe>
   9149e:	e0 6a       	slts45 $r3,$r10
   914a0:	e8 04       	beqzs8 914a8 <predictor_zero+0x65c>
   914a2:	84 45       	movi55 $r2,#5
   914a4:	84 3b       	movi55 $r1,#-5
   914a6:	d5 52       	j8 9154a <predictor_zero+0x6fe>
   914a8:	e0 7c       	slts45 $r3,$fp
   914aa:	e8 04       	beqzs8 914b2 <predictor_zero+0x666>
   914ac:	84 44       	movi55 $r2,#4
   914ae:	84 3c       	movi55 $r1,#-4
   914b0:	d5 4d       	j8 9154a <predictor_zero+0x6fe>
   914b2:	e0 7e       	slts45 $r3,$lp
   914b4:	e8 04       	beqzs8 914bc <predictor_zero+0x670>
   914b6:	84 43       	movi55 $r2,#3
   914b8:	84 3d       	movi55 $r1,#-3
   914ba:	d5 48       	j8 9154a <predictor_zero+0x6fe>
   914bc:	f4 01       	lwi37.sp $r4,[+#0x4]
   914be:	e0 64       	slts45 $r3,$r4
   914c0:	e8 04       	beqzs8 914c8 <predictor_zero+0x67c>
   914c2:	84 42       	movi55 $r2,#2
   914c4:	84 3e       	movi55 $r1,#-2
   914c6:	d5 42       	j8 9154a <predictor_zero+0x6fe>
   914c8:	f0 03       	lwi37.sp $r0,[+#0xc]
   914ca:	e0 60       	slts45 $r3,$r0
   914cc:	e8 04       	beqzs8 914d4 <predictor_zero+0x688>
   914ce:	84 41       	movi55 $r2,#1
   914d0:	84 3f       	movi55 $r1,#-1
   914d2:	d5 3c       	j8 9154a <predictor_zero+0x6fe>
   914d4:	f2 02       	lwi37.sp $r2,[+#0x8]
   914d6:	e0 62       	slts45 $r3,$r2
   914d8:	e8 04       	beqzs8 914e0 <predictor_zero+0x694>
   914da:	84 40       	movi55 $r2,#0
   914dc:	80 22       	mov55 $r1,$r2
   914de:	d5 36       	j8 9154a <predictor_zero+0x6fe>
   914e0:	f4 04       	lwi37.sp $r4,[+#0x10]
   914e2:	e0 64       	slts45 $r3,$r4
   914e4:	e8 04       	beqzs8 914ec <predictor_zero+0x6a0>
   914e6:	84 5f       	movi55 $r2,#-1
   914e8:	84 21       	movi55 $r1,#1
   914ea:	d5 30       	j8 9154a <predictor_zero+0x6fe>
   914ec:	f0 06       	lwi37.sp $r0,[+#0x18]
   914ee:	e0 60       	slts45 $r3,$r0
   914f0:	e8 04       	beqzs8 914f8 <predictor_zero+0x6ac>
   914f2:	84 5e       	movi55 $r2,#-2
   914f4:	84 22       	movi55 $r1,#2
   914f6:	d5 2a       	j8 9154a <predictor_zero+0x6fe>
   914f8:	f2 05       	lwi37.sp $r2,[+#0x14]
   914fa:	e0 62       	slts45 $r3,$r2
   914fc:	e8 04       	beqzs8 91504 <predictor_zero+0x6b8>
   914fe:	84 5d       	movi55 $r2,#-3
   91500:	84 23       	movi55 $r1,#3
   91502:	d5 24       	j8 9154a <predictor_zero+0x6fe>
   91504:	f4 08       	lwi37.sp $r4,[+#0x20]
   91506:	e0 64       	slts45 $r3,$r4
   91508:	e8 04       	beqzs8 91510 <predictor_zero+0x6c4>
   9150a:	84 5c       	movi55 $r2,#-4
   9150c:	84 24       	movi55 $r1,#4
   9150e:	d5 1e       	j8 9154a <predictor_zero+0x6fe>
   91510:	f0 07       	lwi37.sp $r0,[+#0x1c]
   91512:	e0 60       	slts45 $r3,$r0
   91514:	e8 04       	beqzs8 9151c <predictor_zero+0x6d0>
   91516:	84 5b       	movi55 $r2,#-5
   91518:	84 25       	movi55 $r1,#5
   9151a:	d5 18       	j8 9154a <predictor_zero+0x6fe>
   9151c:	f2 09       	lwi37.sp $r2,[+#0x24]
   9151e:	e0 62       	slts45 $r3,$r2
   91520:	e8 04       	beqzs8 91528 <predictor_zero+0x6dc>
   91522:	84 5a       	movi55 $r2,#-6
   91524:	84 26       	movi55 $r1,#6
   91526:	d5 12       	j8 9154a <predictor_zero+0x6fe>
   91528:	f4 0b       	lwi37.sp $r4,[+#0x2c]
   9152a:	e0 64       	slts45 $r3,$r4
   9152c:	e8 04       	beqzs8 91534 <predictor_zero+0x6e8>
   9152e:	84 59       	movi55 $r2,#-7
   91530:	84 27       	movi55 $r1,#7
   91532:	d5 0c       	j8 9154a <predictor_zero+0x6fe>
   91534:	f0 0a       	lwi37.sp $r0,[+#0x28]
   91536:	84 a9       	movi55 $r5,#9
   91538:	40 41 80 07 	slts $r4,$r3,$r0
   9153c:	84 28       	movi55 $r1,#8
   9153e:	84 58       	movi55 $r2,#-8
   91540:	40 12 90 1a 	cmovz $r1,$r5,$r4
   91544:	84 b7       	movi55 $r5,#-9
   91546:	40 22 90 1a 	cmovz $r2,$r5,$r4
   9154a:	cb 03       	bnez38 $r3,91550 <predictor_zero+0x704>
   9154c:	fa 50       	movpi45 $r2,#0x20
   9154e:	d5 09       	j8 91560 <predictor_zero+0x714>
   91550:	4e 15 00 06 	bltz $r1,9155c <predictor_zero+0x710>
   91554:	40 21 84 0e 	sra $r2,$r3,$r1
   91558:	48 00 00 04 	j 91560 <predictor_zero+0x714>
   9155c:	40 21 88 0c 	sll $r2,$r3,$r2
   91560:	40 33 18 0a 	srai $r3,$r6,#6
   91564:	96 df       	fexti33 $r3,#0x3
   91566:	54 43 00 3f 	andi $r4,$r6,#0x3f
   9156a:	fe a4       	mul33 $r2,$r4
   9156c:	8e 6d       	subi45 $r3,#13
   9156e:	50 21 00 30 	addi $r2,$r2,#48
   91572:	98 59       	add333 $r1,$r3,$r1
   91574:	40 21 10 0a 	srai $r2,$r2,#4
   91578:	4e 15 00 08 	bltz $r1,91588 <predictor_zero+0x73c>
   9157c:	40 21 04 0c 	sll $r2,$r2,$r1
   91580:	54 01 7f ff 	andi $r0,$r2,#0x7fff
   91584:	48 00 00 06 	j 91590 <predictor_zero+0x744>
   91588:	52 30 80 00 	subri $r3,$r1,#0
   9158c:	40 01 0c 0e 	sra $r0,$r2,$r3
   91590:	40 13 1c 03 	xor $r1,$r6,$r7
   91594:	4e 14 00 03 	bgez $r1,9159a <predictor_zero+0x74e>
   91598:	fe 02       	neg33 $r0,$r0
   9159a:	88 08       	add45 $r0,$r8
   9159c:	ec 34       	addi10.sp #52
   9159e:	3a 6f aa 84 	lmw.bim $r6,[$sp],$r10,#0xa    ! {$r6~$r10, $fp, $lp}
   915a2:	dd 9e       	ret5 $lp

000915a4 <predictor_pole>:
   915a4:	3a 6f 9c 3c 	smw.adm $r6,[$sp],$r7,#0x0    ! {$r6~$r7}
   915a8:	a1 06       	lwi333 $r4,[$r0+#0x18]
   915aa:	04 30 00 13 	lwi $r3,[$r0+#0x4c]
   915ae:	90 82       	srai45 $r4,#2
   915b0:	4e 47 00 04 	blez $r4,915b8 <predictor_pole+0x14>
   915b4:	80 24       	mov55 $r1,$r4
   915b6:	d5 05       	j8 915c0 <predictor_pole+0x1c>
   915b8:	52 12 00 00 	subri $r1,$r4,#0
   915bc:	54 10 9f ff 	andi $r1,$r1,#0x1fff
   915c0:	3c 67 e1 26 	lhsi.gp $r6,[+#-15796]
   915c4:	e0 26       	slts45 $r1,$r6
   915c6:	e8 05       	beqzs8 915d0 <predictor_pole+0x2c>
   915c8:	44 20 00 00 	movi $r2,#0
   915cc:	48 00 00 5b 	j 91682 <predictor_pole+0xde>
   915d0:	3c 27 e1 27 	lhsi.gp $r2,[+#-15794]
   915d4:	e0 22       	slts45 $r1,$r2
   915d6:	e8 05       	beqzs8 915e0 <predictor_pole+0x3c>
   915d8:	44 20 00 01 	movi $r2,#1
   915dc:	48 00 00 53 	j 91682 <predictor_pole+0xde>
   915e0:	3c 27 e1 28 	lhsi.gp $r2,[+#-15792]
   915e4:	e0 22       	slts45 $r1,$r2
   915e6:	e8 03       	beqzs8 915ec <predictor_pole+0x48>
   915e8:	84 42       	movi55 $r2,#2
   915ea:	d5 4c       	j8 91682 <predictor_pole+0xde>
   915ec:	3c 27 e1 29 	lhsi.gp $r2,[+#-15790]
   915f0:	e0 22       	slts45 $r1,$r2
   915f2:	e8 03       	beqzs8 915f8 <predictor_pole+0x54>
   915f4:	84 43       	movi55 $r2,#3
   915f6:	d5 46       	j8 91682 <predictor_pole+0xde>
   915f8:	3c 27 e1 2a 	lhsi.gp $r2,[+#-15788]
   915fc:	e0 22       	slts45 $r1,$r2
   915fe:	e8 03       	beqzs8 91604 <predictor_pole+0x60>
   91600:	84 44       	movi55 $r2,#4
   91602:	d5 40       	j8 91682 <predictor_pole+0xde>
   91604:	3c 27 e1 2b 	lhsi.gp $r2,[+#-15786]
   91608:	e0 22       	slts45 $r1,$r2
   9160a:	e8 03       	beqzs8 91610 <predictor_pole+0x6c>
   9160c:	84 45       	movi55 $r2,#5
   9160e:	d5 3a       	j8 91682 <predictor_pole+0xde>
   91610:	3c 27 e1 2c 	lhsi.gp $r2,[+#-15784]
   91614:	e0 22       	slts45 $r1,$r2
   91616:	e8 03       	beqzs8 9161c <predictor_pole+0x78>
   91618:	84 46       	movi55 $r2,#6
   9161a:	d5 34       	j8 91682 <predictor_pole+0xde>
   9161c:	3c 27 e1 2d 	lhsi.gp $r2,[+#-15782]
   91620:	e0 22       	slts45 $r1,$r2
   91622:	e8 03       	beqzs8 91628 <predictor_pole+0x84>
   91624:	84 47       	movi55 $r2,#7
   91626:	d5 2e       	j8 91682 <predictor_pole+0xde>
   91628:	3c 27 e1 2e 	lhsi.gp $r2,[+#-15780]
   9162c:	e0 22       	slts45 $r1,$r2
   9162e:	e8 03       	beqzs8 91634 <predictor_pole+0x90>
   91630:	84 48       	movi55 $r2,#8
   91632:	d5 28       	j8 91682 <predictor_pole+0xde>
   91634:	3c 27 e1 2f 	lhsi.gp $r2,[+#-15778]
   91638:	e0 22       	slts45 $r1,$r2
   9163a:	e8 03       	beqzs8 91640 <predictor_pole+0x9c>
   9163c:	84 49       	movi55 $r2,#9
   9163e:	d5 22       	j8 91682 <predictor_pole+0xde>
   91640:	3c 27 e1 30 	lhsi.gp $r2,[+#-15776]
   91644:	e0 22       	slts45 $r1,$r2
   91646:	e8 03       	beqzs8 9164c <predictor_pole+0xa8>
   91648:	84 4a       	movi55 $r2,#10
   9164a:	d5 1c       	j8 91682 <predictor_pole+0xde>
   9164c:	3c 27 e1 31 	lhsi.gp $r2,[+#-15774]
   91650:	e0 22       	slts45 $r1,$r2
   91652:	e8 03       	beqzs8 91658 <predictor_pole+0xb4>
   91654:	84 4b       	movi55 $r2,#11
   91656:	d5 16       	j8 91682 <predictor_pole+0xde>
   91658:	3c 27 e1 32 	lhsi.gp $r2,[+#-15772]
   9165c:	e0 22       	slts45 $r1,$r2
   9165e:	e8 03       	beqzs8 91664 <predictor_pole+0xc0>
   91660:	84 4c       	movi55 $r2,#12
   91662:	d5 10       	j8 91682 <predictor_pole+0xde>
   91664:	3c 27 e1 33 	lhsi.gp $r2,[+#-15770]
   91668:	e0 22       	slts45 $r1,$r2
   9166a:	e8 03       	beqzs8 91670 <predictor_pole+0xcc>
   9166c:	84 4d       	movi55 $r2,#13
   9166e:	d5 0a       	j8 91682 <predictor_pole+0xde>
   91670:	3c 77 e1 34 	lhsi.gp $r7,[+#-15768]
   91674:	44 20 00 0e 	movi $r2,#14
   91678:	40 70 9c 07 	slts $r7,$r1,$r7
   9167c:	84 af       	movi55 $r5,#15
   9167e:	40 22 9c 1a 	cmovz $r2,$r5,$r7
   91682:	9e 96       	subi333 $r2,$r2,#6
   91684:	c9 04       	bnez38 $r1,9168c <predictor_pole+0xe8>
   91686:	fa 30       	movpi45 $r1,#0x20
   91688:	48 00 00 0c 	j 916a0 <predictor_pole+0xfc>
   9168c:	4e 25 00 06 	bltz $r2,91698 <predictor_pole+0xf4>
   91690:	40 10 88 0e 	sra $r1,$r1,$r2
   91694:	48 00 00 06 	j 916a0 <predictor_pole+0xfc>
   91698:	52 51 00 00 	subri $r5,$r2,#0
   9169c:	40 10 94 0c 	sll $r1,$r1,$r5
   916a0:	40 51 98 0a 	srai $r5,$r3,#6
   916a4:	97 5f       	fexti33 $r5,#0x3
   916a6:	54 71 80 3f 	andi $r7,$r3,#0x3f
   916aa:	8e ad       	subi45 $r5,#13
   916ac:	fe 7c       	mul33 $r1,$r7
   916ae:	98 aa       	add333 $r2,$r5,$r2
   916b0:	50 50 80 30 	addi $r5,$r1,#48
   916b4:	40 52 90 0a 	srai $r5,$r5,#4
   916b8:	4e 25 00 08 	bltz $r2,916c8 <predictor_pole+0x124>
   916bc:	40 52 88 0c 	sll $r5,$r5,$r2
   916c0:	54 52 ff ff 	andi $r5,$r5,#0x7fff
   916c4:	48 00 00 06 	j 916d0 <predictor_pole+0x12c>
   916c8:	52 21 00 00 	subri $r2,$r2,#0
   916cc:	40 52 88 0e 	sra $r5,$r5,$r2
   916d0:	fe e5       	xor33 $r3,$r4
   916d2:	4e 34 00 03 	bgez $r3,916d8 <predictor_pole+0x134>
   916d6:	ff 6a       	neg33 $r5,$r5
   916d8:	04 40 00 05 	lwi $r4,[$r0+#0x14]
   916dc:	04 30 00 12 	lwi $r3,[$r0+#0x48]
   916e0:	40 42 08 0a 	srai $r4,$r4,#2
   916e4:	4e 47 00 04 	blez $r4,916ec <predictor_pole+0x148>
   916e8:	80 24       	mov55 $r1,$r4
   916ea:	d5 04       	j8 916f2 <predictor_pole+0x14e>
   916ec:	fe 62       	neg33 $r1,$r4
   916ee:	54 10 9f ff 	andi $r1,$r1,#0x1fff
   916f2:	e0 26       	slts45 $r1,$r6
   916f4:	e8 04       	beqzs8 916fc <predictor_pole+0x158>
   916f6:	84 40       	movi55 $r2,#0
   916f8:	48 00 00 5b 	j 917ae <predictor_pole+0x20a>
   916fc:	3c 07 e1 27 	lhsi.gp $r0,[+#-15794]
   91700:	e0 20       	slts45 $r1,$r0
   91702:	e8 05       	beqzs8 9170c <predictor_pole+0x168>
   91704:	44 20 00 01 	movi $r2,#1
   91708:	48 00 00 53 	j 917ae <predictor_pole+0x20a>
   9170c:	3c 07 e1 28 	lhsi.gp $r0,[+#-15792]
   91710:	e0 20       	slts45 $r1,$r0
   91712:	e8 03       	beqzs8 91718 <predictor_pole+0x174>
   91714:	84 42       	movi55 $r2,#2
   91716:	d5 4c       	j8 917ae <predictor_pole+0x20a>
   91718:	3c 07 e1 29 	lhsi.gp $r0,[+#-15790]
   9171c:	e0 20       	slts45 $r1,$r0
   9171e:	e8 03       	beqzs8 91724 <predictor_pole+0x180>
   91720:	84 43       	movi55 $r2,#3
   91722:	d5 46       	j8 917ae <predictor_pole+0x20a>
   91724:	3c 07 e1 2a 	lhsi.gp $r0,[+#-15788]
   91728:	e0 20       	slts45 $r1,$r0
   9172a:	e8 03       	beqzs8 91730 <predictor_pole+0x18c>
   9172c:	84 44       	movi55 $r2,#4
   9172e:	d5 40       	j8 917ae <predictor_pole+0x20a>
   91730:	3c 07 e1 2b 	lhsi.gp $r0,[+#-15786]
   91734:	e0 20       	slts45 $r1,$r0
   91736:	e8 03       	beqzs8 9173c <predictor_pole+0x198>
   91738:	84 45       	movi55 $r2,#5
   9173a:	d5 3a       	j8 917ae <predictor_pole+0x20a>
   9173c:	3c 07 e1 2c 	lhsi.gp $r0,[+#-15784]
   91740:	e0 20       	slts45 $r1,$r0
   91742:	e8 03       	beqzs8 91748 <predictor_pole+0x1a4>
   91744:	84 46       	movi55 $r2,#6
   91746:	d5 34       	j8 917ae <predictor_pole+0x20a>
   91748:	3c 07 e1 2d 	lhsi.gp $r0,[+#-15782]
   9174c:	e0 20       	slts45 $r1,$r0
   9174e:	e8 03       	beqzs8 91754 <predictor_pole+0x1b0>
   91750:	84 47       	movi55 $r2,#7
   91752:	d5 2e       	j8 917ae <predictor_pole+0x20a>
   91754:	3c 07 e1 2e 	lhsi.gp $r0,[+#-15780]
   91758:	e0 20       	slts45 $r1,$r0
   9175a:	e8 03       	beqzs8 91760 <predictor_pole+0x1bc>
   9175c:	84 48       	movi55 $r2,#8
   9175e:	d5 28       	j8 917ae <predictor_pole+0x20a>
   91760:	3c 07 e1 2f 	lhsi.gp $r0,[+#-15778]
   91764:	e0 20       	slts45 $r1,$r0
   91766:	e8 03       	beqzs8 9176c <predictor_pole+0x1c8>
   91768:	84 49       	movi55 $r2,#9
   9176a:	d5 22       	j8 917ae <predictor_pole+0x20a>
   9176c:	3c 07 e1 30 	lhsi.gp $r0,[+#-15776]
   91770:	e0 20       	slts45 $r1,$r0
   91772:	e8 03       	beqzs8 91778 <predictor_pole+0x1d4>
   91774:	84 4a       	movi55 $r2,#10
   91776:	d5 1c       	j8 917ae <predictor_pole+0x20a>
   91778:	3c 07 e1 31 	lhsi.gp $r0,[+#-15774]
   9177c:	e0 20       	slts45 $r1,$r0
   9177e:	e8 03       	beqzs8 91784 <predictor_pole+0x1e0>
   91780:	84 4b       	movi55 $r2,#11
   91782:	d5 16       	j8 917ae <predictor_pole+0x20a>
   91784:	3c 07 e1 32 	lhsi.gp $r0,[+#-15772]
   91788:	e0 20       	slts45 $r1,$r0
   9178a:	e8 03       	beqzs8 91790 <predictor_pole+0x1ec>
   9178c:	84 4c       	movi55 $r2,#12
   9178e:	d5 10       	j8 917ae <predictor_pole+0x20a>
   91790:	3c 07 e1 33 	lhsi.gp $r0,[+#-15770]
   91794:	e0 20       	slts45 $r1,$r0
   91796:	e8 03       	beqzs8 9179c <predictor_pole+0x1f8>
   91798:	84 4d       	movi55 $r2,#13
   9179a:	d5 0a       	j8 917ae <predictor_pole+0x20a>
   9179c:	3c 67 e1 34 	lhsi.gp $r6,[+#-15768]
   917a0:	44 20 00 0e 	movi $r2,#14
   917a4:	40 60 98 07 	slts $r6,$r1,$r6
   917a8:	84 0f       	movi55 $r0,#15
   917aa:	40 20 18 1a 	cmovz $r2,$r0,$r6
   917ae:	9e 96       	subi333 $r2,$r2,#6
   917b0:	c9 04       	bnez38 $r1,917b8 <predictor_pole+0x214>
   917b2:	fa 30       	movpi45 $r1,#0x20
   917b4:	48 00 00 0c 	j 917cc <predictor_pole+0x228>
   917b8:	4e 25 00 06 	bltz $r2,917c4 <predictor_pole+0x220>
   917bc:	40 10 88 0e 	sra $r1,$r1,$r2
   917c0:	48 00 00 06 	j 917cc <predictor_pole+0x228>
   917c4:	52 01 00 00 	subri $r0,$r2,#0
   917c8:	40 10 80 0c 	sll $r1,$r1,$r0
   917cc:	40 61 98 0a 	srai $r6,$r3,#6
   917d0:	97 9f       	fexti33 $r6,#0x3
   917d2:	54 01 80 3f 	andi $r0,$r3,#0x3f
   917d6:	fe 0c       	mul33 $r0,$r1
   917d8:	50 13 7f f3 	addi $r1,$r6,#-13
   917dc:	50 00 00 30 	addi $r0,$r0,#48
   917e0:	98 8a       	add333 $r2,$r1,$r2
   917e2:	90 04       	srai45 $r0,#4
   917e4:	4e 25 00 08 	bltz $r2,917f4 <predictor_pole+0x250>
   917e8:	40 00 08 0c 	sll $r0,$r0,$r2
   917ec:	54 00 7f ff 	andi $r0,$r0,#0x7fff
   917f0:	48 00 00 06 	j 917fc <predictor_pole+0x258>
   917f4:	52 21 00 00 	subri $r2,$r2,#0
   917f8:	40 00 08 0e 	sra $r0,$r0,$r2
   917fc:	fe e5       	xor33 $r3,$r4
   917fe:	4e 34 00 03 	bgez $r3,91804 <predictor_pole+0x260>
   91802:	fe 02       	neg33 $r0,$r0
   91804:	40 00 14 00 	add $r0,$r0,$r5
   91808:	3a 6f 9c 04 	lmw.bim $r6,[$sp],$r7,#0x0    ! {$r6~$r7}
   9180c:	dd 9e       	ret5 $lp
   9180e:	92 00       	nop16

00091810 <ima_adpcm_encode_init>:
   91810:	84 00       	movi55 $r0,#0
   91812:	3c 0b ea 12 	shi.gp $r0,[+#-11228]
   91816:	3c 0b ea 13 	shi.gp $r0,[+#-11226]
   9181a:	3e 0f c8 24 	addi.gp $r0,#-14300
   9181e:	50 20 00 a0 	addi $r2,$r0,#160
   91822:	84 20       	movi55 $r1,#0
   91824:	aa 41       	swi333.bi $r1,[$r0],#0x4
   91826:	4c 01 7f ff 	bne $r0,$r2,91824 <ima_adpcm_encode_init+0x14>
   9182a:	fa 16       	movpi45 $r0,#0x26
   9182c:	3c 0b ea 11 	shi.gp $r0,[+#-11230]
   91830:	dd 9e       	ret5 $lp
   91832:	92 00       	nop16

00091834 <ima_32_encoder>:
   91834:	3a 6f a0 3c 	smw.adm $r6,[$sp],$r8,#0x0    ! {$r6~$r8}
   91838:	3c 57 ea 13 	lhsi.gp $r5,[+#-11226]
   9183c:	3c 63 ea 12 	lhi.gp $r6,[+#-11228]
   91840:	46 10 00 a3 	sethi $r1,#0xa3
   91844:	58 10 8a d0 	ori $r1,$r1,#0xad0
   91848:	40 00 14 01 	sub $r0,$r0,$r5
   9184c:	38 10 99 11 	lhs $r1,[$r1+($r6<<#0x1)]
   91850:	4e 05 00 05 	bltz $r0,9185a <ima_32_encoder+0x26>
   91854:	44 20 00 00 	movi $r2,#0
   91858:	d5 03       	j8 9185e <ima_32_encoder+0x2a>
   9185a:	fe 02       	neg33 $r0,$r0
   9185c:	84 41       	movi55 $r2,#1
   9185e:	98 92       	add333 $r2,$r2,$r2
   91860:	40 40 04 07 	slts $r4,$r0,$r1
   91864:	50 81 00 01 	addi $r8,$r2,#1
   91868:	40 81 10 1b 	cmovn $r8,$r2,$r4
   9186c:	40 20 04 01 	sub $r2,$r0,$r1
   91870:	40 01 10 1a 	cmovz $r0,$r2,$r4
   91874:	40 30 84 0a 	srai $r3,$r1,#1
   91878:	40 84 20 00 	add $r8,$r8,$r8
   9187c:	40 20 0c 07 	slts $r2,$r0,$r3
   91880:	50 74 00 01 	addi $r7,$r8,#1
   91884:	40 83 88 1a 	cmovz $r8,$r7,$r2
   91888:	84 e0       	movi55 $r7,#0
   9188a:	40 70 90 1a 	cmovz $r7,$r1,$r4
   9188e:	80 87       	mov55 $r4,$r7
   91890:	40 70 0c 01 	sub $r7,$r0,$r3
   91894:	40 03 88 1a 	cmovz $r0,$r7,$r2
   91898:	40 84 20 00 	add $r8,$r8,$r8
   9189c:	40 70 88 0a 	srai $r7,$r1,#2
   918a0:	40 32 0c 00 	add $r3,$r4,$r3
   918a4:	40 41 88 1a 	cmovz $r4,$r3,$r2
   918a8:	40 30 1c 07 	slts $r3,$r0,$r7
   918ac:	50 04 00 01 	addi $r0,$r8,#1
   918b0:	80 44       	mov55 $r2,$r4
   918b2:	40 04 0c 1b 	cmovn $r0,$r8,$r3
   918b6:	99 e7       	add333 $r7,$r4,$r7
   918b8:	40 23 8c 1a 	cmovz $r2,$r7,$r3
   918bc:	90 23       	srai45 $r1,#3
   918be:	54 80 00 08 	andi $r8,$r0,#0x8
   918c2:	98 51       	add333 $r1,$r2,$r1
   918c4:	4e 82 00 05 	beqz $r8,918ce <ima_32_encoder+0x9a>
   918c8:	40 12 84 01 	sub $r1,$r5,$r1
   918cc:	d5 02       	j8 918d0 <ima_32_encoder+0x9c>
   918ce:	98 4d       	add333 $r1,$r1,$r5
   918d0:	46 20 00 a3 	sethi $r2,#0xa3
   918d4:	58 21 0a c0 	ori $r2,$r2,#0xac0
   918d8:	38 31 00 10 	lbs $r3,[$r2+($r0<<#0x0)]
   918dc:	44 2f 80 00 	movi $r2,#-32768
   918e0:	40 31 98 00 	add $r3,$r3,$r6
   918e4:	40 50 88 07 	slts $r5,$r1,$r2
   918e8:	44 20 00 58 	movi $r2,#88
   918ec:	40 41 0c 07 	slts $r4,$r2,$r3
   918f0:	44 2f 80 00 	movi $r2,#-32768
   918f4:	40 11 14 1b 	cmovn $r1,$r2,$r5
   918f8:	44 20 00 58 	movi $r2,#88
   918fc:	40 21 90 1a 	cmovz $r2,$r3,$r4
   91900:	44 30 7f ff 	movi $r3,#32767
   91904:	40 51 84 07 	slts $r5,$r3,$r1
   91908:	40 11 94 1b 	cmovn $r1,$r3,$r5
   9190c:	5e 41 00 00 	sltsi $r4,$r2,#0
   91910:	44 30 00 00 	movi $r3,#0
   91914:	40 21 90 1b 	cmovn $r2,$r3,$r4
   91918:	3c 1b ea 13 	shi.gp $r1,[+#-11226]
   9191c:	3c 2b ea 12 	shi.gp $r2,[+#-11228]
   91920:	3a 6f a0 04 	lmw.bim $r6,[$sp],$r8,#0x0    ! {$r6~$r8}
   91924:	dd 9e       	ret5 $lp
   91926:	92 00       	nop16

00091928 <ima_adpcm_encode_proc>:
   91928:	3a 6f aa bc 	smw.adm $r6,[$sp],$r10,#0xa    ! {$r6~$r10, $fp, $lp}
   9192c:	ef ec       	addi10.sp #-20
   9192e:	f1 82       	swi37.sp $r1,[+#0x8]
   91930:	4e 26 00 06 	bgtz $r2,9193c <ima_adpcm_encode_proc+0x14>
   91934:	44 00 00 00 	movi $r0,#0
   91938:	48 00 01 08 	j 91b48 <ima_adpcm_encode_proc+0x220>
   9193c:	9e 91       	subi333 $r2,$r2,#1
   9193e:	87 80       	movi55 $fp,#0
   91940:	92 41       	srli45 $r2,#1
   91942:	9c 91       	addi333 $r2,$r2,#1
   91944:	15 cf 80 00 	swi $fp,[$sp+#0x0]
   91948:	f0 81       	swi37.sp $r0,[+#0x4]
   9194a:	f2 83       	swi37.sp $r2,[+#0xc]
   9194c:	83 dc       	mov55 $lp,$fp
   9194e:	80 40       	mov55 $r2,$r0
   91950:	22 01 00 00 	lhsi $r0,[$r2+#0x0]
   91954:	3c 17 ea 13 	lhsi.gp $r1,[+#-11226]
   91958:	3d c3 ea 12 	lhi.gp $fp,[+#-11228]
   9195c:	46 20 00 a3 	sethi $r2,#0xa3
   91960:	58 21 0a d0 	ori $r2,$r2,#0xad0
   91964:	40 00 04 01 	sub $r0,$r0,$r1
   91968:	38 91 71 11 	lhs $r9,[$r2+($fp<<#0x1)]
   9196c:	4e 05 00 04 	bltz $r0,91974 <ima_adpcm_encode_proc+0x4c>
   91970:	84 e0       	movi55 $r7,#0
   91972:	d5 03       	j8 91978 <ima_adpcm_encode_proc+0x50>
   91974:	fe 02       	neg33 $r0,$r0
   91976:	84 e1       	movi55 $r7,#1
   91978:	40 83 9c 00 	add $r8,$r7,$r7
   9197c:	40 60 24 07 	slts $r6,$r0,$r9
   91980:	50 74 00 01 	addi $r7,$r8,#1
   91984:	40 74 18 1b 	cmovn $r7,$r8,$r6
   91988:	40 40 24 01 	sub $r4,$r0,$r9
   9198c:	40 02 18 1a 	cmovz $r0,$r4,$r6
   91990:	40 54 84 0a 	srai $r5,$r9,#1
   91994:	40 83 9c 00 	add $r8,$r7,$r7
   91998:	40 a0 14 07 	slts $r10,$r0,$r5
   9199c:	50 74 00 01 	addi $r7,$r8,#1
   919a0:	50 34 80 00 	addi $r3,$r9,#0
   919a4:	40 3f 18 1b 	cmovn $r3,$lp,$r6
   919a8:	40 74 28 1b 	cmovn $r7,$r8,$r10
   919ac:	40 60 14 01 	sub $r6,$r0,$r5
   919b0:	40 84 88 0a 	srai $r8,$r9,#2
   919b4:	40 60 28 1b 	cmovn $r6,$r0,$r10
   919b8:	99 ff       	add333 $r7,$r7,$r7
   919ba:	99 5d       	add333 $r5,$r3,$r5
   919bc:	40 63 20 07 	slts $r6,$r6,$r8
   919c0:	40 51 a8 1b 	cmovn $r5,$r3,$r10
   919c4:	50 03 80 01 	addi $r0,$r7,#1
   919c8:	40 03 98 1b 	cmovn $r0,$r7,$r6
   919cc:	40 42 a0 00 	add $r4,$r5,$r8
   919d0:	40 52 18 1a 	cmovz $r5,$r4,$r6
   919d4:	40 94 8c 0a 	srai $r9,$r9,#3
   919d8:	54 80 00 08 	andi $r8,$r0,#0x8
   919dc:	40 64 94 00 	add $r6,$r9,$r5
   919e0:	4e 82 00 04 	beqz $r8,919e8 <ima_adpcm_encode_proc+0xc0>
   919e4:	9b 0e       	sub333 $r4,$r1,$r6
   919e6:	d5 03       	j8 919ec <ima_adpcm_encode_proc+0xc4>
   919e8:	40 43 04 00 	add $r4,$r6,$r1
   919ec:	46 10 00 a3 	sethi $r1,#0xa3
   919f0:	58 10 8a c0 	ori $r1,$r1,#0xac0
   919f4:	38 20 80 10 	lbs $r2,[$r1+($r0<<#0x0)]
   919f8:	44 1f 80 00 	movi $r1,#-32768
   919fc:	40 32 04 07 	slts $r3,$r4,$r1
   91a00:	40 21 70 00 	add $r2,$r2,$fp
   91a04:	44 10 00 58 	movi $r1,#88
   91a08:	40 50 88 07 	slts $r5,$r1,$r2
   91a0c:	44 1f 80 00 	movi $r1,#-32768
   91a10:	40 40 8c 1b 	cmovn $r4,$r1,$r3
   91a14:	44 10 00 58 	movi $r1,#88
   91a18:	40 20 94 1b 	cmovn $r2,$r1,$r5
   91a1c:	44 10 7f ff 	movi $r1,#32767
   91a20:	40 30 90 07 	slts $r3,$r1,$r4
   91a24:	5e 51 00 00 	sltsi $r5,$r2,#0
   91a28:	40 12 0c 1a 	cmovz $r1,$r4,$r3
   91a2c:	40 2f 14 1b 	cmovn $r2,$lp,$r5
   91a30:	41 c0 80 11 	seh $fp,$r1
   91a34:	40 21 00 13 	zeh $r2,$r2
   91a38:	46 10 00 a3 	sethi $r1,#0xa3
   91a3c:	58 10 8a d0 	ori $r1,$r1,#0xad0
   91a40:	3d cb ea 13 	shi.gp $fp,[+#-11226]
   91a44:	3c 2b ea 12 	shi.gp $r2,[+#-11228]
   91a48:	38 90 89 11 	lhs $r9,[$r1+($r2<<#0x1)]
   91a4c:	04 1f 80 01 	lwi $r1,[$sp+#0x4]
   91a50:	22 30 80 01 	lhsi $r3,[$r1+#0x2]
   91a54:	40 51 f0 01 	sub $r5,$r3,$fp
   91a58:	4e 55 00 04 	bltz $r5,91a60 <ima_adpcm_encode_proc+0x138>
   91a5c:	84 80       	movi55 $r4,#0
   91a5e:	d5 03       	j8 91a64 <ima_adpcm_encode_proc+0x13c>
   91a60:	ff 6a       	neg33 $r5,$r5
   91a62:	84 81       	movi55 $r4,#1
   91a64:	40 82 10 00 	add $r8,$r4,$r4
   91a68:	40 62 a4 07 	slts $r6,$r5,$r9
   91a6c:	50 44 00 01 	addi $r4,$r8,#1
   91a70:	40 44 18 1b 	cmovn $r4,$r8,$r6
   91a74:	40 32 a4 01 	sub $r3,$r5,$r9
   91a78:	40 32 98 1b 	cmovn $r3,$r5,$r6
   91a7c:	40 82 10 00 	add $r8,$r4,$r4
   91a80:	40 54 84 0a 	srai $r5,$r9,#1
   91a84:	40 a1 94 07 	slts $r10,$r3,$r5
   91a88:	50 44 00 01 	addi $r4,$r8,#1
   91a8c:	50 14 80 00 	addi $r1,$r9,#0
   91a90:	40 44 28 1b 	cmovn $r4,$r8,$r10
   91a94:	40 1f 18 1b 	cmovn $r1,$lp,$r6
   91a98:	40 61 94 01 	sub $r6,$r3,$r5
   91a9c:	40 84 88 0a 	srai $r8,$r9,#2
   91aa0:	40 61 a8 1b 	cmovn $r6,$r3,$r10
   91aa4:	99 e4       	add333 $r7,$r4,$r4
   91aa6:	99 4d       	add333 $r5,$r1,$r5
   91aa8:	40 63 20 07 	slts $r6,$r6,$r8
   91aac:	40 50 a8 1b 	cmovn $r5,$r1,$r10
   91ab0:	50 43 80 01 	addi $r4,$r7,#1
   91ab4:	40 43 98 1b 	cmovn $r4,$r7,$r6
   91ab8:	40 32 a0 00 	add $r3,$r5,$r8
   91abc:	40 51 98 1a 	cmovz $r5,$r3,$r6
   91ac0:	40 94 8c 0a 	srai $r9,$r9,#3
   91ac4:	54 82 00 08 	andi $r8,$r4,#0x8
   91ac8:	40 64 94 00 	add $r6,$r9,$r5
   91acc:	4e 82 00 06 	beqz $r8,91ad8 <ima_adpcm_encode_proc+0x1b0>
   91ad0:	40 3e 18 01 	sub $r3,$fp,$r6
   91ad4:	48 00 00 04 	j 91adc <ima_adpcm_encode_proc+0x1b4>
   91ad8:	40 3e 18 00 	add $r3,$fp,$r6
   91adc:	46 10 00 a3 	sethi $r1,#0xa3
   91ae0:	58 10 8a c0 	ori $r1,$r1,#0xac0
   91ae4:	38 50 90 10 	lbs $r5,[$r1+($r4<<#0x0)]
   91ae8:	44 1f 80 00 	movi $r1,#-32768
   91aec:	40 81 84 07 	slts $r8,$r3,$r1
   91af0:	40 22 88 00 	add $r2,$r5,$r2
   91af4:	44 10 00 58 	movi $r1,#88
   91af8:	40 50 88 07 	slts $r5,$r1,$r2
   91afc:	44 1f 80 00 	movi $r1,#-32768
   91b00:	40 30 a0 1b 	cmovn $r3,$r1,$r8
   91b04:	44 10 00 58 	movi $r1,#88
   91b08:	40 20 94 1b 	cmovn $r2,$r1,$r5
   91b0c:	5e 51 00 00 	sltsi $r5,$r2,#0
   91b10:	44 10 7f ff 	movi $r1,#32767
   91b14:	40 60 8c 07 	slts $r6,$r1,$r3
   91b18:	40 2f 14 1b 	cmovn $r2,$lp,$r5
   91b1c:	40 30 98 1b 	cmovn $r3,$r1,$r6
   91b20:	3c 2b ea 12 	shi.gp $r2,[+#-11228]
   91b24:	b4 3f       	lwi450 $r1,[$sp]
   91b26:	f2 02       	lwi37.sp $r2,[+#0x8]
   91b28:	95 24       	slli333 $r4,$r4,#4
   91b2a:	fe 27       	or33 $r0,$r4
   91b2c:	3c 3b ea 13 	shi.gp $r3,[+#-11226]
   91b30:	38 01 04 08 	sb $r0,[$r2+($r1<<#0x0)]
   91b34:	9c 49       	addi333 $r1,$r1,#1
   91b36:	f2 01       	lwi37.sp $r2,[+#0x4]
   91b38:	f0 03       	lwi37.sp $r0,[+#0xc]
   91b3a:	9c 94       	addi333 $r2,$r2,#4
   91b3c:	b6 3f       	swi450 $r1,[$sp]
   91b3e:	f2 81       	swi37.sp $r2,[+#0x4]
   91b40:	4c 10 7f 08 	bne $r1,$r0,91950 <ima_adpcm_encode_proc+0x28>
   91b44:	83 81       	mov55 $fp,$r1
   91b46:	80 01       	mov55 $r0,$r1
   91b48:	ec 14       	addi10.sp #20
   91b4a:	3a 6f aa 84 	lmw.bim $r6,[$sp],$r10,#0xa    ! {$r6~$r10, $fp, $lp}
   91b4e:	dd 9e       	ret5 $lp

00091b50 <ima_adpcm_encode_proc_halfrate>:
   91b50:	3a 6f aa bc 	smw.adm $r6,[$sp],$r10,#0xa    ! {$r6~$r10, $fp, $lp}
   91b54:	ef cc       	addi10.sp #-52
   91b56:	f1 8a       	swi37.sp $r1,[+#0x28]
   91b58:	4e 26 00 06 	bgtz $r2,91b64 <ima_adpcm_encode_proc_halfrate+0x14>
   91b5c:	44 00 00 00 	movi $r0,#0
   91b60:	48 00 01 8f 	j 91e7e <ima_adpcm_encode_proc_halfrate+0x32e>
   91b64:	9e 91       	subi333 $r2,$r2,#1
   91b66:	92 42       	srli45 $r2,#2
   91b68:	84 20       	movi55 $r1,#0
   91b6a:	9c 91       	addi333 $r2,$r2,#1
   91b6c:	f1 82       	swi37.sp $r1,[+#0x8]
   91b6e:	f0 81       	swi37.sp $r0,[+#0x4]
   91b70:	f2 8b       	swi37.sp $r2,[+#0x2c]
   91b72:	80 80       	mov55 $r4,$r0
   91b74:	22 22 00 00 	lhsi $r2,[$r4+#0x0]
   91b78:	22 12 00 01 	lhsi $r1,[$r4+#0x2]
   91b7c:	3c 77 ea 11 	lhsi.gp $r7,[+#-11230]
   91b80:	3e 5f c8 24 	addi.gp $r5,#-14300
   91b84:	90 42       	srai45 $r2,#2
   91b86:	90 22       	srai45 $r1,#2
   91b88:	50 43 80 29 	addi $r4,$r7,#41
   91b8c:	9c f9       	addi333 $r3,$r7,#1
   91b8e:	50 03 80 28 	addi $r0,$r7,#40
   91b92:	99 bf       	add333 $r6,$r7,$r7
   91b94:	38 12 81 09 	sh $r1,[$r5+($r0<<#0x1)]
   91b98:	40 63 14 00 	add $r6,$r6,$r5
   91b9c:	38 12 9d 09 	sh $r1,[$r5+($r7<<#0x1)]
   91ba0:	38 22 91 09 	sh $r2,[$r5+($r4<<#0x1)]
   91ba4:	38 22 8d 09 	sh $r2,[$r5+($r3<<#0x1)]
   91ba8:	84 60       	movi55 $r3,#0
   91baa:	50 53 00 4e 	addi $r5,$r6,#78
   91bae:	80 83       	mov55 $r4,$r3
   91bb0:	38 23 0c 11 	lhs $r2,[$r6+($r3<<#0x0)]
   91bb4:	2a 02 ff ff 	lhsi.bi $r0,[$r5],#-0x2
   91bb8:	46 80 00 a3 	sethi $r8,#0xa3
   91bbc:	58 84 0a 98 	ori $r8,$r8,#0xa98
   91bc0:	38 14 0c 11 	lhs $r1,[$r8+($r3<<#0x0)]
   91bc4:	98 02       	add333 $r0,$r0,$r2
   91bc6:	9c da       	addi333 $r3,$r3,#2
   91bc8:	42 40 04 73 	maddr32 $r4,$r0,$r1
   91bcc:	5a 38 28 f2 	bnec $r3,#40,91bb0 <ima_adpcm_encode_proc_halfrate+0x60>
   91bd0:	9e 3a       	subi333 $r0,$r7,#2
   91bd2:	96 03       	seh33 $r0,$r0
   91bd4:	3c 0b ea 11 	shi.gp $r0,[+#-11230]
   91bd8:	4e 05 00 0f 	bltz $r0,91bf6 <ima_adpcm_encode_proc_halfrate+0xa6>
   91bdc:	9e 42       	subi333 $r1,$r0,#2
   91bde:	96 4b       	seh33 $r1,$r1
   91be0:	f1 86       	swi37.sp $r1,[+#0x18]
   91be2:	9c 81       	addi333 $r2,$r0,#1
   91be4:	50 10 00 28 	addi $r1,$r0,#40
   91be8:	50 50 00 29 	addi $r5,$r0,#41
   91bec:	f1 89       	swi37.sp $r1,[+#0x24]
   91bee:	f2 88       	swi37.sp $r2,[+#0x20]
   91bf0:	f5 87       	swi37.sp $r5,[+#0x1c]
   91bf2:	99 80       	add333 $r6,$r0,$r0
   91bf4:	d5 10       	j8 91c14 <ima_adpcm_encode_proc_halfrate+0xc4>
   91bf6:	fa f6       	movpi45 $r7,#0x26
   91bf8:	fb 14       	movpi45 $r8,#0x24
   91bfa:	fa 37       	movpi45 $r1,#0x27
   91bfc:	94 89       	slli333 $r2,$r1,#1
   91bfe:	44 00 00 4f 	movi $r0,#79
   91c02:	3c 7b ea 11 	shi.gp $r7,[+#-11230]
   91c06:	14 8f 80 06 	swi $r8,[$sp+#0x18]
   91c0a:	f1 88       	swi37.sp $r1,[+#0x20]
   91c0c:	f2 89       	swi37.sp $r2,[+#0x24]
   91c0e:	f0 87       	swi37.sp $r0,[+#0x1c]
   91c10:	9f 83       	subi333 $r6,$r0,#3
   91c12:	fa 16       	movpi45 $r0,#0x26
   91c14:	40 42 3c 0a 	srai $r4,$r4,#15
   91c18:	3c 37 ea 13 	lhsi.gp $r3,[+#-11226]
   91c1c:	97 23       	seh33 $r4,$r4
   91c1e:	3c 13 ea 12 	lhi.gp $r1,[+#-11228]
   91c22:	9b e3       	sub333 $r7,$r4,$r3
   91c24:	46 40 00 a3 	sethi $r4,#0xa3
   91c28:	58 42 0a d0 	ori $r4,$r4,#0xad0
   91c2c:	38 82 05 11 	lhs $r8,[$r4+($r1<<#0x1)]
   91c30:	4e 75 00 04 	bltz $r7,91c38 <ima_adpcm_encode_proc_halfrate+0xe8>
   91c34:	84 80       	movi55 $r4,#0
   91c36:	d5 03       	j8 91c3c <ima_adpcm_encode_proc_halfrate+0xec>
   91c38:	ff fa       	neg33 $r7,$r7
   91c3a:	84 81       	movi55 $r4,#1
   91c3c:	40 52 10 00 	add $r5,$r4,$r4
   91c40:	40 a3 a0 07 	slts $r10,$r7,$r8
   91c44:	50 42 80 01 	addi $r4,$r5,#1
   91c48:	40 42 a8 1b 	cmovn $r4,$r5,$r10
   91c4c:	40 23 a0 01 	sub $r2,$r7,$r8
   91c50:	40 71 28 1a 	cmovz $r7,$r2,$r10
   91c54:	40 54 04 0a 	srai $r5,$r8,#1
   91c58:	40 22 10 00 	add $r2,$r4,$r4
   91c5c:	40 93 94 07 	slts $r9,$r7,$r5
   91c60:	50 41 00 01 	addi $r4,$r2,#1
   91c64:	40 41 24 1b 	cmovn $r4,$r2,$r9
   91c68:	84 40       	movi55 $r2,#0
   91c6a:	40 24 28 1a 	cmovz $r2,$r8,$r10
   91c6e:	81 42       	mov55 $r10,$r2
   91c70:	40 23 94 01 	sub $r2,$r7,$r5
   91c74:	41 c4 08 0a 	srai $fp,$r8,#2
   91c78:	40 23 a4 1b 	cmovn $r2,$r7,$r9
   91c7c:	41 e2 10 00 	add $lp,$r4,$r4
   91c80:	40 55 14 00 	add $r5,$r10,$r5
   91c84:	40 71 70 07 	slts $r7,$r2,$fp
   91c88:	40 55 24 1b 	cmovn $r5,$r10,$r9
   91c8c:	50 4f 00 01 	addi $r4,$lp,#1
   91c90:	41 e2 1c 1a 	cmovz $lp,$r4,$r7
   91c94:	40 22 f0 00 	add $r2,$r5,$fp
   91c98:	40 22 9c 1b 	cmovn $r2,$r5,$r7
   91c9c:	91 03       	srai45 $r8,#3
   91c9e:	54 7f 00 08 	andi $r7,$lp,#0x8
   91ca2:	15 ef 80 03 	swi $lp,[$sp+#0xc]
   91ca6:	88 48       	add45 $r2,$r8
   91ca8:	c7 04       	beqz38 $r7,91cb0 <ima_adpcm_encode_proc_halfrate+0x160>
   91caa:	40 81 88 01 	sub $r8,$r3,$r2
   91cae:	d5 03       	j8 91cb4 <ima_adpcm_encode_proc_halfrate+0x164>
   91cb0:	40 81 0c 00 	add $r8,$r2,$r3
   91cb4:	f5 03       	lwi37.sp $r5,[+#0xc]
   91cb6:	46 40 00 a3 	sethi $r4,#0xa3
   91cba:	58 42 0a c0 	ori $r4,$r4,#0xac0
   91cbe:	38 32 14 10 	lbs $r3,[$r4+($r5<<#0x0)]
   91cc2:	44 20 00 58 	movi $r2,#88
   91cc6:	99 d9       	add333 $r7,$r3,$r1
   91cc8:	44 1f 80 00 	movi $r1,#-32768
   91ccc:	40 54 04 07 	slts $r5,$r8,$r1
   91cd0:	40 80 94 1b 	cmovn $r8,$r1,$r5
   91cd4:	40 91 1c 07 	slts $r9,$r2,$r7
   91cd8:	44 40 7f ff 	movi $r4,#32767
   91cdc:	80 62       	mov55 $r3,$r2
   91cde:	40 33 a4 1a 	cmovz $r3,$r7,$r9
   91ce2:	80 44       	mov55 $r2,$r4
   91ce4:	40 72 20 07 	slts $r7,$r4,$r8
   91ce8:	40 24 1c 1a 	cmovz $r2,$r8,$r7
   91cec:	5e 51 80 00 	sltsi $r5,$r3,#0
   91cf0:	84 e0       	movi55 $r7,#0
   91cf2:	40 33 94 1b 	cmovn $r3,$r7,$r5
   91cf6:	96 93       	seh33 $r2,$r2
   91cf8:	96 d9       	zeh33 $r3,$r3
   91cfa:	3c 2b ea 13 	shi.gp $r2,[+#-11226]
   91cfe:	3c 3b ea 12 	shi.gp $r3,[+#-11228]
   91d02:	f2 85       	swi37.sp $r2,[+#0x14]
   91d04:	f2 01       	lwi37.sp $r2,[+#0x4]
   91d06:	f3 84       	swi37.sp $r3,[+#0x10]
   91d08:	22 31 00 03 	lhsi $r3,[$r2+#0x6]
   91d0c:	22 51 00 02 	lhsi $r5,[$r2+#0x4]
   91d10:	f4 09       	lwi37.sp $r4,[+#0x24]
   91d12:	3e 1f c8 24 	addi.gp $r1,#-14300
   91d16:	90 62       	srai45 $r3,#2
   91d18:	04 7f 80 07 	lwi $r7,[$sp+#0x1c]
   91d1c:	04 8f 80 08 	lwi $r8,[$sp+#0x20]
   91d20:	38 30 91 09 	sh $r3,[$r1+($r4<<#0x1)]
   91d24:	40 52 88 0a 	srai $r5,$r5,#2
   91d28:	38 30 81 09 	sh $r3,[$r1+($r0<<#0x1)]
   91d2c:	99 b1       	add333 $r6,$r6,$r1
   91d2e:	84 60       	movi55 $r3,#0
   91d30:	38 50 9d 09 	sh $r5,[$r1+($r7<<#0x1)]
   91d34:	50 41 80 00 	addi $r4,$r3,#0
   91d38:	38 50 a1 09 	sh $r5,[$r1+($r8<<#0x1)]
   91d3c:	50 53 00 4e 	addi $r5,$r6,#78
   91d40:	38 23 0c 11 	lhs $r2,[$r6+($r3<<#0x0)]
   91d44:	2a 02 ff ff 	lhsi.bi $r0,[$r5],#-0x2
   91d48:	46 70 00 a3 	sethi $r7,#0xa3
   91d4c:	58 73 8a 98 	ori $r7,$r7,#0xa98
   91d50:	38 13 8c 11 	lhs $r1,[$r7+($r3<<#0x0)]
   91d54:	98 02       	add333 $r0,$r0,$r2
   91d56:	9c da       	addi333 $r3,$r3,#2
   91d58:	42 40 04 73 	maddr32 $r4,$r0,$r1
   91d5c:	5a 38 28 f2 	bnec $r3,#40,91d40 <ima_adpcm_encode_proc_halfrate+0x1f0>
   91d60:	04 8f 80 06 	lwi $r8,[$sp+#0x18]
   91d64:	3c 8b ea 11 	shi.gp $r8,[+#-11230]
   91d68:	4e 84 00 05 	bgez $r8,91d72 <ima_adpcm_encode_proc_halfrate+0x222>
   91d6c:	fa 16       	movpi45 $r0,#0x26
   91d6e:	3c 0b ea 11 	shi.gp $r0,[+#-11230]
   91d72:	90 8f       	srai45 $r4,#15
   91d74:	f1 05       	lwi37.sp $r1,[+#0x14]
   91d76:	97 23       	seh33 $r4,$r4
   91d78:	f2 04       	lwi37.sp $r2,[+#0x10]
   91d7a:	9b e1       	sub333 $r7,$r4,$r1
   91d7c:	46 40 00 a3 	sethi $r4,#0xa3
   91d80:	58 42 0a d0 	ori $r4,$r4,#0xad0
   91d84:	38 62 09 11 	lhs $r6,[$r4+($r2<<#0x1)]
   91d88:	4e 75 00 04 	bltz $r7,91d90 <ima_adpcm_encode_proc_halfrate+0x240>
   91d8c:	84 60       	movi55 $r3,#0
   91d8e:	d5 03       	j8 91d94 <ima_adpcm_encode_proc_halfrate+0x244>
   91d90:	ff fa       	neg33 $r7,$r7
   91d92:	84 61       	movi55 $r3,#1
   91d94:	40 51 8c 00 	add $r5,$r3,$r3
   91d98:	40 a3 98 07 	slts $r10,$r7,$r6
   91d9c:	9c e9       	addi333 $r3,$r5,#1
   91d9e:	9a be       	sub333 $r2,$r7,$r6
   91da0:	40 32 a8 1b 	cmovn $r3,$r5,$r10
   91da4:	50 53 80 00 	addi $r5,$r7,#0
   91da8:	40 93 04 0a 	srai $r9,$r6,#1
   91dac:	40 51 28 1a 	cmovz $r5,$r2,$r10
   91db0:	40 71 8c 00 	add $r7,$r3,$r3
   91db4:	40 82 a4 07 	slts $r8,$r5,$r9
   91db8:	50 33 80 01 	addi $r3,$r7,#1
   91dbc:	40 33 a0 1b 	cmovn $r3,$r7,$r8
   91dc0:	44 70 00 00 	movi $r7,#0
   91dc4:	40 73 28 1a 	cmovz $r7,$r6,$r10
   91dc8:	40 22 a4 01 	sub $r2,$r5,$r9
   91dcc:	41 c3 08 0a 	srai $fp,$r6,#2
   91dd0:	40 51 20 1a 	cmovz $r5,$r2,$r8
   91dd4:	41 e1 8c 00 	add $lp,$r3,$r3
   91dd8:	40 43 a4 00 	add $r4,$r7,$r9
   91ddc:	40 52 f0 07 	slts $r5,$r5,$fp
   91de0:	40 72 20 1a 	cmovz $r7,$r4,$r8
   91de4:	50 3f 00 01 	addi $r3,$lp,#1
   91de8:	50 9f 00 00 	addi $r9,$lp,#0
   91dec:	40 91 94 1a 	cmovz $r9,$r3,$r5
   91df0:	40 23 f0 00 	add $r2,$r7,$fp
   91df4:	40 71 14 1a 	cmovz $r7,$r2,$r5
   91df8:	90 c3       	srai45 $r6,#3
   91dfa:	54 54 80 08 	andi $r5,$r9,#0x8
   91dfe:	99 b7       	add333 $r6,$r6,$r7
   91e00:	c5 04       	beqz38 $r5,91e08 <ima_adpcm_encode_proc_halfrate+0x2b8>
   91e02:	f5 05       	lwi37.sp $r5,[+#0x14]
   91e04:	9b ae       	sub333 $r6,$r5,$r6
   91e06:	d5 03       	j8 91e0c <ima_adpcm_encode_proc_halfrate+0x2bc>
   91e08:	f7 05       	lwi37.sp $r7,[+#0x14]
   91e0a:	99 be       	add333 $r6,$r7,$r6
   91e0c:	46 80 00 a3 	sethi $r8,#0xa3
   91e10:	58 84 0a c0 	ori $r8,$r8,#0xac0
   91e14:	f0 04       	lwi37.sp $r0,[+#0x10]
   91e16:	38 14 24 10 	lbs $r1,[$r8+($r9<<#0x0)]
   91e1a:	44 2f 80 00 	movi $r2,#-32768
   91e1e:	98 48       	add333 $r1,$r1,$r0
   91e20:	44 40 00 58 	movi $r4,#88
   91e24:	40 53 08 07 	slts $r5,$r6,$r2
   91e28:	40 72 04 07 	slts $r7,$r4,$r1
   91e2c:	50 83 00 00 	addi $r8,$r6,#0
   91e30:	40 81 14 1b 	cmovn $r8,$r2,$r5
   91e34:	40 12 1c 1b 	cmovn $r1,$r4,$r7
   91e38:	44 50 7f ff 	movi $r5,#32767
   91e3c:	40 62 a0 07 	slts $r6,$r5,$r8
   91e40:	80 45       	mov55 $r2,$r5
   91e42:	5e 50 80 00 	sltsi $r5,$r1,#0
   91e46:	84 e0       	movi55 $r7,#0
   91e48:	40 24 18 1a 	cmovz $r2,$r8,$r6
   91e4c:	40 13 94 1b 	cmovn $r1,$r7,$r5
   91e50:	04 8f 80 03 	lwi $r8,[$sp+#0xc]
   91e54:	3c 2b ea 13 	shi.gp $r2,[+#-11226]
   91e58:	3c 1b ea 12 	shi.gp $r1,[+#-11228]
   91e5c:	f2 02       	lwi37.sp $r2,[+#0x8]
   91e5e:	40 34 90 08 	slli $r3,$r9,#4
   91e62:	f1 0a       	lwi37.sp $r1,[+#0x28]
   91e64:	40 04 0c 04 	or $r0,$r8,$r3
   91e68:	38 00 88 08 	sb $r0,[$r1+($r2<<#0x0)]
   91e6c:	9c 91       	addi333 $r2,$r2,#1
   91e6e:	f4 01       	lwi37.sp $r4,[+#0x4]
   91e70:	f5 0b       	lwi37.sp $r5,[+#0x2c]
   91e72:	8c 88       	addi45 $r4,#8
   91e74:	f2 82       	swi37.sp $r2,[+#0x8]
   91e76:	f4 81       	swi37.sp $r4,[+#0x4]
   91e78:	4c 22 fe 7e 	bne $r2,$r5,91b74 <ima_adpcm_encode_proc_halfrate+0x24>
   91e7c:	80 02       	mov55 $r0,$r2
   91e7e:	ec 34       	addi10.sp #52
   91e80:	3a 6f aa 84 	lmw.bim $r6,[$sp],$r10,#0xa    ! {$r6~$r10, $fp, $lp}
   91e84:	dd 9e       	ret5 $lp
   91e86:	92 00       	nop16

00091e88 <memcmp>:
   91e88:	99 42       	add333 $r5,$r0,$r2
   91e8a:	d0 09       	beqs38 $r0,91e9c <memcmp+0x14>
   91e8c:	08 30 00 01 	lbi.bi $r3,[$r0],#0x1
   91e90:	08 40 80 01 	lbi.bi $r4,[$r1],#0x1
   91e94:	4c 32 3f fb 	beq $r3,$r4,91e8a <memcmp+0x2>
   91e98:	9a 1c       	sub333 $r0,$r3,$r4
   91e9a:	dd 9e       	ret5 $lp
   91e9c:	84 00       	movi55 $r0,#0
   91e9e:	dd 9e       	ret5 $lp

00091ea0 <memcpy>:
   91ea0:	80 60       	mov55 $r3,$r0
   91ea2:	c2 07       	beqz38 $r2,91eb0 <memcpy+0x10>
   91ea4:	99 4a       	add333 $r5,$r1,$r2
   91ea6:	08 40 80 01 	lbi.bi $r4,[$r1],#0x1
   91eaa:	18 41 80 01 	sbi.bi $r4,[$r3],#0x1
   91eae:	d9 fc       	bnes38 $r1,91ea6 <memcpy+0x6>
   91eb0:	dd 9e       	ret5 $lp
   91eb2:	92 00       	nop16

00091eb4 <memmove>:
   91eb4:	c2 14       	beqz38 $r2,91edc <memmove+0x28>
   91eb6:	80 60       	mov55 $r3,$r0
   91eb8:	e2 20       	slt45 $r1,$r0
   91eba:	e8 0b       	beqzs8 91ed0 <memmove+0x1c>
   91ebc:	9e 91       	subi333 $r2,$r2,#1
   91ebe:	98 da       	add333 $r3,$r3,$r2
   91ec0:	99 4a       	add333 $r5,$r1,$r2
   91ec2:	9e 49       	subi333 $r1,$r1,#1
   91ec4:	08 42 ff ff 	lbi.bi $r4,[$r5],#-0x1
   91ec8:	18 41 ff ff 	sbi.bi $r4,[$r3],#-0x1
   91ecc:	d9 fc       	bnes38 $r1,91ec4 <memmove+0x10>
   91ece:	dd 9e       	ret5 $lp
   91ed0:	99 4a       	add333 $r5,$r1,$r2
   91ed2:	08 40 80 01 	lbi.bi $r4,[$r1],#0x1
   91ed6:	18 41 80 01 	sbi.bi $r4,[$r3],#0x1
   91eda:	d9 fc       	bnes38 $r1,91ed2 <memmove+0x1e>
   91edc:	dd 9e       	ret5 $lp
   91ede:	92 00       	nop16

00091ee0 <memset>:
   91ee0:	80 60       	mov55 $r3,$r0
   91ee2:	99 5a       	add333 $r5,$r3,$r2
   91ee4:	d3 04       	beqs38 $r3,91eec <memset+0xc>
   91ee6:	18 11 80 01 	sbi.bi $r1,[$r3],#0x1
   91eea:	d5 fd       	j8 91ee4 <memset+0x4>
   91eec:	dd 9e       	ret5 $lp
   91eee:	92 00       	nop16

00091ef0 <strcmp>:
   91ef0:	40 50 80 04 	or $r5,$r1,$r0
   91ef4:	97 4f       	fexti33 $r5,#0x1
   91ef6:	cd 1b       	bnez38 $r5,91f2c <strcmp+0x3c>
   91ef8:	b4 a0       	lwi450 $r5,[$r0]
   91efa:	b4 61       	lwi450 $r3,[$r1]
   91efc:	4c 51 c0 18 	bne $r5,$r3,91f2c <strcmp+0x3c>
   91f00:	46 4f ef ef 	sethi $r4,#0xfefef
   91f04:	58 42 0e ff 	ori $r4,$r4,#0xeff
   91f08:	46 28 08 08 	sethi $r2,#0x80808
   91f0c:	58 21 00 80 	ori $r2,$r2,#0x80
   91f10:	40 32 94 05 	nor $r3,$r5,$r5
   91f14:	40 52 90 00 	add $r5,$r5,$r4
   91f18:	40 52 8c 02 	and $r5,$r5,$r3
   91f1c:	40 52 88 02 	and $r5,$r5,$r2
   91f20:	cd 0e       	bnez38 $r5,91f3c <strcmp+0x4c>
   91f22:	9c 04       	addi333 $r0,$r0,#4
   91f24:	b4 a0       	lwi450 $r5,[$r0]
   91f26:	9c 4c       	addi333 $r1,$r1,#4
   91f28:	b4 61       	lwi450 $r3,[$r1]
   91f2a:	d3 f3       	beqs38 $r3,91f10 <strcmp+0x20>
   91f2c:	a7 40       	lbi333 $r5,[$r0+#0x0]
   91f2e:	a6 c8       	lbi333 $r3,[$r1+#0x0]
   91f30:	db 04       	bnes38 $r3,91f38 <strcmp+0x48>
   91f32:	9c 01       	addi333 $r0,$r0,#1
   91f34:	9c 49       	addi333 $r1,$r1,#1
   91f36:	cd fb       	bnez38 $r5,91f2c <strcmp+0x3c>
   91f38:	9a 2b       	sub333 $r0,$r5,$r3
   91f3a:	dd 9e       	ret5 $lp
   91f3c:	84 00       	movi55 $r0,#0
   91f3e:	dd 9e       	ret5 $lp

00091f40 <strcpy>:
   91f40:	80 60       	mov55 $r3,$r0
   91f42:	08 40 80 01 	lbi.bi $r4,[$r1],#0x1
   91f46:	18 41 80 01 	sbi.bi $r4,[$r3],#0x1
   91f4a:	cc fc       	bnez38 $r4,91f42 <strcpy+0x2>
   91f4c:	dd 9e       	ret5 $lp
   91f4e:	92 00       	nop16

00091f50 <strlen>:
   91f50:	9d 41       	addi333 $r5,$r0,#1
   91f52:	28 20 00 01 	lbsi.bi $r2,[$r0],#0x1
   91f56:	ca fe       	bnez38 $r2,91f52 <strlen+0x2>
   91f58:	9a 05       	sub333 $r0,$r0,$r5
   91f5a:	dd 9e       	ret5 $lp

00091f5c <strncmp>:
   91f5c:	c2 0a       	beqz38 $r2,91f70 <strncmp+0x14>
   91f5e:	08 40 00 01 	lbi.bi $r4,[$r0],#0x1
   91f62:	08 50 80 01 	lbi.bi $r5,[$r1],#0x1
   91f66:	dc 03       	bnes38 $r4,91f6c <strncmp+0x10>
   91f68:	9e 91       	subi333 $r2,$r2,#1
   91f6a:	cc f9       	bnez38 $r4,91f5c <strncmp>
   91f6c:	9a 25       	sub333 $r0,$r4,$r5
   91f6e:	dd 9e       	ret5 $lp
   91f70:	84 00       	movi55 $r0,#0
   91f72:	dd 9e       	ret5 $lp

00091f74 <__lshrdi3>:
   91f74:	4e 22 00 14 	beqz $r2,91f9c <__lshrdi3+0x28>
   91f78:	52 31 00 20 	subri $r3,$r2,#32
   91f7c:	4e 36 00 08 	bgtz $r3,91f8c <__lshrdi3+0x18>
   91f80:	52 01 80 00 	subri $r0,$r3,#0
   91f84:	40 00 80 0d 	srl $r0,$r1,$r0
   91f88:	84 20       	movi55 $r1,#0
   91f8a:	d5 09       	j8 91f9c <__lshrdi3+0x28>
   91f8c:	40 30 8c 0c 	sll $r3,$r1,$r3
   91f90:	40 00 08 0d 	srl $r0,$r0,$r2
   91f94:	40 01 80 04 	or $r0,$r3,$r0
   91f98:	40 10 88 0d 	srl $r1,$r1,$r2
   91f9c:	dd 9e       	ret5 $lp
   91f9e:	92 00       	nop16

00091fa0 <__ashldi3>:
   91fa0:	4e 22 00 14 	beqz $r2,91fc8 <__ashldi3+0x28>
   91fa4:	52 31 00 20 	subri $r3,$r2,#32
   91fa8:	4e 36 00 08 	bgtz $r3,91fb8 <__ashldi3+0x18>
   91fac:	fe 5a       	neg33 $r1,$r3
   91fae:	40 10 04 0c 	sll $r1,$r0,$r1
   91fb2:	84 00       	movi55 $r0,#0
   91fb4:	48 00 00 0a 	j 91fc8 <__ashldi3+0x28>
   91fb8:	40 30 0c 0d 	srl $r3,$r0,$r3
   91fbc:	40 10 88 0c 	sll $r1,$r1,$r2
   91fc0:	40 11 84 04 	or $r1,$r3,$r1
   91fc4:	40 00 08 0c 	sll $r0,$r0,$r2
   91fc8:	dd 9e       	ret5 $lp
   91fca:	92 00       	nop16

00091fcc <hci_spi1602_check_data>:
   91fcc:	fc 21       	push25 $r8,#0x8    ! {$r6~$r8, $fp, $gp, $lp}
   91fce:	3c 63 e3 fd 	lhi.gp $r6,[+#-14342]
   91fd2:	ce 12       	bnez38 $r6,91ff6 <hci_spi1602_check_data+0x2a>
   91fd4:	44 10 00 51 	movi $r1,#81
   91fd8:	84 45       	movi55 $r2,#5
   91fda:	80 1f       	mov55 $r0,$sp
   91fdc:	49 ff ff 82 	jal 91ee0 <memset>
   91fe0:	84 01       	movi55 $r0,#1
   91fe2:	80 3f       	mov55 $r1,$sp
   91fe4:	80 46       	mov55 $r2,$r6
   91fe6:	84 65       	movi55 $r3,#5
   91fe8:	46 40 00 92 	sethi $r4,#0x92
   91fec:	58 42 00 3e 	ori $r4,$r4,#0x3e
   91ff0:	80 ff       	mov55 $r7,$sp
   91ff2:	49 00 17 fe 	jal 94fee <AB_SPI_WriteAndRead>
   91ff6:	fc a1       	pop25 $r8,#0x8    ! {$r6~$r8, $fp, $gp, $lp}

00091ff8 <hci_spi1602_read_data>:
   91ff8:	fc 01       	push25 $r6,#0x8    ! {$r6, $fp, $gp, $lp}
   91ffa:	3c 33 e3 fc 	lhi.gp $r3,[+#-14344]
   91ffe:	97 01       	zeh33 $r4,$r0
   92000:	e2 64       	slt45 $r3,$r4
   92002:	e9 1c       	bnezs8 9203a <hci_spi1602_read_data+0x42>
   92004:	c4 1b       	beqz38 $r4,9203a <hci_spi1602_read_data+0x42>
   92006:	3c 53 e3 fd 	lhi.gp $r5,[+#-14342]
   9200a:	9a dc       	sub333 $r3,$r3,$r4
   9200c:	99 65       	add333 $r5,$r4,$r5
   9200e:	3c 5b e3 fd 	shi.gp $r5,[+#-14342]
   92012:	44 00 00 52 	movi $r0,#82
   92016:	10 0f 80 07 	sbi $r0,[$sp+#0x7]
   9201a:	3c 3b e3 fc 	shi.gp $r3,[+#-14344]
   9201e:	3c 1f f1 e7 	swi.gp $r1,[+#-14436]
   92022:	84 01       	movi55 $r0,#1
   92024:	50 1f 80 07 	addi $r1,$sp,#7
   92028:	80 40       	mov55 $r2,$r0
   9202a:	84 60       	movi55 $r3,#0
   9202c:	46 50 00 92 	sethi $r5,#0x92
   92030:	58 52 81 28 	ori $r5,$r5,#0x128
   92034:	49 00 18 0c 	jal 9504c <AB_SPI_WriteThenRead>
   92038:	d5 02       	j8 9203c <hci_spi1602_read_data+0x44>
   9203a:	84 00       	movi55 $r0,#0
   9203c:	fc 81       	pop25 $r6,#0x8    ! {$r6, $fp, $gp, $lp}

0009203e <read_trxlen_compl_int>:
   9203e:	fc 20       	push25 $r8,#0x0    ! {$r6~$r8, $fp, $gp, $lp}
   92040:	96 49       	zeh33 $r1,$r1
   92042:	80 c0       	mov55 $r6,$r0
   92044:	5a 10 05 0e 	beqc $r1,#5,92060 <read_trxlen_compl_int+0x22>
   92048:	46 00 00 a4 	sethi $r0,#0xa4
   9204c:	58 00 01 0c 	ori $r0,$r0,#0x10c
   92050:	44 10 00 67 	movi $r1,#103
   92054:	46 20 00 a4 	sethi $r2,#0xa4
   92058:	58 21 01 18 	ori $r2,$r2,#0x118
   9205c:	49 00 13 cc 	jal 947f4 <assert_ab_callback_verbose>
   92060:	a6 74       	lbi333 $r1,[$r6+#0x4]
   92062:	a6 33       	lbi333 $r0,[$r6+#0x3]
   92064:	40 10 a0 08 	slli $r1,$r1,#8
   92068:	98 48       	add333 $r1,$r1,$r0
   9206a:	3c 1b e3 fe 	shi.gp $r1,[+#-14340]
   9206e:	a6 70       	lbi333 $r1,[$r6+#0x0]
   92070:	96 4e       	bmski33 $r1,#0x1
   92072:	c1 06       	beqz38 $r1,9207e <read_trxlen_compl_int+0x40>
   92074:	a6 72       	lbi333 $r1,[$r6+#0x2]
   92076:	a6 b1       	lbi333 $r2,[$r6+#0x1]
   92078:	40 10 a0 08 	slli $r1,$r1,#8
   9207c:	98 4a       	add333 $r1,$r1,$r2
   9207e:	3c 1b e3 fc 	shi.gp $r1,[+#-14344]
   92082:	3c 13 e3 fc 	lhi.gp $r1,[+#-14344]
   92086:	3c 03 e3 fd 	lhi.gp $r0,[+#-14342]
   9208a:	e2 20       	slt45 $r1,$r0
   9208c:	e8 0d       	beqzs8 920a6 <read_trxlen_compl_int+0x68>
   9208e:	46 00 00 a4 	sethi $r0,#0xa4
   92092:	58 00 01 48 	ori $r0,$r0,#0x148
   92096:	44 10 00 71 	movi $r1,#113
   9209a:	46 20 00 a4 	sethi $r2,#0xa4
   9209e:	58 21 01 18 	ori $r2,$r2,#0x118
   920a2:	49 00 13 a9 	jal 947f4 <assert_ab_callback_verbose>
   920a6:	3c 33 e3 fc 	lhi.gp $r3,[+#-14344]
   920aa:	3c 13 e3 fd 	lhi.gp $r1,[+#-14342]
   920ae:	9a 59       	sub333 $r1,$r3,$r1
   920b0:	3c 1b e3 fc 	shi.gp $r1,[+#-14344]
   920b4:	d5 24       	j8 920fc <read_trxlen_compl_int+0xbe>
   920b6:	3c 0d f1 e9 	lwi.gp $r0,[+#-14428]
   920ba:	49 00 16 77 	jal 94da8 <AB_queue_pop>
   920be:	80 c0       	mov55 $r6,$r0
   920c0:	a4 00       	lhi333 $r0,[$r0+#0x0]
   920c2:	3c 13 e3 fe 	lhi.gp $r1,[+#-14340]
   920c6:	9c 81       	addi333 $r2,$r0,#1
   920c8:	e0 41       	slts45 $r2,$r1
   920ca:	e8 13       	beqzs8 920f0 <read_trxlen_compl_int+0xb2>
   920cc:	9a 08       	sub333 $r0,$r1,$r0
   920ce:	84 60       	movi55 $r3,#0
   920d0:	3c 0b e3 fe 	shi.gp $r0,[+#-14340]
   920d4:	9c 72       	addi333 $r1,$r6,#2
   920d6:	96 91       	zeh33 $r2,$r2
   920d8:	80 83       	mov55 $r4,$r3
   920da:	46 50 00 92 	sethi $r5,#0x92
   920de:	58 52 81 1a 	ori $r5,$r5,#0x11a
   920e2:	84 01       	movi55 $r0,#1
   920e4:	49 00 17 b4 	jal 9504c <AB_SPI_WriteThenRead>
   920e8:	80 06       	mov55 $r0,$r6
   920ea:	49 00 16 78 	jal 94dda <AB_queue_entry_free>
   920ee:	d5 07       	j8 920fc <read_trxlen_compl_int+0xbe>
   920f0:	3c 0d f1 e9 	lwi.gp $r0,[+#-14428]
   920f4:	80 26       	mov55 $r1,$r6
   920f6:	49 00 16 3f 	jal 94d74 <AB_queue_push_front>
   920fa:	d5 06       	j8 92106 <read_trxlen_compl_int+0xc8>
   920fc:	3c 0d f1 e9 	lwi.gp $r0,[+#-14428]
   92100:	49 00 16 61 	jal 94dc2 <AB_queue_count>
   92104:	c8 d9       	bnez38 $r0,920b6 <read_trxlen_compl_int+0x78>
   92106:	3c 3d f1 e6 	lwi.gp $r3,[+#-14440]
   9210a:	3c 0d f1 e8 	lwi.gp $r0,[+#-14432]
   9210e:	3c 13 e3 fe 	lhi.gp $r1,[+#-14340]
   92112:	3c 23 e3 fc 	lhi.gp $r2,[+#-14344]
   92116:	dd 23       	jral5 $r3
   92118:	fc a0       	pop25 $r8,#0x0    ! {$r6~$r8, $fp, $gp, $lp}

0009211a <send_tx_compl_int>:
   9211a:	fc 00       	push25 $r6,#0x0    ! {$r6, $fp, $gp, $lp}
   9211c:	49 00 6e ad 	jal 9fe76 <Drv_1602DataReady>
   92120:	c0 03       	beqz38 $r0,92126 <send_tx_compl_int+0xc>
   92122:	49 ff ff 55 	jal 91fcc <hci_spi1602_check_data>
   92126:	fc 80       	pop25 $r6,#0x0    ! {$r6, $fp, $gp, $lp}

00092128 <read_rx_compl_int>:
   92128:	fc 20       	push25 $r8,#0x0    ! {$r6~$r8, $fp, $gp, $lp}
   9212a:	80 e0       	mov55 $r7,$r0
   9212c:	3c 03 e3 fd 	lhi.gp $r0,[+#-14342]
   92130:	97 89       	zeh33 $r6,$r1
   92132:	9a 06       	sub333 $r0,$r0,$r6
   92134:	3c 0b e3 fd 	shi.gp $r0,[+#-14342]
   92138:	49 00 6e 9f 	jal 9fe76 <Drv_1602DataReady>
   9213c:	c0 03       	beqz38 $r0,92142 <read_rx_compl_int+0x1a>
   9213e:	49 ff ff 47 	jal 91fcc <hci_spi1602_check_data>
   92142:	3c 3d f1 e7 	lwi.gp $r3,[+#-14436]
   92146:	3c 0d f1 e8 	lwi.gp $r0,[+#-14432]
   9214a:	80 27       	mov55 $r1,$r7
   9214c:	80 46       	mov55 $r2,$r6
   9214e:	dd 23       	jral5 $r3
   92150:	fc a0       	pop25 $r8,#0x0    ! {$r6~$r8, $fp, $gp, $lp}

00092152 <data_ready_int>:
   92152:	fc 00       	push25 $r6,#0x0    ! {$r6, $fp, $gp, $lp}
   92154:	49 00 6e 91 	jal 9fe76 <Drv_1602DataReady>
   92158:	c0 03       	beqz38 $r0,9215e <data_ready_int+0xc>
   9215a:	49 ff ff 39 	jal 91fcc <hci_spi1602_check_data>
   9215e:	fc 80       	pop25 $r6,#0x0    ! {$r6, $fp, $gp, $lp}

00092160 <hci_spi1602_send_data>:
   92160:	fc 40       	push25 $r10,#0x0    ! {$r6~$r10, $fp, $gp, $lp}
   92162:	81 40       	mov55 $r10,$r0
   92164:	3c 0d f1 e9 	lwi.gp $r0,[+#-14428]
   92168:	97 89       	zeh33 $r6,$r1
   9216a:	49 00 16 2c 	jal 94dc2 <AB_queue_count>
   9216e:	81 20       	mov55 $r9,$r0
   92170:	c8 07       	bnez38 $r0,9217e <hci_spi1602_send_data+0x1e>
   92172:	3c 13 e3 fe 	lhi.gp $r1,[+#-14340]
   92176:	50 83 00 01 	addi $r8,$r6,#1
   9217a:	e1 01       	slts45 $r8,$r1
   9217c:	e9 17       	bnezs8 921aa <hci_spi1602_send_data+0x4a>
   9217e:	9c 34       	addi333 $r0,$r6,#4
   92180:	49 00 16 47 	jal 94e0e <AB_queue_entry_alloc>
   92184:	80 e0       	mov55 $r7,$r0
   92186:	ad 80       	shi333 $r6,[$r0+#0x0]
   92188:	44 0f ff a2 	movi $r0,#-94
   9218c:	ae 3a       	sbi333 $r0,[$r7+#0x2]
   9218e:	80 46       	mov55 $r2,$r6
   92190:	80 2a       	mov55 $r1,$r10
   92192:	9c 3b       	addi333 $r0,$r7,#3
   92194:	49 ff fe 86 	jal 91ea0 <memcpy>
   92198:	3c 0d f1 e9 	lwi.gp $r0,[+#-14428]
   9219c:	80 27       	mov55 $r1,$r7
   9219e:	49 00 15 d1 	jal 94d40 <AB_queue_push>
   921a2:	84 c0       	movi55 $r6,#0
   921a4:	49 ff ff 14 	jal 91fcc <hci_spi1602_check_data>
   921a8:	d5 22       	j8 921ec <hci_spi1602_send_data+0x8c>
   921aa:	9a 4e       	sub333 $r1,$r1,$r6
   921ac:	3c 1b e3 fe 	shi.gp $r1,[+#-14340]
   921b0:	80 08       	mov55 $r0,$r8
   921b2:	49 00 14 78 	jal 94aa2 <malloc>
   921b6:	80 80       	mov55 $r4,$r0
   921b8:	80 e0       	mov55 $r7,$r0
   921ba:	44 0f ff a2 	movi $r0,#-94
   921be:	18 02 00 01 	sbi.bi $r0,[$r4],#0x1
   921c2:	80 46       	mov55 $r2,$r6
   921c4:	80 04       	mov55 $r0,$r4
   921c6:	80 2a       	mov55 $r1,$r10
   921c8:	49 ff fe 6c 	jal 91ea0 <memcpy>
   921cc:	84 01       	movi55 $r0,#1
   921ce:	80 27       	mov55 $r1,$r7
   921d0:	40 24 00 13 	zeh $r2,$r8
   921d4:	80 69       	mov55 $r3,$r9
   921d6:	80 89       	mov55 $r4,$r9
   921d8:	46 50 00 92 	sethi $r5,#0x92
   921dc:	58 52 81 1a 	ori $r5,$r5,#0x11a
   921e0:	49 00 17 36 	jal 9504c <AB_SPI_WriteThenRead>
   921e4:	80 c0       	mov55 $r6,$r0
   921e6:	80 07       	mov55 $r0,$r7
   921e8:	49 00 13 e4 	jal 949b0 <free>
   921ec:	80 06       	mov55 $r0,$r6
   921ee:	fc c0       	pop25 $r10,#0x0    ! {$r6~$r10, $fp, $gp, $lp}

000921f0 <hci_spi1602_deinit>:
   921f0:	fc 00       	push25 $r6,#0x0    ! {$r6, $fp, $gp, $lp}
   921f2:	84 00       	movi55 $r0,#0
   921f4:	49 00 6e 48 	jal 9fe84 <Drv_1602DataReadyIntEn>
   921f8:	84 20       	movi55 $r1,#0
   921fa:	3c 1f f1 e6 	swi.gp $r1,[+#-14440]
   921fe:	84 01       	movi55 $r0,#1
   92200:	49 00 17 5b 	jal 950b6 <AB_SPI_Close>
   92204:	3c 0d f1 e9 	lwi.gp $r0,[+#-14428]
   92208:	c0 03       	beqz38 $r0,9220e <hci_spi1602_deinit+0x1e>
   9220a:	49 00 15 f5 	jal 94df4 <AB_queue_free>
   9220e:	fc 80       	pop25 $r6,#0x0    ! {$r6, $fp, $gp, $lp}

00092210 <hci_spi1602_init>:
   92210:	fc 22       	push25 $r8,#0x10    ! {$r6~$r8, $fp, $gp, $lp}
   92212:	80 e0       	mov55 $r7,$r0
   92214:	3c 6d f1 e6 	lwi.gp $r6,[+#-14440]
   92218:	81 01       	mov55 $r8,$r1
   9221a:	ce 22       	bnez38 $r6,9225e <hci_spi1602_init+0x4e>
   9221c:	46 20 01 e8 	sethi $r2,#0x1e8
   92220:	b0 41       	addri36.sp $r1,#0x4
   92222:	58 21 04 80 	ori $r2,$r2,#0x480
   92226:	f2 81       	swi37.sp $r2,[+#0x4]
   92228:	f6 82       	swi37.sp $r6,[+#0x8]
   9222a:	84 01       	movi55 $r0,#1
   9222c:	49 00 17 5b 	jal 950e2 <AB_SPI_Open>
   92230:	84 01       	movi55 $r0,#1
   92232:	49 00 6e 6c 	jal 9ff0a <Drv_1602Reset>
   92236:	84 0a       	movi55 $r0,#10
   92238:	49 ff 73 28 	jal 80888 <OS_delay_us>
   9223c:	80 06       	mov55 $r0,$r6
   9223e:	49 00 6e 66 	jal 9ff0a <Drv_1602Reset>
   92242:	84 0a       	movi55 $r0,#10
   92244:	49 ff 73 22 	jal 80888 <OS_delay_us>
   92248:	46 10 00 92 	sethi $r1,#0x92
   9224c:	58 10 81 52 	ori $r1,$r1,#0x152
   92250:	80 06       	mov55 $r0,$r6
   92252:	49 00 6e 2a 	jal 9fea6 <Drv_1602DataReadyIntReg>
   92256:	49 00 15 e8 	jal 94e26 <AB_queue_alloc>
   9225a:	3c 0f f1 e9 	swi.gp $r0,[+#-14428]
   9225e:	3c 8f f1 e6 	swi.gp $r8,[+#-14440]
   92262:	3c 7f f1 e8 	swi.gp $r7,[+#-14432]
   92266:	fc a2       	pop25 $r8,#0x10    ! {$r6~$r8, $fp, $gp, $lp}

00092268 <CPU_Exception>:
   92268:	fc 00       	push25 $r6,#0x0    ! {$r6, $fp, $gp, $lp}
   9226a:	80 41       	mov55 $r2,$r1
   9226c:	96 40       	zeb33 $r1,$r0
   9226e:	46 00 00 a4 	sethi $r0,#0xa4
   92272:	58 00 01 7c 	ori $r0,$r0,#0x17c
   92276:	49 00 14 96 	jal 94ba2 <Ab_printf_blocking>
   9227a:	d5 00       	j8 9227a <CPU_Exception+0x12>

0009227c <main>:
   9227c:	fc 02       	push25 $r6,#0x10    ! {$r6, $fp, $gp, $lp}
   9227e:	49 00 1b 6f 	jal 9595c <ab_airoha_vcmd_mp_ongoing>
   92282:	80 c0       	mov55 $r6,$r0
   92284:	c0 13       	beqz38 $r0,922aa <main+0x2e>
   92286:	84 21       	movi55 $r1,#1
   92288:	3e 17 ca 70 	sbi.gp $r1,[+#-13712]
   9228c:	3e 0f c1 08 	addi.gp $r0,#-16120
   92290:	a0 85       	lwi333 $r2,[$r0+#0x14]
   92292:	46 10 02 dc 	sethi $r1,#0x2dc
   92296:	58 10 86 c0 	ori $r1,$r1,#0x6c0
   9229a:	b6 22       	swi450 $r1,[$r2]
   9229c:	84 20       	movi55 $r1,#0
   9229e:	b4 40       	lwi450 $r2,[$r0]
   922a0:	a8 41       	swi333 $r1,[$r0+#0x4]
   922a2:	a0 03       	lwi333 $r0,[$r0+#0xc]
   922a4:	b6 22       	swi450 $r1,[$r2]
   922a6:	b6 20       	swi450 $r1,[$r0]
   922a8:	d5 13       	j8 922ce <main+0x52>
   922aa:	84 03       	movi55 $r0,#3
   922ac:	49 00 20 6d 	jal 96386 <DRV_Gpio_PinValGet>
   922b0:	c8 0b       	bnez38 $r0,922c6 <main+0x4a>
   922b2:	84 41       	movi55 $r2,#1
   922b4:	3e 27 ca 70 	sbi.gp $r2,[+#-13712]
   922b8:	3c 0f f0 43 	swi.gp $r0,[+#-16116]
   922bc:	3c 1d f0 45 	lwi.gp $r1,[+#-16108]
   922c0:	b6 01       	swi450 $r0,[$r1]
   922c2:	ae 8d       	sbi333 $r2,[$r1+#0x5]
   922c4:	d5 05       	j8 922ce <main+0x52>
   922c6:	3e 67 ca 70 	sbi.gp $r6,[+#-13712]
   922ca:	49 00 00 fa 	jal 924be <APP_InitBeforeBt>
   922ce:	80 1f       	mov55 $r0,$sp
   922d0:	3e 1f c1 08 	addi.gp $r1,#-16120
   922d4:	49 00 17 65 	jal 9519e <AB_BSP_initEx>
   922d8:	2e 07 ca 70 	lbi.gp $r0,[+#-13712]
   922dc:	c0 04       	beqz38 $r0,922e4 <main+0x68>
   922de:	49 00 09 fb 	jal 936d4 <VCMD_MouseCalibrateInLoop>
   922e2:	d5 fe       	j8 922de <main+0x62>
   922e4:	84 05       	movi55 $r0,#5
   922e6:	49 00 2d 33 	jal 97d4c <DRV_WDT_Enable>
   922ea:	49 00 04 50 	jal 92b8a <GATT_ServiceInit>
   922ee:	49 00 06 33 	jal 92f54 <Board_Init>
   922f2:	49 00 00 f1 	jal 924d4 <GAP_GetGapStatus>
   922f6:	c8 fe       	bnez38 $r0,922f2 <main+0x76>
   922f8:	49 00 00 ce 	jal 92494 <Remote_Init>
   922fc:	49 00 00 24 	jal 92344 <Remote_MainLoop>
   92300:	d5 fe       	j8 922fc <main+0x80>

00092302 <Timer_ReleaseIdleConnTimeout>:
   92302:	fc 00       	push25 $r6,#0x0    ! {$r6, $fp, $gp, $lp}
   92304:	84 03       	movi55 $r0,#3
   92306:	49 00 19 3c 	jal 9557e <AB_Timer_AlertUnset>
   9230a:	fc 80       	pop25 $r6,#0x0    ! {$r6, $fp, $gp, $lp}

0009230c <Timer_SetIdleConnTimeout>:
   9230c:	fc 00       	push25 $r6,#0x0    ! {$r6, $fp, $gp, $lp}
   9230e:	84 20       	movi55 $r1,#0
   92310:	44 23 a9 80 	movi $r2,#240000
   92314:	46 30 00 92 	sethi $r3,#0x92
   92318:	58 31 83 30 	ori $r3,$r3,#0x330
   9231c:	84 03       	movi55 $r0,#3
   9231e:	49 00 19 89 	jal 95630 <AB_Timer_AlertSet>
   92322:	46 00 00 a4 	sethi $r0,#0xa4
   92326:	58 00 01 a4 	ori $r0,$r0,#0x1a4
   9232a:	49 00 7e 20 	jal a1f6a <puts>
   9232e:	fc 80       	pop25 $r6,#0x0    ! {$r6, $fp, $gp, $lp}

00092330 <Remote_IdleConnTimeoutCB>:
   92330:	fc 00       	push25 $r6,#0x0    ! {$r6, $fp, $gp, $lp}
   92332:	49 00 05 75 	jal 92e1c <Board_GetModuelWorkState>
   92336:	c0 04       	beqz38 $r0,9233e <Remote_IdleConnTimeoutCB+0xe>
   92338:	49 ff ff ea 	jal 9230c <Timer_SetIdleConnTimeout>
   9233c:	d5 03       	j8 92342 <Remote_IdleConnTimeoutCB+0x12>
   9233e:	49 00 00 e6 	jal 9250a <GAP_TerminateConnection>
   92342:	fc 80       	pop25 $r6,#0x0    ! {$r6, $fp, $gp, $lp}

00092344 <Remote_MainLoop>:
   92344:	fc 00       	push25 $r6,#0x0    ! {$r6, $fp, $gp, $lp}
   92346:	49 00 06 5c 	jal 92ffe <Keyboard_Polling>
   9234a:	49 00 08 0c 	jal 93362 <MIC_Polling>
   9234e:	49 00 00 c3 	jal 924d4 <GAP_GetGapStatus>
   92352:	80 c0       	mov55 $r6,$r0
   92354:	3c 0d f2 9d 	lwi.gp $r0,[+#-13708]
   92358:	4c 60 00 33 	beq $r6,$r0,923be <Remote_MainLoop+0x7a>
   9235c:	5a 60 02 10 	beqc $r6,#2,9237c <Remote_MainLoop+0x38>
   92360:	e6 c3       	slti45 $r6,#3
   92362:	e8 04       	beqzs8 9236a <Remote_MainLoop+0x26>
   92364:	5a 68 01 2b 	bnec $r6,#1,923ba <Remote_MainLoop+0x76>
   92368:	d5 06       	j8 92374 <Remote_MainLoop+0x30>
   9236a:	5a 60 03 14 	beqc $r6,#3,92392 <Remote_MainLoop+0x4e>
   9236e:	5a 68 04 26 	bnec $r6,#4,923ba <Remote_MainLoop+0x76>
   92372:	d5 1d       	j8 923ac <Remote_MainLoop+0x68>
   92374:	84 00       	movi55 $r0,#0
   92376:	49 00 12 5e 	jal 94832 <AB_LED_stop>
   9237a:	d5 20       	j8 923ba <Remote_MainLoop+0x76>
   9237c:	84 00       	movi55 $r0,#0
   9237e:	44 10 03 e8 	movi $r1,#1000
   92382:	80 60       	mov55 $r3,$r0
   92384:	80 41       	mov55 $r2,$r1
   92386:	49 00 12 b2 	jal 948ea <AB_LED_set_breath>
   9238a:	84 00       	movi55 $r0,#0
   9238c:	49 00 12 dc 	jal 94944 <AB_LED_start>
   92390:	d5 15       	j8 923ba <Remote_MainLoop+0x76>
   92392:	84 00       	movi55 $r0,#0
   92394:	80 40       	mov55 $r2,$r0
   92396:	44 10 00 c8 	movi $r1,#200
   9239a:	84 62       	movi55 $r3,#2
   9239c:	49 00 12 bc 	jal 94914 <AB_LED_set_blink>
   923a0:	84 00       	movi55 $r0,#0
   923a2:	49 00 12 d1 	jal 94944 <AB_LED_start>
   923a6:	49 ff ff b3 	jal 9230c <Timer_SetIdleConnTimeout>
   923aa:	d5 08       	j8 923ba <Remote_MainLoop+0x76>
   923ac:	49 ff ff ab 	jal 92302 <Timer_ReleaseIdleConnTimeout>
   923b0:	84 06       	movi55 $r0,#6
   923b2:	49 00 18 e6 	jal 9557e <AB_Timer_AlertUnset>
   923b6:	49 00 07 ec 	jal 9338e <MIC_Disable>
   923ba:	3c 6f f2 9d 	swi.gp $r6,[+#-13708]
   923be:	49 00 05 33 	jal 92e24 <Board_PowerManagement>
   923c2:	49 00 2c b7 	jal 97d30 <DRV_WDT_Kick>
   923c6:	fc 80       	pop25 $r6,#0x0    ! {$r6, $fp, $gp, $lp}

000923c8 <Battery_CheckLevel>:
   923c8:	fc 20       	push25 $r8,#0x0    ! {$r6~$r8, $fp, $gp, $lp}
   923ca:	49 00 05 29 	jal 92e1c <Board_GetModuelWorkState>
   923ce:	97 c4       	xlsb33 $r7,$r0
   923d0:	c7 08       	beqz38 $r7,923e0 <Battery_CheckLevel+0x18>
   923d2:	46 00 00 a4 	sethi $r0,#0xa4
   923d6:	58 00 01 c0 	ori $r0,$r0,#0x1c0
   923da:	49 00 7d c8 	jal a1f6a <puts>
   923de:	d5 5a       	j8 92492 <Battery_CheckLevel+0xca>
   923e0:	fa 0d       	movpi45 $r0,#0x1d
   923e2:	49 00 11 7e 	jal 946de <AB_ADC_Get_Voltage>
   923e6:	80 c0       	mov55 $r6,$r0
   923e8:	80 26       	mov55 $r1,$r6
   923ea:	46 00 00 a4 	sethi $r0,#0xa4
   923ee:	58 00 01 f0 	ori $r0,$r0,#0x1f0
   923f2:	49 00 13 98 	jal 94b22 <printf>
   923f6:	5c f3 00 f0 	slti $r15,$r6,#240
   923fa:	e8 0b       	beqzs8 92410 <Battery_CheckLevel+0x48>
   923fc:	5c f3 00 dc 	slti $r15,$r6,#220
   92400:	e8 1d       	beqzs8 9243a <Battery_CheckLevel+0x72>
   92402:	5c f3 00 b4 	slti $r15,$r6,#180
   92406:	e9 09       	bnezs8 92418 <Battery_CheckLevel+0x50>
   92408:	5c f3 00 c8 	slti $r15,$r6,#200
   9240c:	e9 24       	bnezs8 92454 <Battery_CheckLevel+0x8c>
   9240e:	d5 1a       	j8 92442 <Battery_CheckLevel+0x7a>
   92410:	5c f3 01 4a 	slti $r15,$r6,#330
   92414:	e9 07       	bnezs8 92422 <Battery_CheckLevel+0x5a>
   92416:	d5 03       	j8 9241c <Battery_CheckLevel+0x54>
   92418:	80 27       	mov55 $r1,$r7
   9241a:	d5 25       	j8 92464 <Battery_CheckLevel+0x9c>
   9241c:	44 10 00 64 	movi $r1,#100
   92420:	d5 22       	j8 92464 <Battery_CheckLevel+0x9c>
   92422:	44 10 00 3c 	movi $r1,#60
   92426:	fe 74       	mul33 $r1,$r6
   92428:	50 10 c7 c0 	addi $r1,$r1,#-14400
   9242c:	44 00 00 5a 	movi $r0,#90
   92430:	40 10 80 16 	divsr $r1,$r0,$r1,$r0
   92434:	50 10 80 28 	addi $r1,$r1,#40
   92438:	d5 15       	j8 92462 <Battery_CheckLevel+0x9a>
   9243a:	50 63 00 38 	addi $r6,$r6,#56
   9243e:	96 70       	zeb33 $r1,$r6
   92440:	d5 12       	j8 92464 <Battery_CheckLevel+0x9c>
   92442:	84 2a       	movi55 $r1,#10
   92444:	fe 74       	mul33 $r1,$r6
   92446:	50 10 f8 30 	addi $r1,$r1,#-2000
   9244a:	fa 04       	movpi45 $r0,#0x14
   9244c:	40 10 80 16 	divsr $r1,$r0,$r1,$r0
   92450:	8c 2a       	addi45 $r1,#10
   92452:	d5 08       	j8 92462 <Battery_CheckLevel+0x9a>
   92454:	84 2a       	movi55 $r1,#10
   92456:	fe 74       	mul33 $r1,$r6
   92458:	50 10 f8 f8 	addi $r1,$r1,#-1800
   9245c:	fa 04       	movpi45 $r0,#0x14
   9245e:	40 10 80 16 	divsr $r1,$r0,$r1,$r0
   92462:	96 48       	zeb33 $r1,$r1
   92464:	3e 6f ca 78 	addi.gp $r6,#-13704
   92468:	a6 30       	lbi333 $r0,[$r6+#0x0]
   9246a:	4c 00 80 14 	beq $r0,$r1,92492 <Battery_CheckLevel+0xca>
   9246e:	ae 70       	sbi333 $r1,[$r6+#0x0]
   92470:	46 00 00 a4 	sethi $r0,#0xa4
   92474:	58 00 02 04 	ori $r0,$r0,#0x204
   92478:	49 00 13 55 	jal 94b22 <printf>
   9247c:	49 00 00 2c 	jal 924d4 <GAP_GetGapStatus>
   92480:	5a 08 03 05 	bnec $r0,#3,9248a <Battery_CheckLevel+0xc2>
   92484:	a6 30       	lbi333 $r0,[$r6+#0x0]
   92486:	84 21       	movi55 $r1,#1
   92488:	d5 03       	j8 9248e <Battery_CheckLevel+0xc6>
   9248a:	a6 30       	lbi333 $r0,[$r6+#0x0]
   9248c:	84 20       	movi55 $r1,#0
   9248e:	49 00 2c 96 	jal 97dba <BAS_update_battery_level>
   92492:	fc a0       	pop25 $r8,#0x0    ! {$r6~$r8, $fp, $gp, $lp}

00092494 <Remote_Init>:
   92494:	fc 00       	push25 $r6,#0x0    ! {$r6, $fp, $gp, $lp}
   92496:	84 00       	movi55 $r0,#0
   92498:	49 ff ff 98 	jal 923c8 <Battery_CheckLevel>
   9249c:	84 00       	movi55 $r0,#0
   9249e:	84 21       	movi55 $r1,#1
   924a0:	44 23 0d 40 	movi $r2,#200000
   924a4:	46 30 00 92 	sethi $r3,#0x92
   924a8:	58 31 83 c8 	ori $r3,$r3,#0x3c8
   924ac:	49 00 18 c2 	jal 95630 <AB_Timer_AlertSet>
   924b0:	49 00 09 5f 	jal 9376e <LED_Init>
   924b4:	49 00 08 69 	jal 93586 <MIC_Init>
   924b8:	49 00 0a c4 	jal 93a40 <IRTX_Init>
   924bc:	fc 80       	pop25 $r6,#0x0    ! {$r6, $fp, $gp, $lp}

000924be <APP_InitBeforeBt>:
   924be:	fc 00       	push25 $r6,#0x0    ! {$r6, $fp, $gp, $lp}
   924c0:	49 00 06 63 	jal 93186 <Keyboard_Init>
   924c4:	44 00 03 e8 	movi $r0,#1000
   924c8:	84 23       	movi55 $r1,#3
   924ca:	49 00 19 62 	jal 9578e <AB_Timer_Enable_Ext>
   924ce:	49 00 02 d2 	jal 92a72 <MP_DataInit>
   924d2:	fc 80       	pop25 $r6,#0x0    ! {$r6, $fp, $gp, $lp}

000924d4 <GAP_GetGapStatus>:
   924d4:	fc 00       	push25 $r6,#0x0    ! {$r6, $fp, $gp, $lp}
   924d6:	3c 0d f1 eb 	lwi.gp $r0,[+#-14420]
   924da:	fc 80       	pop25 $r6,#0x0    ! {$r6, $fp, $gp, $lp}

000924dc <GAP_IsLinkEncrypted>:
   924dc:	fc 00       	push25 $r6,#0x0    ! {$r6, $fp, $gp, $lp}
   924de:	2e 07 ca 7e 	lbi.gp $r0,[+#-13698]
   924e2:	fc 80       	pop25 $r6,#0x0    ! {$r6, $fp, $gp, $lp}

000924e4 <GAP_IsBonded>:
   924e4:	fc 00       	push25 $r6,#0x0    ! {$r6, $fp, $gp, $lp}
   924e6:	2e 07 ca 7d 	lbi.gp $r0,[+#-13699]
   924ea:	fc 80       	pop25 $r6,#0x0    ! {$r6, $fp, $gp, $lp}

000924ec <GapTimer_Release>:
   924ec:	fc 00       	push25 $r6,#0x0    ! {$r6, $fp, $gp, $lp}
   924ee:	84 01       	movi55 $r0,#1
   924f0:	49 00 26 f0 	jal 972d0 <DRV_TMR32B0_NotifyDisable>
   924f4:	fc 80       	pop25 $r6,#0x0    ! {$r6, $fp, $gp, $lp}

000924f6 <GapTimer_Set>:
   924f6:	fc 00       	push25 $r6,#0x0    ! {$r6, $fp, $gp, $lp}
   924f8:	80 40       	mov55 $r2,$r0
   924fa:	84 01       	movi55 $r0,#1
   924fc:	80 81       	mov55 $r4,$r1
   924fe:	84 60       	movi55 $r3,#0
   92500:	80 22       	mov55 $r1,$r2
   92502:	80 40       	mov55 $r2,$r0
   92504:	49 00 26 8e 	jal 97220 <DRV_TMR32B0_NotifyEnable>
   92508:	fc 80       	pop25 $r6,#0x0    ! {$r6, $fp, $gp, $lp}

0009250a <GAP_TerminateConnection>:
   9250a:	fc 00       	push25 $r6,#0x0    ! {$r6, $fp, $gp, $lp}
   9250c:	49 ff ff e4 	jal 924d4 <GAP_GetGapStatus>
   92510:	5a 00 03 06 	beqc $r0,#3,9251c <GAP_TerminateConnection+0x12>
   92514:	84 00       	movi55 $r0,#0
   92516:	49 00 04 5e 	jal 92dd2 <Board_DeepSleepEnable>
   9251a:	d5 0c       	j8 92532 <GAP_TerminateConnection+0x28>
   9251c:	3c 03 e3 ff 	lhi.gp $r0,[+#-14338]
   92520:	fa 26       	movpi45 $r1,#0x16
   92522:	49 00 3d 8c 	jal 9a03a <ble_gap_disconnect>
   92526:	46 00 00 a4 	sethi $r0,#0xa4
   9252a:	58 00 02 18 	ori $r0,$r0,#0x218
   9252e:	49 00 7d 1e 	jal a1f6a <puts>
   92532:	fc 80       	pop25 $r6,#0x0    ! {$r6, $fp, $gp, $lp}

00092534 <GAP_UpdateConnParam4OTA>:
   92534:	fc 00       	push25 $r6,#0x0    ! {$r6, $fp, $gp, $lp}
   92536:	49 ff ff db 	jal 924ec <GapTimer_Release>
   9253a:	3c 03 e3 ff 	lhi.gp $r0,[+#-14338]
   9253e:	46 10 00 a3 	sethi $r1,#0xa3
   92542:	58 10 88 84 	ori $r1,$r1,#0x884
   92546:	49 00 3e e3 	jal 9a30c <ble_gap_conn_param_update>
   9254a:	c0 06       	beqz38 $r0,92556 <GAP_UpdateConnParam4OTA+0x22>
   9254c:	46 00 00 a4 	sethi $r0,#0xa4
   92550:	58 00 02 48 	ori $r0,$r0,#0x248
   92554:	d5 05       	j8 9255e <GAP_UpdateConnParam4OTA+0x2a>
   92556:	46 00 00 a4 	sethi $r0,#0xa4
   9255a:	58 00 02 68 	ori $r0,$r0,#0x268
   9255e:	49 00 7d 06 	jal a1f6a <puts>
   92562:	fc 80       	pop25 $r6,#0x0    ! {$r6, $fp, $gp, $lp}

00092564 <GAP_ConnParaUpdate_TimerHandler>:
   92564:	fc 00       	push25 $r6,#0x0    ! {$r6, $fp, $gp, $lp}
   92566:	3c 03 e3 ff 	lhi.gp $r0,[+#-14338]
   9256a:	46 10 00 a3 	sethi $r1,#0xa3
   9256e:	58 10 88 a0 	ori $r1,$r1,#0x8a0
   92572:	49 00 3e cd 	jal 9a30c <ble_gap_conn_param_update>
   92576:	c0 06       	beqz38 $r0,92582 <GAP_ConnParaUpdate_TimerHandler+0x1e>
   92578:	46 00 00 a4 	sethi $r0,#0xa4
   9257c:	58 00 02 88 	ori $r0,$r0,#0x288
   92580:	d5 05       	j8 9258a <GAP_ConnParaUpdate_TimerHandler+0x26>
   92582:	46 00 00 a4 	sethi $r0,#0xa4
   92586:	58 00 02 a4 	ori $r0,$r0,#0x2a4
   9258a:	49 00 7c f0 	jal a1f6a <puts>
   9258e:	fc 80       	pop25 $r6,#0x0    ! {$r6, $fp, $gp, $lp}

00092590 <GAP_CheckBondingState>:
   92590:	fc 00       	push25 $r6,#0x0    ! {$r6, $fp, $gp, $lp}
   92592:	3e 0f ca 88 	addi.gp $r0,#-13688
   92596:	49 00 42 04 	jal 9a99e <BLE_gap_sm_get_last_paired_device>
   9259a:	3e 07 ca 7d 	sbi.gp $r0,[+#-13699]
   9259e:	c8 06       	bnez38 $r0,925aa <GAP_CheckBondingState+0x1a>
   925a0:	46 10 00 a4 	sethi $r1,#0xa4
   925a4:	58 10 82 c0 	ori $r1,$r1,#0x2c0
   925a8:	d5 05       	j8 925b2 <GAP_CheckBondingState+0x22>
   925aa:	46 10 00 a4 	sethi $r1,#0xa4
   925ae:	58 10 82 cc 	ori $r1,$r1,#0x2cc
   925b2:	46 00 00 a4 	sethi $r0,#0xa4
   925b6:	58 00 02 d4 	ori $r0,$r0,#0x2d4
   925ba:	49 00 12 b4 	jal 94b22 <printf>
   925be:	2e 07 ca 7d 	lbi.gp $r0,[+#-13699]
   925c2:	fc 80       	pop25 $r6,#0x0    ! {$r6, $fp, $gp, $lp}

000925c4 <GAP_StartAdvertising_CB>:
   925c4:	fc 00       	push25 $r6,#0x0    ! {$r6, $fp, $gp, $lp}
   925c6:	97 80       	zeb33 $r6,$r0
   925c8:	ce 06       	bnez38 $r6,925d4 <GAP_StartAdvertising_CB+0x10>
   925ca:	46 10 00 a4 	sethi $r1,#0xa4
   925ce:	58 10 82 ec 	ori $r1,$r1,#0x2ec
   925d2:	d5 05       	j8 925dc <GAP_StartAdvertising_CB+0x18>
   925d4:	46 10 00 a4 	sethi $r1,#0xa4
   925d8:	58 10 82 f4 	ori $r1,$r1,#0x2f4
   925dc:	46 00 00 a4 	sethi $r0,#0xa4
   925e0:	58 00 02 fc 	ori $r0,$r0,#0x2fc
   925e4:	49 00 12 9f 	jal 94b22 <printf>
   925e8:	c6 0e       	beqz38 $r6,92604 <GAP_StartAdvertising_CB+0x40>
   925ea:	84 22       	movi55 $r1,#2
   925ec:	3c 1f f1 eb 	swi.gp $r1,[+#-14420]
   925f0:	49 ff ff 7e 	jal 924ec <GapTimer_Release>
   925f4:	3c 0d f1 ec 	lwi.gp $r0,[+#-14416]
   925f8:	46 10 00 92 	sethi $r1,#0x92
   925fc:	58 10 87 52 	ori $r1,$r1,#0x752
   92600:	49 ff ff 7b 	jal 924f6 <GapTimer_Set>
   92604:	fc 80       	pop25 $r6,#0x0    ! {$r6, $fp, $gp, $lp}

00092606 <GAP_BDAddressSet_CB>:
   92606:	fc 00       	push25 $r6,#0x0    ! {$r6, $fp, $gp, $lp}
   92608:	96 00       	zeb33 $r0,$r0
   9260a:	c8 06       	bnez38 $r0,92616 <GAP_BDAddressSet_CB+0x10>
   9260c:	46 10 00 a4 	sethi $r1,#0xa4
   92610:	58 10 82 ec 	ori $r1,$r1,#0x2ec
   92614:	d5 05       	j8 9261e <GAP_BDAddressSet_CB+0x18>
   92616:	46 10 00 a4 	sethi $r1,#0xa4
   9261a:	58 10 82 f4 	ori $r1,$r1,#0x2f4
   9261e:	46 00 00 a4 	sethi $r0,#0xa4
   92622:	58 00 03 10 	ori $r0,$r0,#0x310
   92626:	49 00 12 7e 	jal 94b22 <printf>
   9262a:	84 2b       	movi55 $r1,#11
   9262c:	46 20 00 92 	sethi $r2,#0x92
   92630:	58 21 06 3e 	ori $r2,$r2,#0x63e
   92634:	3e 0f c1 28 	addi.gp $r0,#-16088
   92638:	49 00 3f 34 	jal 9a4a0 <ble_gap_adv_data_set>
   9263c:	fc 80       	pop25 $r6,#0x0    ! {$r6, $fp, $gp, $lp}

0009263e <GAP_AdvDataSet_CB>:
   9263e:	fc 00       	push25 $r6,#0x0    ! {$r6, $fp, $gp, $lp}
   92640:	96 00       	zeb33 $r0,$r0
   92642:	c8 06       	bnez38 $r0,9264e <GAP_AdvDataSet_CB+0x10>
   92644:	46 10 00 a4 	sethi $r1,#0xa4
   92648:	58 10 82 ec 	ori $r1,$r1,#0x2ec
   9264c:	d5 05       	j8 92656 <GAP_AdvDataSet_CB+0x18>
   9264e:	46 10 00 a4 	sethi $r1,#0xa4
   92652:	58 10 82 f4 	ori $r1,$r1,#0x2f4
   92656:	46 00 00 a4 	sethi $r0,#0xa4
   9265a:	58 00 03 28 	ori $r0,$r0,#0x328
   9265e:	49 00 12 62 	jal 94b22 <printf>
   92662:	84 2f       	movi55 $r1,#15
   92664:	46 20 00 92 	sethi $r2,#0x92
   92668:	58 21 06 76 	ori $r2,$r2,#0x676
   9266c:	3e 0f c1 34 	addi.gp $r0,#-16076
   92670:	49 00 3e f8 	jal 9a460 <ble_gap_scan_data_set>
   92674:	fc 80       	pop25 $r6,#0x0    ! {$r6, $fp, $gp, $lp}

00092676 <GAP_ScanResDataSet_CB>:
   92676:	fc 20       	push25 $r8,#0x0    ! {$r6~$r8, $fp, $gp, $lp}
   92678:	96 00       	zeb33 $r0,$r0
   9267a:	c8 06       	bnez38 $r0,92686 <GAP_ScanResDataSet_CB+0x10>
   9267c:	46 10 00 a4 	sethi $r1,#0xa4
   92680:	58 10 82 ec 	ori $r1,$r1,#0x2ec
   92684:	d5 05       	j8 9268e <GAP_ScanResDataSet_CB+0x18>
   92686:	46 10 00 a4 	sethi $r1,#0xa4
   9268a:	58 10 82 f4 	ori $r1,$r1,#0x2f4
   9268e:	46 00 00 a4 	sethi $r0,#0xa4
   92692:	58 00 03 3c 	ori $r0,$r0,#0x33c
   92696:	49 00 12 46 	jal 94b22 <printf>
   9269a:	49 ff ff 7b 	jal 92590 <GAP_CheckBondingState>
   9269e:	3e 6f ca 7c 	addi.gp $r6,#-13700
   926a2:	c0 11       	beqz38 $r0,926c4 <GAP_ScanResDataSet_CB+0x4e>
   926a4:	3e 0f c1 44 	addi.gp $r0,#-16060
   926a8:	46 10 00 92 	sethi $r1,#0x92
   926ac:	58 10 85 c4 	ori $r1,$r1,#0x5c4
   926b0:	49 00 3e 74 	jal 9a398 <ble_gap_adv_start>
   926b4:	44 00 28 00 	movi $r0,#10240
   926b8:	3c 0f f1 ec 	swi.gp $r0,[+#-14416]
   926bc:	a6 30       	lbi333 $r0,[$r6+#0x0]
   926be:	58 00 00 02 	ori $r0,$r0,#0x2
   926c2:	d5 10       	j8 926e2 <GAP_ScanResDataSet_CB+0x6c>
   926c4:	46 10 00 92 	sethi $r1,#0x92
   926c8:	58 10 85 c4 	ori $r1,$r1,#0x5c4
   926cc:	3e 0f c1 50 	addi.gp $r0,#-16048
   926d0:	49 00 3e 64 	jal 9a398 <ble_gap_adv_start>
   926d4:	44 02 71 00 	movi $r0,#160000
   926d8:	3c 0f f1 ec 	swi.gp $r0,[+#-14416]
   926dc:	a6 30       	lbi333 $r0,[$r6+#0x0]
   926de:	84 3d       	movi55 $r1,#-3
   926e0:	fe 0e       	and33 $r0,$r1
   926e2:	ae 30       	sbi333 $r0,[$r6+#0x0]
   926e4:	fc a0       	pop25 $r8,#0x0    ! {$r6~$r8, $fp, $gp, $lp}

000926e6 <GAP_StopAdvertising_CB>:
   926e6:	fc 00       	push25 $r6,#0x0    ! {$r6, $fp, $gp, $lp}
   926e8:	97 80       	zeb33 $r6,$r0
   926ea:	ce 06       	bnez38 $r6,926f6 <GAP_StopAdvertising_CB+0x10>
   926ec:	46 10 00 a4 	sethi $r1,#0xa4
   926f0:	58 10 82 ec 	ori $r1,$r1,#0x2ec
   926f4:	d5 05       	j8 926fe <GAP_StopAdvertising_CB+0x18>
   926f6:	46 10 00 a4 	sethi $r1,#0xa4
   926fa:	58 10 82 f4 	ori $r1,$r1,#0x2f4
   926fe:	46 00 00 a4 	sethi $r0,#0xa4
   92702:	58 00 03 54 	ori $r0,$r0,#0x354
   92706:	49 00 12 0e 	jal 94b22 <printf>
   9270a:	c6 04       	beqz38 $r6,92712 <GAP_StopAdvertising_CB+0x2c>
   9270c:	84 21       	movi55 $r1,#1
   9270e:	3c 1f f1 eb 	swi.gp $r1,[+#-14420]
   92712:	3e 6f ca 7c 	addi.gp $r6,#-13700
   92716:	a6 30       	lbi333 $r0,[$r6+#0x0]
   92718:	96 0e       	bmski33 $r0,#0x1
   9271a:	96 00       	zeb33 $r0,$r0
   9271c:	c0 18       	beqz38 $r0,9274c <GAP_StopAdvertising_CB+0x66>
   9271e:	46 10 00 92 	sethi $r1,#0x92
   92722:	58 10 85 c4 	ori $r1,$r1,#0x5c4
   92726:	3e 0f c1 50 	addi.gp $r0,#-16048
   9272a:	49 00 3e 37 	jal 9a398 <ble_gap_adv_start>
   9272e:	44 12 71 00 	movi $r1,#160000
   92732:	3c 1f f1 ec 	swi.gp $r1,[+#-14416]
   92736:	84 3d       	movi55 $r1,#-3
   92738:	a6 30       	lbi333 $r0,[$r6+#0x0]
   9273a:	fe 0e       	and33 $r0,$r1
   9273c:	ae 30       	sbi333 $r0,[$r6+#0x0]
   9273e:	46 00 00 a4 	sethi $r0,#0xa4
   92742:	58 00 03 68 	ori $r0,$r0,#0x368
   92746:	49 00 7c 12 	jal a1f6a <puts>
   9274a:	d5 03       	j8 92750 <GAP_StopAdvertising_CB+0x6a>
   9274c:	49 00 03 43 	jal 92dd2 <Board_DeepSleepEnable>
   92750:	fc 80       	pop25 $r6,#0x0    ! {$r6, $fp, $gp, $lp}

00092752 <GAP_AdvOvertime_TimerHandler>:
   92752:	fc 00       	push25 $r6,#0x0    ! {$r6, $fp, $gp, $lp}
   92754:	46 00 00 a4 	sethi $r0,#0xa4
   92758:	58 00 03 74 	ori $r0,$r0,#0x374
   9275c:	49 00 7c 07 	jal a1f6a <puts>
   92760:	3c 0d f1 eb 	lwi.gp $r0,[+#-14420]
   92764:	5a 08 02 08 	bnec $r0,#2,92774 <GAP_AdvOvertime_TimerHandler+0x22>
   92768:	46 00 00 92 	sethi $r0,#0x92
   9276c:	58 00 06 e6 	ori $r0,$r0,#0x6e6
   92770:	49 00 3c c9 	jal 9a102 <ble_gap_adv_stop>
   92774:	fc 80       	pop25 $r6,#0x0    ! {$r6, $fp, $gp, $lp}

00092776 <gapRole_GapEventHandle>:
   92776:	fc 43       	push25 $r10,#0x18    ! {$r6~$r10, $fp, $gp, $lp}
   92778:	b4 20       	lwi450 $r1,[$r0]
   9277a:	80 c0       	mov55 $r6,$r0
   9277c:	44 00 10 01 	movi $r0,#4097
   92780:	4c 10 00 c2 	beq $r1,$r0,92904 <gapRole_GapEventHandle+0x18e>
   92784:	5c f0 90 02 	slti $r15,$r1,#4098
   92788:	e8 06       	beqzs8 92794 <gapRole_GapEventHandle+0x1e>
   9278a:	c1 12       	beqz38 $r1,927ae <gapRole_GapEventHandle+0x38>
   9278c:	9e 01       	subi333 $r0,$r0,#1
   9278e:	4c 10 41 6b 	bne $r1,$r0,92a64 <gapRole_GapEventHandle+0x2ee>
   92792:	d5 3b       	j8 92808 <gapRole_GapEventHandle+0x92>
   92794:	44 00 20 00 	movi $r0,#8192
   92798:	4c 10 01 36 	beq $r1,$r0,92a04 <gapRole_GapEventHandle+0x28e>
   9279c:	9c 03       	addi333 $r0,$r0,#3
   9279e:	4c 10 01 48 	beq $r1,$r0,92a2e <gapRole_GapEventHandle+0x2b8>
   927a2:	44 00 10 02 	movi $r0,#4098
   927a6:	4c 10 41 5f 	bne $r1,$r0,92a64 <gapRole_GapEventHandle+0x2ee>
   927aa:	48 00 00 d2 	j 9294e <gapRole_GapEventHandle+0x1d8>
   927ae:	a6 34       	lbi333 $r0,[$r6+#0x4]
   927b0:	c0 25       	beqz38 $r0,927fa <gapRole_GapEventHandle+0x84>
   927b2:	3c 2d f1 ea 	lwi.gp $r2,[+#-14424]
   927b6:	b0 c2       	addri36.sp $r3,#0x8
   927b8:	50 0f 80 09 	addi $r0,$sp,#9
   927bc:	c2 04       	beqz38 $r2,927c4 <gapRole_GapEventHandle+0x4e>
   927be:	ae 58       	sbi333 $r1,[$r3+#0x0]
   927c0:	80 22       	mov55 $r1,$r2
   927c2:	d5 06       	j8 927ce <gapRole_GapEventHandle+0x58>
   927c4:	ae 98       	sbi333 $r2,[$r3+#0x0]
   927c6:	46 10 00 a3 	sethi $r1,#0xa3
   927ca:	58 10 88 91 	ori $r1,$r1,#0x891
   927ce:	84 46       	movi55 $r2,#6
   927d0:	49 ff fb 68 	jal 91ea0 <memcpy>
   927d4:	46 10 00 92 	sethi $r1,#0x92
   927d8:	58 10 86 06 	ori $r1,$r1,#0x606
   927dc:	b0 02       	addri36.sp $r0,#0x8
   927de:	49 00 3d 4e 	jal 9a27a <ble_gap_address_set>
   927e2:	84 20       	movi55 $r1,#0
   927e4:	3c 1f f1 eb 	swi.gp $r1,[+#-14420]
   927e8:	49 00 25 16 	jal 97214 <DRV_TMR32B0_TickGet>
   927ec:	80 20       	mov55 $r1,$r0
   927ee:	46 00 00 a4 	sethi $r0,#0xa4
   927f2:	58 00 03 88 	ori $r0,$r0,#0x388
   927f6:	48 00 01 3b 	j 92a6c <gapRole_GapEventHandle+0x2f6>
   927fa:	46 00 00 a4 	sethi $r0,#0xa4
   927fe:	58 00 03 a0 	ori $r0,$r0,#0x3a0
   92802:	49 00 7b b4 	jal a1f6a <puts>
   92806:	d5 00       	j8 92806 <gapRole_GapEventHandle+0x90>
   92808:	a6 34       	lbi333 $r0,[$r6+#0x4]
   9280a:	c0 09       	beqz38 $r0,9281c <gapRole_GapEventHandle+0xa6>
   9280c:	46 00 00 a4 	sethi $r0,#0xa4
   92810:	58 00 03 b0 	ori $r0,$r0,#0x3b0
   92814:	49 00 7b ab 	jal a1f6a <puts>
   92818:	48 00 00 88 	j 92928 <gapRole_GapEventHandle+0x1b2>
   9281c:	84 23       	movi55 $r1,#3
   9281e:	3c 1f f1 eb 	swi.gp $r1,[+#-14420]
   92822:	50 03 00 08 	addi $r0,$r6,#8
   92826:	3a 00 04 00 	lmw.bi $r0,[$r0],$r1,#0x0    ! {$r0~$r1}
   9282a:	3e 7f ca 80 	addi.gp $r7,#-13696
   9282e:	80 47       	mov55 $r2,$r7
   92830:	aa 11       	swi333.bi $r0,[$r2],#0x4
   92832:	ac 50       	shi333 $r1,[$r2+#0x0]
   92834:	92 30       	srli45 $r1,#16
   92836:	ae 7e       	sbi333 $r1,[$r7+#0x6]
   92838:	47 c0 01 00 	sethi $fp,#0x100
   9283c:	a0 31       	lwi333 $r0,[$r6+#0x4]
   9283e:	92 08       	srli45 $r0,#8
   92840:	3c 0b e3 ff 	shi.gp $r0,[+#-14338]
   92844:	00 03 00 10 	lbi $r0,[$r6+#0x10]
   92848:	00 13 00 0f 	lbi $r1,[$r6+#0xf]
   9284c:	40 00 20 08 	slli $r0,$r0,#8
   92850:	fe 0f       	or33 $r0,$r1
   92852:	3c 0b e5 48 	shi.gp $r0,[+#-13680]
   92856:	a0 34       	lwi333 $r0,[$r6+#0x10]
   92858:	92 08       	srli45 $r0,#8
   9285a:	3c 0b e5 49 	shi.gp $r0,[+#-13678]
   9285e:	00 03 00 14 	lbi $r0,[$r6+#0x14]
   92862:	00 13 00 13 	lbi $r1,[$r6+#0x13]
   92866:	40 00 20 08 	slli $r0,$r0,#8
   9286a:	fe 0f       	or33 $r0,$r1
   9286c:	3c 0b e5 4a 	shi.gp $r0,[+#-13676]
   92870:	46 00 00 a4 	sethi $r0,#0xa4
   92874:	58 00 03 c4 	ori $r0,$r0,#0x3c4
   92878:	49 00 11 55 	jal 94b22 <printf>
   9287c:	a6 3e       	lbi333 $r0,[$r7+#0x6]
   9287e:	a6 ba       	lbi333 $r2,[$r7+#0x2]
   92880:	a6 fb       	lbi333 $r3,[$r7+#0x3]
   92882:	a7 3c       	lbi333 $r4,[$r7+#0x4]
   92884:	a7 7d       	lbi333 $r5,[$r7+#0x5]
   92886:	a6 79       	lbi333 $r1,[$r7+#0x1]
   92888:	b6 1f       	swi450 $r0,[$sp]
   9288a:	46 00 00 a4 	sethi $r0,#0xa4
   9288e:	58 00 03 d8 	ori $r0,$r0,#0x3d8
   92892:	49 00 11 48 	jal 94b22 <printf>
   92896:	3c 13 e5 48 	lhi.gp $r1,[+#-13680]
   9289a:	46 00 00 a4 	sethi $r0,#0xa4
   9289e:	58 00 03 f8 	ori $r0,$r0,#0x3f8
   928a2:	49 00 11 40 	jal 94b22 <printf>
   928a6:	3c 13 e5 49 	lhi.gp $r1,[+#-13678]
   928aa:	46 00 00 a4 	sethi $r0,#0xa4
   928ae:	58 00 04 0c 	ori $r0,$r0,#0x40c
   928b2:	49 00 11 38 	jal 94b22 <printf>
   928b6:	3c 13 e5 4a 	lhi.gp $r1,[+#-13676]
   928ba:	46 00 00 a4 	sethi $r0,#0xa4
   928be:	58 00 04 20 	ori $r0,$r0,#0x420
   928c2:	49 00 11 30 	jal 94b22 <printf>
   928c6:	49 ff fe 13 	jal 924ec <GapTimer_Release>
   928ca:	44 00 2e e0 	movi $r0,#12000
   928ce:	46 10 00 92 	sethi $r1,#0x92
   928d2:	58 10 85 64 	ori $r1,$r1,#0x564
   928d6:	49 ff fe 10 	jal 924f6 <GapTimer_Set>
   928da:	2e 07 ca 7c 	lbi.gp $r0,[+#-13700]
   928de:	96 16       	bmski33 $r0,#0x2
   928e0:	4e 02 00 c8 	beqz $r0,92a70 <gapRole_GapEventHandle+0x2fa>
   928e4:	46 00 00 a3 	sethi $r0,#0xa3
   928e8:	58 00 08 98 	ori $r0,$r0,#0x898
   928ec:	3a 00 04 00 	lmw.bi $r0,[$r0],$r1,#0x0    ! {$r0~$r1}
   928f0:	b0 84       	addri36.sp $r2,#0x10
   928f2:	f0 84       	swi37.sp $r0,[+#0x10]
   928f4:	3c 03 e3 ff 	lhi.gp $r0,[+#-14338]
   928f8:	ac 52       	shi333 $r1,[$r2+#0x4]
   928fa:	80 22       	mov55 $r1,$r2
   928fc:	49 00 40 9c 	jal 9aa34 <BLE_gap_sm_authenticate>
   92900:	48 00 00 b8 	j 92a70 <gapRole_GapEventHandle+0x2fa>
   92904:	a6 76       	lbi333 $r1,[$r6+#0x6]
   92906:	46 00 00 a4 	sethi $r0,#0xa4
   9290a:	58 00 04 38 	ori $r0,$r0,#0x438
   9290e:	49 00 11 0a 	jal 94b22 <printf>
   92912:	84 24       	movi55 $r1,#4
   92914:	3c 1f f1 eb 	swi.gp $r1,[+#-14420]
   92918:	84 20       	movi55 $r1,#0
   9291a:	3e 17 ca 7e 	sbi.gp $r1,[+#-13698]
   9291e:	49 ff fd e7 	jal 924ec <GapTimer_Release>
   92922:	a6 36       	lbi333 $r0,[$r6+#0x6]
   92924:	5a 08 16 04 	bnec $r0,#22,9292c <gapRole_GapEventHandle+0x1b6>
   92928:	84 00       	movi55 $r0,#0
   9292a:	d5 0e       	j8 92946 <gapRole_GapEventHandle+0x1d0>
   9292c:	49 ff fe 32 	jal 92590 <GAP_CheckBondingState>
   92930:	c0 0b       	beqz38 $r0,92946 <gapRole_GapEventHandle+0x1d0>
   92932:	46 10 00 92 	sethi $r1,#0x92
   92936:	58 10 85 c4 	ori $r1,$r1,#0x5c4
   9293a:	3e 0f c1 50 	addi.gp $r0,#-16048
   9293e:	49 00 3d 2d 	jal 9a398 <ble_gap_adv_start>
   92942:	48 00 00 97 	j 92a70 <gapRole_GapEventHandle+0x2fa>
   92946:	49 00 02 46 	jal 92dd2 <Board_DeepSleepEnable>
   9294a:	48 00 00 93 	j 92a70 <gapRole_GapEventHandle+0x2fa>
   9294e:	a6 34       	lbi333 $r0,[$r6+#0x4]
   92950:	c0 08       	beqz38 $r0,92960 <gapRole_GapEventHandle+0x1ea>
   92952:	46 00 00 a4 	sethi $r0,#0xa4
   92956:	58 00 04 54 	ori $r0,$r0,#0x454
   9295a:	49 00 7b 08 	jal a1f6a <puts>
   9295e:	d5 34       	j8 929c6 <gapRole_GapEventHandle+0x250>
   92960:	00 03 00 08 	lbi $r0,[$r6+#0x8]
   92964:	a6 77       	lbi333 $r1,[$r6+#0x7]
   92966:	40 00 20 08 	slli $r0,$r0,#8
   9296a:	fe 0f       	or33 $r0,$r1
   9296c:	3c 0b e5 48 	shi.gp $r0,[+#-13680]
   92970:	a0 32       	lwi333 $r0,[$r6+#0x8]
   92972:	92 08       	srli45 $r0,#8
   92974:	3c 0b e5 49 	shi.gp $r0,[+#-13678]
   92978:	00 03 00 0c 	lbi $r0,[$r6+#0xc]
   9297c:	00 13 00 0b 	lbi $r1,[$r6+#0xb]
   92980:	40 00 20 08 	slli $r0,$r0,#8
   92984:	fe 0f       	or33 $r0,$r1
   92986:	3c 0b e5 4a 	shi.gp $r0,[+#-13676]
   9298a:	46 00 00 a4 	sethi $r0,#0xa4
   9298e:	58 00 04 74 	ori $r0,$r0,#0x474
   92992:	49 00 7a ec 	jal a1f6a <puts>
   92996:	3c 13 e5 48 	lhi.gp $r1,[+#-13680]
   9299a:	46 00 00 a4 	sethi $r0,#0xa4
   9299e:	58 00 03 fc 	ori $r0,$r0,#0x3fc
   929a2:	49 00 10 c0 	jal 94b22 <printf>
   929a6:	3c 13 e5 49 	lhi.gp $r1,[+#-13678]
   929aa:	46 00 00 a4 	sethi $r0,#0xa4
   929ae:	58 00 04 94 	ori $r0,$r0,#0x494
   929b2:	49 00 10 b8 	jal 94b22 <printf>
   929b6:	3c 13 e5 4a 	lhi.gp $r1,[+#-13676]
   929ba:	46 00 00 a4 	sethi $r0,#0xa4
   929be:	58 00 04 a4 	ori $r0,$r0,#0x4a4
   929c2:	49 00 10 b0 	jal 94b22 <printf>
   929c6:	3c 03 e5 48 	lhi.gp $r0,[+#-13680]
   929ca:	e4 0f       	sltsi45 $r0,#15
   929cc:	e8 06       	beqzs8 929d8 <gapRole_GapEventHandle+0x262>
   929ce:	3c 03 e5 49 	lhi.gp $r0,[+#-13678]
   929d2:	5e f0 00 21 	sltsi $r15,$r0,#33
   929d6:	e9 10       	bnezs8 929f6 <gapRole_GapEventHandle+0x280>
   929d8:	46 00 00 a4 	sethi $r0,#0xa4
   929dc:	58 00 04 b4 	ori $r0,$r0,#0x4b4
   929e0:	49 00 7a c5 	jal a1f6a <puts>
   929e4:	44 00 9c 40 	movi $r0,#40000
   929e8:	46 10 00 92 	sethi $r1,#0x92
   929ec:	58 10 85 64 	ori $r1,$r1,#0x564
   929f0:	49 ff fd 83 	jal 924f6 <GapTimer_Set>
   929f4:	d5 3e       	j8 92a70 <gapRole_GapEventHandle+0x2fa>
   929f6:	46 00 00 a4 	sethi $r0,#0xa4
   929fa:	58 00 04 d0 	ori $r0,$r0,#0x4d0
   929fe:	49 00 7a b6 	jal a1f6a <puts>
   92a02:	d5 37       	j8 92a70 <gapRole_GapEventHandle+0x2fa>
   92a04:	46 00 00 a4 	sethi $r0,#0xa4
   92a08:	58 00 04 e8 	ori $r0,$r0,#0x4e8
   92a0c:	49 00 7a af 	jal a1f6a <puts>
   92a10:	46 00 00 a3 	sethi $r0,#0xa3
   92a14:	58 00 08 ac 	ori $r0,$r0,#0x8ac
   92a18:	3a 00 04 00 	lmw.bi $r0,[$r0],$r1,#0x0    ! {$r0~$r1}
   92a1c:	b0 84       	addri36.sp $r2,#0x10
   92a1e:	f0 84       	swi37.sp $r0,[+#0x10]
   92a20:	3c 03 e3 ff 	lhi.gp $r0,[+#-14338]
   92a24:	ac 52       	shi333 $r1,[$r2+#0x4]
   92a26:	84 20       	movi55 $r1,#0
   92a28:	49 00 3f c4 	jal 9a9b0 <BLE_gap_sm_set_security_param>
   92a2c:	d5 22       	j8 92a70 <gapRole_GapEventHandle+0x2fa>
   92a2e:	a6 76       	lbi333 $r1,[$r6+#0x6]
   92a30:	46 00 00 a4 	sethi $r0,#0xa4
   92a34:	58 00 05 08 	ori $r0,$r0,#0x508
   92a38:	96 5f       	fexti33 $r1,#0x3
   92a3a:	49 00 10 74 	jal 94b22 <printf>
   92a3e:	a6 76       	lbi333 $r1,[$r6+#0x6]
   92a40:	46 00 00 a4 	sethi $r0,#0xa4
   92a44:	58 00 05 1c 	ori $r0,$r0,#0x51c
   92a48:	92 24       	srli45 $r1,#4
   92a4a:	49 00 10 6c 	jal 94b22 <printf>
   92a4e:	a6 77       	lbi333 $r1,[$r6+#0x7]
   92a50:	46 00 00 a4 	sethi $r0,#0xa4
   92a54:	58 00 05 34 	ori $r0,$r0,#0x534
   92a58:	49 00 10 65 	jal 94b22 <printf>
   92a5c:	84 21       	movi55 $r1,#1
   92a5e:	3e 17 ca 7e 	sbi.gp $r1,[+#-13698]
   92a62:	d5 07       	j8 92a70 <gapRole_GapEventHandle+0x2fa>
   92a64:	46 00 00 a4 	sethi $r0,#0xa4
   92a68:	58 00 05 48 	ori $r0,$r0,#0x548
   92a6c:	49 00 10 5b 	jal 94b22 <printf>
   92a70:	fc c3       	pop25 $r10,#0x18    ! {$r6~$r10, $fp, $gp, $lp}

00092a72 <MP_DataInit>:
   92a72:	fc 00       	push25 $r6,#0x0    ! {$r6, $fp, $gp, $lp}
   92a74:	84 00       	movi55 $r0,#0
   92a76:	49 00 11 e7 	jal 94e44 <AB_SECTOR_GetMpParameter>
   92a7a:	c0 05       	beqz38 $r0,92a84 <MP_DataInit+0x12>
   92a7c:	50 00 01 c7 	addi $r0,$r0,#455
   92a80:	3c 0f f1 ea 	swi.gp $r0,[+#-14424]
   92a84:	fc 80       	pop25 $r6,#0x0    ! {$r6, $fp, $gp, $lp}

00092a86 <HOGP_SetMouseButton>:
   92a86:	fc 00       	push25 $r6,#0x0    ! {$r6, $fp, $gp, $lp}
   92a88:	3e 07 d3 ea 	sbi.gp $r0,[+#-11286]
   92a8c:	fc 80       	pop25 $r6,#0x0    ! {$r6, $fp, $gp, $lp}

00092a8e <Gas_DeviceName_Written_CB>:
   92a8e:	fc 00       	push25 $r6,#0x0    ! {$r6, $fp, $gp, $lp}
   92a90:	fc 80       	pop25 $r6,#0x0    ! {$r6, $fp, $gp, $lp}

00092a92 <HOGP_SendKeyboard>:
   92a92:	fc 00       	push25 $r6,#0x0    ! {$r6, $fp, $gp, $lp}
   92a94:	3e 1f d3 ec 	addi.gp $r1,#-11284
   92a98:	84 40       	movi55 $r2,#0
   92a9a:	ae 09       	sbi333 $r0,[$r1+#0x1]
   92a9c:	ae 88       	sbi333 $r2,[$r1+#0x0]
   92a9e:	ae 8a       	sbi333 $r2,[$r1+#0x2]
   92aa0:	3c 03 ea 10 	lhi.gp $r0,[+#-11232]
   92aa4:	84 20       	movi55 $r1,#0
   92aa6:	49 00 4b cf 	jal 9c244 <BLE_gatt_charact_notify>
   92aaa:	fc 80       	pop25 $r6,#0x0    ! {$r6, $fp, $gp, $lp}

00092aac <HOGP_SendConsumerKey>:
   92aac:	fc 00       	push25 $r6,#0x0    ! {$r6, $fp, $gp, $lp}
   92aae:	96 01       	zeh33 $r0,$r0
   92ab0:	3e 07 d3 e4 	sbi.gp $r0,[+#-11292]
   92ab4:	92 08       	srli45 $r0,#8
   92ab6:	3e 07 d3 e5 	sbi.gp $r0,[+#-11291]
   92aba:	3c 03 ea 0f 	lhi.gp $r0,[+#-11234]
   92abe:	84 20       	movi55 $r1,#0
   92ac0:	49 00 4b c2 	jal 9c244 <BLE_gatt_charact_notify>
   92ac4:	fc 80       	pop25 $r6,#0x0    ! {$r6, $fp, $gp, $lp}

00092ac6 <HOGP_SendReport>:
   92ac6:	fc 00       	push25 $r6,#0x0    ! {$r6, $fp, $gp, $lp}
   92ac8:	97 81       	zeh33 $r6,$r0
   92aca:	49 ff fd 09 	jal 924dc <GAP_IsLinkEncrypted>
   92ace:	c0 07       	beqz38 $r0,92adc <HOGP_SendReport+0x16>
   92ad0:	49 ff fd 0a 	jal 924e4 <GAP_IsBonded>
   92ad4:	c0 04       	beqz38 $r0,92adc <HOGP_SendReport+0x16>
   92ad6:	80 06       	mov55 $r0,$r6
   92ad8:	84 20       	movi55 $r1,#0
   92ada:	d5 04       	j8 92ae2 <HOGP_SendReport+0x1c>
   92adc:	80 06       	mov55 $r0,$r6
   92ade:	44 10 00 99 	movi $r1,#153
   92ae2:	49 00 4b b1 	jal 9c244 <BLE_gatt_charact_notify>
   92ae6:	fc 80       	pop25 $r6,#0x0    ! {$r6, $fp, $gp, $lp}

00092ae8 <Voice_CodecSel_CB>:
   92ae8:	fc 00       	push25 $r6,#0x0    ! {$r6, $fp, $gp, $lp}
   92aea:	5a 08 02 1c 	bnec $r0,#2,92b22 <Voice_CodecSel_CB+0x3a>
   92aee:	84 00       	movi55 $r0,#0
   92af0:	49 00 16 b9 	jal 95862 <AB_UART_Flush>
   92af4:	84 00       	movi55 $r0,#0
   92af6:	84 21       	movi55 $r1,#1
   92af8:	49 00 0e 08 	jal 94708 <AB_CLK_Switch>
   92afc:	2e 07 d4 30 	lbi.gp $r0,[+#-11216]
   92b00:	5a 08 77 09 	bnec $r0,#119,92b12 <Voice_CodecSel_CB+0x2a>
   92b04:	49 00 04 21 	jal 93346 <MIC_CodecSel_G726>
   92b08:	46 00 00 a4 	sethi $r0,#0xa4
   92b0c:	58 00 05 58 	ori $r0,$r0,#0x558
   92b10:	d5 07       	j8 92b1e <Voice_CodecSel_CB+0x36>
   92b12:	49 00 04 0c 	jal 9332a <MIC_CodecSel_IMA>
   92b16:	46 00 00 a4 	sethi $r0,#0xa4
   92b1a:	58 00 05 68 	ori $r0,$r0,#0x568
   92b1e:	49 00 7a 26 	jal a1f6a <puts>
   92b22:	fc 80       	pop25 $r6,#0x0    ! {$r6, $fp, $gp, $lp}

00092b24 <OTA_Status_CB>:
   92b24:	fc 00       	push25 $r6,#0x0    ! {$r6, $fp, $gp, $lp}
   92b26:	84 28       	movi55 $r1,#8
   92b28:	80 c0       	mov55 $r6,$r0
   92b2a:	84 00       	movi55 $r0,#0
   92b2c:	49 00 01 5d 	jal 92de6 <Board_SetModuleWorkState>
   92b30:	c6 04       	beqz38 $r6,92b38 <OTA_Status_CB+0x14>
   92b32:	5a 68 01 2b 	bnec $r6,#1,92b88 <OTA_Status_CB+0x64>
   92b36:	d5 18       	j8 92b66 <OTA_Status_CB+0x42>
   92b38:	84 01       	movi55 $r0,#1
   92b3a:	84 28       	movi55 $r1,#8
   92b3c:	49 00 01 55 	jal 92de6 <Board_SetModuleWorkState>
   92b40:	49 ff fb e1 	jal 92302 <Timer_ReleaseIdleConnTimeout>
   92b44:	46 20 04 93 	sethi $r2,#0x493
   92b48:	84 06       	movi55 $r0,#6
   92b4a:	80 26       	mov55 $r1,$r6
   92b4c:	58 21 0e 00 	ori $r2,$r2,#0xe00
   92b50:	46 30 00 92 	sethi $r3,#0x92
   92b54:	58 31 8d d2 	ori $r3,$r3,#0xdd2
   92b58:	49 00 15 6c 	jal 95630 <AB_Timer_AlertSet>
   92b5c:	49 ff fc ec 	jal 92534 <GAP_UpdateConnParam4OTA>
   92b60:	44 00 00 40 	movi $r0,#64
   92b64:	d5 10       	j8 92b84 <OTA_Status_CB+0x60>
   92b66:	84 00       	movi55 $r0,#0
   92b68:	84 28       	movi55 $r1,#8
   92b6a:	49 00 01 3e 	jal 92de6 <Board_SetModuleWorkState>
   92b6e:	84 07       	movi55 $r0,#7
   92b70:	84 20       	movi55 $r1,#0
   92b72:	44 20 07 d0 	movi $r2,#2000
   92b76:	46 30 00 92 	sethi $r3,#0x92
   92b7a:	58 31 8d be 	ori $r3,$r3,#0xdbe
   92b7e:	49 00 15 59 	jal 95630 <AB_Timer_AlertSet>
   92b82:	fa 10       	movpi45 $r0,#0x20
   92b84:	49 00 05 ec 	jal 9375c <LED_SetEvent>
   92b88:	fc 80       	pop25 $r6,#0x0    ! {$r6, $fp, $gp, $lp}

00092b8a <GATT_ServiceInit>:
   92b8a:	fc 40       	push25 $r10,#0x0    ! {$r6~$r10, $fp, $gp, $lp}
   92b8c:	ee c8       	addi10.sp #-312
   92b8e:	46 00 00 a3 	sethi $r0,#0xa3
   92b92:	58 00 08 bc 	ori $r0,$r0,#0x8bc
   92b96:	3a 00 04 00 	lmw.bi $r0,[$r0],$r1,#0x0    ! {$r0~$r1}
   92b9a:	50 7f 81 30 	addi $r7,$sp,#304
   92b9e:	b1 ad       	addri36.sp $r6,#0xb4
   92ba0:	3a 03 84 20 	smw.bi $r0,[$r7],$r1,#0x0    ! {$r0~$r1}
   92ba4:	fa 48       	movpi45 $r2,#0x18
   92ba6:	84 20       	movi55 $r1,#0
   92ba8:	80 06       	mov55 $r0,$r6
   92baa:	49 ff f9 9b 	jal 91ee0 <memset>
   92bae:	44 00 01 80 	movi $r0,#384
   92bb2:	ac 30       	shi333 $r0,[$r6+#0x0]
   92bb4:	3e 0f c1 5c 	addi.gp $r0,#-16036
   92bb8:	f0 ae       	swi37.sp $r0,[+#0xb8]
   92bba:	fa 01       	movpi45 $r0,#0x11
   92bbc:	ac 34       	shi333 $r0,[$r6+#0x8]
   92bbe:	fa 0e       	movpi45 $r0,#0x1e
   92bc0:	ac 35       	shi333 $r0,[$r6+#0xa]
   92bc2:	46 00 00 92 	sethi $r0,#0x92
   92bc6:	58 00 0a 8e 	ori $r0,$r0,#0xa8e
   92bca:	f0 b0       	swi37.sp $r0,[+#0xc0]
   92bcc:	f7 b1       	swi37.sp $r7,[+#0xc4]
   92bce:	80 06       	mov55 $r0,$r6
   92bd0:	49 00 2c 52 	jal 98474 <GAS_init>
   92bd4:	84 00       	movi55 $r0,#0
   92bd6:	49 00 2c e3 	jal 9859c <GATT_init>
   92bda:	b1 9e       	addri36.sp $r6,#0x78
   92bdc:	fb 14       	movpi45 $r8,#0x24
   92bde:	84 01       	movi55 $r0,#1
   92be0:	49 00 28 fc 	jal 97dd8 <BAS_init>
   92be4:	80 48       	mov55 $r2,$r8
   92be6:	80 06       	mov55 $r0,$r6
   92be8:	84 20       	movi55 $r1,#0
   92bea:	49 ff f9 7b 	jal 91ee0 <memset>
   92bee:	3e 0f c1 7c 	addi.gp $r0,#-16004
   92bf2:	f0 9e       	swi37.sp $r0,[+#0x78]
   92bf4:	44 00 00 96 	movi $r0,#150
   92bf8:	ac 32       	shi333 $r0,[$r6+#0x4]
   92bfa:	44 00 01 11 	movi $r0,#273
   92bfe:	12 03 00 0c 	shi $r0,[$r6+#0x18]
   92c02:	84 03       	movi55 $r0,#3
   92c04:	10 03 00 1b 	sbi $r0,[$r6+#0x1b]
   92c08:	3e 0f d3 e0 	addi.gp $r0,#-11296
   92c0c:	f0 a5       	swi37.sp $r0,[+#0x94]
   92c0e:	46 00 00 a3 	sethi $r0,#0xa3
   92c12:	58 00 09 14 	ori $r0,$r0,#0x914
   92c16:	80 a0       	mov55 $r5,$r0
   92c18:	3a 02 8c 04 	lmw.bim $r0,[$r5],$r3,#0x0    ! {$r0~$r3}
   92c1c:	50 4f 81 1c 	addi $r4,$sp,#284
   92c20:	80 e4       	mov55 $r7,$r4
   92c22:	51 cf 81 08 	addi $fp,$sp,#264
   92c26:	83 dc       	mov55 $lp,$fp
   92c28:	3a 03 8c 24 	smw.bim $r0,[$r7],$r3,#0x0    ! {$r0~$r3}
   92c2c:	46 00 00 a3 	sethi $r0,#0xa3
   92c30:	58 00 09 00 	ori $r0,$r0,#0x900
   92c34:	50 af 80 f4 	addi $r10,$sp,#244
   92c38:	50 9f 80 e0 	addi $r9,$sp,#224
   92c3c:	b4 a5       	lwi450 $r5,[$r5]
   92c3e:	b6 a7       	swi450 $r5,[$r7]
   92c40:	80 a0       	mov55 $r5,$r0
   92c42:	3a 02 8c 04 	lmw.bim $r0,[$r5],$r3,#0x0    ! {$r0~$r3}
   92c46:	80 ea       	mov55 $r7,$r10
   92c48:	3a 0f 0c 24 	smw.bim $r0,[$lp],$r3,#0x0    ! {$r0~$r3}
   92c4c:	46 00 00 a3 	sethi $r0,#0xa3
   92c50:	58 00 08 ec 	ori $r0,$r0,#0x8ec
   92c54:	b4 a5       	lwi450 $r5,[$r5]
   92c56:	b6 be       	swi450 $r5,[$lp]
   92c58:	80 a0       	mov55 $r5,$r0
   92c5a:	3a 02 8c 04 	lmw.bim $r0,[$r5],$r3,#0x0    ! {$r0~$r3}
   92c5e:	83 c9       	mov55 $lp,$r9
   92c60:	3a 03 8c 24 	smw.bim $r0,[$r7],$r3,#0x0    ! {$r0~$r3}
   92c64:	46 00 00 a3 	sethi $r0,#0xa3
   92c68:	58 00 08 d8 	ori $r0,$r0,#0x8d8
   92c6c:	b4 a5       	lwi450 $r5,[$r5]
   92c6e:	b6 a7       	swi450 $r5,[$r7]
   92c70:	80 a0       	mov55 $r5,$r0
   92c72:	3a 02 8c 04 	lmw.bim $r0,[$r5],$r3,#0x0    ! {$r0~$r3}
   92c76:	b1 f3       	addri36.sp $r7,#0xcc
   92c78:	3a 0f 0c 24 	smw.bim $r0,[$lp],$r3,#0x0    ! {$r0~$r3}
   92c7c:	46 00 00 a3 	sethi $r0,#0xa3
   92c80:	58 00 08 c4 	ori $r0,$r0,#0x8c4
   92c84:	b4 a5       	lwi450 $r5,[$r5]
   92c86:	b6 be       	swi450 $r5,[$lp]
   92c88:	80 a0       	mov55 $r5,$r0
   92c8a:	3a 02 8c 04 	lmw.bim $r0,[$r5],$r3,#0x0    ! {$r0~$r3}
   92c8e:	83 c7       	mov55 $lp,$r7
   92c90:	3a 0f 0c 24 	smw.bim $r0,[$lp],$r3,#0x0    ! {$r0~$r3}
   92c94:	80 06       	mov55 $r0,$r6
   92c96:	b4 a5       	lwi450 $r5,[$r5]
   92c98:	b6 be       	swi450 $r5,[$lp]
   92c9a:	f4 81       	swi37.sp $r4,[+#0x4]
   92c9c:	49 00 2d 39 	jal 9870e <HIDS_init>
   92ca0:	f4 01       	lwi37.sp $r4,[+#0x4]
   92ca2:	80 04       	mov55 $r0,$r4
   92ca4:	49 00 2c c9 	jal 98636 <HIDS_add_report>
   92ca8:	3c 0b ea 0f 	shi.gp $r0,[+#-11234]
   92cac:	80 1c       	mov55 $r0,$fp
   92cae:	49 00 2c c4 	jal 98636 <HIDS_add_report>
   92cb2:	3c 0b ea 0d 	shi.gp $r0,[+#-11238]
   92cb6:	80 0a       	mov55 $r0,$r10
   92cb8:	49 00 2c bf 	jal 98636 <HIDS_add_report>
   92cbc:	3c 0b ea 10 	shi.gp $r0,[+#-11232]
   92cc0:	80 09       	mov55 $r0,$r9
   92cc2:	49 00 2c ba 	jal 98636 <HIDS_add_report>
   92cc6:	3c 0b ea 0e 	shi.gp $r0,[+#-11236]
   92cca:	80 07       	mov55 $r0,$r7
   92ccc:	49 00 2c b5 	jal 98636 <HIDS_add_report>
   92cd0:	3c 0b ea 0c 	shi.gp $r0,[+#-11240]
   92cd4:	46 00 00 a3 	sethi $r0,#0xa3
   92cd8:	58 00 09 70 	ori $r0,$r0,#0x970
   92cdc:	80 a0       	mov55 $r5,$r0
   92cde:	3a 02 8c 04 	lmw.bim $r0,[$r5],$r3,#0x0    ! {$r0~$r3}
   92ce2:	b1 27       	addri36.sp $r4,#0x9c
   92ce4:	80 e4       	mov55 $r7,$r4
   92ce6:	3a 03 8c 24 	smw.bim $r0,[$r7],$r3,#0x0    ! {$r0~$r3}
   92cea:	3a 02 84 00 	lmw.bi $r0,[$r5],$r1,#0x0    ! {$r0~$r1}
   92cee:	3a 03 84 20 	smw.bi $r0,[$r7],$r1,#0x0    ! {$r0~$r1}
   92cf2:	80 04       	mov55 $r0,$r4
   92cf4:	49 00 4c 5c 	jal 9c5ac <BLE_gatt_add_service>
   92cf8:	46 50 00 a3 	sethi $r5,#0xa3
   92cfc:	58 52 89 4c 	ori $r5,$r5,#0x94c
   92d00:	3a 02 8c 04 	lmw.bim $r0,[$r5],$r3,#0x0    ! {$r0~$r3}
   92d04:	b1 cc       	addri36.sp $r7,#0x30
   92d06:	80 87       	mov55 $r4,$r7
   92d08:	3a 02 0c 24 	smw.bim $r0,[$r4],$r3,#0x0    ! {$r0~$r3}
   92d0c:	3a 02 8c 04 	lmw.bim $r0,[$r5],$r3,#0x0    ! {$r0~$r3}
   92d10:	3a 02 0c 24 	smw.bim $r0,[$r4],$r3,#0x0    ! {$r0~$r3}
   92d14:	80 07       	mov55 $r0,$r7
   92d16:	b4 a5       	lwi450 $r5,[$r5]
   92d18:	b6 a4       	swi450 $r5,[$r4]
   92d1a:	49 00 4b 4b 	jal 9c3b0 <BLE_gatt_add_charact>
   92d1e:	3c 0b ea 0d 	shi.gp $r0,[+#-11238]
   92d22:	b1 95       	addri36.sp $r6,#0x54
   92d24:	80 48       	mov55 $r2,$r8
   92d26:	80 06       	mov55 $r0,$r6
   92d28:	84 20       	movi55 $r1,#0
   92d2a:	49 ff f8 db 	jal 91ee0 <memset>
   92d2e:	84 02       	movi55 $r0,#2
   92d30:	f0 95       	swi37.sp $r0,[+#0x54]
   92d32:	ae 34       	sbi333 $r0,[$r6+#0x4]
   92d34:	fa 39       	movpi45 $r1,#0x29
   92d36:	12 03 00 0b 	shi $r0,[$r6+#0x16]
   92d3a:	3e 0f ca 98 	addi.gp $r0,#-13672
   92d3e:	ae 75       	sbi333 $r1,[$r6+#0x5]
   92d40:	f0 9c       	swi37.sp $r0,[+#0x70]
   92d42:	80 06       	mov55 $r0,$r6
   92d44:	49 00 4c ef 	jal 9c722 <BLE_gatt_add_descrip>
   92d48:	46 50 00 a3 	sethi $r5,#0xa3
   92d4c:	58 52 89 28 	ori $r5,$r5,#0x928
   92d50:	3a 02 8c 04 	lmw.bim $r0,[$r5],$r3,#0x0    ! {$r0~$r3}
   92d54:	80 87       	mov55 $r4,$r7
   92d56:	b1 83       	addri36.sp $r6,#0xc
   92d58:	3a 02 0c 24 	smw.bim $r0,[$r4],$r3,#0x0    ! {$r0~$r3}
   92d5c:	3a 02 8c 04 	lmw.bim $r0,[$r5],$r3,#0x0    ! {$r0~$r3}
   92d60:	3a 02 0c 24 	smw.bim $r0,[$r4],$r3,#0x0    ! {$r0~$r3}
   92d64:	80 07       	mov55 $r0,$r7
   92d66:	b4 a5       	lwi450 $r5,[$r5]
   92d68:	b6 a4       	swi450 $r5,[$r4]
   92d6a:	49 00 4b 23 	jal 9c3b0 <BLE_gatt_add_charact>
   92d6e:	46 00 00 92 	sethi $r0,#0x92
   92d72:	58 00 0b 24 	ori $r0,$r0,#0xb24
   92d76:	49 00 28 94 	jal 97e9e <OTA_init>
   92d7a:	84 00       	movi55 $r0,#0
   92d7c:	49 00 28 86 	jal 97e88 <OTA_change_permission>
   92d80:	84 20       	movi55 $r1,#0
   92d82:	80 48       	mov55 $r2,$r8
   92d84:	80 06       	mov55 $r0,$r6
   92d86:	49 ff f8 ad 	jal 91ee0 <memset>
   92d8a:	46 00 00 a4 	sethi $r0,#0xa4
   92d8e:	58 00 05 74 	ori $r0,$r0,#0x574
   92d92:	f0 83       	swi37.sp $r0,[+#0xc]
   92d94:	46 00 00 a4 	sethi $r0,#0xa4
   92d98:	58 00 05 88 	ori $r0,$r0,#0x588
   92d9c:	f0 84       	swi37.sp $r0,[+#0x10]
   92d9e:	46 00 00 a4 	sethi $r0,#0xa4
   92da2:	58 00 05 98 	ori $r0,$r0,#0x598
   92da6:	f0 86       	swi37.sp $r0,[+#0x18]
   92da8:	f0 87       	swi37.sp $r0,[+#0x1c]
   92daa:	46 00 00 a3 	sethi $r0,#0xa3
   92dae:	58 00 08 b4 	ori $r0,$r0,#0x8b4
   92db2:	f0 8b       	swi37.sp $r0,[+#0x2c]
   92db4:	80 06       	mov55 $r0,$r6
   92db6:	49 00 2b 10 	jal 983d6 <DIS_init>
   92dba:	ed 38       	addi10.sp #312
   92dbc:	fc c0       	pop25 $r10,#0x0    ! {$r6~$r10, $fp, $gp, $lp}

00092dbe <Board_SoftResetEnable>:
   92dbe:	fc 00       	push25 $r6,#0x0    ! {$r6, $fp, $gp, $lp}
   92dc0:	46 00 01 00 	sethi $r0,#0x100
   92dc4:	2e 17 c2 14 	lbi.gp $r1,[+#-15852]
   92dc8:	58 10 80 01 	ori $r1,$r1,#0x1
   92dcc:	3e 17 c2 14 	sbi.gp $r1,[+#-15852]
   92dd0:	fc 80       	pop25 $r6,#0x0    ! {$r6, $fp, $gp, $lp}

00092dd2 <Board_DeepSleepEnable>:
   92dd2:	fc 00       	push25 $r6,#0x0    ! {$r6, $fp, $gp, $lp}
   92dd4:	46 00 01 00 	sethi $r0,#0x100
   92dd8:	2e 17 c2 14 	lbi.gp $r1,[+#-15852]
   92ddc:	84 5d       	movi55 $r2,#-3
   92dde:	fe 56       	and33 $r1,$r2
   92de0:	3e 17 c2 14 	sbi.gp $r1,[+#-15852]
   92de4:	fc 80       	pop25 $r6,#0x0    ! {$r6, $fp, $gp, $lp}

00092de6 <Board_SetModuleWorkState>:
   92de6:	fc 00       	push25 $r6,#0x0    ! {$r6, $fp, $gp, $lp}
   92de8:	96 00       	zeb33 $r0,$r0
   92dea:	96 48       	zeb33 $r1,$r1
   92dec:	3e 2f ca 9c 	addi.gp $r2,#-13668
   92df0:	c0 04       	beqz38 $r0,92df8 <Board_SetModuleWorkState+0x12>
   92df2:	a6 10       	lbi333 $r0,[$r2+#0x0]
   92df4:	fe 47       	or33 $r1,$r0
   92df6:	d5 04       	j8 92dfe <Board_SetModuleWorkState+0x18>
   92df8:	a6 10       	lbi333 $r0,[$r2+#0x0]
   92dfa:	fe 4b       	not33 $r1,$r1
   92dfc:	fe 46       	and33 $r1,$r0
   92dfe:	ae 50       	sbi333 $r1,[$r2+#0x0]
   92e00:	2e 17 ca 9c 	lbi.gp $r1,[+#-13668]
   92e04:	3e 0f c2 14 	addi.gp $r0,#-15852
   92e08:	c1 05       	beqz38 $r1,92e12 <Board_SetModuleWorkState+0x2c>
   92e0a:	a6 40       	lbi333 $r1,[$r0+#0x0]
   92e0c:	84 5b       	movi55 $r2,#-5
   92e0e:	fe 56       	and33 $r1,$r2
   92e10:	d5 04       	j8 92e18 <Board_SetModuleWorkState+0x32>
   92e12:	a6 40       	lbi333 $r1,[$r0+#0x0]
   92e14:	58 10 80 04 	ori $r1,$r1,#0x4
   92e18:	ae 40       	sbi333 $r1,[$r0+#0x0]
   92e1a:	fc 80       	pop25 $r6,#0x0    ! {$r6, $fp, $gp, $lp}

00092e1c <Board_GetModuelWorkState>:
   92e1c:	fc 00       	push25 $r6,#0x0    ! {$r6, $fp, $gp, $lp}
   92e1e:	2e 07 ca 9c 	lbi.gp $r0,[+#-13668]
   92e22:	fc 80       	pop25 $r6,#0x0    ! {$r6, $fp, $gp, $lp}

00092e24 <Board_PowerManagement>:
   92e24:	fc 00       	push25 $r6,#0x0    ! {$r6, $fp, $gp, $lp}
   92e26:	3e 0f c2 14 	addi.gp $r0,#-15852
   92e2a:	a6 00       	lbi333 $r0,[$r0+#0x0]
   92e2c:	97 84       	xlsb33 $r6,$r0
   92e2e:	c6 32       	beqz38 $r6,92e92 <Board_PowerManagement+0x6e>
   92e30:	84 01       	movi55 $r0,#1
   92e32:	49 00 68 6c 	jal 9ff0a <Drv_1602Reset>
   92e36:	49 00 1b 43 	jal 964bc <DRV_KeyScan_Dis>
   92e3a:	49 00 21 e1 	jal 971fc <DRV_TMR32B0_Disable>
   92e3e:	46 00 00 a4 	sethi $r0,#0xa4
   92e42:	58 00 05 a0 	ori $r0,$r0,#0x5a0
   92e46:	49 00 78 92 	jal a1f6a <puts>
   92e4a:	84 00       	movi55 $r0,#0
   92e4c:	49 00 15 0b 	jal 95862 <AB_UART_Flush>
   92e50:	84 00       	movi55 $r0,#0
   92e52:	49 00 14 fa 	jal 95846 <AB_UART_Close>
   92e56:	84 0a       	movi55 $r0,#10
   92e58:	49 ff 6d 29 	jal 808aa <OS_delay_ms>
   92e5c:	64 22 00 02 	mfsr $r2,$PSW
   92e60:	64 02 00 43 	setgie.d
   92e64:	64 00 00 08 	dsb
   92e68:	46 10 01 00 	sethi $r1,#0x100
   92e6c:	58 10 80 b0 	ori $r1,$r1,#0xb0
   92e70:	b4 01       	lwi450 $r0,[$r1]
   92e72:	9c c1       	addi333 $r3,$r0,#1
   92e74:	b6 61       	swi450 $r3,[$r1]
   92e76:	c8 06       	bnez38 $r0,92e82 <Board_PowerManagement+0x5e>
   92e78:	46 00 01 00 	sethi $r0,#0x100
   92e7c:	58 00 00 bc 	ori $r0,$r0,#0xbc
   92e80:	b6 40       	swi450 $r2,[$r0]
   92e82:	84 02       	movi55 $r0,#2
   92e84:	84 21       	movi55 $r1,#1
   92e86:	49 00 0c 41 	jal 94708 <AB_CLK_Switch>
   92e8a:	84 04       	movi55 $r0,#4
   92e8c:	49 00 1e f6 	jal 96c78 <DRV_Pwr_EnterMode>
   92e90:	d5 00       	j8 92e90 <Board_PowerManagement+0x6c>
   92e92:	54 10 00 02 	andi $r1,$r0,#0x2
   92e96:	c1 56       	beqz38 $r1,92f42 <Board_PowerManagement+0x11e>
   92e98:	46 00 00 a4 	sethi $r0,#0xa4
   92e9c:	58 00 05 b8 	ori $r0,$r0,#0x5b8
   92ea0:	49 00 78 65 	jal a1f6a <puts>
   92ea4:	49 00 1c fc 	jal 9689c <DRV_Mic_Disable>
   92ea8:	49 00 14 47 	jal 95736 <AB_Timer_Disable>
   92eac:	84 01       	movi55 $r0,#1
   92eae:	49 00 22 11 	jal 972d0 <DRV_TMR32B0_NotifyDisable>
   92eb2:	84 02       	movi55 $r0,#2
   92eb4:	49 00 22 0e 	jal 972d0 <DRV_TMR32B0_NotifyDisable>
   92eb8:	84 03       	movi55 $r0,#3
   92eba:	49 00 22 0b 	jal 972d0 <DRV_TMR32B0_NotifyDisable>
   92ebe:	49 00 00 8c 	jal 92fd6 <Keyboard_ColumnInterruptEnable>
   92ec2:	49 00 1a fd 	jal 964bc <DRV_KeyScan_Dis>
   92ec6:	9d b1       	addi333 $r6,$r6,#1
   92ec8:	80 06       	mov55 $r0,$r6
   92eca:	49 ff 6c f7 	jal 808b8 <SYS_3WireRead>
   92ece:	5a 68 52 fc 	bnec $r6,#82,92ec6 <Board_PowerManagement+0xa2>
   92ed2:	84 00       	movi55 $r0,#0
   92ed4:	49 00 14 c7 	jal 95862 <AB_UART_Flush>
   92ed8:	84 00       	movi55 $r0,#0
   92eda:	49 00 14 b6 	jal 95846 <AB_UART_Close>
   92ede:	64 22 00 02 	mfsr $r2,$PSW
   92ee2:	64 02 00 43 	setgie.d
   92ee6:	64 00 00 08 	dsb
   92eea:	46 10 01 00 	sethi $r1,#0x100
   92eee:	58 10 80 b0 	ori $r1,$r1,#0xb0
   92ef2:	b4 01       	lwi450 $r0,[$r1]
   92ef4:	9c c1       	addi333 $r3,$r0,#1
   92ef6:	b6 61       	swi450 $r3,[$r1]
   92ef8:	c8 06       	bnez38 $r0,92f04 <Board_PowerManagement+0xe0>
   92efa:	46 00 01 00 	sethi $r0,#0x100
   92efe:	58 00 00 bc 	ori $r0,$r0,#0xbc
   92f02:	b6 40       	swi450 $r2,[$r0]
   92f04:	84 21       	movi55 $r1,#1
   92f06:	84 02       	movi55 $r0,#2
   92f08:	49 00 0c 00 	jal 94708 <AB_CLK_Switch>
   92f0c:	84 01       	movi55 $r0,#1
   92f0e:	49 00 67 fe 	jal 9ff0a <Drv_1602Reset>
   92f12:	46 00 01 00 	sethi $r0,#0x100
   92f16:	58 00 00 b0 	ori $r0,$r0,#0xb0
   92f1a:	b4 20       	lwi450 $r1,[$r0]
   92f1c:	9e 49       	subi333 $r1,$r1,#1
   92f1e:	b6 20       	swi450 $r1,[$r0]
   92f20:	b4 00       	lwi450 $r0,[$r0]
   92f22:	c8 0c       	bnez38 $r0,92f3a <Board_PowerManagement+0x116>
   92f24:	46 00 01 00 	sethi $r0,#0x100
   92f28:	58 00 00 bc 	ori $r0,$r0,#0xbc
   92f2c:	b4 00       	lwi450 $r0,[$r0]
   92f2e:	96 04       	xlsb33 $r0,$r0
   92f30:	c0 05       	beqz38 $r0,92f3a <Board_PowerManagement+0x116>
   92f32:	64 12 00 43 	setgie.e
   92f36:	64 00 00 08 	dsb
   92f3a:	84 03       	movi55 $r0,#3
   92f3c:	49 00 1e 9e 	jal 96c78 <DRV_Pwr_EnterMode>
   92f40:	d5 00       	j8 92f40 <Board_PowerManagement+0x11c>
   92f42:	96 16       	bmski33 $r0,#0x2
   92f44:	c0 07       	beqz38 $r0,92f52 <Board_PowerManagement+0x12e>
   92f46:	84 01       	movi55 $r0,#1
   92f48:	49 00 0e c0 	jal 94cc8 <AB_PWR_Sleep>
   92f4c:	c0 03       	beqz38 $r0,92f52 <Board_PowerManagement+0x12e>
   92f4e:	49 ff 69 e0 	jal 8030e <AB_SYS_WaitIClear>
   92f52:	fc 80       	pop25 $r6,#0x0    ! {$r6, $fp, $gp, $lp}

00092f54 <Board_Init>:
   92f54:	fc 02       	push25 $r6,#0x10    ! {$r6, $fp, $gp, $lp}
   92f56:	b1 81       	addri36.sp $r6,#0x4
   92f58:	80 06       	mov55 $r0,$r6
   92f5a:	49 00 1e cd 	jal 96cf4 <DRV_Pwr_BootFrom>
   92f5e:	46 00 00 a4 	sethi $r0,#0xa4
   92f62:	58 00 05 cc 	ori $r0,$r0,#0x5cc
   92f66:	49 00 0d de 	jal 94b22 <printf>
   92f6a:	f1 01       	lwi37.sp $r1,[+#0x4]
   92f6c:	3c 1f f2 a8 	swi.gp $r1,[+#-13664]
   92f70:	5a 10 02 19 	beqc $r1,#2,92fa2 <Board_Init+0x4e>
   92f74:	e6 23       	slti45 $r1,#3
   92f76:	e8 05       	beqzs8 92f80 <Board_Init+0x2c>
   92f78:	c1 09       	beqz38 $r1,92f8a <Board_Init+0x36>
   92f7a:	5a 18 01 23 	bnec $r1,#1,92fc0 <Board_Init+0x6c>
   92f7e:	d5 0b       	j8 92f94 <Board_Init+0x40>
   92f80:	5a 10 03 16 	beqc $r1,#3,92fac <Board_Init+0x58>
   92f84:	5a 18 04 1e 	bnec $r1,#4,92fc0 <Board_Init+0x6c>
   92f88:	d5 17       	j8 92fb6 <Board_Init+0x62>
   92f8a:	46 00 00 a4 	sethi $r0,#0xa4
   92f8e:	58 00 05 d8 	ori $r0,$r0,#0x5d8
   92f92:	d5 05       	j8 92f9c <Board_Init+0x48>
   92f94:	46 00 00 a4 	sethi $r0,#0xa4
   92f98:	58 00 05 e4 	ori $r0,$r0,#0x5e4
   92f9c:	49 00 77 e7 	jal a1f6a <puts>
   92fa0:	d5 16       	j8 92fcc <Board_Init+0x78>
   92fa2:	46 00 00 a4 	sethi $r0,#0xa4
   92fa6:	58 00 05 f0 	ori $r0,$r0,#0x5f0
   92faa:	d5 f9       	j8 92f9c <Board_Init+0x48>
   92fac:	46 00 00 a4 	sethi $r0,#0xa4
   92fb0:	58 00 05 fc 	ori $r0,$r0,#0x5fc
   92fb4:	d5 f4       	j8 92f9c <Board_Init+0x48>
   92fb6:	46 00 00 a4 	sethi $r0,#0xa4
   92fba:	58 00 06 08 	ori $r0,$r0,#0x608
   92fbe:	d5 ef       	j8 92f9c <Board_Init+0x48>
   92fc0:	46 00 00 a4 	sethi $r0,#0xa4
   92fc4:	58 00 05 2c 	ori $r0,$r0,#0x52c
   92fc8:	49 00 0d ad 	jal 94b22 <printf>
   92fcc:	fa 05       	movpi45 $r0,#0x15
   92fce:	fa 30       	movpi45 $r1,#0x20
   92fd0:	49 ff 6d 13 	jal 809f6 <SYS_3WireBitWrite>
   92fd4:	fc 82       	pop25 $r6,#0x10    ! {$r6, $fp, $gp, $lp}

00092fd6 <Keyboard_ColumnInterruptEnable>:
   92fd6:	fc 20       	push25 $r8,#0x0    ! {$r6~$r8, $fp, $gp, $lp}
   92fd8:	46 60 00 a3 	sethi $r6,#0xa3
   92fdc:	58 63 09 be 	ori $r6,$r6,#0x9be
   92fe0:	50 83 00 04 	addi $r8,$r6,#4
   92fe4:	08 73 00 01 	lbi.bi $r7,[$r6],#0x1
   92fe8:	84 20       	movi55 $r1,#0
   92fea:	80 07       	mov55 $r0,$r7
   92fec:	80 41       	mov55 $r2,$r1
   92fee:	49 00 1a 25 	jal 96438 <DRV_Gpio_IntReg>
   92ff2:	80 07       	mov55 $r0,$r7
   92ff4:	49 00 1a 07 	jal 96402 <DRV_Gpio_IntEn>
   92ff8:	4c 64 7f f6 	bne $r6,$r8,92fe4 <Keyboard_ColumnInterruptEnable+0xe>
   92ffc:	fc a0       	pop25 $r8,#0x0    ! {$r6~$r8, $fp, $gp, $lp}

00092ffe <Keyboard_Polling>:
   92ffe:	fc 20       	push25 $r8,#0x0    ! {$r6~$r8, $fp, $gp, $lp}
   93000:	3e 7f ca a4 	addi.gp $r7,#-13660
   93004:	00 03 80 20 	lbi $r0,[$r7+#0x20]
   93008:	80 20       	mov55 $r1,$r0
   9300a:	92 24       	srli45 $r1,#4
   9300c:	96 1f       	fexti33 $r0,#0x3
   9300e:	4c 10 00 97 	beq $r1,$r0,9313c <Keyboard_Polling+0x13e>
   93012:	49 ff fa 61 	jal 924d4 <GAP_GetGapStatus>
   93016:	85 e3       	movi55 $r15,#3
   93018:	4c 07 c0 92 	bne $r0,$r15,9313c <Keyboard_Polling+0x13e>
   9301c:	00 23 80 20 	lbi $r2,[$r7+#0x20]
   93020:	80 02       	mov55 $r0,$r2
   93022:	92 04       	srli45 $r0,#4
   93024:	9c 41       	addi333 $r1,$r0,#1
   93026:	96 5f       	fexti33 $r1,#0x3
   93028:	38 63 81 01 	lh $r6,[$r7+($r0<<#0x1)]
   9302c:	94 4c       	slli333 $r1,$r1,#4
   9302e:	54 01 00 0f 	andi $r0,$r2,#0xf
   93032:	fe 0f       	or33 $r0,$r1
   93034:	10 03 80 20 	sbi $r0,[$r7+#0x20]
   93038:	80 26       	mov55 $r1,$r6
   9303a:	46 00 00 a4 	sethi $r0,#0xa4
   9303e:	58 00 06 10 	ori $r0,$r0,#0x610
   93042:	49 00 0d 70 	jal 94b22 <printf>
   93046:	c6 54       	beqz38 $r6,930ee <Keyboard_Polling+0xf0>
   93048:	5a 68 cd 04 	bnec $r6,#205,93050 <Keyboard_Polling+0x52>
   9304c:	48 00 00 6d 	j 93126 <Keyboard_Polling+0x128>
   93050:	84 04       	movi55 $r0,#4
   93052:	49 00 03 85 	jal 9375c <LED_SetEvent>
   93056:	5a 60 2a 1f 	beqc $r6,#42,93094 <Keyboard_Polling+0x96>
   9305a:	5c f3 00 2b 	slti $r15,$r6,#43
   9305e:	e8 08       	beqzs8 9306e <Keyboard_Polling+0x70>
   93060:	c6 47       	beqz38 $r6,930ee <Keyboard_Polling+0xf0>
   93062:	50 03 7f e2 	addi $r0,$r6,#-30
   93066:	84 29       	movi55 $r1,#9
   93068:	e2 20       	slt45 $r1,$r0
   9306a:	e9 5e       	bnezs8 93126 <Keyboard_Polling+0x128>
   9306c:	d5 14       	j8 93094 <Keyboard_Polling+0x96>
   9306e:	5a 60 41 3a 	beqc $r6,#65,930e2 <Keyboard_Polling+0xe4>
   93072:	5c f3 00 42 	slti $r15,$r6,#66
   93076:	e8 06       	beqzs8 93082 <Keyboard_Polling+0x84>
   93078:	5a 60 30 04 	beqc $r6,#48,93080 <Keyboard_Polling+0x82>
   9307c:	48 00 00 55 	j 93126 <Keyboard_Polling+0x128>
   93080:	d5 0e       	j8 9309c <Keyboard_Polling+0x9e>
   93082:	44 00 aa aa 	movi $r0,#43690
   93086:	4c 60 00 53 	beq $r6,$r0,9312c <Keyboard_Polling+0x12e>
   9308a:	44 00 bb bb 	movi $r0,#48059
   9308e:	4c 60 40 4c 	bne $r6,$r0,93126 <Keyboard_Polling+0x128>
   93092:	d5 1c       	j8 930ca <Keyboard_Polling+0xcc>
   93094:	80 06       	mov55 $r0,$r6
   93096:	49 ff fc fe 	jal 92a92 <HOGP_SendKeyboard>
   9309a:	d5 49       	j8 9312c <Keyboard_Polling+0x12e>
   9309c:	46 00 00 a4 	sethi $r0,#0xa4
   930a0:	58 00 06 2c 	ori $r0,$r0,#0x62c
   930a4:	49 00 77 63 	jal a1f6a <puts>
   930a8:	80 06       	mov55 $r0,$r6
   930aa:	49 ff fd 01 	jal 92aac <HOGP_SendConsumerKey>
   930ae:	84 02       	movi55 $r0,#2
   930b0:	49 00 03 56 	jal 9375c <LED_SetEvent>
   930b4:	84 01       	movi55 $r0,#1
   930b6:	84 20       	movi55 $r1,#0
   930b8:	44 20 3e 80 	movi $r2,#16000
   930bc:	46 30 00 92 	sethi $r3,#0x92
   930c0:	58 31 85 0a 	ori $r3,$r3,#0x50a
   930c4:	49 00 12 b6 	jal 95630 <AB_Timer_AlertSet>
   930c8:	d5 32       	j8 9312c <Keyboard_Polling+0x12e>
   930ca:	9c 01       	addi333 $r0,$r0,#1
   930cc:	49 ff fc f0 	jal 92aac <HOGP_SendConsumerKey>
   930d0:	49 00 01 55 	jal 9337a <MIC_Enable>
   930d4:	46 00 00 a4 	sethi $r0,#0xa4
   930d8:	58 00 06 40 	ori $r0,$r0,#0x640
   930dc:	49 00 77 47 	jal a1f6a <puts>
   930e0:	d5 26       	j8 9312c <Keyboard_Polling+0x12e>
   930e2:	49 ff fe 9d 	jal 92e1c <Board_GetModuelWorkState>
   930e6:	96 0e       	bmski33 $r0,#0x1
   930e8:	c0 1f       	beqz38 $r0,93126 <Keyboard_Polling+0x128>
   930ea:	84 01       	movi55 $r0,#1
   930ec:	d5 1a       	j8 93120 <Keyboard_Polling+0x122>
   930ee:	3c 1d f2 bb 	lwi.gp $r1,[+#-13588]
   930f2:	44 00 bb bb 	movi $r0,#48059
   930f6:	4c 10 40 04 	bne $r1,$r0,930fe <Keyboard_Polling+0x100>
   930fa:	49 00 01 4a 	jal 9338e <MIC_Disable>
   930fe:	3c 0d f2 bb 	lwi.gp $r0,[+#-13588]
   93102:	44 10 aa aa 	movi $r1,#43690
   93106:	4c 00 80 0c 	beq $r0,$r1,9311e <Keyboard_Polling+0x120>
   9310a:	8e 1e       	subi45 $r0,#30
   9310c:	e6 0d       	slti45 $r0,#13
   9310e:	e8 05       	beqzs8 93118 <Keyboard_Polling+0x11a>
   93110:	80 06       	mov55 $r0,$r6
   93112:	49 ff fc c0 	jal 92a92 <HOGP_SendKeyboard>
   93116:	d5 04       	j8 9311e <Keyboard_Polling+0x120>
   93118:	80 06       	mov55 $r0,$r6
   9311a:	49 ff fc c9 	jal 92aac <HOGP_SendConsumerKey>
   9311e:	84 00       	movi55 $r0,#0
   93120:	49 ff fc b3 	jal 92a86 <HOGP_SetMouseButton>
   93124:	d5 04       	j8 9312c <Keyboard_Polling+0x12e>
   93126:	80 06       	mov55 $r0,$r6
   93128:	49 ff fc c2 	jal 92aac <HOGP_SendConsumerKey>
   9312c:	3c 6f f2 bb 	swi.gp $r6,[+#-13588]
   93130:	49 ff fe 76 	jal 92e1c <Board_GetModuelWorkState>
   93134:	96 1e       	bmski33 $r0,#0x3
   93136:	c8 03       	bnez38 $r0,9313c <Keyboard_Polling+0x13e>
   93138:	49 ff f8 ea 	jal 9230c <Timer_SetIdleConnTimeout>
   9313c:	3e 6f ca c8 	addi.gp $r6,#-13624
   93140:	00 03 00 20 	lbi $r0,[$r6+#0x20]
   93144:	80 20       	mov55 $r1,$r0
   93146:	92 24       	srli45 $r1,#4
   93148:	96 1f       	fexti33 $r0,#0x3
   9314a:	4c 10 00 1d 	beq $r1,$r0,93184 <Keyboard_Polling+0x186>
   9314e:	49 ff f9 c3 	jal 924d4 <GAP_GetGapStatus>
   93152:	5a 08 02 19 	bnec $r0,#2,93184 <Keyboard_Polling+0x186>
   93156:	00 13 00 20 	lbi $r1,[$r6+#0x20]
   9315a:	80 41       	mov55 $r2,$r1
   9315c:	92 44       	srli45 $r2,#4
   9315e:	38 03 09 01 	lh $r0,[$r6+($r2<<#0x1)]
   93162:	96 5f       	fexti33 $r1,#0x3
   93164:	9c 91       	addi333 $r2,$r2,#1
   93166:	c0 0a       	beqz38 $r0,9317a <Keyboard_Polling+0x17c>
   93168:	96 9f       	fexti33 $r2,#0x3
   9316a:	94 94       	slli333 $r2,$r2,#4
   9316c:	fe 57       	or33 $r1,$r2
   9316e:	10 13 00 20 	sbi $r1,[$r6+#0x20]
   93172:	96 00       	zeb33 $r0,$r0
   93174:	49 00 03 3e 	jal 937f0 <IR_Send>
   93178:	d5 06       	j8 93184 <Keyboard_Polling+0x186>
   9317a:	96 9f       	fexti33 $r2,#0x3
   9317c:	94 94       	slli333 $r2,$r2,#4
   9317e:	fe 57       	or33 $r1,$r2
   93180:	10 13 00 20 	sbi $r1,[$r6+#0x20]
   93184:	fc a0       	pop25 $r8,#0x0    ! {$r6~$r8, $fp, $gp, $lp}

00093186 <Keyboard_Init>:
   93186:	fc 02       	push25 $r6,#0x10    ! {$r6, $fp, $gp, $lp}
   93188:	46 30 00 a3 	sethi $r3,#0xa3
   9318c:	58 31 89 ac 	ori $r3,$r3,#0x9ac
   93190:	46 00 00 93 	sethi $r0,#0x93
   93194:	58 00 01 cc 	ori $r0,$r0,#0x1cc
   93198:	f0 83       	swi37.sp $r0,[+#0xc]
   9319a:	50 01 80 18 	addi $r0,$r3,#24
   9319e:	3a 00 08 00 	lmw.bi $r0,[$r0],$r2,#0x0    ! {$r0~$r2}
   931a2:	3a 0f 88 20 	smw.bi $r0,[$sp],$r2,#0x0    ! {$r0~$r2}
   931a6:	3a 01 94 00 	lmw.bi $r0,[$r3],$r5,#0x0    ! {$r0~$r5}
   931aa:	49 00 19 ea 	jal 9657e <DRV_KeyScan_Init>
   931ae:	49 00 19 97 	jal 964dc <DRV_KeyScan_En>
   931b2:	84 00       	movi55 $r0,#0
   931b4:	49 00 18 b5 	jal 9631e <DRV_Gpio_IntDis>
   931b8:	84 01       	movi55 $r0,#1
   931ba:	49 00 18 b2 	jal 9631e <DRV_Gpio_IntDis>
   931be:	84 04       	movi55 $r0,#4
   931c0:	49 00 18 af 	jal 9631e <DRV_Gpio_IntDis>
   931c4:	84 05       	movi55 $r0,#5
   931c6:	49 00 18 ac 	jal 9631e <DRV_Gpio_IntDis>
   931ca:	fc 82       	pop25 $r6,#0x10    ! {$r6, $fp, $gp, $lp}

000931cc <Keyboard_KeyScanIntHandler>:
   931cc:	fc 40       	push25 $r10,#0x0    ! {$r6~$r10, $fp, $gp, $lp}
   931ce:	54 81 00 ff 	andi $r8,$r2,#0xff
   931d2:	80 c0       	mov55 $r6,$r0
   931d4:	97 c8       	zeb33 $r7,$r1
   931d6:	4e 82 00 09 	beqz $r8,931e8 <Keyboard_KeyScanIntHandler+0x1c>
   931da:	46 00 00 a4 	sethi $r0,#0xa4
   931de:	58 00 06 54 	ori $r0,$r0,#0x654
   931e2:	49 00 0c a0 	jal 94b22 <printf>
   931e6:	d5 05       	j8 931f0 <Keyboard_KeyScanIntHandler+0x24>
   931e8:	44 00 00 5b 	movi $r0,#91
   931ec:	49 00 0d 24 	jal 94c34 <putchar>
   931f0:	81 46       	mov55 $r10,$r6
   931f2:	85 20       	movi55 $r9,#0
   931f4:	d5 0c       	j8 9320c <Keyboard_KeyScanIntHandler+0x40>
   931f6:	08 15 00 01 	lbi.bi $r1,[$r10],#0x1
   931fa:	46 00 00 a4 	sethi $r0,#0xa4
   931fe:	58 00 06 58 	ori $r0,$r0,#0x658
   93202:	8d 21       	addi45 $r9,#1
   93204:	49 00 0c 8f 	jal 94b22 <printf>
   93208:	54 94 80 ff 	andi $r9,$r9,#0xff
   9320c:	e3 27       	slt45 $r9,$r7
   9320e:	e9 f4       	bnezs8 931f6 <Keyboard_KeyScanIntHandler+0x2a>
   93210:	46 00 00 a4 	sethi $r0,#0xa4
   93214:	58 00 06 5c 	ori $r0,$r0,#0x65c
   93218:	49 00 76 a9 	jal a1f6a <puts>
   9321c:	4e 83 00 78 	bnez $r8,9330c <Keyboard_KeyScanIntHandler+0x140>
   93220:	84 02       	movi55 $r0,#2
   93222:	49 00 11 ae 	jal 9557e <AB_Timer_AlertUnset>
   93226:	5a 70 01 1f 	beqc $r7,#1,93264 <Keyboard_KeyScanIntHandler+0x98>
   9322a:	c7 07       	beqz38 $r7,93238 <Keyboard_KeyScanIntHandler+0x6c>
   9322c:	5a 70 02 52 	beqc $r7,#2,932d0 <Keyboard_KeyScanIntHandler+0x104>
   93230:	85 e3       	movi55 $r15,#3
   93232:	4c 77 c0 6d 	bne $r7,$r15,9330c <Keyboard_KeyScanIntHandler+0x140>
   93236:	d5 60       	j8 932f6 <Keyboard_KeyScanIntHandler+0x12a>
   93238:	84 21       	movi55 $r1,#1
   9323a:	3c 1f f2 bc 	swi.gp $r1,[+#-13584]
   9323e:	3e 0f ca a4 	addi.gp $r0,#-13660
   93242:	00 10 00 20 	lbi $r1,[$r0+#0x20]
   93246:	96 5f       	fexti33 $r1,#0x3
   93248:	38 70 05 09 	sh $r7,[$r0+($r1<<#0x1)]
   9324c:	9c 49       	addi333 $r1,$r1,#1
   9324e:	00 20 00 20 	lbi $r2,[$r0+#0x20]
   93252:	96 5f       	fexti33 $r1,#0x3
   93254:	92 44       	srli45 $r2,#4
   93256:	94 94       	slli333 $r2,$r2,#4
   93258:	fe 57       	or33 $r1,$r2
   9325a:	10 10 00 20 	sbi $r1,[$r0+#0x20]
   9325e:	49 00 02 95 	jal 93788 <IR_KeyReleased>
   93262:	d5 55       	j8 9330c <Keyboard_KeyScanIntHandler+0x140>
   93264:	84 22       	movi55 $r1,#2
   93266:	3c 1f f2 bc 	swi.gp $r1,[+#-13584]
   9326a:	3e 0f ca a4 	addi.gp $r0,#-13660
   9326e:	a6 f0       	lbi333 $r3,[$r6+#0x0]
   93270:	00 10 00 20 	lbi $r1,[$r0+#0x20]
   93274:	46 20 00 a3 	sethi $r2,#0xa3
   93278:	58 21 09 88 	ori $r2,$r2,#0x988
   9327c:	38 31 0d 01 	lh $r3,[$r2+($r3<<#0x1)]
   93280:	96 5f       	fexti33 $r1,#0x3
   93282:	38 30 05 09 	sh $r3,[$r0+($r1<<#0x1)]
   93286:	9c 49       	addi333 $r1,$r1,#1
   93288:	00 20 00 20 	lbi $r2,[$r0+#0x20]
   9328c:	96 5f       	fexti33 $r1,#0x3
   9328e:	92 44       	srli45 $r2,#4
   93290:	94 94       	slli333 $r2,$r2,#4
   93292:	fe 57       	or33 $r1,$r2
   93294:	10 10 00 20 	sbi $r1,[$r0+#0x20]
   93298:	49 ff f9 1e 	jal 924d4 <GAP_GetGapStatus>
   9329c:	5a 00 03 38 	beqc $r0,#3,9330c <Keyboard_KeyScanIntHandler+0x140>
   932a0:	3e 0f ca c8 	addi.gp $r0,#-13624
   932a4:	a6 b0       	lbi333 $r2,[$r6+#0x0]
   932a6:	00 10 00 20 	lbi $r1,[$r0+#0x20]
   932aa:	46 30 00 a3 	sethi $r3,#0xa3
   932ae:	58 31 89 a0 	ori $r3,$r3,#0x9a0
   932b2:	38 21 88 00 	lb $r2,[$r3+($r2<<#0x0)]
   932b6:	96 5f       	fexti33 $r1,#0x3
   932b8:	38 20 05 09 	sh $r2,[$r0+($r1<<#0x1)]
   932bc:	00 20 00 20 	lbi $r2,[$r0+#0x20]
   932c0:	9c 49       	addi333 $r1,$r1,#1
   932c2:	96 5f       	fexti33 $r1,#0x3
   932c4:	92 44       	srli45 $r2,#4
   932c6:	94 94       	slli333 $r2,$r2,#4
   932c8:	fe 57       	or33 $r1,$r2
   932ca:	10 10 00 20 	sbi $r1,[$r0+#0x20]
   932ce:	d5 1f       	j8 9330c <Keyboard_KeyScanIntHandler+0x140>
   932d0:	a6 30       	lbi333 $r0,[$r6+#0x0]
   932d2:	c8 1d       	bnez38 $r0,9330c <Keyboard_KeyScanIntHandler+0x140>
   932d4:	a6 31       	lbi333 $r0,[$r6+#0x1]
   932d6:	5a 08 06 1b 	bnec $r0,#6,9330c <Keyboard_KeyScanIntHandler+0x140>
   932da:	84 23       	movi55 $r1,#3
   932dc:	3c 1f f2 bc 	swi.gp $r1,[+#-13584]
   932e0:	44 20 3e 80 	movi $r2,#16000
   932e4:	80 07       	mov55 $r0,$r7
   932e6:	80 28       	mov55 $r1,$r8
   932e8:	46 30 00 93 	sethi $r3,#0x93
   932ec:	58 31 83 0e 	ori $r3,$r3,#0x30e
   932f0:	49 00 11 a0 	jal 95630 <AB_Timer_AlertSet>
   932f4:	d5 0c       	j8 9330c <Keyboard_KeyScanIntHandler+0x140>
   932f6:	a6 30       	lbi333 $r0,[$r6+#0x0]
   932f8:	c8 0a       	bnez38 $r0,9330c <Keyboard_KeyScanIntHandler+0x140>
   932fa:	a6 31       	lbi333 $r0,[$r6+#0x1]
   932fc:	5a 08 05 08 	bnec $r0,#5,9330c <Keyboard_KeyScanIntHandler+0x140>
   93300:	a6 32       	lbi333 $r0,[$r6+#0x2]
   93302:	5a 08 06 05 	bnec $r0,#6,9330c <Keyboard_KeyScanIntHandler+0x140>
   93306:	84 24       	movi55 $r1,#4
   93308:	3c 1f f2 bc 	swi.gp $r1,[+#-13584]
   9330c:	fc c0       	pop25 $r10,#0x0    ! {$r6~$r10, $fp, $gp, $lp}

0009330e <Keyboard_ComboKeyProcess>:
   9330e:	fc 00       	push25 $r6,#0x0    ! {$r6, $fp, $gp, $lp}
   93310:	46 00 00 a4 	sethi $r0,#0xa4
   93314:	58 00 06 60 	ori $r0,$r0,#0x660
   93318:	49 00 76 29 	jal a1f6a <puts>
   9331c:	84 00       	movi55 $r0,#0
   9331e:	49 00 3b 44 	jal 9a9a6 <BLE_gap_sm_delete_paired_record>
   93322:	84 00       	movi55 $r0,#0
   93324:	49 ff fd 4d 	jal 92dbe <Board_SoftResetEnable>
   93328:	fc 80       	pop25 $r6,#0x0    ! {$r6, $fp, $gp, $lp}

0009332a <MIC_CodecSel_IMA>:
   9332a:	fc 00       	push25 $r6,#0x0    ! {$r6, $fp, $gp, $lp}
   9332c:	46 10 00 91 	sethi $r1,#0x91
   93330:	58 10 88 10 	ori $r1,$r1,#0x810
   93334:	3c 1f f1 ed 	swi.gp $r1,[+#-14412]
   93338:	46 10 00 91 	sethi $r1,#0x91
   9333c:	58 10 89 28 	ori $r1,$r1,#0x928
   93340:	3c 1f f1 ee 	swi.gp $r1,[+#-14408]
   93344:	fc 80       	pop25 $r6,#0x0    ! {$r6, $fp, $gp, $lp}

00093346 <MIC_CodecSel_G726>:
   93346:	fc 00       	push25 $r6,#0x0    ! {$r6, $fp, $gp, $lp}
   93348:	46 10 00 90 	sethi $r1,#0x90
   9334c:	58 10 80 30 	ori $r1,$r1,#0x30
   93350:	3c 1f f1 ed 	swi.gp $r1,[+#-14412]
   93354:	46 10 00 90 	sethi $r1,#0x90
   93358:	58 10 81 b4 	ori $r1,$r1,#0x1b4
   9335c:	3c 1f f1 ee 	swi.gp $r1,[+#-14408]
   93360:	fc 80       	pop25 $r6,#0x0    ! {$r6, $fp, $gp, $lp}

00093362 <MIC_Polling>:
   93362:	fc 00       	push25 $r6,#0x0    ! {$r6, $fp, $gp, $lp}
   93364:	3c 1d f2 bd 	lwi.gp $r1,[+#-13580]
   93368:	46 00 00 a3 	sethi $r0,#0xa3
   9336c:	58 00 09 d0 	ori $r0,$r0,#0x9d0
   93370:	38 00 06 02 	lw $r0,[$r0+($r1<<#0x2)]
   93374:	c0 02       	beqz38 $r0,93378 <MIC_Polling+0x16>
   93376:	dd 20       	jral5 $r0
   93378:	fc 80       	pop25 $r6,#0x0    ! {$r6, $fp, $gp, $lp}

0009337a <MIC_Enable>:
   9337a:	fc 00       	push25 $r6,#0x0    ! {$r6, $fp, $gp, $lp}
   9337c:	46 00 01 00 	sethi $r0,#0x100
   93380:	3c 1d f2 bd 	lwi.gp $r1,[+#-13580]
   93384:	c9 04       	bnez38 $r1,9338c <MIC_Enable+0x12>
   93386:	84 21       	movi55 $r1,#1
   93388:	3c 1f f2 bd 	swi.gp $r1,[+#-13580]
   9338c:	fc 80       	pop25 $r6,#0x0    ! {$r6, $fp, $gp, $lp}

0009338e <MIC_Disable>:
   9338e:	fc 00       	push25 $r6,#0x0    ! {$r6, $fp, $gp, $lp}
   93390:	46 00 01 00 	sethi $r0,#0x100
   93394:	3c 1d f2 bd 	lwi.gp $r1,[+#-13580]
   93398:	5a 18 03 05 	bnec $r1,#3,933a2 <MIC_Disable+0x14>
   9339c:	84 22       	movi55 $r1,#2
   9339e:	3c 1f f2 bd 	swi.gp $r1,[+#-13580]
   933a2:	fc 80       	pop25 $r6,#0x0    ! {$r6, $fp, $gp, $lp}

000933a4 <MIC_StandbyProcess>:
   933a4:	fc 00       	push25 $r6,#0x0    ! {$r6, $fp, $gp, $lp}
   933a6:	fc 80       	pop25 $r6,#0x0    ! {$r6, $fp, $gp, $lp}

000933a8 <MIC_InterruptHandle>:
   933a8:	fc 00       	push25 $r6,#0x0    ! {$r6, $fp, $gp, $lp}
   933aa:	3e 1f d4 31 	addi.gp $r1,#-11215
   933ae:	a6 88       	lbi333 $r2,[$r1+#0x0]
   933b0:	c2 06       	beqz38 $r2,933bc <MIC_InterruptHandle+0x14>
   933b2:	a6 08       	lbi333 $r0,[$r1+#0x0]
   933b4:	9e 01       	subi333 $r0,$r0,#1
   933b6:	96 00       	zeb33 $r0,$r0
   933b8:	ae 08       	sbi333 $r0,[$r1+#0x0]
   933ba:	d5 0c       	j8 933d2 <MIC_InterruptHandle+0x2a>
   933bc:	46 10 01 00 	sethi $r1,#0x100
   933c0:	3c 2d f2 bf 	lwi.gp $r2,[+#-13572]
   933c4:	c2 05       	beqz38 $r2,933ce <MIC_InterruptHandle+0x26>
   933c6:	84 21       	movi55 $r1,#1
   933c8:	3e 17 ca f8 	sbi.gp $r1,[+#-13576]
   933cc:	d5 03       	j8 933d2 <MIC_InterruptHandle+0x2a>
   933ce:	3c 0f f2 bf 	swi.gp $r0,[+#-13572]
   933d2:	fc 80       	pop25 $r6,#0x0    ! {$r6, $fp, $gp, $lp}

000933d4 <MIC_WorkOvertimeCB>:
   933d4:	fc 00       	push25 $r6,#0x0    ! {$r6, $fp, $gp, $lp}
   933d6:	46 00 00 a4 	sethi $r0,#0xa4
   933da:	58 00 06 78 	ori $r0,$r0,#0x678
   933de:	49 00 75 c6 	jal a1f6a <puts>
   933e2:	84 22       	movi55 $r1,#2
   933e4:	3c 1f f2 bd 	swi.gp $r1,[+#-13580]
   933e8:	fc 80       	pop25 $r6,#0x0    ! {$r6, $fp, $gp, $lp}

000933ea <MIC_WorkingProcess>:
   933ea:	fc 40       	push25 $r10,#0x0    ! {$r6~$r10, $fp, $gp, $lp}
   933ec:	3e 0f ca f8 	addi.gp $r0,#-13576
   933f0:	a6 00       	lbi333 $r0,[$r0+#0x0]
   933f2:	c0 0b       	beqz38 $r0,93408 <MIC_WorkingProcess+0x1e>
   933f4:	46 00 00 a4 	sethi $r0,#0xa4
   933f8:	58 00 06 8c 	ori $r0,$r0,#0x68c
   933fc:	49 00 75 b7 	jal a1f6a <puts>
   93400:	84 22       	movi55 $r1,#2
   93402:	3e 0f ca f4 	addi.gp $r0,#-13580
   93406:	b6 20       	swi450 $r1,[$r0]
   93408:	3e 0f ca fc 	addi.gp $r0,#-13572
   9340c:	b4 00       	lwi450 $r0,[$r0]
   9340e:	c0 74       	beqz38 $r0,934f6 <MIC_WorkingProcess+0x10c>
   93410:	64 22 00 02 	mfsr $r2,$PSW
   93414:	64 02 00 43 	setgie.d
   93418:	64 00 00 08 	dsb
   9341c:	46 10 01 00 	sethi $r1,#0x100
   93420:	58 10 80 b0 	ori $r1,$r1,#0xb0
   93424:	b4 01       	lwi450 $r0,[$r1]
   93426:	9c c1       	addi333 $r3,$r0,#1
   93428:	b6 61       	swi450 $r3,[$r1]
   9342a:	c8 06       	bnez38 $r0,93436 <MIC_WorkingProcess+0x4c>
   9342c:	46 00 01 00 	sethi $r0,#0x100
   93430:	58 00 00 bc 	ori $r0,$r0,#0xbc
   93434:	b6 40       	swi450 $r2,[$r0]
   93436:	49 00 1e ef 	jal 97214 <DRV_TMR32B0_TickGet>
   9343a:	3e 6f ca fc 	addi.gp $r6,#-13572
   9343e:	80 e0       	mov55 $r7,$r0
   93440:	3e 1f cb 00 	addi.gp $r1,#-13568
   93444:	3e 0f c7 b8 	addi.gp $r0,#-14408
   93448:	b4 60       	lwi450 $r3,[$r0]
   9344a:	b4 21       	lwi450 $r1,[$r1]
   9344c:	b4 06       	lwi450 $r0,[$r6]
   9344e:	44 20 01 40 	movi $r2,#320
   93452:	dd 23       	jral5 $r3
   93454:	84 00       	movi55 $r0,#0
   93456:	b6 06       	swi450 $r0,[$r6]
   93458:	49 00 1e de 	jal 97214 <DRV_TMR32B0_TickGet>
   9345c:	46 20 01 00 	sethi $r2,#0x100
   93460:	58 21 00 b0 	ori $r2,$r2,#0xb0
   93464:	80 20       	mov55 $r1,$r0
   93466:	b4 02       	lwi450 $r0,[$r2]
   93468:	9e 01       	subi333 $r0,$r0,#1
   9346a:	b6 02       	swi450 $r0,[$r2]
   9346c:	b4 02       	lwi450 $r0,[$r2]
   9346e:	c8 0c       	bnez38 $r0,93486 <MIC_WorkingProcess+0x9c>
   93470:	46 00 01 00 	sethi $r0,#0x100
   93474:	58 00 00 bc 	ori $r0,$r0,#0xbc
   93478:	b4 00       	lwi450 $r0,[$r0]
   9347a:	96 04       	xlsb33 $r0,$r0
   9347c:	c0 05       	beqz38 $r0,93486 <MIC_WorkingProcess+0x9c>
   9347e:	64 12 00 43 	setgie.e
   93482:	64 00 00 08 	dsb
   93486:	3e 2f cb 06 	addi.gp $r2,#-13562
   9348a:	a6 d0       	lbi333 $r3,[$r2+#0x0]
   9348c:	9c 19       	addi333 $r0,$r3,#1
   9348e:	ae 10       	sbi333 $r0,[$r2+#0x0]
   93490:	5a 38 32 0b 	bnec $r3,#50,934a6 <MIC_WorkingProcess+0xbc>
   93494:	84 00       	movi55 $r0,#0
   93496:	ae 10       	sbi333 $r0,[$r2+#0x0]
   93498:	9a 4f       	sub333 $r1,$r1,$r7
   9349a:	46 00 00 a4 	sethi $r0,#0xa4
   9349e:	58 00 06 a0 	ori $r0,$r0,#0x6a0
   934a2:	49 00 0b 40 	jal 94b22 <printf>
   934a6:	84 c0       	movi55 $r6,#0
   934a8:	3e 9f cb 04 	addi.gp $r9,#-13564
   934ac:	3e 7f cb 00 	addi.gp $r7,#-13568
   934b0:	3e 8f d4 1a 	addi.gp $r8,#-11238
   934b4:	d5 0e       	j8 934d0 <MIC_WorkingProcess+0xe6>
   934b6:	b4 27       	lwi450 $r1,[$r7]
   934b8:	fa 44       	movpi45 $r2,#0x14
   934ba:	98 4e       	add333 $r1,$r1,$r6
   934bc:	3e 0f c8 10 	addi.gp $r0,#-14320
   934c0:	49 ff f4 f0 	jal 91ea0 <memcpy>
   934c4:	02 04 00 00 	lhi $r0,[$r8+#0x0]
   934c8:	8c d4       	addi45 $r6,#20
   934ca:	49 ff fa fe 	jal 92ac6 <HOGP_SendReport>
   934ce:	97 b1       	zeh33 $r6,$r6
   934d0:	02 04 80 00 	lhi $r0,[$r9+#0x0]
   934d4:	4c 03 7f f1 	bne $r0,$r6,934b6 <MIC_WorkingProcess+0xcc>
   934d8:	49 00 34 94 	jal 99e00 <BT_Pending_TxCnt>
   934dc:	5c f0 1f 41 	slti $r15,$r0,#8001
   934e0:	e9 0b       	bnezs8 934f6 <MIC_WorkingProcess+0x10c>
   934e2:	46 00 00 a4 	sethi $r0,#0xa4
   934e6:	58 00 06 b8 	ori $r0,$r0,#0x6b8
   934ea:	49 00 75 40 	jal a1f6a <puts>
   934ee:	84 22       	movi55 $r1,#2
   934f0:	3e 0f ca f4 	addi.gp $r0,#-13580
   934f4:	b6 20       	swi450 $r1,[$r0]
   934f6:	49 00 0b e0 	jal 94cb6 <AB_PWR_Stanby>
   934fa:	fc c0       	pop25 $r10,#0x0    ! {$r6~$r10, $fp, $gp, $lp}

000934fc <MIC_DisableProcess>:
   934fc:	fc 00       	push25 $r6,#0x0    ! {$r6, $fp, $gp, $lp}
   934fe:	49 00 19 cf 	jal 9689c <DRV_Mic_Disable>
   93502:	84 01       	movi55 $r0,#1
   93504:	49 00 01 2c 	jal 9375c <LED_SetEvent>
   93508:	64 22 00 02 	mfsr $r2,$PSW
   9350c:	64 02 00 43 	setgie.d
   93510:	64 00 00 08 	dsb
   93514:	46 10 01 00 	sethi $r1,#0x100
   93518:	58 10 80 b0 	ori $r1,$r1,#0xb0
   9351c:	b4 01       	lwi450 $r0,[$r1]
   9351e:	9c c1       	addi333 $r3,$r0,#1
   93520:	b6 61       	swi450 $r3,[$r1]
   93522:	c8 06       	bnez38 $r0,9352e <MIC_DisableProcess+0x32>
   93524:	46 00 01 00 	sethi $r0,#0x100
   93528:	58 00 00 bc 	ori $r0,$r0,#0xbc
   9352c:	b6 40       	swi450 $r2,[$r0]
   9352e:	84 05       	movi55 $r0,#5
   93530:	49 00 10 27 	jal 9557e <AB_Timer_AlertUnset>
   93534:	84 20       	movi55 $r1,#0
   93536:	3e 0f ca f8 	addi.gp $r0,#-13576
   9353a:	ae 40       	sbi333 $r1,[$r0+#0x0]
   9353c:	84 00       	movi55 $r0,#0
   9353e:	3e 1f ca fc 	addi.gp $r1,#-13572
   93542:	b6 01       	swi450 $r0,[$r1]
   93544:	3e 1f ca f4 	addi.gp $r1,#-13580
   93548:	b6 01       	swi450 $r0,[$r1]
   9354a:	84 21       	movi55 $r1,#1
   9354c:	49 ff fc 4d 	jal 92de6 <Board_SetModuleWorkState>
   93550:	46 00 01 00 	sethi $r0,#0x100
   93554:	58 00 00 b0 	ori $r0,$r0,#0xb0
   93558:	b4 20       	lwi450 $r1,[$r0]
   9355a:	9e 49       	subi333 $r1,$r1,#1
   9355c:	b6 20       	swi450 $r1,[$r0]
   9355e:	b4 00       	lwi450 $r0,[$r0]
   93560:	c8 0c       	bnez38 $r0,93578 <MIC_DisableProcess+0x7c>
   93562:	46 00 01 00 	sethi $r0,#0x100
   93566:	58 00 00 bc 	ori $r0,$r0,#0xbc
   9356a:	b4 00       	lwi450 $r0,[$r0]
   9356c:	96 04       	xlsb33 $r0,$r0
   9356e:	c0 05       	beqz38 $r0,93578 <MIC_DisableProcess+0x7c>
   93570:	64 12 00 43 	setgie.e
   93574:	64 00 00 08 	dsb
   93578:	46 00 00 a4 	sethi $r0,#0xa4
   9357c:	58 00 06 d0 	ori $r0,$r0,#0x6d0
   93580:	49 00 74 f5 	jal a1f6a <puts>
   93584:	fc 80       	pop25 $r6,#0x0    ! {$r6, $fp, $gp, $lp}

00093586 <MIC_Init>:
   93586:	fc 23       	push25 $r8,#0x18    ! {$r6~$r8, $fp, $gp, $lp}
   93588:	84 29       	movi55 $r1,#9
   9358a:	b0 01       	addri36.sp $r0,#0x4
   9358c:	f1 81       	swi37.sp $r1,[+#0x4]
   9358e:	84 22       	movi55 $r1,#2
   93590:	f1 82       	swi37.sp $r1,[+#0x8]
   93592:	3c 2d f2 c2 	lwi.gp $r2,[+#-13560]
   93596:	46 10 00 93 	sethi $r1,#0x93
   9359a:	58 10 83 a8 	ori $r1,$r1,#0x3a8
   9359e:	f1 83       	swi37.sp $r1,[+#0xc]
   935a0:	3e 6f cb 04 	addi.gp $r6,#-13564
   935a4:	44 10 05 00 	movi $r1,#1280
   935a8:	ac 46       	shi333 $r1,[$r0+#0xc]
   935aa:	f2 85       	swi37.sp $r2,[+#0x14]
   935ac:	a4 30       	lhi333 $r0,[$r6+#0x0]
   935ae:	c8 11       	bnez38 $r0,935d0 <MIC_Init+0x4a>
   935b0:	44 00 00 a0 	movi $r0,#160
   935b4:	ac 30       	shi333 $r0,[$r6+#0x0]
   935b6:	49 ff fe ba 	jal 9332a <MIC_CodecSel_IMA>
   935ba:	44 00 05 00 	movi $r0,#1280
   935be:	49 00 0a 72 	jal 94aa2 <malloc>
   935c2:	3c 0f f2 c2 	swi.gp $r0,[+#-13560]
   935c6:	a4 30       	lhi333 $r0,[$r6+#0x0]
   935c8:	49 00 0a 6d 	jal 94aa2 <malloc>
   935cc:	3c 0f f2 c0 	swi.gp $r0,[+#-13568]
   935d0:	b0 01       	addri36.sp $r0,#0x4
   935d2:	49 00 19 a1 	jal 96914 <DRV_Mic_Init>
   935d6:	3c 0d f1 ed 	lwi.gp $r0,[+#-14412]
   935da:	dd 20       	jral5 $r0
   935dc:	fc a3       	pop25 $r8,#0x18    ! {$r6~$r8, $fp, $gp, $lp}

000935de <MIC_EnableProcess>:
   935de:	fc 00       	push25 $r6,#0x0    ! {$r6, $fp, $gp, $lp}
   935e0:	49 ff ff d3 	jal 93586 <MIC_Init>
   935e4:	84 23       	movi55 $r1,#3
   935e6:	3e 0f d4 31 	addi.gp $r0,#-11215
   935ea:	ae 40       	sbi333 $r1,[$r0+#0x0]
   935ec:	64 22 00 02 	mfsr $r2,$PSW
   935f0:	64 02 00 43 	setgie.d
   935f4:	64 00 00 08 	dsb
   935f8:	46 10 01 00 	sethi $r1,#0x100
   935fc:	58 10 80 b0 	ori $r1,$r1,#0xb0
   93600:	b4 01       	lwi450 $r0,[$r1]
   93602:	9c c1       	addi333 $r3,$r0,#1
   93604:	b6 61       	swi450 $r3,[$r1]
   93606:	c8 06       	bnez38 $r0,93612 <MIC_EnableProcess+0x34>
   93608:	46 00 01 00 	sethi $r0,#0x100
   9360c:	58 00 00 bc 	ori $r0,$r0,#0xbc
   93610:	b6 40       	swi450 $r2,[$r0]
   93612:	84 05       	movi55 $r0,#5
   93614:	84 20       	movi55 $r1,#0
   93616:	44 21 38 80 	movi $r2,#80000
   9361a:	46 30 00 93 	sethi $r3,#0x93
   9361e:	58 31 83 d4 	ori $r3,$r3,#0x3d4
   93622:	49 00 10 07 	jal 95630 <AB_Timer_AlertSet>
   93626:	84 23       	movi55 $r1,#3
   93628:	3e 0f ca f4 	addi.gp $r0,#-13580
   9362c:	b6 20       	swi450 $r1,[$r0]
   9362e:	84 01       	movi55 $r0,#1
   93630:	80 20       	mov55 $r1,$r0
   93632:	49 ff fb da 	jal 92de6 <Board_SetModuleWorkState>
   93636:	46 00 01 00 	sethi $r0,#0x100
   9363a:	58 00 00 b0 	ori $r0,$r0,#0xb0
   9363e:	b4 20       	lwi450 $r1,[$r0]
   93640:	9e 49       	subi333 $r1,$r1,#1
   93642:	b6 20       	swi450 $r1,[$r0]
   93644:	b4 00       	lwi450 $r0,[$r0]
   93646:	c8 0c       	bnez38 $r0,9365e <MIC_EnableProcess+0x80>
   93648:	46 00 01 00 	sethi $r0,#0x100
   9364c:	58 00 00 bc 	ori $r0,$r0,#0xbc
   93650:	b4 00       	lwi450 $r0,[$r0]
   93652:	96 04       	xlsb33 $r0,$r0
   93654:	c0 05       	beqz38 $r0,9365e <MIC_EnableProcess+0x80>
   93656:	64 12 00 43 	setgie.e
   9365a:	64 00 00 08 	dsb
   9365e:	84 08       	movi55 $r0,#8
   93660:	49 00 00 7e 	jal 9375c <LED_SetEvent>
   93664:	49 00 19 3d 	jal 968de <DRV_Mic_Enable>
   93668:	46 00 00 a4 	sethi $r0,#0xa4
   9366c:	58 00 06 e0 	ori $r0,$r0,#0x6e0
   93670:	49 00 74 7d 	jal a1f6a <puts>
   93674:	fc 80       	pop25 $r6,#0x0    ! {$r6, $fp, $gp, $lp}

00093676 <VCMD_MouseCalibrate_ISR>:
   93676:	fc 00       	push25 $r6,#0x0    ! {$r6, $fp, $gp, $lp}
   93678:	84 21       	movi55 $r1,#1
   9367a:	3e 17 cb 0c 	sbi.gp $r1,[+#-13556]
   9367e:	44 00 00 ff 	movi $r0,#255
   93682:	fc 80       	pop25 $r6,#0x0    ! {$r6, $fp, $gp, $lp}

00093684 <VCMD_Response>:
   93684:	fc 41       	push25 $r10,#0x8    ! {$r6~$r10, $fp, $gp, $lp}
   93686:	97 d8       	zeb33 $r7,$r3
   93688:	50 83 80 06 	addi $r8,$r7,#6
   9368c:	55 c0 00 ff 	andi $fp,$r0,#0xff
   93690:	96 48       	zeb33 $r1,$r1
   93692:	80 08       	mov55 $r0,$r8
   93694:	81 44       	mov55 $r10,$r4
   93696:	81 22       	mov55 $r9,$r2
   93698:	f1 81       	swi37.sp $r1,[+#0x4]
   9369a:	49 00 0a 04 	jal 94aa2 <malloc>
   9369e:	80 c0       	mov55 $r6,$r0
   936a0:	84 04       	movi55 $r0,#4
   936a2:	f1 01       	lwi37.sp $r1,[+#0x4]
   936a4:	ae 30       	sbi333 $r0,[$r6+#0x0]
   936a6:	84 1f       	movi55 $r0,#-1
   936a8:	ae 31       	sbi333 $r0,[$r6+#0x1]
   936aa:	9c 3b       	addi333 $r0,$r7,#3
   936ac:	ae 32       	sbi333 $r0,[$r6+#0x2]
   936ae:	ae 73       	sbi333 $r1,[$r6+#0x3]
   936b0:	80 47       	mov55 $r2,$r7
   936b2:	80 29       	mov55 $r1,$r9
   936b4:	9c 36       	addi333 $r0,$r6,#6
   936b6:	11 c3 00 04 	sbi $fp,[$r6+#0x4]
   936ba:	10 a3 00 05 	sbi $r10,[$r6+#0x5]
   936be:	49 ff f3 f1 	jal 91ea0 <memcpy>
   936c2:	80 26       	mov55 $r1,$r6
   936c4:	80 48       	mov55 $r2,$r8
   936c6:	84 00       	movi55 $r0,#0
   936c8:	49 00 10 8e 	jal 957e4 <AB_UART_Write>
   936cc:	80 06       	mov55 $r0,$r6
   936ce:	49 00 09 71 	jal 949b0 <free>
   936d2:	fc c1       	pop25 $r10,#0x8    ! {$r6~$r10, $fp, $gp, $lp}

000936d4 <VCMD_MouseCalibrateInLoop>:
   936d4:	fc 00       	push25 $r6,#0x0    ! {$r6, $fp, $gp, $lp}
   936d6:	46 00 01 00 	sethi $r0,#0x100
   936da:	2e 17 cb 0c 	lbi.gp $r1,[+#-13556]
   936de:	c1 0b       	beqz38 $r1,936f4 <VCMD_MouseCalibrateInLoop+0x20>
   936e0:	84 20       	movi55 $r1,#0
   936e2:	3e 17 cb 0c 	sbi.gp $r1,[+#-13556]
   936e6:	84 40       	movi55 $r2,#0
   936e8:	84 21       	movi55 $r1,#1
   936ea:	94 0f       	slli333 $r0,$r1,#7
   936ec:	80 62       	mov55 $r3,$r2
   936ee:	80 81       	mov55 $r4,$r1
   936f0:	49 ff ff ca 	jal 93684 <VCMD_Response>
   936f4:	fc 80       	pop25 $r6,#0x0    ! {$r6, $fp, $gp, $lp}

000936f6 <VCMD_Handler>:
   936f6:	fc 20       	push25 $r8,#0x0    ! {$r6~$r8, $fp, $gp, $lp}
   936f8:	ef 00       	addi10.sp #-256
   936fa:	46 10 00 a3 	sethi $r1,#0xa3
   936fe:	58 10 89 e8 	ori $r1,$r1,#0x9e8
   93702:	80 c0       	mov55 $r6,$r0
   93704:	a6 88       	lbi333 $r2,[$r1+#0x0]
   93706:	a6 02       	lbi333 $r0,[$r0+#0x2]
   93708:	4c 20 40 22 	bne $r2,$r0,9374c <VCMD_Handler+0x56>
   9370c:	a7 09       	lbi333 $r4,[$r1+#0x1]
   9370e:	a0 89       	lwi333 $r2,[$r1+#0x4]
   93710:	84 20       	movi55 $r1,#0
   93712:	d5 1b       	j8 93748 <VCMD_Handler+0x52>
   93714:	80 62       	mov55 $r3,$r2
   93716:	a7 f1       	lbi333 $r7,[$r6+#0x1]
   93718:	08 51 00 08 	lbi.bi $r5,[$r2],#0x8
   9371c:	df 14       	bnes38 $r7,93744 <VCMD_Handler+0x4e>
   9371e:	84 00       	movi55 $r0,#0
   93720:	10 0f 80 ff 	sbi $r0,[$sp+#0xff]
   93724:	80 3f       	mov55 $r1,$sp
   93726:	a0 d9       	lwi333 $r3,[$r3+#0x4]
   93728:	80 06       	mov55 $r0,$r6
   9372a:	50 2f 80 ff 	addi $r2,$sp,#255
   9372e:	dd 23       	jral5 $r3
   93730:	80 ff       	mov55 $r7,$sp
   93732:	80 80       	mov55 $r4,$r0
   93734:	5a 00 ff 12 	beqc $r0,#255,93758 <VCMD_Handler+0x62>
   93738:	a6 32       	lbi333 $r0,[$r6+#0x2]
   9373a:	a6 71       	lbi333 $r1,[$r6+#0x1]
   9373c:	80 5f       	mov55 $r2,$sp
   9373e:	00 3f 80 ff 	lbi $r3,[$sp+#0xff]
   93742:	d5 09       	j8 93754 <VCMD_Handler+0x5e>
   93744:	9c 49       	addi333 $r1,$r1,#1
   93746:	96 48       	zeb33 $r1,$r1
   93748:	e2 24       	slt45 $r1,$r4
   9374a:	e9 e5       	bnezs8 93714 <VCMD_Handler+0x1e>
   9374c:	84 40       	movi55 $r2,#0
   9374e:	a6 71       	lbi333 $r1,[$r6+#0x1]
   93750:	80 62       	mov55 $r3,$r2
   93752:	84 82       	movi55 $r4,#2
   93754:	49 ff ff 98 	jal 93684 <VCMD_Response>
   93758:	ed 00       	addi10.sp #256
   9375a:	fc a0       	pop25 $r8,#0x0    ! {$r6~$r8, $fp, $gp, $lp}

0009375c <LED_SetEvent>:
   9375c:	fc 00       	push25 $r6,#0x0    ! {$r6, $fp, $gp, $lp}
   9375e:	46 10 01 00 	sethi $r1,#0x100
   93762:	3c 2d f2 c4 	lwi.gp $r2,[+#-13552]
   93766:	fe 17       	or33 $r0,$r2
   93768:	3c 0f f2 c4 	swi.gp $r0,[+#-13552]
   9376c:	fc 80       	pop25 $r6,#0x0    ! {$r6, $fp, $gp, $lp}

0009376e <LED_Init>:
   9376e:	fc 00       	push25 $r6,#0x0    ! {$r6, $fp, $gp, $lp}
   93770:	84 00       	movi55 $r0,#0
   93772:	84 22       	movi55 $r1,#2
   93774:	49 00 08 f1 	jal 94956 <AB_LED_init>
   93778:	84 20       	movi55 $r1,#0
   9377a:	84 04       	movi55 $r0,#4
   9377c:	49 00 16 91 	jal 9649e <DRV_OdGpio_IeSet>
   93780:	84 00       	movi55 $r0,#0
   93782:	49 00 08 58 	jal 94832 <AB_LED_stop>
   93786:	fc 80       	pop25 $r6,#0x0    ! {$r6, $fp, $gp, $lp}

00093788 <IR_KeyReleased>:
   93788:	fc 00       	push25 $r6,#0x0    ! {$r6, $fp, $gp, $lp}
   9378a:	64 22 00 02 	mfsr $r2,$PSW
   9378e:	64 02 00 43 	setgie.d
   93792:	64 00 00 08 	dsb
   93796:	46 10 01 00 	sethi $r1,#0x100
   9379a:	58 10 80 b0 	ori $r1,$r1,#0xb0
   9379e:	b4 01       	lwi450 $r0,[$r1]
   937a0:	9c c1       	addi333 $r3,$r0,#1
   937a2:	b6 61       	swi450 $r3,[$r1]
   937a4:	c8 06       	bnez38 $r0,937b0 <IR_KeyReleased+0x28>
   937a6:	46 00 01 00 	sethi $r0,#0x100
   937aa:	58 00 00 bc 	ori $r0,$r0,#0xbc
   937ae:	b6 40       	swi450 $r2,[$r0]
   937b0:	84 20       	movi55 $r1,#0
   937b2:	3e 0f c2 18 	addi.gp $r0,#-15848
   937b6:	10 10 00 18 	sbi $r1,[$r0+#0x18]
   937ba:	46 00 01 00 	sethi $r0,#0x100
   937be:	58 00 00 b0 	ori $r0,$r0,#0xb0
   937c2:	b4 20       	lwi450 $r1,[$r0]
   937c4:	9e 49       	subi333 $r1,$r1,#1
   937c6:	b6 20       	swi450 $r1,[$r0]
   937c8:	b4 00       	lwi450 $r0,[$r0]
   937ca:	c8 0c       	bnez38 $r0,937e2 <IR_KeyReleased+0x5a>
   937cc:	46 00 01 00 	sethi $r0,#0x100
   937d0:	58 00 00 bc 	ori $r0,$r0,#0xbc
   937d4:	b4 00       	lwi450 $r0,[$r0]
   937d6:	96 04       	xlsb33 $r0,$r0
   937d8:	c0 05       	beqz38 $r0,937e2 <IR_KeyReleased+0x5a>
   937da:	64 12 00 43 	setgie.e
   937de:	64 00 00 08 	dsb
   937e2:	46 00 00 a4 	sethi $r0,#0xa4
   937e6:	58 00 06 ec 	ori $r0,$r0,#0x6ec
   937ea:	49 00 73 c0 	jal a1f6a <puts>
   937ee:	fc 80       	pop25 $r6,#0x0    ! {$r6, $fp, $gp, $lp}

000937f0 <IR_Send>:
   937f0:	fc 00       	push25 $r6,#0x0    ! {$r6, $fp, $gp, $lp}
   937f2:	3e 1f c2 18 	addi.gp $r1,#-15848
   937f6:	00 20 80 18 	lbi $r2,[$r1+#0x18]
   937fa:	96 00       	zeb33 $r0,$r0
   937fc:	c2 06       	beqz38 $r2,93808 <IR_Send+0x18>
   937fe:	46 00 00 a4 	sethi $r0,#0xa4
   93802:	58 00 06 f8 	ori $r0,$r0,#0x6f8
   93806:	d5 68       	j8 938d6 <IR_Send+0xe6>
   93808:	b6 41       	swi450 $r2,[$r1]
   9380a:	a8 8b       	swi333 $r2,[$r1+#0xc]
   9380c:	84 41       	movi55 $r2,#1
   9380e:	10 20 80 18 	sbi $r2,[$r1+#0x18]
   93812:	44 30 fe 01 	movi $r3,#65025
   93816:	40 20 40 08 	slli $r2,$r0,#16
   9381a:	fe 03       	not33 $r0,$r0
   9381c:	fe 9f       	or33 $r2,$r3
   9381e:	40 00 60 08 	slli $r0,$r0,#24
   93822:	fe 17       	or33 $r0,$r2
   93824:	a8 0d       	swi333 $r0,[$r1+#0x14]
   93826:	46 00 00 a3 	sethi $r0,#0xa3
   9382a:	58 00 09 f0 	ori $r0,$r0,#0x9f0
   9382e:	9c 8c       	addi333 $r2,$r1,#4
   93830:	3a 00 04 00 	lmw.bi $r0,[$r0],$r1,#0x0    ! {$r0~$r1}
   93834:	3a 01 04 20 	smw.bi $r0,[$r2],$r1,#0x0    ! {$r0~$r1}
   93838:	64 22 00 02 	mfsr $r2,$PSW
   9383c:	64 02 00 43 	setgie.d
   93840:	64 00 00 08 	dsb
   93844:	46 10 01 00 	sethi $r1,#0x100
   93848:	58 10 80 b0 	ori $r1,$r1,#0xb0
   9384c:	b4 01       	lwi450 $r0,[$r1]
   9384e:	9c c1       	addi333 $r3,$r0,#1
   93850:	b6 61       	swi450 $r3,[$r1]
   93852:	c8 06       	bnez38 $r0,9385e <IR_Send+0x6e>
   93854:	46 00 01 00 	sethi $r0,#0x100
   93858:	58 00 00 bc 	ori $r0,$r0,#0xbc
   9385c:	b6 40       	swi450 $r2,[$r0]
   9385e:	3e 1f c2 18 	addi.gp $r1,#-15848
   93862:	a0 49       	lwi333 $r1,[$r1+#0x4]
   93864:	84 41       	movi55 $r2,#1
   93866:	84 03       	movi55 $r0,#3
   93868:	84 60       	movi55 $r3,#0
   9386a:	46 40 00 93 	sethi $r4,#0x93
   9386e:	58 42 08 dc 	ori $r4,$r4,#0x8dc
   93872:	49 00 1c d7 	jal 97220 <DRV_TMR32B0_NotifyEnable>
   93876:	46 00 08 00 	sethi $r0,#0x800
   9387a:	84 21       	movi55 $r1,#1
   9387c:	49 00 19 b7 	jal 96bea <DRV_PinMux_SigSet>
   93880:	46 00 02 22 	sethi $r0,#0x222
   93884:	58 00 00 00 	ori $r0,$r0,#0x0
   93888:	a0 45       	lwi333 $r1,[$r0+#0x14]
   9388a:	84 5b       	movi55 $r2,#-5
   9388c:	fe 56       	and33 $r1,$r2
   9388e:	a8 45       	swi333 $r1,[$r0+#0x14]
   93890:	a0 41       	lwi333 $r1,[$r0+#0x4]
   93892:	58 10 80 01 	ori $r1,$r1,#0x1
   93896:	a8 41       	swi333 $r1,[$r0+#0x4]
   93898:	46 00 01 00 	sethi $r0,#0x100
   9389c:	58 00 00 b0 	ori $r0,$r0,#0xb0
   938a0:	b4 20       	lwi450 $r1,[$r0]
   938a2:	9e 49       	subi333 $r1,$r1,#1
   938a4:	b6 20       	swi450 $r1,[$r0]
   938a6:	b4 00       	lwi450 $r0,[$r0]
   938a8:	c8 0c       	bnez38 $r0,938c0 <IR_Send+0xd0>
   938aa:	46 00 01 00 	sethi $r0,#0x100
   938ae:	58 00 00 bc 	ori $r0,$r0,#0xbc
   938b2:	b4 00       	lwi450 $r0,[$r0]
   938b4:	96 04       	xlsb33 $r0,$r0
   938b6:	c0 05       	beqz38 $r0,938c0 <IR_Send+0xd0>
   938b8:	64 12 00 43 	setgie.e
   938bc:	64 00 00 08 	dsb
   938c0:	84 01       	movi55 $r0,#1
   938c2:	49 00 32 9a 	jal 99df6 <BT_Pause_Tx>
   938c6:	84 01       	movi55 $r0,#1
   938c8:	84 24       	movi55 $r1,#4
   938ca:	49 ff fa 8e 	jal 92de6 <Board_SetModuleWorkState>
   938ce:	46 00 00 a4 	sethi $r0,#0xa4
   938d2:	58 00 07 04 	ori $r0,$r0,#0x704
   938d6:	49 00 73 4a 	jal a1f6a <puts>
   938da:	fc 80       	pop25 $r6,#0x0    ! {$r6, $fp, $gp, $lp}

000938dc <IR_TimerHandle>:
   938dc:	fc 00       	push25 $r6,#0x0    ! {$r6, $fp, $gp, $lp}
   938de:	3e 0f c2 18 	addi.gp $r0,#-15848
   938e2:	a0 43       	lwi333 $r1,[$r0+#0xc]
   938e4:	85 e1       	movi55 $r15,#1
   938e6:	4c 17 c0 83 	bne $r1,$r15,939ec <IR_TimerHandle+0x110>
   938ea:	b4 c0       	lwi450 $r6,[$r0]
   938ec:	5a 60 02 62 	beqc $r6,#2,939b0 <IR_TimerHandle+0xd4>
   938f0:	e6 c3       	slti45 $r6,#3
   938f2:	e8 06       	beqzs8 938fe <IR_TimerHandle+0x22>
   938f4:	c6 0b       	beqz38 $r6,9390a <IR_TimerHandle+0x2e>
   938f6:	85 e1       	movi55 $r15,#1
   938f8:	4c 67 c0 7a 	bne $r6,$r15,939ec <IR_TimerHandle+0x110>
   938fc:	d5 1e       	j8 93938 <IR_TimerHandle+0x5c>
   938fe:	5a 60 03 63 	beqc $r6,#3,939c4 <IR_TimerHandle+0xe8>
   93902:	85 e4       	movi55 $r15,#4
   93904:	4c 67 c0 74 	bne $r6,$r15,939ec <IR_TimerHandle+0x110>
   93908:	d5 66       	j8 939d4 <IR_TimerHandle+0xf8>
   9390a:	b6 20       	swi450 $r1,[$r0]
   9390c:	3e 67 cb 14 	sbi.gp $r6,[+#-13548]
   93910:	a0 45       	lwi333 $r1,[$r0+#0x14]
   93912:	10 60 00 10 	sbi $r6,[$r0+#0x10]
   93916:	96 4c       	xlsb33 $r1,$r1
   93918:	9c 84       	addi333 $r2,$r0,#4
   9391a:	c1 06       	beqz38 $r1,93926 <IR_TimerHandle+0x4a>
   9391c:	46 00 00 a3 	sethi $r0,#0xa3
   93920:	58 00 09 f8 	ori $r0,$r0,#0x9f8
   93924:	d5 05       	j8 9392e <IR_TimerHandle+0x52>
   93926:	46 00 00 a3 	sethi $r0,#0xa3
   9392a:	58 00 0a 00 	ori $r0,$r0,#0xa00
   9392e:	3a 00 04 00 	lmw.bi $r0,[$r0],$r1,#0x0    ! {$r0~$r1}
   93932:	3a 01 04 20 	smw.bi $r0,[$r2],$r1,#0x0    ! {$r0~$r1}
   93936:	d5 5b       	j8 939ec <IR_TimerHandle+0x110>
   93938:	00 10 00 10 	lbi $r1,[$r0+#0x10]
   9393c:	9c 49       	addi333 $r1,$r1,#1
   9393e:	96 48       	zeb33 $r1,$r1
   93940:	10 10 00 10 	sbi $r1,[$r0+#0x10]
   93944:	5c f0 80 20 	slti $r15,$r1,#32
   93948:	e9 15       	bnezs8 93972 <IR_TimerHandle+0x96>
   9394a:	2e 37 cb 14 	lbi.gp $r3,[+#-13548]
   9394e:	84 29       	movi55 $r1,#9
   93950:	80 40       	mov55 $r2,$r0
   93952:	fe 5c       	mul33 $r1,$r3
   93954:	84 02       	movi55 $r0,#2
   93956:	aa 11       	swi333.bi $r0,[$r2],#0x4
   93958:	52 10 82 ef 	subri $r1,$r1,#751
   9395c:	3e 0f c2 34 	addi.gp $r0,#-15820
   93960:	a8 41       	swi333 $r1,[$r0+#0x4]
   93962:	3a 00 04 00 	lmw.bi $r0,[$r0],$r1,#0x0    ! {$r0~$r1}
   93966:	3a 01 04 20 	smw.bi $r0,[$r2],$r1,#0x0    ! {$r0~$r1}
   9396a:	84 00       	movi55 $r0,#0
   9396c:	49 00 32 45 	jal 99df6 <BT_Pause_Tx>
   93970:	d5 3e       	j8 939ec <IR_TimerHandle+0x110>
   93972:	40 63 04 0c 	sll $r6,$r6,$r1
   93976:	a0 45       	lwi333 $r1,[$r0+#0x14]
   93978:	3e 3f cb 14 	addi.gp $r3,#-13548
   9397c:	fe 76       	and33 $r1,$r6
   9397e:	9c 84       	addi333 $r2,$r0,#4
   93980:	c1 0c       	beqz38 $r1,93998 <IR_TimerHandle+0xbc>
   93982:	46 00 00 a3 	sethi $r0,#0xa3
   93986:	58 00 09 f8 	ori $r0,$r0,#0x9f8
   9398a:	3a 00 04 00 	lmw.bi $r0,[$r0],$r1,#0x0    ! {$r0~$r1}
   9398e:	3a 01 04 20 	smw.bi $r0,[$r2],$r1,#0x0    ! {$r0~$r1}
   93992:	a6 18       	lbi333 $r0,[$r3+#0x0]
   93994:	9c 02       	addi333 $r0,$r0,#2
   93996:	d5 0b       	j8 939ac <IR_TimerHandle+0xd0>
   93998:	46 00 00 a3 	sethi $r0,#0xa3
   9399c:	58 00 0a 00 	ori $r0,$r0,#0xa00
   939a0:	3a 00 04 00 	lmw.bi $r0,[$r0],$r1,#0x0    ! {$r0~$r1}
   939a4:	3a 01 04 20 	smw.bi $r0,[$r2],$r1,#0x0    ! {$r0~$r1}
   939a8:	a6 18       	lbi333 $r0,[$r3+#0x0]
   939aa:	9c 01       	addi333 $r0,$r0,#1
   939ac:	ae 18       	sbi333 $r0,[$r3+#0x0]
   939ae:	d5 1f       	j8 939ec <IR_TimerHandle+0x110>
   939b0:	84 25       	movi55 $r1,#5
   939b2:	b6 20       	swi450 $r1,[$r0]
   939b4:	46 00 08 00 	sethi $r0,#0x800
   939b8:	84 20       	movi55 $r1,#0
   939ba:	49 00 19 18 	jal 96bea <DRV_PinMux_SigSet>
   939be:	84 00       	movi55 $r0,#0
   939c0:	84 24       	movi55 $r1,#4
   939c2:	d5 12       	j8 939e6 <IR_TimerHandle+0x10a>
   939c4:	80 40       	mov55 $r2,$r0
   939c6:	84 04       	movi55 $r0,#4
   939c8:	aa 11       	swi333.bi $r0,[$r2],#0x4
   939ca:	46 00 00 a3 	sethi $r0,#0xa3
   939ce:	58 00 0a 08 	ori $r0,$r0,#0xa08
   939d2:	d5 ae       	j8 9392e <IR_TimerHandle+0x52>
   939d4:	84 25       	movi55 $r1,#5
   939d6:	b6 20       	swi450 $r1,[$r0]
   939d8:	46 00 08 00 	sethi $r0,#0x800
   939dc:	84 20       	movi55 $r1,#0
   939de:	49 00 19 06 	jal 96bea <DRV_PinMux_SigSet>
   939e2:	84 00       	movi55 $r0,#0
   939e4:	80 26       	mov55 $r1,$r6
   939e6:	49 ff fa 00 	jal 92de6 <Board_SetModuleWorkState>
   939ea:	d5 2a       	j8 93a3e <IR_TimerHandle+0x162>
   939ec:	3e 1f c2 18 	addi.gp $r1,#-15848
   939f0:	a0 8b       	lwi333 $r2,[$r1+#0xc]
   939f2:	46 00 02 22 	sethi $r0,#0x222
   939f6:	58 00 00 00 	ori $r0,$r0,#0x0
   939fa:	5a 28 01 0d 	bnec $r2,#1,93a14 <IR_TimerHandle+0x138>
   939fe:	84 40       	movi55 $r2,#0
   93a00:	a8 8b       	swi333 $r2,[$r1+#0xc]
   93a02:	84 5b       	movi55 $r2,#-5
   93a04:	a0 45       	lwi333 $r1,[$r0+#0x14]
   93a06:	fe 56       	and33 $r1,$r2
   93a08:	a8 45       	swi333 $r1,[$r0+#0x14]
   93a0a:	a0 41       	lwi333 $r1,[$r0+#0x4]
   93a0c:	58 10 80 01 	ori $r1,$r1,#0x1
   93a10:	a8 41       	swi333 $r1,[$r0+#0x4]
   93a12:	d5 07       	j8 93a20 <IR_TimerHandle+0x144>
   93a14:	84 41       	movi55 $r2,#1
   93a16:	a8 8b       	swi333 $r2,[$r1+#0xc]
   93a18:	a0 45       	lwi333 $r1,[$r0+#0x14]
   93a1a:	58 10 80 04 	ori $r1,$r1,#0x4
   93a1e:	a8 45       	swi333 $r1,[$r0+#0x14]
   93a20:	3e 0f c2 18 	addi.gp $r0,#-15848
   93a24:	a0 43       	lwi333 $r1,[$r0+#0xc]
   93a26:	84 41       	movi55 $r2,#1
   93a28:	94 4a       	slli333 $r1,$r1,#2
   93a2a:	98 48       	add333 $r1,$r1,$r0
   93a2c:	a0 49       	lwi333 $r1,[$r1+#0x4]
   93a2e:	84 03       	movi55 $r0,#3
   93a30:	84 60       	movi55 $r3,#0
   93a32:	46 40 00 93 	sethi $r4,#0x93
   93a36:	58 42 08 dc 	ori $r4,$r4,#0x8dc
   93a3a:	49 00 1b f3 	jal 97220 <DRV_TMR32B0_NotifyEnable>
   93a3e:	fc 80       	pop25 $r6,#0x0    ! {$r6, $fp, $gp, $lp}

00093a40 <IRTX_Init>:
   93a40:	fc 00       	push25 $r6,#0x0    ! {$r6, $fp, $gp, $lp}
   93a42:	46 00 08 00 	sethi $r0,#0x800
   93a46:	84 20       	movi55 $r1,#0
   93a48:	49 00 14 8e 	jal 96364 <DRV_Gpio_ValSet>
   93a4c:	46 00 08 00 	sethi $r0,#0x800
   93a50:	84 20       	movi55 $r1,#0
   93a52:	49 00 14 78 	jal 96342 <DRV_Gpio_DirSet>
   93a56:	46 00 08 00 	sethi $r0,#0x800
   93a5a:	84 22       	movi55 $r1,#2
   93a5c:	49 00 14 a2 	jal 963a0 <DRV_Gpio_PullSet>
   93a60:	46 00 02 22 	sethi $r0,#0x222
   93a64:	58 00 00 00 	ori $r0,$r0,#0x0
   93a68:	84 20       	movi55 $r1,#0
   93a6a:	a8 43       	swi333 $r1,[$r0+#0xc]
   93a6c:	44 10 00 8b 	movi $r1,#139
   93a70:	a8 46       	swi333 $r1,[$r0+#0x18]
   93a72:	44 10 01 a4 	movi $r1,#420
   93a76:	14 10 00 10 	swi $r1,[$r0+#0x40]
   93a7a:	44 2f ff cf 	movi $r2,#-49
   93a7e:	04 10 00 0f 	lwi $r1,[$r0+#0x3c]
   93a82:	fe 56       	and33 $r1,$r2
   93a84:	58 10 80 10 	ori $r1,$r1,#0x10
   93a88:	14 10 00 0f 	swi $r1,[$r0+#0x3c]
   93a8c:	44 2c ff ff 	movi $r2,#-196609
   93a90:	04 10 00 0f 	lwi $r1,[$r0+#0x3c]
   93a94:	fe 56       	and33 $r1,$r2
   93a96:	44 22 00 00 	movi $r2,#131072
   93a9a:	fe 57       	or33 $r1,$r2
   93a9c:	14 10 00 0f 	swi $r1,[$r0+#0x3c]
   93aa0:	a0 45       	lwi333 $r1,[$r0+#0x14]
   93aa2:	fe 57       	or33 $r1,$r2
   93aa4:	a8 45       	swi333 $r1,[$r0+#0x14]
   93aa6:	fc 80       	pop25 $r6,#0x0    ! {$r6, $fp, $gp, $lp}

00093aa8 <chip_1602_is_vcmd_complete_event>:
   93aa8:	fc 00       	push25 $r6,#0x0    ! {$r6, $fp, $gp, $lp}
   93aaa:	a7 03       	lbi333 $r4,[$r0+#0x3]
   93aac:	a7 42       	lbi333 $r5,[$r0+#0x2]
   93aae:	a6 c4       	lbi333 $r3,[$r0+#0x4]
   93ab0:	a6 85       	lbi333 $r2,[$r0+#0x5]
   93ab2:	40 42 20 08 	slli $r4,$r4,#8
   93ab6:	ff 2f       	or33 $r4,$r5
   93ab8:	40 31 c0 08 	slli $r3,$r3,#16
   93abc:	fe e7       	or33 $r3,$r4
   93abe:	40 21 60 08 	slli $r2,$r2,#24
   93ac2:	fe 9f       	or33 $r2,$r3
   93ac4:	a7 11       	lbi333 $r4,[$r2+#0x1]
   93ac6:	a6 00       	lbi333 $r0,[$r0+#0x0]
   93ac8:	08 51 00 02 	lbi.bi $r5,[$r2],#0x2
   93acc:	96 49       	zeh33 $r1,$r1
   93ace:	a6 d1       	lbi333 $r3,[$r2+#0x1]
   93ad0:	a6 90       	lbi333 $r2,[$r2+#0x0]
   93ad2:	5a 08 ff 11 	bnec $r0,#255,93af4 <chip_1602_is_vcmd_complete_event+0x4c>
   93ad6:	40 42 20 08 	slli $r4,$r4,#8
   93ada:	ff 2f       	or33 $r4,$r5
   93adc:	97 23       	seh33 $r4,$r4
   93ade:	44 00 30 01 	movi $r0,#12289
   93ae2:	4c 40 40 09 	bne $r4,$r0,93af4 <chip_1602_is_vcmd_complete_event+0x4c>
   93ae6:	40 01 a0 08 	slli $r0,$r3,#8
   93aea:	fe 17       	or33 $r0,$r2
   93aec:	fe 0d       	xor33 $r0,$r1
   93aee:	5c 00 00 01 	slti $r0,$r0,#1
   93af2:	d5 02       	j8 93af6 <chip_1602_is_vcmd_complete_event+0x4e>
   93af4:	84 00       	movi55 $r0,#0
   93af6:	fc 80       	pop25 $r6,#0x0    ! {$r6, $fp, $gp, $lp}

00093af8 <chip_1602_is_boot_complete_event>:
   93af8:	fc 00       	push25 $r6,#0x0    ! {$r6, $fp, $gp, $lp}
   93afa:	a7 03       	lbi333 $r4,[$r0+#0x3]
   93afc:	a7 42       	lbi333 $r5,[$r0+#0x2]
   93afe:	a6 84       	lbi333 $r2,[$r0+#0x4]
   93b00:	a6 c5       	lbi333 $r3,[$r0+#0x5]
   93b02:	40 42 20 08 	slli $r4,$r4,#8
   93b06:	ff 2f       	or33 $r4,$r5
   93b08:	40 21 40 08 	slli $r2,$r2,#16
   93b0c:	fe a7       	or33 $r2,$r4
   93b0e:	40 31 e0 08 	slli $r3,$r3,#24
   93b12:	fe d7       	or33 $r3,$r2
   93b14:	a6 81       	lbi333 $r2,[$r0+#0x1]
   93b16:	a6 00       	lbi333 $r0,[$r0+#0x0]
   93b18:	96 49       	zeh33 $r1,$r1
   93b1a:	a7 19       	lbi333 $r4,[$r3+#0x1]
   93b1c:	a7 58       	lbi333 $r5,[$r3+#0x0]
   93b1e:	5a 08 ff 26 	bnec $r0,#255,93b6a <chip_1602_is_boot_complete_event+0x72>
   93b22:	40 42 20 08 	slli $r4,$r4,#8
   93b26:	ff 2f       	or33 $r4,$r5
   93b28:	97 23       	seh33 $r4,$r4
   93b2a:	44 00 30 02 	movi $r0,#12290
   93b2e:	4c 40 40 1e 	bne $r4,$r0,93b6a <chip_1602_is_boot_complete_event+0x72>
   93b32:	9e 92       	subi333 $r2,$r2,#2
   93b34:	9c 1a       	addi333 $r0,$r3,#2
   93b36:	96 90       	zeb33 $r2,$r2
   93b38:	d5 18       	j8 93b68 <chip_1602_is_boot_complete_event+0x70>
   93b3a:	a6 c0       	lbi333 $r3,[$r0+#0x0]
   93b3c:	5a 38 81 0f 	bnec $r3,#129,93b5a <chip_1602_is_boot_complete_event+0x62>
   93b40:	9c c2       	addi333 $r3,$r0,#2
   93b42:	a7 18       	lbi333 $r4,[$r3+#0x0]
   93b44:	5a 48 02 0b 	bnec $r4,#2,93b5a <chip_1602_is_boot_complete_event+0x62>
   93b48:	a7 19       	lbi333 $r4,[$r3+#0x1]
   93b4a:	a6 da       	lbi333 $r3,[$r3+#0x2]
   93b4c:	40 31 a0 08 	slli $r3,$r3,#8
   93b50:	fe e7       	or33 $r3,$r4
   93b52:	4c 30 c0 04 	bne $r3,$r1,93b5a <chip_1602_is_boot_complete_event+0x62>
   93b56:	84 01       	movi55 $r0,#1
   93b58:	d5 0a       	j8 93b6c <chip_1602_is_boot_complete_event+0x74>
   93b5a:	a6 c1       	lbi333 $r3,[$r0+#0x1]
   93b5c:	52 41 ff fe 	subri $r4,$r3,#-2
   93b60:	98 94       	add333 $r2,$r2,$r4
   93b62:	9c da       	addi333 $r3,$r3,#2
   93b64:	96 90       	zeb33 $r2,$r2
   93b66:	98 03       	add333 $r0,$r0,$r3
   93b68:	ca e9       	bnez38 $r2,93b3a <chip_1602_is_boot_complete_event+0x42>
   93b6a:	84 00       	movi55 $r0,#0
   93b6c:	fc 80       	pop25 $r6,#0x0    ! {$r6, $fp, $gp, $lp}

00093b6e <chip_1602_init>:
   93b6e:	fc 00       	push25 $r6,#0x0    ! {$r6, $fp, $gp, $lp}
   93b70:	3c 0f f2 dd 	swi.gp $r0,[+#-13452]
   93b74:	3c 2f f2 e0 	swi.gp $r2,[+#-13440]
   93b78:	97 20       	zeb33 $r4,$r4
   93b7a:	3c 1f f2 de 	swi.gp $r1,[+#-13448]
   93b7e:	c4 09       	beqz38 $r4,93b90 <chip_1602_init+0x22>
   93b80:	b4 43       	lwi450 $r2,[$r3]
   93b82:	3c 2f f2 e1 	swi.gp $r2,[+#-13436]
   93b86:	e6 82       	slti45 $r4,#2
   93b88:	e9 04       	bnezs8 93b90 <chip_1602_init+0x22>
   93b8a:	a0 d9       	lwi333 $r3,[$r3+#0x4]
   93b8c:	3c 3f f2 e2 	swi.gp $r3,[+#-13432]
   93b90:	a0 81       	lwi333 $r2,[$r0+#0x4]
   93b92:	46 10 00 93 	sethi $r1,#0x93
   93b96:	58 10 8b a0 	ori $r1,$r1,#0xba0
   93b9a:	84 01       	movi55 $r0,#1
   93b9c:	dd 22       	jral5 $r2
   93b9e:	fc 80       	pop25 $r6,#0x0    ! {$r6, $fp, $gp, $lp}

00093ba0 <hci_1602_lens_ind_cb>:
   93ba0:	fc 00       	push25 $r6,#0x0    ! {$r6, $fp, $gp, $lp}
   93ba2:	3c 0d f2 dd 	lwi.gp $r0,[+#-13452]
   93ba6:	46 10 00 94 	sethi $r1,#0x94
   93baa:	58 10 86 26 	ori $r1,$r1,#0x626
   93bae:	a0 c4       	lwi333 $r3,[$r0+#0x10]
   93bb0:	96 11       	zeh33 $r0,$r2
   93bb2:	dd 23       	jral5 $r3
   93bb4:	fc 80       	pop25 $r6,#0x0    ! {$r6, $fp, $gp, $lp}

00093bb6 <chip_1602_send_acl_data>:
   93bb6:	fc 21       	push25 $r8,#0x8    ! {$r6~$r8, $fp, $gp, $lp}
   93bb8:	97 c1       	zeh33 $r7,$r0
   93bba:	3e 0f cb 6c 	addi.gp $r0,#-13460
   93bbe:	a4 c0       	lhi333 $r3,[$r0+#0x0]
   93bc0:	85 00       	movi55 $r8,#0
   93bc2:	96 91       	zeh33 $r2,$r2
   93bc4:	12 8f 80 03 	shi $r8,[$sp+#0x6]
   93bc8:	4c 33 80 43 	beq $r3,$r7,93c4e <chip_1602_send_acl_data+0x98>
   93bcc:	a4 c1       	lhi333 $r3,[$r0+#0x2]
   93bce:	4c 33 80 40 	beq $r3,$r7,93c4e <chip_1602_send_acl_data+0x98>
   93bd2:	a4 c2       	lhi333 $r3,[$r0+#0x4]
   93bd4:	4c 33 80 3d 	beq $r3,$r7,93c4e <chip_1602_send_acl_data+0x98>
   93bd8:	a4 03       	lhi333 $r0,[$r0+#0x6]
   93bda:	4c 03 80 3a 	beq $r0,$r7,93c4e <chip_1602_send_acl_data+0x98>
   93bde:	fa 00       	movpi45 $r0,#0x10
   93be0:	49 00 07 61 	jal 94aa2 <malloc>
   93be4:	80 c0       	mov55 $r6,$r0
   93be6:	84 04       	movi55 $r0,#4
   93be8:	b6 06       	swi450 $r0,[$r6]
   93bea:	84 05       	movi55 $r0,#5
   93bec:	ae 35       	sbi333 $r0,[$r6+#0x5]
   93bee:	49 00 07 5a 	jal 94aa2 <malloc>
   93bf2:	40 30 40 09 	srli $r3,$r0,#16
   93bf6:	ac f4       	shi333 $r3,[$r6+#0x8]
   93bf8:	96 81       	zeh33 $r2,$r0
   93bfa:	40 31 c0 08 	slli $r3,$r3,#16
   93bfe:	fa 23       	movpi45 $r1,#0x13
   93c00:	ac b3       	shi333 $r2,[$r6+#0x6]
   93c02:	ae 74       	sbi333 $r1,[$r6+#0x4]
   93c04:	fe 9f       	or33 $r2,$r3
   93c06:	84 21       	movi55 $r1,#1
   93c08:	ae 40       	sbi333 $r1,[$r0+#0x0]
   93c0a:	af d1       	sbi333 $r7,[$r2+#0x1]
   93c0c:	92 e8       	srli45 $r7,#8
   93c0e:	a4 34       	lhi333 $r0,[$r6+#0x8]
   93c10:	a4 b3       	lhi333 $r2,[$r6+#0x6]
   93c12:	40 00 40 08 	slli $r0,$r0,#16
   93c16:	fe 17       	or33 $r0,$r2
   93c18:	af c2       	sbi333 $r7,[$r0+#0x2]
   93c1a:	a4 34       	lhi333 $r0,[$r6+#0x8]
   93c1c:	a4 b3       	lhi333 $r2,[$r6+#0x6]
   93c1e:	40 00 40 08 	slli $r0,$r0,#16
   93c22:	fe 17       	or33 $r0,$r2
   93c24:	ae 43       	sbi333 $r1,[$r0+#0x3]
   93c26:	a4 34       	lhi333 $r0,[$r6+#0x8]
   93c28:	a4 73       	lhi333 $r1,[$r6+#0x6]
   93c2a:	40 00 40 08 	slli $r0,$r0,#16
   93c2e:	fe 0f       	or33 $r0,$r1
   93c30:	10 80 00 04 	sbi $r8,[$r0+#0x4]
   93c34:	3c 1d f2 de 	lwi.gp $r1,[+#-13448]
   93c38:	80 06       	mov55 $r0,$r6
   93c3a:	dd 21       	jral5 $r1
   93c3c:	a4 34       	lhi333 $r0,[$r6+#0x8]
   93c3e:	a4 73       	lhi333 $r1,[$r6+#0x6]
   93c40:	40 00 40 08 	slli $r0,$r0,#16
   93c44:	fe 0f       	or33 $r0,$r1
   93c46:	49 00 06 b5 	jal 949b0 <free>
   93c4a:	80 06       	mov55 $r0,$r6
   93c4c:	d5 10       	j8 93c6c <chip_1602_send_acl_data+0xb6>
   93c4e:	80 07       	mov55 $r0,$r7
   93c50:	80 7f       	mov55 $r3,$sp
   93c52:	50 4f 80 06 	addi $r4,$sp,#6
   93c56:	49 00 30 86 	jal 99d62 <hci_h4_encode_dat>
   93c5a:	c0 0b       	beqz38 $r0,93c70 <chip_1602_send_acl_data+0xba>
   93c5c:	3c 0d f2 dd 	lwi.gp $r0,[+#-13452]
   93c60:	02 1f 80 03 	lhi $r1,[$sp+#0x6]
   93c64:	a0 83       	lwi333 $r2,[$r0+#0xc]
   93c66:	b4 1f       	lwi450 $r0,[$sp]
   93c68:	dd 22       	jral5 $r2
   93c6a:	b4 1f       	lwi450 $r0,[$sp]
   93c6c:	49 00 06 a2 	jal 949b0 <free>
   93c70:	fc a1       	pop25 $r8,#0x8    ! {$r6~$r8, $fp, $gp, $lp}

00093c72 <make_command_complete_ex>:
   93c72:	fc 40       	push25 $r10,#0x0    ! {$r6~$r10, $fp, $gp, $lp}
   93c74:	40 80 00 13 	zeh $r8,$r0
   93c78:	fa 00       	movpi45 $r0,#0x10
   93c7a:	97 d8       	zeb33 $r7,$r3
   93c7c:	81 22       	mov55 $r9,$r2
   93c7e:	54 a0 80 ff 	andi $r10,$r1,#0xff
   93c82:	49 00 07 10 	jal 94aa2 <malloc>
   93c86:	80 c0       	mov55 $r6,$r0
   93c88:	84 04       	movi55 $r0,#4
   93c8a:	b6 06       	swi450 $r0,[$r6]
   93c8c:	98 38       	add333 $r0,$r7,$r0
   93c8e:	ae 35       	sbi333 $r0,[$r6+#0x5]
   93c90:	49 00 07 09 	jal 94aa2 <malloc>
   93c94:	40 40 40 09 	srli $r4,$r0,#16
   93c98:	ad 34       	shi333 $r4,[$r6+#0x8]
   93c9a:	96 c1       	zeh33 $r3,$r0
   93c9c:	40 42 40 08 	slli $r4,$r4,#16
   93ca0:	84 2e       	movi55 $r1,#14
   93ca2:	ac f3       	shi333 $r3,[$r6+#0x6]
   93ca4:	ae 74       	sbi333 $r1,[$r6+#0x4]
   93ca6:	fe e7       	or33 $r3,$r4
   93ca8:	84 21       	movi55 $r1,#1
   93caa:	ae 40       	sbi333 $r1,[$r0+#0x0]
   93cac:	10 81 80 01 	sbi $r8,[$r3+#0x1]
   93cb0:	93 08       	srli45 $r8,#8
   93cb2:	a4 34       	lhi333 $r0,[$r6+#0x8]
   93cb4:	a4 73       	lhi333 $r1,[$r6+#0x6]
   93cb6:	40 00 40 08 	slli $r0,$r0,#16
   93cba:	fe 0f       	or33 $r0,$r1
   93cbc:	10 80 00 02 	sbi $r8,[$r0+#0x2]
   93cc0:	80 47       	mov55 $r2,$r7
   93cc2:	a4 34       	lhi333 $r0,[$r6+#0x8]
   93cc4:	a4 73       	lhi333 $r1,[$r6+#0x6]
   93cc6:	40 00 40 08 	slli $r0,$r0,#16
   93cca:	fe 0f       	or33 $r0,$r1
   93ccc:	10 a0 00 03 	sbi $r10,[$r0+#0x3]
   93cd0:	a4 34       	lhi333 $r0,[$r6+#0x8]
   93cd2:	a4 73       	lhi333 $r1,[$r6+#0x6]
   93cd4:	40 00 40 08 	slli $r0,$r0,#16
   93cd8:	fe 0f       	or33 $r0,$r1
   93cda:	9c 04       	addi333 $r0,$r0,#4
   93cdc:	80 29       	mov55 $r1,$r9
   93cde:	49 ff f0 e1 	jal 91ea0 <memcpy>
   93ce2:	80 06       	mov55 $r0,$r6
   93ce4:	fc c0       	pop25 $r10,#0x0    ! {$r6~$r10, $fp, $gp, $lp}

00093ce6 <make_command_complete>:
   93ce6:	fc 00       	push25 $r6,#0x0    ! {$r6, $fp, $gp, $lp}
   93ce8:	84 40       	movi55 $r2,#0
   93cea:	96 48       	zeb33 $r1,$r1
   93cec:	80 62       	mov55 $r3,$r2
   93cee:	96 01       	zeh33 $r0,$r0
   93cf0:	49 ff ff c1 	jal 93c72 <make_command_complete_ex>
   93cf4:	fc 80       	pop25 $r6,#0x0    ! {$r6, $fp, $gp, $lp}

00093cf6 <chip_1602_check_chip_cmd_permission>:
   93cf6:	fc 20       	push25 $r8,#0x0    ! {$r6~$r8, $fp, $gp, $lp}
   93cf8:	2e 17 cb 7c 	lbi.gp $r1,[+#-13444]
   93cfc:	96 01       	zeh33 $r0,$r0
   93cfe:	5a 18 05 04 	bnec $r1,#5,93d06 <chip_1602_check_chip_cmd_permission+0x10>
   93d02:	84 01       	movi55 $r0,#1
   93d04:	d5 13       	j8 93d2a <chip_1602_check_chip_cmd_permission+0x34>
   93d06:	3c 7d f2 de 	lwi.gp $r7,[+#-13448]
   93d0a:	fa 3b       	movpi45 $r1,#0x2b
   93d0c:	49 ff ff ed 	jal 93ce6 <make_command_complete>
   93d10:	80 c0       	mov55 $r6,$r0
   93d12:	dd 27       	jral5 $r7
   93d14:	a4 34       	lhi333 $r0,[$r6+#0x8]
   93d16:	a4 73       	lhi333 $r1,[$r6+#0x6]
   93d18:	40 00 40 08 	slli $r0,$r0,#16
   93d1c:	fe 0f       	or33 $r0,$r1
   93d1e:	49 00 06 49 	jal 949b0 <free>
   93d22:	80 06       	mov55 $r0,$r6
   93d24:	49 00 06 46 	jal 949b0 <free>
   93d28:	84 00       	movi55 $r0,#0
   93d2a:	fc a0       	pop25 $r8,#0x0    ! {$r6~$r8, $fp, $gp, $lp}

00093d2c <chip_1602_send_hci_command>:
   93d2c:	fc 25       	push25 $r8,#0x28    ! {$r6~$r8, $fp, $gp, $lp}
   93d2e:	97 81       	zeh33 $r6,$r0
   93d30:	84 00       	movi55 $r0,#0
   93d32:	12 0f 80 13 	shi $r0,[$sp+#0x26]
   93d36:	44 00 40 01 	movi $r0,#16385
   93d3a:	80 e1       	mov55 $r7,$r1
   93d3c:	96 90       	zeb33 $r2,$r2
   93d3e:	4c 60 00 48 	beq $r6,$r0,93dce <chip_1602_send_hci_command+0xa2>
   93d42:	e2 06       	slt45 $r0,$r6
   93d44:	e9 0a       	bnezs8 93d58 <chip_1602_send_hci_command+0x2c>
   93d46:	44 00 20 02 	movi $r0,#8194
   93d4a:	4c 60 00 8c 	beq $r6,$r0,93e62 <chip_1602_send_hci_command+0x136>
   93d4e:	44 00 40 00 	movi $r0,#16384
   93d52:	4c 60 40 a2 	bne $r6,$r0,93e96 <chip_1602_send_hci_command+0x16a>
   93d56:	d5 09       	j8 93d68 <chip_1602_send_hci_command+0x3c>
   93d58:	9c 01       	addi333 $r0,$r0,#1
   93d5a:	4c 60 00 25 	beq $r6,$r0,93da4 <chip_1602_send_hci_command+0x78>
   93d5e:	9c 01       	addi333 $r0,$r0,#1
   93d60:	4c 60 40 9b 	bne $r6,$r0,93e96 <chip_1602_send_hci_command+0x16a>
   93d64:	48 00 00 73 	j 93e4a <chip_1602_send_hci_command+0x11e>
   93d68:	80 06       	mov55 $r0,$r6
   93d6a:	49 ff ff c6 	jal 93cf6 <chip_1602_check_chip_cmd_permission>
   93d6e:	4e 02 00 a5 	beqz $r0,93eb8 <chip_1602_send_hci_command+0x18c>
   93d72:	b1 85       	addri36.sp $r6,#0x14
   93d74:	84 0e       	movi55 $r0,#14
   93d76:	ae 30       	sbi333 $r0,[$r6+#0x0]
   93d78:	44 00 00 31 	movi $r0,#49
   93d7c:	ae 31       	sbi333 $r0,[$r6+#0x1]
   93d7e:	44 0f ff b4 	movi $r0,#-76
   93d82:	ae 32       	sbi333 $r0,[$r6+#0x2]
   93d84:	85 06       	movi55 $r8,#6
   93d86:	8c 10       	addi45 $r0,#16
   93d88:	ae 33       	sbi333 $r0,[$r6+#0x3]
   93d8a:	10 83 00 04 	sbi $r8,[$r6+#0x4]
   93d8e:	80 27       	mov55 $r1,$r7
   93d90:	84 46       	movi55 $r2,#6
   93d92:	50 0f 80 19 	addi $r0,$sp,#25
   93d96:	49 ff f0 85 	jal 91ea0 <memcpy>
   93d9a:	3e 87 cb 7c 	sbi.gp $r8,[+#-13444]
   93d9e:	84 4b       	movi55 $r2,#11
   93da0:	80 e6       	mov55 $r7,$r6
   93da2:	d5 13       	j8 93dc8 <chip_1602_send_hci_command+0x9c>
   93da4:	80 06       	mov55 $r0,$r6
   93da6:	49 ff ff a8 	jal 93cf6 <chip_1602_check_chip_cmd_permission>
   93daa:	4e 02 00 87 	beqz $r0,93eb8 <chip_1602_send_hci_command+0x18c>
   93dae:	46 00 00 a3 	sethi $r0,#0xa3
   93db2:	58 00 0b f4 	ori $r0,$r0,#0xbf4
   93db6:	3a 00 04 00 	lmw.bi $r0,[$r0],$r1,#0x0    ! {$r0~$r1}
   93dba:	b1 c5       	addri36.sp $r7,#0x14
   93dbc:	f0 85       	swi37.sp $r0,[+#0x14]
   93dbe:	ae 7c       	sbi333 $r1,[$r7+#0x4]
   93dc0:	84 27       	movi55 $r1,#7
   93dc2:	3e 17 cb 7c 	sbi.gp $r1,[+#-13444]
   93dc6:	84 45       	movi55 $r2,#5
   93dc8:	44 60 fc 00 	movi $r6,#64512
   93dcc:	d5 65       	j8 93e96 <chip_1602_send_hci_command+0x16a>
   93dce:	46 00 00 a3 	sethi $r0,#0xa3
   93dd2:	58 00 0b e8 	ori $r0,$r0,#0xbe8
   93dd6:	3a 00 08 00 	lmw.bi $r0,[$r0],$r2,#0x0    ! {$r0~$r2}
   93dda:	b0 c5       	addri36.sp $r3,#0x14
   93ddc:	50 8f 80 04 	addi $r8,$sp,#4
   93de0:	3a 01 84 24 	smw.bim $r0,[$r3],$r1,#0x0    ! {$r0~$r1}
   93de4:	46 00 00 a3 	sethi $r0,#0xa3
   93de8:	58 00 0b d8 	ori $r0,$r0,#0xbd8
   93dec:	80 88       	mov55 $r4,$r8
   93dee:	ac 98       	shi333 $r2,[$r3+#0x0]
   93df0:	3a 00 0c 00 	lmw.bi $r0,[$r0],$r3,#0x0    ! {$r0~$r3}
   93df4:	3a 02 08 24 	smw.bim $r0,[$r4],$r2,#0x0    ! {$r0~$r2}
   93df8:	80 06       	mov55 $r0,$r6
   93dfa:	ac e0       	shi333 $r3,[$r4+#0x0]
   93dfc:	49 ff ff 7d 	jal 93cf6 <chip_1602_check_chip_cmd_permission>
   93e00:	c0 5c       	beqz38 $r0,93eb8 <chip_1602_send_hci_command+0x18c>
   93e02:	a6 38       	lbi333 $r0,[$r7+#0x0]
   93e04:	96 82       	seb33 $r2,$r0
   93e06:	50 00 00 21 	addi $r0,$r0,#33
   93e0a:	96 00       	zeb33 $r0,$r0
   93e0c:	5c f0 00 22 	slti $r15,$r0,#34
   93e10:	e9 08       	bnezs8 93e20 <chip_1602_send_hci_command+0xf4>
   93e12:	3c 7d f2 de 	lwi.gp $r7,[+#-13448]
   93e16:	fa 22       	movpi45 $r1,#0x12
   93e18:	80 06       	mov55 $r0,$r6
   93e1a:	49 ff ff 66 	jal 93ce6 <make_command_complete>
   93e1e:	d5 31       	j8 93e80 <chip_1602_send_hci_command+0x154>
   93e20:	80 28       	mov55 $r1,$r8
   93e22:	84 00       	movi55 $r0,#0
   93e24:	20 30 80 00 	lbsi $r3,[$r1+#0x0]
   93e28:	e0 62       	slts45 $r3,$r2
   93e2a:	e8 06       	beqzs8 93e36 <chip_1602_send_hci_command+0x10a>
   93e2c:	9c 01       	addi333 $r0,$r0,#1
   93e2e:	96 00       	zeb33 $r0,$r0
   93e30:	9c 49       	addi333 $r1,$r1,#1
   93e32:	5a 08 0e f9 	bnec $r0,#14,93e24 <chip_1602_send_hci_command+0xf8>
   93e36:	b1 c5       	addri36.sp $r7,#0x14
   93e38:	10 03 80 08 	sbi $r0,[$r7+#0x8]
   93e3c:	ae 3f       	sbi333 $r0,[$r7+#0x7]
   93e3e:	ae 3e       	sbi333 $r0,[$r7+#0x6]
   93e40:	84 28       	movi55 $r1,#8
   93e42:	3e 17 cb 7c 	sbi.gp $r1,[+#-13444]
   93e46:	84 4a       	movi55 $r2,#10
   93e48:	d5 c0       	j8 93dc8 <chip_1602_send_hci_command+0x9c>
   93e4a:	b1 c5       	addri36.sp $r7,#0x14
   93e4c:	fa 07       	movpi45 $r0,#0x17
   93e4e:	ae 38       	sbi333 $r0,[$r7+#0x0]
   93e50:	8c 1a       	addi45 $r0,#26
   93e52:	ae 39       	sbi333 $r0,[$r7+#0x1]
   93e54:	84 43       	movi55 $r2,#3
   93e56:	50 0f 80 16 	addi $r0,$sp,#22
   93e5a:	49 ff f0 23 	jal 91ea0 <memcpy>
   93e5e:	84 29       	movi55 $r1,#9
   93e60:	d5 b1       	j8 93dc2 <chip_1602_send_hci_command+0x96>
   93e62:	46 f0 00 a3 	sethi $r15,#0xa3
   93e66:	04 07 82 f5 	lwi $r0,[$r15+#0xbd4]
   93e6a:	b0 85       	addri36.sp $r2,#0x14
   93e6c:	ac 10       	shi333 $r0,[$r2+#0x0]
   93e6e:	92 10       	srli45 $r0,#16
   93e70:	ae 12       	sbi333 $r0,[$r2+#0x2]
   93e72:	3c 7d f2 de 	lwi.gp $r7,[+#-13448]
   93e76:	84 20       	movi55 $r1,#0
   93e78:	80 06       	mov55 $r0,$r6
   93e7a:	84 63       	movi55 $r3,#3
   93e7c:	49 ff fe fb 	jal 93c72 <make_command_complete_ex>
   93e80:	80 c0       	mov55 $r6,$r0
   93e82:	dd 27       	jral5 $r7
   93e84:	a4 34       	lhi333 $r0,[$r6+#0x8]
   93e86:	a4 73       	lhi333 $r1,[$r6+#0x6]
   93e88:	40 00 40 08 	slli $r0,$r0,#16
   93e8c:	fe 0f       	or33 $r0,$r1
   93e8e:	49 00 05 91 	jal 949b0 <free>
   93e92:	80 06       	mov55 $r0,$r6
   93e94:	d5 10       	j8 93eb4 <chip_1602_send_hci_command+0x188>
   93e96:	fd 03       	movd44 $r0,$r6
   93e98:	b0 c8       	addri36.sp $r3,#0x20
   93e9a:	50 4f 80 26 	addi $r4,$sp,#38
   93e9e:	49 00 2f 83 	jal 99da4 <hci_h4_encode_cmd>
   93ea2:	c0 0b       	beqz38 $r0,93eb8 <chip_1602_send_hci_command+0x18c>
   93ea4:	3c 0d f2 dd 	lwi.gp $r0,[+#-13452]
   93ea8:	02 1f 80 13 	lhi $r1,[$sp+#0x26]
   93eac:	a0 83       	lwi333 $r2,[$r0+#0xc]
   93eae:	f0 08       	lwi37.sp $r0,[+#0x20]
   93eb0:	dd 22       	jral5 $r2
   93eb2:	f0 08       	lwi37.sp $r0,[+#0x20]
   93eb4:	49 00 05 7e 	jal 949b0 <free>
   93eb8:	fc a5       	pop25 $r8,#0x28    ! {$r6~$r8, $fp, $gp, $lp}

00093eba <chip_1602_init_adopt_mp>:
   93eba:	fc 42       	push25 $r10,#0x10    ! {$r6~$r10, $fp, $gp, $lp}
   93ebc:	80 e0       	mov55 $r7,$r0
   93ebe:	46 00 00 a3 	sethi $r0,#0xa3
   93ec2:	58 00 0c a8 	ori $r0,$r0,#0xca8
   93ec6:	3a 00 04 00 	lmw.bi $r0,[$r0],$r1,#0x0    ! {$r0~$r1}
   93eca:	12 1f 80 06 	shi $r1,[$sp+#0xc]
   93ece:	92 30       	srli45 $r1,#16
   93ed0:	f0 82       	swi37.sp $r0,[+#0x8]
   93ed2:	10 1f 80 0e 	sbi $r1,[$sp+#0xe]
   93ed6:	cf 33       	bnez38 $r7,93f3c <chip_1602_init_adopt_mp+0x82>
   93ed8:	47 c0 01 00 	sethi $fp,#0x100
   93edc:	3c 0d f2 e1 	lwi.gp $r0,[+#-13436]
   93ee0:	4e 02 00 82 	beqz $r0,93fe4 <chip_1602_init_adopt_mp+0x12a>
   93ee4:	00 80 00 00 	lbi $r8,[$r0+#0x0]
   93ee8:	e7 15       	slti45 $r8,#21
   93eea:	4e f2 00 7d 	beqz $r15,93fe4 <chip_1602_init_adopt_mp+0x12a>
   93eee:	85 43       	movi55 $r10,#3
   93ef0:	50 94 00 01 	addi $r9,$r8,#1
   93ef4:	42 04 a8 24 	mul $r0,$r9,$r10
   93ef8:	49 00 05 d5 	jal 94aa2 <malloc>
   93efc:	80 c0       	mov55 $r6,$r0
